ARM GAS  /var/folders/b4/k4jbz0ms4wg23jtq0w6p483m0000gn/T//ccwZ2VjF.s 			page 1


   1              		.cpu cortex-m4
   2              		.arch armv7e-m
   3              		.fpu softvfp
   4              		.eabi_attribute 20, 1
   5              		.eabi_attribute 21, 1
   6              		.eabi_attribute 23, 3
   7              		.eabi_attribute 24, 1
   8              		.eabi_attribute 25, 1
   9              		.eabi_attribute 26, 1
  10              		.eabi_attribute 30, 4
  11              		.eabi_attribute 34, 1
  12              		.eabi_attribute 18, 4
  13              		.file	"lfs.c"
  14              		.text
  15              	.Ltext0:
  16              		.cfi_sections	.debug_frame
  17              		.section	.text.lfs_pair_isnull,"ax",%progbits
  18              		.align	1
  19              		.syntax unified
  20              		.thumb
  21              		.thumb_func
  23              	lfs_pair_isnull:
  24              	.LVL0:
  25              	.LFB26:
  26              		.file 1 "libraries/littlefs/lfs.c"
   1:libraries/littlefs/lfs.c **** /*
   2:libraries/littlefs/lfs.c ****  * The little filesystem
   3:libraries/littlefs/lfs.c ****  *
   4:libraries/littlefs/lfs.c ****  * Copyright (c) 2022, The littlefs authors.
   5:libraries/littlefs/lfs.c ****  * Copyright (c) 2017, Arm Limited. All rights reserved.
   6:libraries/littlefs/lfs.c ****  * SPDX-License-Identifier: BSD-3-Clause
   7:libraries/littlefs/lfs.c ****  */
   8:libraries/littlefs/lfs.c **** #include "lfs.h"
   9:libraries/littlefs/lfs.c **** #include "lfs_util.h"
  10:libraries/littlefs/lfs.c **** 
  11:libraries/littlefs/lfs.c **** 
  12:libraries/littlefs/lfs.c **** // some constants used throughout the code
  13:libraries/littlefs/lfs.c **** #define LFS_BLOCK_NULL ((lfs_block_t)-1)
  14:libraries/littlefs/lfs.c **** #define LFS_BLOCK_INLINE ((lfs_block_t)-2)
  15:libraries/littlefs/lfs.c **** 
  16:libraries/littlefs/lfs.c **** enum {
  17:libraries/littlefs/lfs.c ****     LFS_OK_RELOCATED = 1,
  18:libraries/littlefs/lfs.c ****     LFS_OK_DROPPED   = 2,
  19:libraries/littlefs/lfs.c ****     LFS_OK_ORPHANED  = 3,
  20:libraries/littlefs/lfs.c **** };
  21:libraries/littlefs/lfs.c **** 
  22:libraries/littlefs/lfs.c **** enum {
  23:libraries/littlefs/lfs.c ****     LFS_CMP_EQ = 0,
  24:libraries/littlefs/lfs.c ****     LFS_CMP_LT = 1,
  25:libraries/littlefs/lfs.c ****     LFS_CMP_GT = 2,
  26:libraries/littlefs/lfs.c **** };
  27:libraries/littlefs/lfs.c **** 
  28:libraries/littlefs/lfs.c **** 
  29:libraries/littlefs/lfs.c **** /// Caching block device operations ///
  30:libraries/littlefs/lfs.c **** 
  31:libraries/littlefs/lfs.c **** static inline void lfs_cache_drop(lfs_t *lfs, lfs_cache_t *rcache) {
  32:libraries/littlefs/lfs.c ****     // do not zero, cheaper if cache is readonly or only going to be
ARM GAS  /var/folders/b4/k4jbz0ms4wg23jtq0w6p483m0000gn/T//ccwZ2VjF.s 			page 2


  33:libraries/littlefs/lfs.c ****     // written with identical data (during relocates)
  34:libraries/littlefs/lfs.c ****     (void)lfs;
  35:libraries/littlefs/lfs.c ****     rcache->block = LFS_BLOCK_NULL;
  36:libraries/littlefs/lfs.c **** }
  37:libraries/littlefs/lfs.c **** 
  38:libraries/littlefs/lfs.c **** static inline void lfs_cache_zero(lfs_t *lfs, lfs_cache_t *pcache) {
  39:libraries/littlefs/lfs.c ****     // zero to avoid information leak
  40:libraries/littlefs/lfs.c ****     memset(pcache->buffer, 0xff, lfs->cfg->cache_size);
  41:libraries/littlefs/lfs.c ****     pcache->block = LFS_BLOCK_NULL;
  42:libraries/littlefs/lfs.c **** }
  43:libraries/littlefs/lfs.c **** 
  44:libraries/littlefs/lfs.c **** static int lfs_bd_read(lfs_t *lfs,
  45:libraries/littlefs/lfs.c ****         const lfs_cache_t *pcache, lfs_cache_t *rcache, lfs_size_t hint,
  46:libraries/littlefs/lfs.c ****         lfs_block_t block, lfs_off_t off,
  47:libraries/littlefs/lfs.c ****         void *buffer, lfs_size_t size) {
  48:libraries/littlefs/lfs.c ****     uint8_t *data = buffer;
  49:libraries/littlefs/lfs.c ****     if (block >= lfs->cfg->block_count ||
  50:libraries/littlefs/lfs.c ****             off+size > lfs->cfg->block_size) {
  51:libraries/littlefs/lfs.c ****         return LFS_ERR_CORRUPT;
  52:libraries/littlefs/lfs.c ****     }
  53:libraries/littlefs/lfs.c **** 
  54:libraries/littlefs/lfs.c ****     while (size > 0) {
  55:libraries/littlefs/lfs.c ****         lfs_size_t diff = size;
  56:libraries/littlefs/lfs.c **** 
  57:libraries/littlefs/lfs.c ****         if (pcache && block == pcache->block &&
  58:libraries/littlefs/lfs.c ****                 off < pcache->off + pcache->size) {
  59:libraries/littlefs/lfs.c ****             if (off >= pcache->off) {
  60:libraries/littlefs/lfs.c ****                 // is already in pcache?
  61:libraries/littlefs/lfs.c ****                 diff = lfs_min(diff, pcache->size - (off-pcache->off));
  62:libraries/littlefs/lfs.c ****                 memcpy(data, &pcache->buffer[off-pcache->off], diff);
  63:libraries/littlefs/lfs.c **** 
  64:libraries/littlefs/lfs.c ****                 data += diff;
  65:libraries/littlefs/lfs.c ****                 off += diff;
  66:libraries/littlefs/lfs.c ****                 size -= diff;
  67:libraries/littlefs/lfs.c ****                 continue;
  68:libraries/littlefs/lfs.c ****             }
  69:libraries/littlefs/lfs.c **** 
  70:libraries/littlefs/lfs.c ****             // pcache takes priority
  71:libraries/littlefs/lfs.c ****             diff = lfs_min(diff, pcache->off-off);
  72:libraries/littlefs/lfs.c ****         }
  73:libraries/littlefs/lfs.c **** 
  74:libraries/littlefs/lfs.c ****         if (block == rcache->block &&
  75:libraries/littlefs/lfs.c ****                 off < rcache->off + rcache->size) {
  76:libraries/littlefs/lfs.c ****             if (off >= rcache->off) {
  77:libraries/littlefs/lfs.c ****                 // is already in rcache?
  78:libraries/littlefs/lfs.c ****                 diff = lfs_min(diff, rcache->size - (off-rcache->off));
  79:libraries/littlefs/lfs.c ****                 memcpy(data, &rcache->buffer[off-rcache->off], diff);
  80:libraries/littlefs/lfs.c **** 
  81:libraries/littlefs/lfs.c ****                 data += diff;
  82:libraries/littlefs/lfs.c ****                 off += diff;
  83:libraries/littlefs/lfs.c ****                 size -= diff;
  84:libraries/littlefs/lfs.c ****                 continue;
  85:libraries/littlefs/lfs.c ****             }
  86:libraries/littlefs/lfs.c **** 
  87:libraries/littlefs/lfs.c ****             // rcache takes priority
  88:libraries/littlefs/lfs.c ****             diff = lfs_min(diff, rcache->off-off);
  89:libraries/littlefs/lfs.c ****         }
ARM GAS  /var/folders/b4/k4jbz0ms4wg23jtq0w6p483m0000gn/T//ccwZ2VjF.s 			page 3


  90:libraries/littlefs/lfs.c **** 
  91:libraries/littlefs/lfs.c ****         if (size >= hint && off % lfs->cfg->read_size == 0 &&
  92:libraries/littlefs/lfs.c ****                 size >= lfs->cfg->read_size) {
  93:libraries/littlefs/lfs.c ****             // bypass cache?
  94:libraries/littlefs/lfs.c ****             diff = lfs_aligndown(diff, lfs->cfg->read_size);
  95:libraries/littlefs/lfs.c ****             int err = lfs->cfg->read(lfs->cfg, block, off, data, diff);
  96:libraries/littlefs/lfs.c ****             if (err) {
  97:libraries/littlefs/lfs.c ****                 return err;
  98:libraries/littlefs/lfs.c ****             }
  99:libraries/littlefs/lfs.c **** 
 100:libraries/littlefs/lfs.c ****             data += diff;
 101:libraries/littlefs/lfs.c ****             off += diff;
 102:libraries/littlefs/lfs.c ****             size -= diff;
 103:libraries/littlefs/lfs.c ****             continue;
 104:libraries/littlefs/lfs.c ****         }
 105:libraries/littlefs/lfs.c **** 
 106:libraries/littlefs/lfs.c ****         // load to cache, first condition can no longer fail
 107:libraries/littlefs/lfs.c ****         LFS_ASSERT(block < lfs->cfg->block_count);
 108:libraries/littlefs/lfs.c ****         rcache->block = block;
 109:libraries/littlefs/lfs.c ****         rcache->off = lfs_aligndown(off, lfs->cfg->read_size);
 110:libraries/littlefs/lfs.c ****         rcache->size = lfs_min(
 111:libraries/littlefs/lfs.c ****                 lfs_min(
 112:libraries/littlefs/lfs.c ****                     lfs_alignup(off+hint, lfs->cfg->read_size),
 113:libraries/littlefs/lfs.c ****                     lfs->cfg->block_size)
 114:libraries/littlefs/lfs.c ****                 - rcache->off,
 115:libraries/littlefs/lfs.c ****                 lfs->cfg->cache_size);
 116:libraries/littlefs/lfs.c ****         int err = lfs->cfg->read(lfs->cfg, rcache->block,
 117:libraries/littlefs/lfs.c ****                 rcache->off, rcache->buffer, rcache->size);
 118:libraries/littlefs/lfs.c ****         LFS_ASSERT(err <= 0);
 119:libraries/littlefs/lfs.c ****         if (err) {
 120:libraries/littlefs/lfs.c ****             return err;
 121:libraries/littlefs/lfs.c ****         }
 122:libraries/littlefs/lfs.c ****     }
 123:libraries/littlefs/lfs.c **** 
 124:libraries/littlefs/lfs.c ****     return 0;
 125:libraries/littlefs/lfs.c **** }
 126:libraries/littlefs/lfs.c **** 
 127:libraries/littlefs/lfs.c **** static int lfs_bd_cmp(lfs_t *lfs,
 128:libraries/littlefs/lfs.c ****         const lfs_cache_t *pcache, lfs_cache_t *rcache, lfs_size_t hint,
 129:libraries/littlefs/lfs.c ****         lfs_block_t block, lfs_off_t off,
 130:libraries/littlefs/lfs.c ****         const void *buffer, lfs_size_t size) {
 131:libraries/littlefs/lfs.c ****     const uint8_t *data = buffer;
 132:libraries/littlefs/lfs.c ****     lfs_size_t diff = 0;
 133:libraries/littlefs/lfs.c **** 
 134:libraries/littlefs/lfs.c ****     for (lfs_off_t i = 0; i < size; i += diff) {
 135:libraries/littlefs/lfs.c ****         uint8_t dat[8];
 136:libraries/littlefs/lfs.c **** 
 137:libraries/littlefs/lfs.c ****         diff = lfs_min(size-i, sizeof(dat));
 138:libraries/littlefs/lfs.c ****         int res = lfs_bd_read(lfs,
 139:libraries/littlefs/lfs.c ****                 pcache, rcache, hint-i,
 140:libraries/littlefs/lfs.c ****                 block, off+i, &dat, diff);
 141:libraries/littlefs/lfs.c ****         if (res) {
 142:libraries/littlefs/lfs.c ****             return res;
 143:libraries/littlefs/lfs.c ****         }
 144:libraries/littlefs/lfs.c **** 
 145:libraries/littlefs/lfs.c ****         res = memcmp(dat, data + i, diff);
 146:libraries/littlefs/lfs.c ****         if (res) {
ARM GAS  /var/folders/b4/k4jbz0ms4wg23jtq0w6p483m0000gn/T//ccwZ2VjF.s 			page 4


 147:libraries/littlefs/lfs.c ****             return res < 0 ? LFS_CMP_LT : LFS_CMP_GT;
 148:libraries/littlefs/lfs.c ****         }
 149:libraries/littlefs/lfs.c ****     }
 150:libraries/littlefs/lfs.c **** 
 151:libraries/littlefs/lfs.c ****     return LFS_CMP_EQ;
 152:libraries/littlefs/lfs.c **** }
 153:libraries/littlefs/lfs.c **** 
 154:libraries/littlefs/lfs.c **** #ifndef LFS_READONLY
 155:libraries/littlefs/lfs.c **** static int lfs_bd_flush(lfs_t *lfs,
 156:libraries/littlefs/lfs.c ****         lfs_cache_t *pcache, lfs_cache_t *rcache, bool validate) {
 157:libraries/littlefs/lfs.c ****     if (pcache->block != LFS_BLOCK_NULL && pcache->block != LFS_BLOCK_INLINE) {
 158:libraries/littlefs/lfs.c ****         LFS_ASSERT(pcache->block < lfs->cfg->block_count);
 159:libraries/littlefs/lfs.c ****         lfs_size_t diff = lfs_alignup(pcache->size, lfs->cfg->prog_size);
 160:libraries/littlefs/lfs.c ****         int err = lfs->cfg->prog(lfs->cfg, pcache->block,
 161:libraries/littlefs/lfs.c ****                 pcache->off, pcache->buffer, diff);
 162:libraries/littlefs/lfs.c ****         LFS_ASSERT(err <= 0);
 163:libraries/littlefs/lfs.c ****         if (err) {
 164:libraries/littlefs/lfs.c ****             return err;
 165:libraries/littlefs/lfs.c ****         }
 166:libraries/littlefs/lfs.c **** 
 167:libraries/littlefs/lfs.c ****         if (validate) {
 168:libraries/littlefs/lfs.c ****             // check data on disk
 169:libraries/littlefs/lfs.c ****             lfs_cache_drop(lfs, rcache);
 170:libraries/littlefs/lfs.c ****             int res = lfs_bd_cmp(lfs,
 171:libraries/littlefs/lfs.c ****                     NULL, rcache, diff,
 172:libraries/littlefs/lfs.c ****                     pcache->block, pcache->off, pcache->buffer, diff);
 173:libraries/littlefs/lfs.c ****             if (res < 0) {
 174:libraries/littlefs/lfs.c ****                 return res;
 175:libraries/littlefs/lfs.c ****             }
 176:libraries/littlefs/lfs.c **** 
 177:libraries/littlefs/lfs.c ****             if (res != LFS_CMP_EQ) {
 178:libraries/littlefs/lfs.c ****                 return LFS_ERR_CORRUPT;
 179:libraries/littlefs/lfs.c ****             }
 180:libraries/littlefs/lfs.c ****         }
 181:libraries/littlefs/lfs.c **** 
 182:libraries/littlefs/lfs.c ****         lfs_cache_zero(lfs, pcache);
 183:libraries/littlefs/lfs.c ****     }
 184:libraries/littlefs/lfs.c **** 
 185:libraries/littlefs/lfs.c ****     return 0;
 186:libraries/littlefs/lfs.c **** }
 187:libraries/littlefs/lfs.c **** #endif
 188:libraries/littlefs/lfs.c **** 
 189:libraries/littlefs/lfs.c **** #ifndef LFS_READONLY
 190:libraries/littlefs/lfs.c **** static int lfs_bd_sync(lfs_t *lfs,
 191:libraries/littlefs/lfs.c ****         lfs_cache_t *pcache, lfs_cache_t *rcache, bool validate) {
 192:libraries/littlefs/lfs.c ****     lfs_cache_drop(lfs, rcache);
 193:libraries/littlefs/lfs.c **** 
 194:libraries/littlefs/lfs.c ****     int err = lfs_bd_flush(lfs, pcache, rcache, validate);
 195:libraries/littlefs/lfs.c ****     if (err) {
 196:libraries/littlefs/lfs.c ****         return err;
 197:libraries/littlefs/lfs.c ****     }
 198:libraries/littlefs/lfs.c **** 
 199:libraries/littlefs/lfs.c ****     err = lfs->cfg->sync(lfs->cfg);
 200:libraries/littlefs/lfs.c ****     LFS_ASSERT(err <= 0);
 201:libraries/littlefs/lfs.c ****     return err;
 202:libraries/littlefs/lfs.c **** }
 203:libraries/littlefs/lfs.c **** #endif
ARM GAS  /var/folders/b4/k4jbz0ms4wg23jtq0w6p483m0000gn/T//ccwZ2VjF.s 			page 5


 204:libraries/littlefs/lfs.c **** 
 205:libraries/littlefs/lfs.c **** #ifndef LFS_READONLY
 206:libraries/littlefs/lfs.c **** static int lfs_bd_prog(lfs_t *lfs,
 207:libraries/littlefs/lfs.c ****         lfs_cache_t *pcache, lfs_cache_t *rcache, bool validate,
 208:libraries/littlefs/lfs.c ****         lfs_block_t block, lfs_off_t off,
 209:libraries/littlefs/lfs.c ****         const void *buffer, lfs_size_t size) {
 210:libraries/littlefs/lfs.c ****     const uint8_t *data = buffer;
 211:libraries/littlefs/lfs.c ****     LFS_ASSERT(block == LFS_BLOCK_INLINE || block < lfs->cfg->block_count);
 212:libraries/littlefs/lfs.c ****     LFS_ASSERT(off + size <= lfs->cfg->block_size);
 213:libraries/littlefs/lfs.c **** 
 214:libraries/littlefs/lfs.c ****     while (size > 0) {
 215:libraries/littlefs/lfs.c ****         if (block == pcache->block &&
 216:libraries/littlefs/lfs.c ****                 off >= pcache->off &&
 217:libraries/littlefs/lfs.c ****                 off < pcache->off + lfs->cfg->cache_size) {
 218:libraries/littlefs/lfs.c ****             // already fits in pcache?
 219:libraries/littlefs/lfs.c ****             lfs_size_t diff = lfs_min(size,
 220:libraries/littlefs/lfs.c ****                     lfs->cfg->cache_size - (off-pcache->off));
 221:libraries/littlefs/lfs.c ****             memcpy(&pcache->buffer[off-pcache->off], data, diff);
 222:libraries/littlefs/lfs.c **** 
 223:libraries/littlefs/lfs.c ****             data += diff;
 224:libraries/littlefs/lfs.c ****             off += diff;
 225:libraries/littlefs/lfs.c ****             size -= diff;
 226:libraries/littlefs/lfs.c **** 
 227:libraries/littlefs/lfs.c ****             pcache->size = lfs_max(pcache->size, off - pcache->off);
 228:libraries/littlefs/lfs.c ****             if (pcache->size == lfs->cfg->cache_size) {
 229:libraries/littlefs/lfs.c ****                 // eagerly flush out pcache if we fill up
 230:libraries/littlefs/lfs.c ****                 int err = lfs_bd_flush(lfs, pcache, rcache, validate);
 231:libraries/littlefs/lfs.c ****                 if (err) {
 232:libraries/littlefs/lfs.c ****                     return err;
 233:libraries/littlefs/lfs.c ****                 }
 234:libraries/littlefs/lfs.c ****             }
 235:libraries/littlefs/lfs.c **** 
 236:libraries/littlefs/lfs.c ****             continue;
 237:libraries/littlefs/lfs.c ****         }
 238:libraries/littlefs/lfs.c **** 
 239:libraries/littlefs/lfs.c ****         // pcache must have been flushed, either by programming and
 240:libraries/littlefs/lfs.c ****         // entire block or manually flushing the pcache
 241:libraries/littlefs/lfs.c ****         LFS_ASSERT(pcache->block == LFS_BLOCK_NULL);
 242:libraries/littlefs/lfs.c **** 
 243:libraries/littlefs/lfs.c ****         // prepare pcache, first condition can no longer fail
 244:libraries/littlefs/lfs.c ****         pcache->block = block;
 245:libraries/littlefs/lfs.c ****         pcache->off = lfs_aligndown(off, lfs->cfg->prog_size);
 246:libraries/littlefs/lfs.c ****         pcache->size = 0;
 247:libraries/littlefs/lfs.c ****     }
 248:libraries/littlefs/lfs.c **** 
 249:libraries/littlefs/lfs.c ****     return 0;
 250:libraries/littlefs/lfs.c **** }
 251:libraries/littlefs/lfs.c **** #endif
 252:libraries/littlefs/lfs.c **** 
 253:libraries/littlefs/lfs.c **** #ifndef LFS_READONLY
 254:libraries/littlefs/lfs.c **** static int lfs_bd_erase(lfs_t *lfs, lfs_block_t block) {
 255:libraries/littlefs/lfs.c ****     LFS_ASSERT(block < lfs->cfg->block_count);
 256:libraries/littlefs/lfs.c ****     int err = lfs->cfg->erase(lfs->cfg, block);
 257:libraries/littlefs/lfs.c ****     LFS_ASSERT(err <= 0);
 258:libraries/littlefs/lfs.c ****     return err;
 259:libraries/littlefs/lfs.c **** }
 260:libraries/littlefs/lfs.c **** #endif
ARM GAS  /var/folders/b4/k4jbz0ms4wg23jtq0w6p483m0000gn/T//ccwZ2VjF.s 			page 6


 261:libraries/littlefs/lfs.c **** 
 262:libraries/littlefs/lfs.c **** 
 263:libraries/littlefs/lfs.c **** /// Small type-level utilities ///
 264:libraries/littlefs/lfs.c **** // operations on block pairs
 265:libraries/littlefs/lfs.c **** static inline void lfs_pair_swap(lfs_block_t pair[2]) {
 266:libraries/littlefs/lfs.c ****     lfs_block_t t = pair[0];
 267:libraries/littlefs/lfs.c ****     pair[0] = pair[1];
 268:libraries/littlefs/lfs.c ****     pair[1] = t;
 269:libraries/littlefs/lfs.c **** }
 270:libraries/littlefs/lfs.c **** 
 271:libraries/littlefs/lfs.c **** static inline bool lfs_pair_isnull(const lfs_block_t pair[2]) {
  27              		.loc 1 271 63 view -0
  28              		.cfi_startproc
  29              		@ args = 0, pretend = 0, frame = 0
  30              		@ frame_needed = 0, uses_anonymous_args = 0
  31              		@ link register save eliminated.
 272:libraries/littlefs/lfs.c ****     return pair[0] == LFS_BLOCK_NULL || pair[1] == LFS_BLOCK_NULL;
  32              		.loc 1 272 5 view .LVU1
  33              		.loc 1 272 38 is_stmt 0 view .LVU2
  34 0000 0368     		ldr	r3, [r0]
  35 0002 0133     		adds	r3, r3, #1
  36 0004 04D0     		beq	.L3
  37              		.loc 1 272 38 discriminator 2 view .LVU3
  38 0006 4068     		ldr	r0, [r0, #4]
  39              	.LVL1:
  40              		.loc 1 272 38 discriminator 2 view .LVU4
  41 0008 431C     		adds	r3, r0, #1
  42 000a 5842     		rsbs	r0, r3, #0
  43 000c 5841     		adcs	r0, r0, r3
  44 000e 7047     		bx	lr
  45              	.LVL2:
  46              	.L3:
  47              		.loc 1 272 38 view .LVU5
  48 0010 0120     		movs	r0, #1
  49              	.LVL3:
 273:libraries/littlefs/lfs.c **** }
  50              		.loc 1 273 1 view .LVU6
  51 0012 7047     		bx	lr
  52              		.cfi_endproc
  53              	.LFE26:
  55              		.section	.text.lfs_pair_cmp,"ax",%progbits
  56              		.align	1
  57              		.syntax unified
  58              		.thumb
  59              		.thumb_func
  61              	lfs_pair_cmp:
  62              	.LVL4:
  63              	.LFB27:
 274:libraries/littlefs/lfs.c **** 
 275:libraries/littlefs/lfs.c **** static inline int lfs_pair_cmp(
 276:libraries/littlefs/lfs.c ****         const lfs_block_t paira[2],
 277:libraries/littlefs/lfs.c ****         const lfs_block_t pairb[2]) {
  64              		.loc 1 277 37 is_stmt 1 view -0
  65              		.cfi_startproc
  66              		@ args = 0, pretend = 0, frame = 0
  67              		@ frame_needed = 0, uses_anonymous_args = 0
 278:libraries/littlefs/lfs.c ****     return !(paira[0] == pairb[0] || paira[1] == pairb[1] ||
ARM GAS  /var/folders/b4/k4jbz0ms4wg23jtq0w6p483m0000gn/T//ccwZ2VjF.s 			page 7


  68              		.loc 1 278 5 view .LVU8
 277:libraries/littlefs/lfs.c ****     return !(paira[0] == pairb[0] || paira[1] == pairb[1] ||
  69              		.loc 1 277 37 is_stmt 0 view .LVU9
  70 0000 10B5     		push	{r4, lr}
  71              	.LCFI0:
  72              		.cfi_def_cfa_offset 8
  73              		.cfi_offset 4, -8
  74              		.cfi_offset 14, -4
  75              		.loc 1 278 31 view .LVU10
  76 0002 0B68     		ldr	r3, [r1]
  77              		.loc 1 278 19 view .LVU11
  78 0004 0468     		ldr	r4, [r0]
  79              		.loc 1 278 12 view .LVU12
  80 0006 9C42     		cmp	r4, r3
  81 0008 09D0     		beq	.L8
  82              		.loc 1 278 43 discriminator 1 view .LVU13
  83 000a 4068     		ldr	r0, [r0, #4]
  84              	.LVL5:
  85              		.loc 1 278 55 discriminator 1 view .LVU14
  86 000c 4A68     		ldr	r2, [r1, #4]
  87              		.loc 1 278 35 discriminator 1 view .LVU15
  88 000e 9042     		cmp	r0, r2
  89 0010 05D0     		beq	.L8
  90              		.loc 1 278 59 discriminator 3 view .LVU16
  91 0012 9442     		cmp	r4, r2
  92 0014 03D0     		beq	.L8
  93              		.loc 1 278 12 discriminator 5 view .LVU17
  94 0016 181A     		subs	r0, r3, r0
  95 0018 18BF     		it	ne
  96 001a 0120     		movne	r0, #1
  97              	.L4:
 279:libraries/littlefs/lfs.c ****              paira[0] == pairb[1] || paira[1] == pairb[0]);
 280:libraries/littlefs/lfs.c **** }
  98              		.loc 1 280 1 view .LVU18
  99 001c 10BD     		pop	{r4, pc}
 100              	.L8:
 278:libraries/littlefs/lfs.c ****              paira[0] == pairb[1] || paira[1] == pairb[0]);
 101              		.loc 1 278 12 view .LVU19
 102 001e 0020     		movs	r0, #0
 103 0020 FCE7     		b	.L4
 104              		.cfi_endproc
 105              	.LFE27:
 107              		.section	.text.lfs_tag_dsize,"ax",%progbits
 108              		.align	1
 109              		.syntax unified
 110              		.thumb
 111              		.thumb_func
 113              	lfs_tag_dsize:
 114              	.LVL6:
 115              	.LFB39:
 281:libraries/littlefs/lfs.c **** 
 282:libraries/littlefs/lfs.c **** #ifndef LFS_READONLY
 283:libraries/littlefs/lfs.c **** static inline bool lfs_pair_sync(
 284:libraries/littlefs/lfs.c ****         const lfs_block_t paira[2],
 285:libraries/littlefs/lfs.c ****         const lfs_block_t pairb[2]) {
 286:libraries/littlefs/lfs.c ****     return (paira[0] == pairb[0] && paira[1] == pairb[1]) ||
 287:libraries/littlefs/lfs.c ****            (paira[0] == pairb[1] && paira[1] == pairb[0]);
ARM GAS  /var/folders/b4/k4jbz0ms4wg23jtq0w6p483m0000gn/T//ccwZ2VjF.s 			page 8


 288:libraries/littlefs/lfs.c **** }
 289:libraries/littlefs/lfs.c **** #endif
 290:libraries/littlefs/lfs.c **** 
 291:libraries/littlefs/lfs.c **** static inline void lfs_pair_fromle32(lfs_block_t pair[2]) {
 292:libraries/littlefs/lfs.c ****     pair[0] = lfs_fromle32(pair[0]);
 293:libraries/littlefs/lfs.c ****     pair[1] = lfs_fromle32(pair[1]);
 294:libraries/littlefs/lfs.c **** }
 295:libraries/littlefs/lfs.c **** 
 296:libraries/littlefs/lfs.c **** #ifndef LFS_READONLY
 297:libraries/littlefs/lfs.c **** static inline void lfs_pair_tole32(lfs_block_t pair[2]) {
 298:libraries/littlefs/lfs.c ****     pair[0] = lfs_tole32(pair[0]);
 299:libraries/littlefs/lfs.c ****     pair[1] = lfs_tole32(pair[1]);
 300:libraries/littlefs/lfs.c **** }
 301:libraries/littlefs/lfs.c **** #endif
 302:libraries/littlefs/lfs.c **** 
 303:libraries/littlefs/lfs.c **** // operations on 32-bit entry tags
 304:libraries/littlefs/lfs.c **** typedef uint32_t lfs_tag_t;
 305:libraries/littlefs/lfs.c **** typedef int32_t lfs_stag_t;
 306:libraries/littlefs/lfs.c **** 
 307:libraries/littlefs/lfs.c **** #define LFS_MKTAG(type, id, size) \
 308:libraries/littlefs/lfs.c ****     (((lfs_tag_t)(type) << 20) | ((lfs_tag_t)(id) << 10) | (lfs_tag_t)(size))
 309:libraries/littlefs/lfs.c **** 
 310:libraries/littlefs/lfs.c **** #define LFS_MKTAG_IF(cond, type, id, size) \
 311:libraries/littlefs/lfs.c ****     ((cond) ? LFS_MKTAG(type, id, size) : LFS_MKTAG(LFS_FROM_NOOP, 0, 0))
 312:libraries/littlefs/lfs.c **** 
 313:libraries/littlefs/lfs.c **** #define LFS_MKTAG_IF_ELSE(cond, type1, id1, size1, type2, id2, size2) \
 314:libraries/littlefs/lfs.c ****     ((cond) ? LFS_MKTAG(type1, id1, size1) : LFS_MKTAG(type2, id2, size2))
 315:libraries/littlefs/lfs.c **** 
 316:libraries/littlefs/lfs.c **** static inline bool lfs_tag_isvalid(lfs_tag_t tag) {
 317:libraries/littlefs/lfs.c ****     return !(tag & 0x80000000);
 318:libraries/littlefs/lfs.c **** }
 319:libraries/littlefs/lfs.c **** 
 320:libraries/littlefs/lfs.c **** static inline bool lfs_tag_isdelete(lfs_tag_t tag) {
 321:libraries/littlefs/lfs.c ****     return ((int32_t)(tag << 22) >> 22) == -1;
 322:libraries/littlefs/lfs.c **** }
 323:libraries/littlefs/lfs.c **** 
 324:libraries/littlefs/lfs.c **** static inline uint16_t lfs_tag_type1(lfs_tag_t tag) {
 325:libraries/littlefs/lfs.c ****     return (tag & 0x70000000) >> 20;
 326:libraries/littlefs/lfs.c **** }
 327:libraries/littlefs/lfs.c **** 
 328:libraries/littlefs/lfs.c **** static inline uint16_t lfs_tag_type3(lfs_tag_t tag) {
 329:libraries/littlefs/lfs.c ****     return (tag & 0x7ff00000) >> 20;
 330:libraries/littlefs/lfs.c **** }
 331:libraries/littlefs/lfs.c **** 
 332:libraries/littlefs/lfs.c **** static inline uint8_t lfs_tag_chunk(lfs_tag_t tag) {
 333:libraries/littlefs/lfs.c ****     return (tag & 0x0ff00000) >> 20;
 334:libraries/littlefs/lfs.c **** }
 335:libraries/littlefs/lfs.c **** 
 336:libraries/littlefs/lfs.c **** static inline int8_t lfs_tag_splice(lfs_tag_t tag) {
 337:libraries/littlefs/lfs.c ****     return (int8_t)lfs_tag_chunk(tag);
 338:libraries/littlefs/lfs.c **** }
 339:libraries/littlefs/lfs.c **** 
 340:libraries/littlefs/lfs.c **** static inline uint16_t lfs_tag_id(lfs_tag_t tag) {
 341:libraries/littlefs/lfs.c ****     return (tag & 0x000ffc00) >> 10;
 342:libraries/littlefs/lfs.c **** }
 343:libraries/littlefs/lfs.c **** 
 344:libraries/littlefs/lfs.c **** static inline lfs_size_t lfs_tag_size(lfs_tag_t tag) {
ARM GAS  /var/folders/b4/k4jbz0ms4wg23jtq0w6p483m0000gn/T//ccwZ2VjF.s 			page 9


 345:libraries/littlefs/lfs.c ****     return tag & 0x000003ff;
 346:libraries/littlefs/lfs.c **** }
 347:libraries/littlefs/lfs.c **** 
 348:libraries/littlefs/lfs.c **** static inline lfs_size_t lfs_tag_dsize(lfs_tag_t tag) {
 116              		.loc 1 348 55 is_stmt 1 view -0
 117              		.cfi_startproc
 118              		@ args = 0, pretend = 0, frame = 0
 119              		@ frame_needed = 0, uses_anonymous_args = 0
 120              		@ link register save eliminated.
 349:libraries/littlefs/lfs.c ****     return sizeof(tag) + lfs_tag_size(tag + lfs_tag_isdelete(tag));
 121              		.loc 1 349 5 view .LVU21
 122              	.LBB891:
 123              	.LBI891:
 320:libraries/littlefs/lfs.c ****     return ((int32_t)(tag << 22) >> 22) == -1;
 124              		.loc 1 320 20 view .LVU22
 125              	.LBB892:
 321:libraries/littlefs/lfs.c **** }
 126              		.loc 1 321 5 view .LVU23
 321:libraries/littlefs/lfs.c **** }
 127              		.loc 1 321 5 is_stmt 0 view .LVU24
 128              	.LBE892:
 129              	.LBE891:
 130              	.LBB894:
 131              	.LBI894:
 344:libraries/littlefs/lfs.c ****     return tag & 0x000003ff;
 132              		.loc 1 344 26 is_stmt 1 view .LVU25
 133              	.LBB895:
 345:libraries/littlefs/lfs.c **** }
 134              		.loc 1 345 5 view .LVU26
 345:libraries/littlefs/lfs.c **** }
 135              		.loc 1 345 5 is_stmt 0 view .LVU27
 136              	.LBE895:
 137              	.LBE894:
 138              	.LBB897:
 139              	.LBB893:
 321:libraries/littlefs/lfs.c **** }
 140              		.loc 1 321 34 view .LVU28
 141 0000 40F30903 		sbfx	r3, r0, #0, #10
 142              	.LBE893:
 143              	.LBE897:
 144              		.loc 1 349 26 view .LVU29
 145 0004 B3F1FF3F 		cmp	r3, #-1
 146 0008 08BF     		it	eq
 147 000a 0130     		addeq	r0, r0, #1
 148              	.LVL7:
 149              	.LBB898:
 150              	.LBB896:
 345:libraries/littlefs/lfs.c **** }
 151              		.loc 1 345 16 view .LVU30
 152 000c C0F30900 		ubfx	r0, r0, #0, #10
 153              	.LBE896:
 154              	.LBE898:
 350:libraries/littlefs/lfs.c **** }
 155              		.loc 1 350 1 view .LVU31
 156 0010 0430     		adds	r0, r0, #4
 157 0012 7047     		bx	lr
 158              		.cfi_endproc
ARM GAS  /var/folders/b4/k4jbz0ms4wg23jtq0w6p483m0000gn/T//ccwZ2VjF.s 			page 10


 159              	.LFE39:
 161              		.section	.text.lfs_gstate_xor,"ax",%progbits
 162              		.align	1
 163              		.syntax unified
 164              		.thumb
 165              		.thumb_func
 167              	lfs_gstate_xor:
 168              	.LVL8:
 169              	.LFB40:
 351:libraries/littlefs/lfs.c **** 
 352:libraries/littlefs/lfs.c **** // operations on attributes in attribute lists
 353:libraries/littlefs/lfs.c **** struct lfs_mattr {
 354:libraries/littlefs/lfs.c ****     lfs_tag_t tag;
 355:libraries/littlefs/lfs.c ****     const void *buffer;
 356:libraries/littlefs/lfs.c **** };
 357:libraries/littlefs/lfs.c **** 
 358:libraries/littlefs/lfs.c **** struct lfs_diskoff {
 359:libraries/littlefs/lfs.c ****     lfs_block_t block;
 360:libraries/littlefs/lfs.c ****     lfs_off_t off;
 361:libraries/littlefs/lfs.c **** };
 362:libraries/littlefs/lfs.c **** 
 363:libraries/littlefs/lfs.c **** #define LFS_MKATTRS(...) \
 364:libraries/littlefs/lfs.c ****     (struct lfs_mattr[]){__VA_ARGS__}, \
 365:libraries/littlefs/lfs.c ****     sizeof((struct lfs_mattr[]){__VA_ARGS__}) / sizeof(struct lfs_mattr)
 366:libraries/littlefs/lfs.c **** 
 367:libraries/littlefs/lfs.c **** // operations on global state
 368:libraries/littlefs/lfs.c **** static inline void lfs_gstate_xor(lfs_gstate_t *a, const lfs_gstate_t *b) {
 170              		.loc 1 368 75 is_stmt 1 view -0
 171              		.cfi_startproc
 172              		@ args = 0, pretend = 0, frame = 0
 173              		@ frame_needed = 0, uses_anonymous_args = 0
 369:libraries/littlefs/lfs.c ****     for (int i = 0; i < 3; i++) {
 174              		.loc 1 369 5 view .LVU33
 175              	.LBB899:
 176              		.loc 1 369 10 view .LVU34
 177              		.loc 1 369 21 view .LVU35
 178              	.LBE899:
 368:libraries/littlefs/lfs.c ****     for (int i = 0; i < 3; i++) {
 179              		.loc 1 368 75 is_stmt 0 view .LVU36
 180 0000 10B5     		push	{r4, lr}
 181              	.LCFI1:
 182              		.cfi_def_cfa_offset 8
 183              		.cfi_offset 4, -8
 184              		.cfi_offset 14, -4
 185 0002 031F     		subs	r3, r0, #4
 186 0004 0439     		subs	r1, r1, #4
 187              	.LVL9:
 368:libraries/littlefs/lfs.c ****     for (int i = 0; i < 3; i++) {
 188              		.loc 1 368 75 view .LVU37
 189 0006 0830     		adds	r0, r0, #8
 190              	.LVL10:
 191              	.L11:
 192              	.LBB900:
 370:libraries/littlefs/lfs.c ****         ((uint32_t*)a)[i] ^= ((const uint32_t*)b)[i];
 193              		.loc 1 370 9 is_stmt 1 discriminator 3 view .LVU38
 194              		.loc 1 370 27 is_stmt 0 discriminator 3 view .LVU39
 195 0008 53F8042F 		ldr	r2, [r3, #4]!
ARM GAS  /var/folders/b4/k4jbz0ms4wg23jtq0w6p483m0000gn/T//ccwZ2VjF.s 			page 11


 196 000c 51F8044F 		ldr	r4, [r1, #4]!
 369:libraries/littlefs/lfs.c ****     for (int i = 0; i < 3; i++) {
 197              		.loc 1 369 5 discriminator 3 view .LVU40
 198 0010 8342     		cmp	r3, r0
 199              		.loc 1 370 27 discriminator 3 view .LVU41
 200 0012 82EA0402 		eor	r2, r2, r4
 201 0016 1A60     		str	r2, [r3]
 369:libraries/littlefs/lfs.c ****     for (int i = 0; i < 3; i++) {
 202              		.loc 1 369 28 is_stmt 1 discriminator 3 view .LVU42
 369:libraries/littlefs/lfs.c ****     for (int i = 0; i < 3; i++) {
 203              		.loc 1 369 21 discriminator 3 view .LVU43
 369:libraries/littlefs/lfs.c ****     for (int i = 0; i < 3; i++) {
 204              		.loc 1 369 5 is_stmt 0 discriminator 3 view .LVU44
 205 0018 F6D1     		bne	.L11
 206              	.LBE900:
 371:libraries/littlefs/lfs.c ****     }
 372:libraries/littlefs/lfs.c **** }
 207              		.loc 1 372 1 view .LVU45
 208 001a 10BD     		pop	{r4, pc}
 209              		.cfi_endproc
 210              	.LFE40:
 212              		.section	.text.lfs_gstate_iszero,"ax",%progbits
 213              		.align	1
 214              		.syntax unified
 215              		.thumb
 216              		.thumb_func
 218              	lfs_gstate_iszero:
 219              	.LVL11:
 220              	.LFB41:
 373:libraries/littlefs/lfs.c **** 
 374:libraries/littlefs/lfs.c **** static inline bool lfs_gstate_iszero(const lfs_gstate_t *a) {
 221              		.loc 1 374 61 is_stmt 1 view -0
 222              		.cfi_startproc
 223              		@ args = 0, pretend = 0, frame = 0
 224              		@ frame_needed = 0, uses_anonymous_args = 0
 225              		@ link register save eliminated.
 375:libraries/littlefs/lfs.c ****     for (int i = 0; i < 3; i++) {
 226              		.loc 1 375 5 view .LVU47
 227              	.LBB901:
 228              		.loc 1 375 10 view .LVU48
 229              		.loc 1 375 21 view .LVU49
 376:libraries/littlefs/lfs.c ****         if (((uint32_t*)a)[i] != 0) {
 230              		.loc 1 376 9 view .LVU50
 231              	.LBE901:
 374:libraries/littlefs/lfs.c ****     for (int i = 0; i < 3; i++) {
 232              		.loc 1 374 61 is_stmt 0 view .LVU51
 233 0000 0346     		mov	r3, r0
 234              	.LBB902:
 235              		.loc 1 376 12 view .LVU52
 236 0002 0068     		ldr	r0, [r0]
 237              	.LVL12:
 238              		.loc 1 376 12 view .LVU53
 239 0004 30B9     		cbnz	r0, .L15
 375:libraries/littlefs/lfs.c ****     for (int i = 0; i < 3; i++) {
 240              		.loc 1 375 28 is_stmt 1 view .LVU54
 241              	.LVL13:
 375:libraries/littlefs/lfs.c ****     for (int i = 0; i < 3; i++) {
ARM GAS  /var/folders/b4/k4jbz0ms4wg23jtq0w6p483m0000gn/T//ccwZ2VjF.s 			page 12


 242              		.loc 1 375 21 view .LVU55
 243              		.loc 1 376 9 view .LVU56
 244              		.loc 1 376 12 is_stmt 0 view .LVU57
 245 0006 5A68     		ldr	r2, [r3, #4]
 246 0008 2AB9     		cbnz	r2, .L14
 375:libraries/littlefs/lfs.c ****     for (int i = 0; i < 3; i++) {
 247              		.loc 1 375 28 is_stmt 1 view .LVU58
 248              	.LVL14:
 375:libraries/littlefs/lfs.c ****     for (int i = 0; i < 3; i++) {
 249              		.loc 1 375 21 view .LVU59
 250              		.loc 1 376 9 view .LVU60
 251              		.loc 1 376 12 is_stmt 0 view .LVU61
 252 000a 9868     		ldr	r0, [r3, #8]
 253 000c B0FA80F0 		clz	r0, r0
 254 0010 4009     		lsrs	r0, r0, #5
 255 0012 7047     		bx	lr
 256              	.LVL15:
 257              	.L15:
 377:libraries/littlefs/lfs.c ****             return false;
 258              		.loc 1 377 20 view .LVU62
 259 0014 0020     		movs	r0, #0
 260              	.LVL16:
 261              	.L14:
 262              		.loc 1 377 20 view .LVU63
 263              	.LBE902:
 378:libraries/littlefs/lfs.c ****         }
 379:libraries/littlefs/lfs.c ****     }
 380:libraries/littlefs/lfs.c ****     return true;
 381:libraries/littlefs/lfs.c **** }
 264              		.loc 1 381 1 view .LVU64
 265 0016 7047     		bx	lr
 266              		.cfi_endproc
 267              	.LFE41:
 269              		.section	.text.lfs_gstate_hasmovehere,"ax",%progbits
 270              		.align	1
 271              		.syntax unified
 272              		.thumb
 273              		.thumb_func
 275              	lfs_gstate_hasmovehere:
 276              	.LVL17:
 277              	.LFB45:
 382:libraries/littlefs/lfs.c **** 
 383:libraries/littlefs/lfs.c **** #ifndef LFS_READONLY
 384:libraries/littlefs/lfs.c **** static inline bool lfs_gstate_hasorphans(const lfs_gstate_t *a) {
 385:libraries/littlefs/lfs.c ****     return lfs_tag_size(a->tag);
 386:libraries/littlefs/lfs.c **** }
 387:libraries/littlefs/lfs.c **** 
 388:libraries/littlefs/lfs.c **** static inline uint8_t lfs_gstate_getorphans(const lfs_gstate_t *a) {
 389:libraries/littlefs/lfs.c ****     return lfs_tag_size(a->tag);
 390:libraries/littlefs/lfs.c **** }
 391:libraries/littlefs/lfs.c **** 
 392:libraries/littlefs/lfs.c **** static inline bool lfs_gstate_hasmove(const lfs_gstate_t *a) {
 393:libraries/littlefs/lfs.c ****     return lfs_tag_type1(a->tag);
 394:libraries/littlefs/lfs.c **** }
 395:libraries/littlefs/lfs.c **** #endif
 396:libraries/littlefs/lfs.c **** 
 397:libraries/littlefs/lfs.c **** static inline bool lfs_gstate_hasmovehere(const lfs_gstate_t *a,
ARM GAS  /var/folders/b4/k4jbz0ms4wg23jtq0w6p483m0000gn/T//ccwZ2VjF.s 			page 13


 398:libraries/littlefs/lfs.c ****         const lfs_block_t *pair) {
 278              		.loc 1 398 34 is_stmt 1 view -0
 279              		.cfi_startproc
 280              		@ args = 0, pretend = 0, frame = 0
 281              		@ frame_needed = 0, uses_anonymous_args = 0
 399:libraries/littlefs/lfs.c ****     return lfs_tag_type1(a->tag) && lfs_pair_cmp(a->pair, pair) == 0;
 282              		.loc 1 399 5 view .LVU66
 283              	.LBB903:
 284              	.LBI903:
 324:libraries/littlefs/lfs.c ****     return (tag & 0x70000000) >> 20;
 285              		.loc 1 324 24 view .LVU67
 286              	.LBB904:
 325:libraries/littlefs/lfs.c **** }
 287              		.loc 1 325 5 view .LVU68
 325:libraries/littlefs/lfs.c **** }
 288              		.loc 1 325 5 is_stmt 0 view .LVU69
 289              	.LBE904:
 290              	.LBE903:
 398:libraries/littlefs/lfs.c ****     return lfs_tag_type1(a->tag) && lfs_pair_cmp(a->pair, pair) == 0;
 291              		.loc 1 398 34 view .LVU70
 292 0000 08B5     		push	{r3, lr}
 293              	.LCFI2:
 294              		.cfi_def_cfa_offset 8
 295              		.cfi_offset 3, -8
 296              		.cfi_offset 14, -4
 297              	.LBB906:
 298              	.LBB905:
 325:libraries/littlefs/lfs.c **** }
 299              		.loc 1 325 31 view .LVU71
 300 0002 0368     		ldr	r3, [r0]
 301 0004 1B0D     		lsrs	r3, r3, #20
 302              	.LBE905:
 303              	.LBE906:
 398:libraries/littlefs/lfs.c ****     return lfs_tag_type1(a->tag) && lfs_pair_cmp(a->pair, pair) == 0;
 304              		.loc 1 398 34 view .LVU72
 305 0006 0246     		mov	r2, r0
 306              		.loc 1 399 34 view .LVU73
 307 0008 13F4E060 		ands	r0, r3, #1792
 308              	.LVL18:
 309              		.loc 1 399 34 view .LVU74
 310 000c 05D0     		beq	.L18
 311              		.loc 1 399 37 discriminator 1 view .LVU75
 312 000e 101D     		adds	r0, r2, #4
 313 0010 FFF7FEFF 		bl	lfs_pair_cmp
 314              	.LVL19:
 315              		.loc 1 399 34 discriminator 1 view .LVU76
 316 0014 B0FA80F0 		clz	r0, r0
 317 0018 4009     		lsrs	r0, r0, #5
 318              	.L18:
 400:libraries/littlefs/lfs.c **** }
 319              		.loc 1 400 1 discriminator 6 view .LVU77
 320 001a 08BD     		pop	{r3, pc}
 321              		.cfi_endproc
 322              	.LFE45:
 324              		.section	.text.lfs_mlist_isopen,"ax",%progbits
 325              		.align	1
 326              		.syntax unified
ARM GAS  /var/folders/b4/k4jbz0ms4wg23jtq0w6p483m0000gn/T//ccwZ2VjF.s 			page 14


 327              		.thumb
 328              		.thumb_func
 330              	lfs_mlist_isopen:
 331              	.LVL20:
 332              	.LFB52:
 401:libraries/littlefs/lfs.c **** 
 402:libraries/littlefs/lfs.c **** static inline void lfs_gstate_fromle32(lfs_gstate_t *a) {
 403:libraries/littlefs/lfs.c ****     a->tag     = lfs_fromle32(a->tag);
 404:libraries/littlefs/lfs.c ****     a->pair[0] = lfs_fromle32(a->pair[0]);
 405:libraries/littlefs/lfs.c ****     a->pair[1] = lfs_fromle32(a->pair[1]);
 406:libraries/littlefs/lfs.c **** }
 407:libraries/littlefs/lfs.c **** 
 408:libraries/littlefs/lfs.c **** #ifndef LFS_READONLY
 409:libraries/littlefs/lfs.c **** static inline void lfs_gstate_tole32(lfs_gstate_t *a) {
 410:libraries/littlefs/lfs.c ****     a->tag     = lfs_tole32(a->tag);
 411:libraries/littlefs/lfs.c ****     a->pair[0] = lfs_tole32(a->pair[0]);
 412:libraries/littlefs/lfs.c ****     a->pair[1] = lfs_tole32(a->pair[1]);
 413:libraries/littlefs/lfs.c **** }
 414:libraries/littlefs/lfs.c **** #endif
 415:libraries/littlefs/lfs.c **** 
 416:libraries/littlefs/lfs.c **** // other endianness operations
 417:libraries/littlefs/lfs.c **** static void lfs_ctz_fromle32(struct lfs_ctz *ctz) {
 418:libraries/littlefs/lfs.c ****     ctz->head = lfs_fromle32(ctz->head);
 419:libraries/littlefs/lfs.c ****     ctz->size = lfs_fromle32(ctz->size);
 420:libraries/littlefs/lfs.c **** }
 421:libraries/littlefs/lfs.c **** 
 422:libraries/littlefs/lfs.c **** #ifndef LFS_READONLY
 423:libraries/littlefs/lfs.c **** static void lfs_ctz_tole32(struct lfs_ctz *ctz) {
 424:libraries/littlefs/lfs.c ****     ctz->head = lfs_tole32(ctz->head);
 425:libraries/littlefs/lfs.c ****     ctz->size = lfs_tole32(ctz->size);
 426:libraries/littlefs/lfs.c **** }
 427:libraries/littlefs/lfs.c **** #endif
 428:libraries/littlefs/lfs.c **** 
 429:libraries/littlefs/lfs.c **** static inline void lfs_superblock_fromle32(lfs_superblock_t *superblock) {
 430:libraries/littlefs/lfs.c ****     superblock->version     = lfs_fromle32(superblock->version);
 431:libraries/littlefs/lfs.c ****     superblock->block_size  = lfs_fromle32(superblock->block_size);
 432:libraries/littlefs/lfs.c ****     superblock->block_count = lfs_fromle32(superblock->block_count);
 433:libraries/littlefs/lfs.c ****     superblock->name_max    = lfs_fromle32(superblock->name_max);
 434:libraries/littlefs/lfs.c ****     superblock->file_max    = lfs_fromle32(superblock->file_max);
 435:libraries/littlefs/lfs.c ****     superblock->attr_max    = lfs_fromle32(superblock->attr_max);
 436:libraries/littlefs/lfs.c **** }
 437:libraries/littlefs/lfs.c **** 
 438:libraries/littlefs/lfs.c **** #ifndef LFS_READONLY
 439:libraries/littlefs/lfs.c **** static inline void lfs_superblock_tole32(lfs_superblock_t *superblock) {
 440:libraries/littlefs/lfs.c ****     superblock->version     = lfs_tole32(superblock->version);
 441:libraries/littlefs/lfs.c ****     superblock->block_size  = lfs_tole32(superblock->block_size);
 442:libraries/littlefs/lfs.c ****     superblock->block_count = lfs_tole32(superblock->block_count);
 443:libraries/littlefs/lfs.c ****     superblock->name_max    = lfs_tole32(superblock->name_max);
 444:libraries/littlefs/lfs.c ****     superblock->file_max    = lfs_tole32(superblock->file_max);
 445:libraries/littlefs/lfs.c ****     superblock->attr_max    = lfs_tole32(superblock->attr_max);
 446:libraries/littlefs/lfs.c **** }
 447:libraries/littlefs/lfs.c **** #endif
 448:libraries/littlefs/lfs.c **** 
 449:libraries/littlefs/lfs.c **** #ifndef LFS_NO_ASSERT
 450:libraries/littlefs/lfs.c **** static bool lfs_mlist_isopen(struct lfs_mlist *head,
 451:libraries/littlefs/lfs.c ****         struct lfs_mlist *node) {
 333              		.loc 1 451 33 is_stmt 1 view -0
ARM GAS  /var/folders/b4/k4jbz0ms4wg23jtq0w6p483m0000gn/T//ccwZ2VjF.s 			page 15


 334              		.cfi_startproc
 335              		@ args = 0, pretend = 0, frame = 0
 336              		@ frame_needed = 0, uses_anonymous_args = 0
 337              		@ link register save eliminated.
 452:libraries/littlefs/lfs.c ****     for (struct lfs_mlist **p = &head; *p; p = &(*p)->next) {
 338              		.loc 1 452 5 view .LVU79
 339              	.LBB907:
 340              		.loc 1 452 10 view .LVU80
 341              	.L21:
 342              		.loc 1 452 40 discriminator 1 view .LVU81
 343              		.loc 1 452 5 is_stmt 0 discriminator 1 view .LVU82
 344 0000 00B9     		cbnz	r0, .L23
 345 0002 7047     		bx	lr
 346              	.L23:
 453:libraries/littlefs/lfs.c ****         if (*p == (struct lfs_mlist*)node) {
 347              		.loc 1 453 9 is_stmt 1 view .LVU83
 348              		.loc 1 453 12 is_stmt 0 view .LVU84
 349 0004 8842     		cmp	r0, r1
 350 0006 01D0     		beq	.L24
 452:libraries/littlefs/lfs.c ****     for (struct lfs_mlist **p = &head; *p; p = &(*p)->next) {
 351              		.loc 1 452 44 is_stmt 1 discriminator 2 view .LVU85
 352              	.LVL21:
 452:libraries/littlefs/lfs.c ****     for (struct lfs_mlist **p = &head; *p; p = &(*p)->next) {
 353              		.loc 1 452 46 is_stmt 0 discriminator 2 view .LVU86
 354 0008 0068     		ldr	r0, [r0]
 355              	.LVL22:
 452:libraries/littlefs/lfs.c ****     for (struct lfs_mlist **p = &head; *p; p = &(*p)->next) {
 356              		.loc 1 452 46 discriminator 2 view .LVU87
 357 000a F9E7     		b	.L21
 358              	.L24:
 454:libraries/littlefs/lfs.c ****             return true;
 359              		.loc 1 454 20 view .LVU88
 360 000c 0120     		movs	r0, #1
 361              	.LBE907:
 455:libraries/littlefs/lfs.c ****         }
 456:libraries/littlefs/lfs.c ****     }
 457:libraries/littlefs/lfs.c **** 
 458:libraries/littlefs/lfs.c ****     return false;
 459:libraries/littlefs/lfs.c **** }
 362              		.loc 1 459 1 view .LVU89
 363 000e 7047     		bx	lr
 364              		.cfi_endproc
 365              	.LFE52:
 367              		.section	.text.lfs_alloc_lookahead,"ax",%progbits
 368              		.align	1
 369              		.syntax unified
 370              		.thumb
 371              		.thumb_func
 373              	lfs_alloc_lookahead:
 374              	.LVL23:
 375              	.LFB55:
 460:libraries/littlefs/lfs.c **** #endif
 461:libraries/littlefs/lfs.c **** 
 462:libraries/littlefs/lfs.c **** static void lfs_mlist_remove(lfs_t *lfs, struct lfs_mlist *mlist) {
 463:libraries/littlefs/lfs.c ****     for (struct lfs_mlist **p = &lfs->mlist; *p; p = &(*p)->next) {
 464:libraries/littlefs/lfs.c ****         if (*p == mlist) {
 465:libraries/littlefs/lfs.c ****             *p = (*p)->next;
ARM GAS  /var/folders/b4/k4jbz0ms4wg23jtq0w6p483m0000gn/T//ccwZ2VjF.s 			page 16


 466:libraries/littlefs/lfs.c ****             break;
 467:libraries/littlefs/lfs.c ****         }
 468:libraries/littlefs/lfs.c ****     }
 469:libraries/littlefs/lfs.c **** }
 470:libraries/littlefs/lfs.c **** 
 471:libraries/littlefs/lfs.c **** static void lfs_mlist_append(lfs_t *lfs, struct lfs_mlist *mlist) {
 472:libraries/littlefs/lfs.c ****     mlist->next = lfs->mlist;
 473:libraries/littlefs/lfs.c ****     lfs->mlist = mlist;
 474:libraries/littlefs/lfs.c **** }
 475:libraries/littlefs/lfs.c **** 
 476:libraries/littlefs/lfs.c **** 
 477:libraries/littlefs/lfs.c **** /// Internal operations predeclared here ///
 478:libraries/littlefs/lfs.c **** #ifndef LFS_READONLY
 479:libraries/littlefs/lfs.c **** static int lfs_dir_commit(lfs_t *lfs, lfs_mdir_t *dir,
 480:libraries/littlefs/lfs.c ****         const struct lfs_mattr *attrs, int attrcount);
 481:libraries/littlefs/lfs.c **** static int lfs_dir_compact(lfs_t *lfs,
 482:libraries/littlefs/lfs.c ****         lfs_mdir_t *dir, const struct lfs_mattr *attrs, int attrcount,
 483:libraries/littlefs/lfs.c ****         lfs_mdir_t *source, uint16_t begin, uint16_t end);
 484:libraries/littlefs/lfs.c **** static lfs_ssize_t lfs_file_flushedwrite(lfs_t *lfs, lfs_file_t *file,
 485:libraries/littlefs/lfs.c ****         const void *buffer, lfs_size_t size);
 486:libraries/littlefs/lfs.c **** static lfs_ssize_t lfs_file_rawwrite(lfs_t *lfs, lfs_file_t *file,
 487:libraries/littlefs/lfs.c ****         const void *buffer, lfs_size_t size);
 488:libraries/littlefs/lfs.c **** static int lfs_file_rawsync(lfs_t *lfs, lfs_file_t *file);
 489:libraries/littlefs/lfs.c **** static int lfs_file_outline(lfs_t *lfs, lfs_file_t *file);
 490:libraries/littlefs/lfs.c **** static int lfs_file_flush(lfs_t *lfs, lfs_file_t *file);
 491:libraries/littlefs/lfs.c **** 
 492:libraries/littlefs/lfs.c **** static int lfs_fs_deorphan(lfs_t *lfs, bool powerloss);
 493:libraries/littlefs/lfs.c **** static int lfs_fs_preporphans(lfs_t *lfs, int8_t orphans);
 494:libraries/littlefs/lfs.c **** static void lfs_fs_prepmove(lfs_t *lfs,
 495:libraries/littlefs/lfs.c ****         uint16_t id, const lfs_block_t pair[2]);
 496:libraries/littlefs/lfs.c **** static int lfs_fs_pred(lfs_t *lfs, const lfs_block_t dir[2],
 497:libraries/littlefs/lfs.c ****         lfs_mdir_t *pdir);
 498:libraries/littlefs/lfs.c **** static lfs_stag_t lfs_fs_parent(lfs_t *lfs, const lfs_block_t dir[2],
 499:libraries/littlefs/lfs.c ****         lfs_mdir_t *parent);
 500:libraries/littlefs/lfs.c **** static int lfs_fs_forceconsistency(lfs_t *lfs);
 501:libraries/littlefs/lfs.c **** #endif
 502:libraries/littlefs/lfs.c **** 
 503:libraries/littlefs/lfs.c **** #ifdef LFS_MIGRATE
 504:libraries/littlefs/lfs.c **** static int lfs1_traverse(lfs_t *lfs,
 505:libraries/littlefs/lfs.c ****         int (*cb)(void*, lfs_block_t), void *data);
 506:libraries/littlefs/lfs.c **** #endif
 507:libraries/littlefs/lfs.c **** 
 508:libraries/littlefs/lfs.c **** static int lfs_dir_rawrewind(lfs_t *lfs, lfs_dir_t *dir);
 509:libraries/littlefs/lfs.c **** 
 510:libraries/littlefs/lfs.c **** static lfs_ssize_t lfs_file_flushedread(lfs_t *lfs, lfs_file_t *file,
 511:libraries/littlefs/lfs.c ****         void *buffer, lfs_size_t size);
 512:libraries/littlefs/lfs.c **** static lfs_ssize_t lfs_file_rawread(lfs_t *lfs, lfs_file_t *file,
 513:libraries/littlefs/lfs.c ****         void *buffer, lfs_size_t size);
 514:libraries/littlefs/lfs.c **** static int lfs_file_rawclose(lfs_t *lfs, lfs_file_t *file);
 515:libraries/littlefs/lfs.c **** static lfs_soff_t lfs_file_rawsize(lfs_t *lfs, lfs_file_t *file);
 516:libraries/littlefs/lfs.c **** 
 517:libraries/littlefs/lfs.c **** static lfs_ssize_t lfs_fs_rawsize(lfs_t *lfs);
 518:libraries/littlefs/lfs.c **** static int lfs_fs_rawtraverse(lfs_t *lfs,
 519:libraries/littlefs/lfs.c ****         int (*cb)(void *data, lfs_block_t block), void *data,
 520:libraries/littlefs/lfs.c ****         bool includeorphans);
 521:libraries/littlefs/lfs.c **** 
 522:libraries/littlefs/lfs.c **** static int lfs_deinit(lfs_t *lfs);
ARM GAS  /var/folders/b4/k4jbz0ms4wg23jtq0w6p483m0000gn/T//ccwZ2VjF.s 			page 17


 523:libraries/littlefs/lfs.c **** static int lfs_rawunmount(lfs_t *lfs);
 524:libraries/littlefs/lfs.c **** 
 525:libraries/littlefs/lfs.c **** 
 526:libraries/littlefs/lfs.c **** /// Block allocator ///
 527:libraries/littlefs/lfs.c **** #ifndef LFS_READONLY
 528:libraries/littlefs/lfs.c **** static int lfs_alloc_lookahead(void *p, lfs_block_t block) {
 376              		.loc 1 528 60 is_stmt 1 view -0
 377              		.cfi_startproc
 378              		@ args = 0, pretend = 0, frame = 0
 379              		@ frame_needed = 0, uses_anonymous_args = 0
 529:libraries/littlefs/lfs.c ****     lfs_t *lfs = (lfs_t*)p;
 380              		.loc 1 529 5 view .LVU91
 530:libraries/littlefs/lfs.c ****     lfs_block_t off = ((block - lfs->free.off)
 381              		.loc 1 530 5 view .LVU92
 531:libraries/littlefs/lfs.c ****             + lfs->cfg->block_count) % lfs->cfg->block_count;
 382              		.loc 1 531 23 is_stmt 0 view .LVU93
 383 0000 836E     		ldr	r3, [r0, #104]
 384 0002 1A6A     		ldr	r2, [r3, #32]
 385              		.loc 1 531 13 view .LVU94
 386 0004 436D     		ldr	r3, [r0, #84]
 387 0006 D31A     		subs	r3, r2, r3
 388 0008 1944     		add	r1, r1, r3
 389              	.LVL24:
 530:libraries/littlefs/lfs.c ****     lfs_block_t off = ((block - lfs->free.off)
 390              		.loc 1 530 17 view .LVU95
 391 000a B1FBF2F3 		udiv	r3, r1, r2
 392 000e 02FB1311 		mls	r1, r2, r3, r1
 393              	.LVL25:
 532:libraries/littlefs/lfs.c **** 
 533:libraries/littlefs/lfs.c ****     if (off < lfs->free.size) {
 394              		.loc 1 533 5 is_stmt 1 view .LVU96
 395              		.loc 1 533 8 is_stmt 0 view .LVU97
 396 0012 836D     		ldr	r3, [r0, #88]
 397 0014 8B42     		cmp	r3, r1
 528:libraries/littlefs/lfs.c ****     lfs_t *lfs = (lfs_t*)p;
 398              		.loc 1 528 60 view .LVU98
 399 0016 10B5     		push	{r4, lr}
 400              	.LCFI3:
 401              		.cfi_def_cfa_offset 8
 402              		.cfi_offset 4, -8
 403              		.cfi_offset 14, -4
 404              		.loc 1 533 8 view .LVU99
 405 0018 0BD9     		bls	.L26
 534:libraries/littlefs/lfs.c ****         lfs->free.buffer[off / 32] |= 1U << (off % 32);
 406              		.loc 1 534 9 is_stmt 1 view .LVU100
 407              		.loc 1 534 30 is_stmt 0 view .LVU101
 408 001a 4C09     		lsrs	r4, r1, #5
 409              		.loc 1 534 36 view .LVU102
 410 001c 426E     		ldr	r2, [r0, #100]
 411              		.loc 1 534 42 view .LVU103
 412 001e 0123     		movs	r3, #1
 413              		.loc 1 534 50 view .LVU104
 414 0020 01F01F01 		and	r1, r1, #31
 415              	.LVL26:
 416              		.loc 1 534 42 view .LVU105
 417 0024 03FA01F1 		lsl	r1, r3, r1
 418              		.loc 1 534 36 view .LVU106
ARM GAS  /var/folders/b4/k4jbz0ms4wg23jtq0w6p483m0000gn/T//ccwZ2VjF.s 			page 18


 419 0028 52F82430 		ldr	r3, [r2, r4, lsl #2]
 420 002c 0B43     		orrs	r3, r3, r1
 421 002e 42F82430 		str	r3, [r2, r4, lsl #2]
 422              	.LVL27:
 423              	.L26:
 535:libraries/littlefs/lfs.c ****     }
 536:libraries/littlefs/lfs.c **** 
 537:libraries/littlefs/lfs.c ****     return 0;
 424              		.loc 1 537 5 is_stmt 1 view .LVU107
 538:libraries/littlefs/lfs.c **** }
 425              		.loc 1 538 1 is_stmt 0 view .LVU108
 426 0032 0020     		movs	r0, #0
 427              	.LVL28:
 428              		.loc 1 538 1 view .LVU109
 429 0034 10BD     		pop	{r4, pc}
 430              		.cfi_endproc
 431              	.LFE55:
 433              		.section	.text.lfs_dir_traverse_filter,"ax",%progbits
 434              		.align	1
 435              		.syntax unified
 436              		.thumb
 437              		.thumb_func
 439              	lfs_dir_traverse_filter:
 440              	.LVL29:
 441              	.LFB62:
 539:libraries/littlefs/lfs.c **** #endif
 540:libraries/littlefs/lfs.c **** 
 541:libraries/littlefs/lfs.c **** // indicate allocated blocks have been committed into the filesystem, this
 542:libraries/littlefs/lfs.c **** // is to prevent blocks from being garbage collected in the middle of a
 543:libraries/littlefs/lfs.c **** // commit operation
 544:libraries/littlefs/lfs.c **** static void lfs_alloc_ack(lfs_t *lfs) {
 545:libraries/littlefs/lfs.c ****     lfs->free.ack = lfs->cfg->block_count;
 546:libraries/littlefs/lfs.c **** }
 547:libraries/littlefs/lfs.c **** 
 548:libraries/littlefs/lfs.c **** // drop the lookahead buffer, this is done during mounting and failed
 549:libraries/littlefs/lfs.c **** // traversals in order to avoid invalid lookahead state
 550:libraries/littlefs/lfs.c **** static void lfs_alloc_drop(lfs_t *lfs) {
 551:libraries/littlefs/lfs.c ****     lfs->free.size = 0;
 552:libraries/littlefs/lfs.c ****     lfs->free.i = 0;
 553:libraries/littlefs/lfs.c ****     lfs_alloc_ack(lfs);
 554:libraries/littlefs/lfs.c **** }
 555:libraries/littlefs/lfs.c **** 
 556:libraries/littlefs/lfs.c **** #ifndef LFS_READONLY
 557:libraries/littlefs/lfs.c **** static int lfs_alloc(lfs_t *lfs, lfs_block_t *block) {
 558:libraries/littlefs/lfs.c ****     while (true) {
 559:libraries/littlefs/lfs.c ****         while (lfs->free.i != lfs->free.size) {
 560:libraries/littlefs/lfs.c ****             lfs_block_t off = lfs->free.i;
 561:libraries/littlefs/lfs.c ****             lfs->free.i += 1;
 562:libraries/littlefs/lfs.c ****             lfs->free.ack -= 1;
 563:libraries/littlefs/lfs.c **** 
 564:libraries/littlefs/lfs.c ****             if (!(lfs->free.buffer[off / 32] & (1U << (off % 32)))) {
 565:libraries/littlefs/lfs.c ****                 // found a free block
 566:libraries/littlefs/lfs.c ****                 *block = (lfs->free.off + off) % lfs->cfg->block_count;
 567:libraries/littlefs/lfs.c **** 
 568:libraries/littlefs/lfs.c ****                 // eagerly find next off so an alloc ack can
 569:libraries/littlefs/lfs.c ****                 // discredit old lookahead blocks
 570:libraries/littlefs/lfs.c ****                 while (lfs->free.i != lfs->free.size &&
ARM GAS  /var/folders/b4/k4jbz0ms4wg23jtq0w6p483m0000gn/T//ccwZ2VjF.s 			page 19


 571:libraries/littlefs/lfs.c ****                         (lfs->free.buffer[lfs->free.i / 32]
 572:libraries/littlefs/lfs.c ****                             & (1U << (lfs->free.i % 32)))) {
 573:libraries/littlefs/lfs.c ****                     lfs->free.i += 1;
 574:libraries/littlefs/lfs.c ****                     lfs->free.ack -= 1;
 575:libraries/littlefs/lfs.c ****                 }
 576:libraries/littlefs/lfs.c **** 
 577:libraries/littlefs/lfs.c ****                 return 0;
 578:libraries/littlefs/lfs.c ****             }
 579:libraries/littlefs/lfs.c ****         }
 580:libraries/littlefs/lfs.c **** 
 581:libraries/littlefs/lfs.c ****         // check if we have looked at all blocks since last ack
 582:libraries/littlefs/lfs.c ****         if (lfs->free.ack == 0) {
 583:libraries/littlefs/lfs.c ****             LFS_ERROR("No more free space %"PRIu32,
 584:libraries/littlefs/lfs.c ****                     lfs->free.i + lfs->free.off);
 585:libraries/littlefs/lfs.c ****             return LFS_ERR_NOSPC;
 586:libraries/littlefs/lfs.c ****         }
 587:libraries/littlefs/lfs.c **** 
 588:libraries/littlefs/lfs.c ****         lfs->free.off = (lfs->free.off + lfs->free.size)
 589:libraries/littlefs/lfs.c ****                 % lfs->cfg->block_count;
 590:libraries/littlefs/lfs.c ****         lfs->free.size = lfs_min(8*lfs->cfg->lookahead_size, lfs->free.ack);
 591:libraries/littlefs/lfs.c ****         lfs->free.i = 0;
 592:libraries/littlefs/lfs.c **** 
 593:libraries/littlefs/lfs.c ****         // find mask of free blocks from tree
 594:libraries/littlefs/lfs.c ****         memset(lfs->free.buffer, 0, lfs->cfg->lookahead_size);
 595:libraries/littlefs/lfs.c ****         int err = lfs_fs_rawtraverse(lfs, lfs_alloc_lookahead, lfs, true);
 596:libraries/littlefs/lfs.c ****         if (err) {
 597:libraries/littlefs/lfs.c ****             lfs_alloc_drop(lfs);
 598:libraries/littlefs/lfs.c ****             return err;
 599:libraries/littlefs/lfs.c ****         }
 600:libraries/littlefs/lfs.c ****     }
 601:libraries/littlefs/lfs.c **** }
 602:libraries/littlefs/lfs.c **** #endif
 603:libraries/littlefs/lfs.c **** 
 604:libraries/littlefs/lfs.c **** /// Metadata pair and directory operations ///
 605:libraries/littlefs/lfs.c **** static lfs_stag_t lfs_dir_getslice(lfs_t *lfs, const lfs_mdir_t *dir,
 606:libraries/littlefs/lfs.c ****         lfs_tag_t gmask, lfs_tag_t gtag,
 607:libraries/littlefs/lfs.c ****         lfs_off_t goff, void *gbuffer, lfs_size_t gsize) {
 608:libraries/littlefs/lfs.c ****     lfs_off_t off = dir->off;
 609:libraries/littlefs/lfs.c ****     lfs_tag_t ntag = dir->etag;
 610:libraries/littlefs/lfs.c ****     lfs_stag_t gdiff = 0;
 611:libraries/littlefs/lfs.c **** 
 612:libraries/littlefs/lfs.c ****     if (lfs_gstate_hasmovehere(&lfs->gdisk, dir->pair) &&
 613:libraries/littlefs/lfs.c ****             lfs_tag_id(gmask) != 0 &&
 614:libraries/littlefs/lfs.c ****             lfs_tag_id(lfs->gdisk.tag) <= lfs_tag_id(gtag)) {
 615:libraries/littlefs/lfs.c ****         // synthetic moves
 616:libraries/littlefs/lfs.c ****         gdiff -= LFS_MKTAG(0, 1, 0);
 617:libraries/littlefs/lfs.c ****     }
 618:libraries/littlefs/lfs.c **** 
 619:libraries/littlefs/lfs.c ****     // iterate over dir block backwards (for faster lookups)
 620:libraries/littlefs/lfs.c ****     while (off >= sizeof(lfs_tag_t) + lfs_tag_dsize(ntag)) {
 621:libraries/littlefs/lfs.c ****         off -= lfs_tag_dsize(ntag);
 622:libraries/littlefs/lfs.c ****         lfs_tag_t tag = ntag;
 623:libraries/littlefs/lfs.c ****         int err = lfs_bd_read(lfs,
 624:libraries/littlefs/lfs.c ****                 NULL, &lfs->rcache, sizeof(ntag),
 625:libraries/littlefs/lfs.c ****                 dir->pair[0], off, &ntag, sizeof(ntag));
 626:libraries/littlefs/lfs.c ****         if (err) {
 627:libraries/littlefs/lfs.c ****             return err;
ARM GAS  /var/folders/b4/k4jbz0ms4wg23jtq0w6p483m0000gn/T//ccwZ2VjF.s 			page 20


 628:libraries/littlefs/lfs.c ****         }
 629:libraries/littlefs/lfs.c **** 
 630:libraries/littlefs/lfs.c ****         ntag = (lfs_frombe32(ntag) ^ tag) & 0x7fffffff;
 631:libraries/littlefs/lfs.c **** 
 632:libraries/littlefs/lfs.c ****         if (lfs_tag_id(gmask) != 0 &&
 633:libraries/littlefs/lfs.c ****                 lfs_tag_type1(tag) == LFS_TYPE_SPLICE &&
 634:libraries/littlefs/lfs.c ****                 lfs_tag_id(tag) <= lfs_tag_id(gtag - gdiff)) {
 635:libraries/littlefs/lfs.c ****             if (tag == (LFS_MKTAG(LFS_TYPE_CREATE, 0, 0) |
 636:libraries/littlefs/lfs.c ****                     (LFS_MKTAG(0, 0x3ff, 0) & (gtag - gdiff)))) {
 637:libraries/littlefs/lfs.c ****                 // found where we were created
 638:libraries/littlefs/lfs.c ****                 return LFS_ERR_NOENT;
 639:libraries/littlefs/lfs.c ****             }
 640:libraries/littlefs/lfs.c **** 
 641:libraries/littlefs/lfs.c ****             // move around splices
 642:libraries/littlefs/lfs.c ****             gdiff += LFS_MKTAG(0, lfs_tag_splice(tag), 0);
 643:libraries/littlefs/lfs.c ****         }
 644:libraries/littlefs/lfs.c **** 
 645:libraries/littlefs/lfs.c ****         if ((gmask & tag) == (gmask & (gtag - gdiff))) {
 646:libraries/littlefs/lfs.c ****             if (lfs_tag_isdelete(tag)) {
 647:libraries/littlefs/lfs.c ****                 return LFS_ERR_NOENT;
 648:libraries/littlefs/lfs.c ****             }
 649:libraries/littlefs/lfs.c **** 
 650:libraries/littlefs/lfs.c ****             lfs_size_t diff = lfs_min(lfs_tag_size(tag), gsize);
 651:libraries/littlefs/lfs.c ****             err = lfs_bd_read(lfs,
 652:libraries/littlefs/lfs.c ****                     NULL, &lfs->rcache, diff,
 653:libraries/littlefs/lfs.c ****                     dir->pair[0], off+sizeof(tag)+goff, gbuffer, diff);
 654:libraries/littlefs/lfs.c ****             if (err) {
 655:libraries/littlefs/lfs.c ****                 return err;
 656:libraries/littlefs/lfs.c ****             }
 657:libraries/littlefs/lfs.c **** 
 658:libraries/littlefs/lfs.c ****             memset((uint8_t*)gbuffer + diff, 0, gsize - diff);
 659:libraries/littlefs/lfs.c **** 
 660:libraries/littlefs/lfs.c ****             return tag + gdiff;
 661:libraries/littlefs/lfs.c ****         }
 662:libraries/littlefs/lfs.c ****     }
 663:libraries/littlefs/lfs.c **** 
 664:libraries/littlefs/lfs.c ****     return LFS_ERR_NOENT;
 665:libraries/littlefs/lfs.c **** }
 666:libraries/littlefs/lfs.c **** 
 667:libraries/littlefs/lfs.c **** static lfs_stag_t lfs_dir_get(lfs_t *lfs, const lfs_mdir_t *dir,
 668:libraries/littlefs/lfs.c ****         lfs_tag_t gmask, lfs_tag_t gtag, void *buffer) {
 669:libraries/littlefs/lfs.c ****     return lfs_dir_getslice(lfs, dir,
 670:libraries/littlefs/lfs.c ****             gmask, gtag,
 671:libraries/littlefs/lfs.c ****             0, buffer, lfs_tag_size(gtag));
 672:libraries/littlefs/lfs.c **** }
 673:libraries/littlefs/lfs.c **** 
 674:libraries/littlefs/lfs.c **** static int lfs_dir_getread(lfs_t *lfs, const lfs_mdir_t *dir,
 675:libraries/littlefs/lfs.c ****         const lfs_cache_t *pcache, lfs_cache_t *rcache, lfs_size_t hint,
 676:libraries/littlefs/lfs.c ****         lfs_tag_t gmask, lfs_tag_t gtag,
 677:libraries/littlefs/lfs.c ****         lfs_off_t off, void *buffer, lfs_size_t size) {
 678:libraries/littlefs/lfs.c ****     uint8_t *data = buffer;
 679:libraries/littlefs/lfs.c ****     if (off+size > lfs->cfg->block_size) {
 680:libraries/littlefs/lfs.c ****         return LFS_ERR_CORRUPT;
 681:libraries/littlefs/lfs.c ****     }
 682:libraries/littlefs/lfs.c **** 
 683:libraries/littlefs/lfs.c ****     while (size > 0) {
 684:libraries/littlefs/lfs.c ****         lfs_size_t diff = size;
ARM GAS  /var/folders/b4/k4jbz0ms4wg23jtq0w6p483m0000gn/T//ccwZ2VjF.s 			page 21


 685:libraries/littlefs/lfs.c **** 
 686:libraries/littlefs/lfs.c ****         if (pcache && pcache->block == LFS_BLOCK_INLINE &&
 687:libraries/littlefs/lfs.c ****                 off < pcache->off + pcache->size) {
 688:libraries/littlefs/lfs.c ****             if (off >= pcache->off) {
 689:libraries/littlefs/lfs.c ****                 // is already in pcache?
 690:libraries/littlefs/lfs.c ****                 diff = lfs_min(diff, pcache->size - (off-pcache->off));
 691:libraries/littlefs/lfs.c ****                 memcpy(data, &pcache->buffer[off-pcache->off], diff);
 692:libraries/littlefs/lfs.c **** 
 693:libraries/littlefs/lfs.c ****                 data += diff;
 694:libraries/littlefs/lfs.c ****                 off += diff;
 695:libraries/littlefs/lfs.c ****                 size -= diff;
 696:libraries/littlefs/lfs.c ****                 continue;
 697:libraries/littlefs/lfs.c ****             }
 698:libraries/littlefs/lfs.c **** 
 699:libraries/littlefs/lfs.c ****             // pcache takes priority
 700:libraries/littlefs/lfs.c ****             diff = lfs_min(diff, pcache->off-off);
 701:libraries/littlefs/lfs.c ****         }
 702:libraries/littlefs/lfs.c **** 
 703:libraries/littlefs/lfs.c ****         if (rcache->block == LFS_BLOCK_INLINE &&
 704:libraries/littlefs/lfs.c ****                 off < rcache->off + rcache->size) {
 705:libraries/littlefs/lfs.c ****             if (off >= rcache->off) {
 706:libraries/littlefs/lfs.c ****                 // is already in rcache?
 707:libraries/littlefs/lfs.c ****                 diff = lfs_min(diff, rcache->size - (off-rcache->off));
 708:libraries/littlefs/lfs.c ****                 memcpy(data, &rcache->buffer[off-rcache->off], diff);
 709:libraries/littlefs/lfs.c **** 
 710:libraries/littlefs/lfs.c ****                 data += diff;
 711:libraries/littlefs/lfs.c ****                 off += diff;
 712:libraries/littlefs/lfs.c ****                 size -= diff;
 713:libraries/littlefs/lfs.c ****                 continue;
 714:libraries/littlefs/lfs.c ****             }
 715:libraries/littlefs/lfs.c **** 
 716:libraries/littlefs/lfs.c ****             // rcache takes priority
 717:libraries/littlefs/lfs.c ****             diff = lfs_min(diff, rcache->off-off);
 718:libraries/littlefs/lfs.c ****         }
 719:libraries/littlefs/lfs.c **** 
 720:libraries/littlefs/lfs.c ****         // load to cache, first condition can no longer fail
 721:libraries/littlefs/lfs.c ****         rcache->block = LFS_BLOCK_INLINE;
 722:libraries/littlefs/lfs.c ****         rcache->off = lfs_aligndown(off, lfs->cfg->read_size);
 723:libraries/littlefs/lfs.c ****         rcache->size = lfs_min(lfs_alignup(off+hint, lfs->cfg->read_size),
 724:libraries/littlefs/lfs.c ****                 lfs->cfg->cache_size);
 725:libraries/littlefs/lfs.c ****         int err = lfs_dir_getslice(lfs, dir, gmask, gtag,
 726:libraries/littlefs/lfs.c ****                 rcache->off, rcache->buffer, rcache->size);
 727:libraries/littlefs/lfs.c ****         if (err < 0) {
 728:libraries/littlefs/lfs.c ****             return err;
 729:libraries/littlefs/lfs.c ****         }
 730:libraries/littlefs/lfs.c ****     }
 731:libraries/littlefs/lfs.c **** 
 732:libraries/littlefs/lfs.c ****     return 0;
 733:libraries/littlefs/lfs.c **** }
 734:libraries/littlefs/lfs.c **** 
 735:libraries/littlefs/lfs.c **** #ifndef LFS_READONLY
 736:libraries/littlefs/lfs.c **** static int lfs_dir_traverse_filter(void *p,
 737:libraries/littlefs/lfs.c ****         lfs_tag_t tag, const void *buffer) {
 442              		.loc 1 737 44 is_stmt 1 view -0
 443              		.cfi_startproc
 444              		@ args = 0, pretend = 0, frame = 0
 445              		@ frame_needed = 0, uses_anonymous_args = 0
ARM GAS  /var/folders/b4/k4jbz0ms4wg23jtq0w6p483m0000gn/T//ccwZ2VjF.s 			page 22


 738:libraries/littlefs/lfs.c ****     lfs_tag_t *filtertag = p;
 446              		.loc 1 738 5 view .LVU111
 739:libraries/littlefs/lfs.c ****     (void)buffer;
 447              		.loc 1 739 5 view .LVU112
 740:libraries/littlefs/lfs.c **** 
 741:libraries/littlefs/lfs.c ****     // which mask depends on unique bit in tag structure
 742:libraries/littlefs/lfs.c ****     uint32_t mask = (tag & LFS_MKTAG(0x100, 0, 0))
 448              		.loc 1 742 5 view .LVU113
 743:libraries/littlefs/lfs.c ****             ? LFS_MKTAG(0x7ff, 0x3ff, 0)
 744:libraries/littlefs/lfs.c ****             : LFS_MKTAG(0x700, 0x3ff, 0);
 449              		.loc 1 744 13 is_stmt 0 view .LVU114
 450 0000 174A     		ldr	r2, .L41
 451              	.LVL30:
 745:libraries/littlefs/lfs.c **** 
 746:libraries/littlefs/lfs.c ****     // check for redundancy
 747:libraries/littlefs/lfs.c ****     if ((mask & tag) == (mask & *filtertag) ||
 452              		.loc 1 747 33 view .LVU115
 453 0002 0368     		ldr	r3, [r0]
 737:libraries/littlefs/lfs.c ****     lfs_tag_t *filtertag = p;
 454              		.loc 1 737 44 view .LVU116
 455 0004 30B5     		push	{r4, r5, lr}
 456              	.LCFI4:
 457              		.cfi_def_cfa_offset 12
 458              		.cfi_offset 4, -12
 459              		.cfi_offset 5, -8
 460              		.cfi_offset 14, -4
 744:libraries/littlefs/lfs.c **** 
 461              		.loc 1 744 13 view .LVU117
 462 0006 11F0805F 		tst	r1, #268435456
 463 000a 164C     		ldr	r4, .L41+4
 464              		.loc 1 747 22 view .LVU118
 465 000c 83EA0105 		eor	r5, r3, r1
 744:libraries/littlefs/lfs.c **** 
 466              		.loc 1 744 13 view .LVU119
 467 0010 18BF     		it	ne
 468 0012 1446     		movne	r4, r2
 469              	.LVL31:
 470              		.loc 1 747 5 is_stmt 1 view .LVU120
 471              		.loc 1 747 8 is_stmt 0 view .LVU121
 472 0014 2542     		tst	r5, r4
 473 0016 0DD0     		beq	.L29
 474              	.LVL32:
 475              	.LBB908:
 476              	.LBI908:
 320:libraries/littlefs/lfs.c ****     return ((int32_t)(tag << 22) >> 22) == -1;
 477              		.loc 1 320 20 is_stmt 1 discriminator 1 view .LVU122
 478              	.LBB909:
 321:libraries/littlefs/lfs.c **** }
 479              		.loc 1 321 5 discriminator 1 view .LVU123
 321:libraries/littlefs/lfs.c **** }
 480              		.loc 1 321 34 is_stmt 0 discriminator 1 view .LVU124
 481 0018 43F30904 		sbfx	r4, r3, #0, #10
 482              	.LVL33:
 321:libraries/littlefs/lfs.c **** }
 483              		.loc 1 321 34 discriminator 1 view .LVU125
 484              	.LBE909:
 485              	.LBE908:
ARM GAS  /var/folders/b4/k4jbz0ms4wg23jtq0w6p483m0000gn/T//ccwZ2VjF.s 			page 23


 486              		.loc 1 747 45 discriminator 1 view .LVU126
 487 001c 0134     		adds	r4, r4, #1
 488 001e 09D0     		beq	.L29
 748:libraries/littlefs/lfs.c ****             lfs_tag_isdelete(*filtertag) ||
 749:libraries/littlefs/lfs.c ****             (LFS_MKTAG(0x7ff, 0x3ff, 0) & tag) == (
 489              		.loc 1 749 41 view .LVU127
 490 0020 01EA0204 		and	r4, r1, r2
 750:libraries/littlefs/lfs.c ****                 LFS_MKTAG(LFS_TYPE_DELETE, 0, 0) |
 751:libraries/littlefs/lfs.c ****                     (LFS_MKTAG(0, 0x3ff, 0) & *filtertag))) {
 491              		.loc 1 751 45 view .LVU128
 492 0024 104A     		ldr	r2, .L41+8
 493              	.LVL34:
 494              		.loc 1 751 45 view .LVU129
 495 0026 1A40     		ands	r2, r2, r3
 750:libraries/littlefs/lfs.c ****                 LFS_MKTAG(LFS_TYPE_DELETE, 0, 0) |
 496              		.loc 1 750 50 view .LVU130
 497 0028 42F09F42 		orr	r2, r2, #1333788672
 498 002c 42F4E002 		orr	r2, r2, #7340032
 748:libraries/littlefs/lfs.c ****             lfs_tag_isdelete(*filtertag) ||
 499              		.loc 1 748 42 view .LVU131
 500 0030 9442     		cmp	r4, r2
 501 0032 03D1     		bne	.L30
 502              	.L29:
 752:libraries/littlefs/lfs.c ****         *filtertag = LFS_MKTAG(LFS_FROM_NOOP, 0, 0);
 503              		.loc 1 752 9 is_stmt 1 view .LVU132
 504              		.loc 1 752 20 is_stmt 0 view .LVU133
 505 0034 0023     		movs	r3, #0
 506 0036 0360     		str	r3, [r0]
 753:libraries/littlefs/lfs.c ****         return true;
 507              		.loc 1 753 9 is_stmt 1 view .LVU134
 508              		.loc 1 753 16 is_stmt 0 view .LVU135
 509 0038 0120     		movs	r0, #1
 510              	.LVL35:
 511              	.L27:
 754:libraries/littlefs/lfs.c ****     }
 755:libraries/littlefs/lfs.c **** 
 756:libraries/littlefs/lfs.c ****     // check if we need to adjust for created/deleted tags
 757:libraries/littlefs/lfs.c ****     if (lfs_tag_type1(tag) == LFS_TYPE_SPLICE &&
 758:libraries/littlefs/lfs.c ****             lfs_tag_id(tag) <= lfs_tag_id(*filtertag)) {
 759:libraries/littlefs/lfs.c ****         *filtertag += LFS_MKTAG(0, lfs_tag_splice(tag), 0);
 760:libraries/littlefs/lfs.c ****     }
 761:libraries/littlefs/lfs.c **** 
 762:libraries/littlefs/lfs.c ****     return false;
 763:libraries/littlefs/lfs.c **** }
 512              		.loc 1 763 1 view .LVU136
 513 003a 30BD     		pop	{r4, r5, pc}
 514              	.LVL36:
 515              	.L30:
 757:libraries/littlefs/lfs.c ****             lfs_tag_id(tag) <= lfs_tag_id(*filtertag)) {
 516              		.loc 1 757 5 is_stmt 1 view .LVU137
 517              	.LBB910:
 518              	.LBI910:
 324:libraries/littlefs/lfs.c ****     return (tag & 0x70000000) >> 20;
 519              		.loc 1 324 24 view .LVU138
 520              	.LBB911:
 325:libraries/littlefs/lfs.c **** }
 521              		.loc 1 325 5 view .LVU139
ARM GAS  /var/folders/b4/k4jbz0ms4wg23jtq0w6p483m0000gn/T//ccwZ2VjF.s 			page 24


 325:libraries/littlefs/lfs.c **** }
 522              		.loc 1 325 31 is_stmt 0 view .LVU140
 523 003c 0A0D     		lsrs	r2, r1, #20
 524              	.LVL37:
 325:libraries/littlefs/lfs.c **** }
 525              		.loc 1 325 31 view .LVU141
 526              	.LBE911:
 527              	.LBE910:
 757:libraries/littlefs/lfs.c ****             lfs_tag_id(tag) <= lfs_tag_id(*filtertag)) {
 528              		.loc 1 757 8 view .LVU142
 529 003e 02F4E064 		and	r4, r2, #1792
 530 0042 B4F5806F 		cmp	r4, #1024
 531 0046 09D1     		bne	.L34
 532              	.LVL38:
 533              	.LBB912:
 534              	.LBI912:
 340:libraries/littlefs/lfs.c ****     return (tag & 0x000ffc00) >> 10;
 535              		.loc 1 340 24 is_stmt 1 view .LVU143
 536              	.LBB913:
 341:libraries/littlefs/lfs.c **** }
 537              		.loc 1 341 5 view .LVU144
 341:libraries/littlefs/lfs.c **** }
 538              		.loc 1 341 5 is_stmt 0 view .LVU145
 539              	.LBE913:
 540              	.LBE912:
 541              	.LBB914:
 542              	.LBI914:
 340:libraries/littlefs/lfs.c ****     return (tag & 0x000ffc00) >> 10;
 543              		.loc 1 340 24 is_stmt 1 view .LVU146
 544              	.LBB915:
 341:libraries/littlefs/lfs.c **** }
 545              		.loc 1 341 5 view .LVU147
 341:libraries/littlefs/lfs.c **** }
 546              		.loc 1 341 5 is_stmt 0 view .LVU148
 547              	.LBE915:
 548              	.LBE914:
 757:libraries/littlefs/lfs.c ****             lfs_tag_id(tag) <= lfs_tag_id(*filtertag)) {
 549              		.loc 1 757 47 view .LVU149
 550 0048 C3F38924 		ubfx	r4, r3, #10, #10
 551 004c C1F38921 		ubfx	r1, r1, #10, #10
 552              	.LVL39:
 757:libraries/littlefs/lfs.c ****             lfs_tag_id(tag) <= lfs_tag_id(*filtertag)) {
 553              		.loc 1 757 47 view .LVU150
 554 0050 8C42     		cmp	r4, r1
 759:libraries/littlefs/lfs.c ****     }
 555              		.loc 1 759 9 is_stmt 1 view .LVU151
 556              	.LVL40:
 557              	.LBB916:
 558              	.LBI916:
 336:libraries/littlefs/lfs.c ****     return (int8_t)lfs_tag_chunk(tag);
 559              		.loc 1 336 22 view .LVU152
 560              	.LBB917:
 337:libraries/littlefs/lfs.c **** }
 561              		.loc 1 337 5 view .LVU153
 337:libraries/littlefs/lfs.c **** }
 562              		.loc 1 337 5 is_stmt 0 view .LVU154
 563              	.LBE917:
ARM GAS  /var/folders/b4/k4jbz0ms4wg23jtq0w6p483m0000gn/T//ccwZ2VjF.s 			page 25


 564              	.LBE916:
 333:libraries/littlefs/lfs.c **** }
 565              		.loc 1 333 5 is_stmt 1 view .LVU155
 759:libraries/littlefs/lfs.c ****     }
 566              		.loc 1 759 23 is_stmt 0 view .LVU156
 567 0052 22BF     		ittt	cs
 568 0054 52B2     		sxtbcs	r2, r2
 759:libraries/littlefs/lfs.c ****     }
 569              		.loc 1 759 20 view .LVU157
 570 0056 03EB8223 		addcs	r3, r3, r2, lsl #10
 571 005a 0360     		strcs	r3, [r0]
 572              	.L34:
 762:libraries/littlefs/lfs.c **** }
 573              		.loc 1 762 12 view .LVU158
 574 005c 0020     		movs	r0, #0
 575              	.LVL41:
 762:libraries/littlefs/lfs.c **** }
 576              		.loc 1 762 12 view .LVU159
 577 005e ECE7     		b	.L27
 578              	.L42:
 579              		.align	2
 580              	.L41:
 581 0060 00FCFF7F 		.word	2147482624
 582 0064 00FC0F70 		.word	1880095744
 583 0068 00FC0F00 		.word	1047552
 584              		.cfi_endproc
 585              	.LFE62:
 587              		.section	.text.lfs_dir_commit_size,"ax",%progbits
 588              		.align	1
 589              		.syntax unified
 590              		.thumb
 591              		.thumb_func
 593              	lfs_dir_commit_size:
 594              	.LVL42:
 595              	.LFB76:
 764:libraries/littlefs/lfs.c **** #endif
 765:libraries/littlefs/lfs.c **** 
 766:libraries/littlefs/lfs.c **** #ifndef LFS_READONLY
 767:libraries/littlefs/lfs.c **** // maximum recursive depth of lfs_dir_traverse, the deepest call:
 768:libraries/littlefs/lfs.c **** //
 769:libraries/littlefs/lfs.c **** // traverse with commit
 770:libraries/littlefs/lfs.c **** // '-> traverse with move
 771:libraries/littlefs/lfs.c **** //     '-> traverse with filter
 772:libraries/littlefs/lfs.c **** //
 773:libraries/littlefs/lfs.c **** #define LFS_DIR_TRAVERSE_DEPTH 3
 774:libraries/littlefs/lfs.c **** 
 775:libraries/littlefs/lfs.c **** struct lfs_dir_traverse {
 776:libraries/littlefs/lfs.c ****     const lfs_mdir_t *dir;
 777:libraries/littlefs/lfs.c ****     lfs_off_t off;
 778:libraries/littlefs/lfs.c ****     lfs_tag_t ptag;
 779:libraries/littlefs/lfs.c ****     const struct lfs_mattr *attrs;
 780:libraries/littlefs/lfs.c ****     int attrcount;
 781:libraries/littlefs/lfs.c **** 
 782:libraries/littlefs/lfs.c ****     lfs_tag_t tmask;
 783:libraries/littlefs/lfs.c ****     lfs_tag_t ttag;
 784:libraries/littlefs/lfs.c ****     uint16_t begin;
 785:libraries/littlefs/lfs.c ****     uint16_t end;
ARM GAS  /var/folders/b4/k4jbz0ms4wg23jtq0w6p483m0000gn/T//ccwZ2VjF.s 			page 26


 786:libraries/littlefs/lfs.c ****     int16_t diff;
 787:libraries/littlefs/lfs.c **** 
 788:libraries/littlefs/lfs.c ****     int (*cb)(void *data, lfs_tag_t tag, const void *buffer);
 789:libraries/littlefs/lfs.c ****     void *data;
 790:libraries/littlefs/lfs.c **** 
 791:libraries/littlefs/lfs.c ****     lfs_tag_t tag;
 792:libraries/littlefs/lfs.c ****     const void *buffer;
 793:libraries/littlefs/lfs.c ****     struct lfs_diskoff disk;
 794:libraries/littlefs/lfs.c **** };
 795:libraries/littlefs/lfs.c **** 
 796:libraries/littlefs/lfs.c **** static int lfs_dir_traverse(lfs_t *lfs,
 797:libraries/littlefs/lfs.c ****         const lfs_mdir_t *dir, lfs_off_t off, lfs_tag_t ptag,
 798:libraries/littlefs/lfs.c ****         const struct lfs_mattr *attrs, int attrcount,
 799:libraries/littlefs/lfs.c ****         lfs_tag_t tmask, lfs_tag_t ttag,
 800:libraries/littlefs/lfs.c ****         uint16_t begin, uint16_t end, int16_t diff,
 801:libraries/littlefs/lfs.c ****         int (*cb)(void *data, lfs_tag_t tag, const void *buffer), void *data) {
 802:libraries/littlefs/lfs.c ****     // This function in inherently recursive, but bounded. To allow tool-based
 803:libraries/littlefs/lfs.c ****     // analysis without unnecessary code-cost we use an explicit stack
 804:libraries/littlefs/lfs.c ****     struct lfs_dir_traverse stack[LFS_DIR_TRAVERSE_DEPTH-1];
 805:libraries/littlefs/lfs.c ****     unsigned sp = 0;
 806:libraries/littlefs/lfs.c ****     int res;
 807:libraries/littlefs/lfs.c **** 
 808:libraries/littlefs/lfs.c ****     // iterate over directory and attrs
 809:libraries/littlefs/lfs.c ****     lfs_tag_t tag;
 810:libraries/littlefs/lfs.c ****     const void *buffer;
 811:libraries/littlefs/lfs.c ****     struct lfs_diskoff disk;
 812:libraries/littlefs/lfs.c ****     while (true) {
 813:libraries/littlefs/lfs.c ****         {
 814:libraries/littlefs/lfs.c ****             if (off+lfs_tag_dsize(ptag) < dir->off) {
 815:libraries/littlefs/lfs.c ****                 off += lfs_tag_dsize(ptag);
 816:libraries/littlefs/lfs.c ****                 int err = lfs_bd_read(lfs,
 817:libraries/littlefs/lfs.c ****                         NULL, &lfs->rcache, sizeof(tag),
 818:libraries/littlefs/lfs.c ****                         dir->pair[0], off, &tag, sizeof(tag));
 819:libraries/littlefs/lfs.c ****                 if (err) {
 820:libraries/littlefs/lfs.c ****                     return err;
 821:libraries/littlefs/lfs.c ****                 }
 822:libraries/littlefs/lfs.c **** 
 823:libraries/littlefs/lfs.c ****                 tag = (lfs_frombe32(tag) ^ ptag) | 0x80000000;
 824:libraries/littlefs/lfs.c ****                 disk.block = dir->pair[0];
 825:libraries/littlefs/lfs.c ****                 disk.off = off+sizeof(lfs_tag_t);
 826:libraries/littlefs/lfs.c ****                 buffer = &disk;
 827:libraries/littlefs/lfs.c ****                 ptag = tag;
 828:libraries/littlefs/lfs.c ****             } else if (attrcount > 0) {
 829:libraries/littlefs/lfs.c ****                 tag = attrs[0].tag;
 830:libraries/littlefs/lfs.c ****                 buffer = attrs[0].buffer;
 831:libraries/littlefs/lfs.c ****                 attrs += 1;
 832:libraries/littlefs/lfs.c ****                 attrcount -= 1;
 833:libraries/littlefs/lfs.c ****             } else {
 834:libraries/littlefs/lfs.c ****                 // finished traversal, pop from stack?
 835:libraries/littlefs/lfs.c ****                 res = 0;
 836:libraries/littlefs/lfs.c ****                 break;
 837:libraries/littlefs/lfs.c ****             }
 838:libraries/littlefs/lfs.c **** 
 839:libraries/littlefs/lfs.c ****             // do we need to filter?
 840:libraries/littlefs/lfs.c ****             lfs_tag_t mask = LFS_MKTAG(0x7ff, 0, 0);
 841:libraries/littlefs/lfs.c ****             if ((mask & tmask & tag) != (mask & tmask & ttag)) {
 842:libraries/littlefs/lfs.c ****                 continue;
ARM GAS  /var/folders/b4/k4jbz0ms4wg23jtq0w6p483m0000gn/T//ccwZ2VjF.s 			page 27


 843:libraries/littlefs/lfs.c ****             }
 844:libraries/littlefs/lfs.c **** 
 845:libraries/littlefs/lfs.c ****             if (lfs_tag_id(tmask) != 0) {
 846:libraries/littlefs/lfs.c ****                 LFS_ASSERT(sp < LFS_DIR_TRAVERSE_DEPTH);
 847:libraries/littlefs/lfs.c ****                 // recurse, scan for duplicates, and update tag based on
 848:libraries/littlefs/lfs.c ****                 // creates/deletes
 849:libraries/littlefs/lfs.c ****                 stack[sp] = (struct lfs_dir_traverse){
 850:libraries/littlefs/lfs.c ****                     .dir        = dir,
 851:libraries/littlefs/lfs.c ****                     .off        = off,
 852:libraries/littlefs/lfs.c ****                     .ptag       = ptag,
 853:libraries/littlefs/lfs.c ****                     .attrs      = attrs,
 854:libraries/littlefs/lfs.c ****                     .attrcount  = attrcount,
 855:libraries/littlefs/lfs.c ****                     .tmask      = tmask,
 856:libraries/littlefs/lfs.c ****                     .ttag       = ttag,
 857:libraries/littlefs/lfs.c ****                     .begin      = begin,
 858:libraries/littlefs/lfs.c ****                     .end        = end,
 859:libraries/littlefs/lfs.c ****                     .diff       = diff,
 860:libraries/littlefs/lfs.c ****                     .cb         = cb,
 861:libraries/littlefs/lfs.c ****                     .data       = data,
 862:libraries/littlefs/lfs.c ****                     .tag        = tag,
 863:libraries/littlefs/lfs.c ****                     .buffer     = buffer,
 864:libraries/littlefs/lfs.c ****                     .disk       = disk,
 865:libraries/littlefs/lfs.c ****                 };
 866:libraries/littlefs/lfs.c ****                 sp += 1;
 867:libraries/littlefs/lfs.c **** 
 868:libraries/littlefs/lfs.c ****                 dir = dir;
 869:libraries/littlefs/lfs.c ****                 off = off;
 870:libraries/littlefs/lfs.c ****                 ptag = ptag;
 871:libraries/littlefs/lfs.c ****                 attrs = attrs;
 872:libraries/littlefs/lfs.c ****                 attrcount = attrcount;
 873:libraries/littlefs/lfs.c ****                 tmask = 0;
 874:libraries/littlefs/lfs.c ****                 ttag = 0;
 875:libraries/littlefs/lfs.c ****                 begin = 0;
 876:libraries/littlefs/lfs.c ****                 end = 0;
 877:libraries/littlefs/lfs.c ****                 diff = 0;
 878:libraries/littlefs/lfs.c ****                 cb = lfs_dir_traverse_filter;
 879:libraries/littlefs/lfs.c ****                 data = &stack[sp-1].tag;
 880:libraries/littlefs/lfs.c ****                 continue;
 881:libraries/littlefs/lfs.c ****             }
 882:libraries/littlefs/lfs.c ****         }
 883:libraries/littlefs/lfs.c **** 
 884:libraries/littlefs/lfs.c **** popped:
 885:libraries/littlefs/lfs.c ****         // in filter range?
 886:libraries/littlefs/lfs.c ****         if (lfs_tag_id(tmask) != 0 &&
 887:libraries/littlefs/lfs.c ****                 !(lfs_tag_id(tag) >= begin && lfs_tag_id(tag) < end)) {
 888:libraries/littlefs/lfs.c ****             continue;
 889:libraries/littlefs/lfs.c ****         }
 890:libraries/littlefs/lfs.c **** 
 891:libraries/littlefs/lfs.c ****         // handle special cases for mcu-side operations
 892:libraries/littlefs/lfs.c ****         if (lfs_tag_type3(tag) == LFS_FROM_NOOP) {
 893:libraries/littlefs/lfs.c ****             // do nothing
 894:libraries/littlefs/lfs.c ****         } else if (lfs_tag_type3(tag) == LFS_FROM_MOVE) {
 895:libraries/littlefs/lfs.c ****             // Without this condition, lfs_dir_traverse can exhibit an
 896:libraries/littlefs/lfs.c ****             // extremely expensive O(n^3) of nested loops when renaming.
 897:libraries/littlefs/lfs.c ****             // This happens because lfs_dir_traverse tries to filter tags by
 898:libraries/littlefs/lfs.c ****             // the tags in the source directory, triggering a second
 899:libraries/littlefs/lfs.c ****             // lfs_dir_traverse with its own filter operation.
ARM GAS  /var/folders/b4/k4jbz0ms4wg23jtq0w6p483m0000gn/T//ccwZ2VjF.s 			page 28


 900:libraries/littlefs/lfs.c ****             //
 901:libraries/littlefs/lfs.c ****             // traverse with commit
 902:libraries/littlefs/lfs.c ****             // '-> traverse with filter
 903:libraries/littlefs/lfs.c ****             //     '-> traverse with move
 904:libraries/littlefs/lfs.c ****             //         '-> traverse with filter
 905:libraries/littlefs/lfs.c ****             //
 906:libraries/littlefs/lfs.c ****             // However we don't actually care about filtering the second set of
 907:libraries/littlefs/lfs.c ****             // tags, since duplicate tags have no effect when filtering.
 908:libraries/littlefs/lfs.c ****             //
 909:libraries/littlefs/lfs.c ****             // This check skips this unnecessary recursive filtering explicitly,
 910:libraries/littlefs/lfs.c ****             // reducing this runtime from O(n^3) to O(n^2).
 911:libraries/littlefs/lfs.c ****             if (cb == lfs_dir_traverse_filter) {
 912:libraries/littlefs/lfs.c ****                 continue;
 913:libraries/littlefs/lfs.c ****             }
 914:libraries/littlefs/lfs.c **** 
 915:libraries/littlefs/lfs.c ****             // recurse into move
 916:libraries/littlefs/lfs.c ****             stack[sp] = (struct lfs_dir_traverse){
 917:libraries/littlefs/lfs.c ****                 .dir        = dir,
 918:libraries/littlefs/lfs.c ****                 .off        = off,
 919:libraries/littlefs/lfs.c ****                 .ptag       = ptag,
 920:libraries/littlefs/lfs.c ****                 .attrs      = attrs,
 921:libraries/littlefs/lfs.c ****                 .attrcount  = attrcount,
 922:libraries/littlefs/lfs.c ****                 .tmask      = tmask,
 923:libraries/littlefs/lfs.c ****                 .ttag       = ttag,
 924:libraries/littlefs/lfs.c ****                 .begin      = begin,
 925:libraries/littlefs/lfs.c ****                 .end        = end,
 926:libraries/littlefs/lfs.c ****                 .diff       = diff,
 927:libraries/littlefs/lfs.c ****                 .cb         = cb,
 928:libraries/littlefs/lfs.c ****                 .data       = data,
 929:libraries/littlefs/lfs.c ****                 .tag        = LFS_MKTAG(LFS_FROM_NOOP, 0, 0),
 930:libraries/littlefs/lfs.c ****             };
 931:libraries/littlefs/lfs.c ****             sp += 1;
 932:libraries/littlefs/lfs.c **** 
 933:libraries/littlefs/lfs.c ****             uint16_t fromid = lfs_tag_size(tag);
 934:libraries/littlefs/lfs.c ****             uint16_t toid = lfs_tag_id(tag);
 935:libraries/littlefs/lfs.c ****             dir = buffer;
 936:libraries/littlefs/lfs.c ****             off = 0;
 937:libraries/littlefs/lfs.c ****             ptag = 0xffffffff;
 938:libraries/littlefs/lfs.c ****             attrs = NULL;
 939:libraries/littlefs/lfs.c ****             attrcount = 0;
 940:libraries/littlefs/lfs.c ****             tmask = LFS_MKTAG(0x600, 0x3ff, 0);
 941:libraries/littlefs/lfs.c ****             ttag = LFS_MKTAG(LFS_TYPE_STRUCT, 0, 0);
 942:libraries/littlefs/lfs.c ****             begin = fromid;
 943:libraries/littlefs/lfs.c ****             end = fromid+1;
 944:libraries/littlefs/lfs.c ****             diff = toid-fromid+diff;
 945:libraries/littlefs/lfs.c ****         } else if (lfs_tag_type3(tag) == LFS_FROM_USERATTRS) {
 946:libraries/littlefs/lfs.c ****             for (unsigned i = 0; i < lfs_tag_size(tag); i++) {
 947:libraries/littlefs/lfs.c ****                 const struct lfs_attr *a = buffer;
 948:libraries/littlefs/lfs.c ****                 res = cb(data, LFS_MKTAG(LFS_TYPE_USERATTR + a[i].type,
 949:libraries/littlefs/lfs.c ****                         lfs_tag_id(tag) + diff, a[i].size), a[i].buffer);
 950:libraries/littlefs/lfs.c ****                 if (res < 0) {
 951:libraries/littlefs/lfs.c ****                     return res;
 952:libraries/littlefs/lfs.c ****                 }
 953:libraries/littlefs/lfs.c **** 
 954:libraries/littlefs/lfs.c ****                 if (res) {
 955:libraries/littlefs/lfs.c ****                     break;
 956:libraries/littlefs/lfs.c ****                 }
ARM GAS  /var/folders/b4/k4jbz0ms4wg23jtq0w6p483m0000gn/T//ccwZ2VjF.s 			page 29


 957:libraries/littlefs/lfs.c ****             }
 958:libraries/littlefs/lfs.c ****         } else {
 959:libraries/littlefs/lfs.c ****             res = cb(data, tag + LFS_MKTAG(0, diff, 0), buffer);
 960:libraries/littlefs/lfs.c ****             if (res < 0) {
 961:libraries/littlefs/lfs.c ****                 return res;
 962:libraries/littlefs/lfs.c ****             }
 963:libraries/littlefs/lfs.c **** 
 964:libraries/littlefs/lfs.c ****             if (res) {
 965:libraries/littlefs/lfs.c ****                 break;
 966:libraries/littlefs/lfs.c ****             }
 967:libraries/littlefs/lfs.c ****         }
 968:libraries/littlefs/lfs.c ****     }
 969:libraries/littlefs/lfs.c **** 
 970:libraries/littlefs/lfs.c ****     if (sp > 0) {
 971:libraries/littlefs/lfs.c ****         // pop from the stack and return, fortunately all pops share
 972:libraries/littlefs/lfs.c ****         // a destination
 973:libraries/littlefs/lfs.c ****         dir         = stack[sp-1].dir;
 974:libraries/littlefs/lfs.c ****         off         = stack[sp-1].off;
 975:libraries/littlefs/lfs.c ****         ptag        = stack[sp-1].ptag;
 976:libraries/littlefs/lfs.c ****         attrs       = stack[sp-1].attrs;
 977:libraries/littlefs/lfs.c ****         attrcount   = stack[sp-1].attrcount;
 978:libraries/littlefs/lfs.c ****         tmask       = stack[sp-1].tmask;
 979:libraries/littlefs/lfs.c ****         ttag        = stack[sp-1].ttag;
 980:libraries/littlefs/lfs.c ****         begin       = stack[sp-1].begin;
 981:libraries/littlefs/lfs.c ****         end         = stack[sp-1].end;
 982:libraries/littlefs/lfs.c ****         diff        = stack[sp-1].diff;
 983:libraries/littlefs/lfs.c ****         cb          = stack[sp-1].cb;
 984:libraries/littlefs/lfs.c ****         data        = stack[sp-1].data;
 985:libraries/littlefs/lfs.c ****         tag         = stack[sp-1].tag;
 986:libraries/littlefs/lfs.c ****         buffer      = stack[sp-1].buffer;
 987:libraries/littlefs/lfs.c ****         disk        = stack[sp-1].disk;
 988:libraries/littlefs/lfs.c ****         sp -= 1;
 989:libraries/littlefs/lfs.c ****         goto popped;
 990:libraries/littlefs/lfs.c ****     } else {
 991:libraries/littlefs/lfs.c ****         return res;
 992:libraries/littlefs/lfs.c ****     }
 993:libraries/littlefs/lfs.c **** }
 994:libraries/littlefs/lfs.c **** #endif
 995:libraries/littlefs/lfs.c **** 
 996:libraries/littlefs/lfs.c **** static lfs_stag_t lfs_dir_fetchmatch(lfs_t *lfs,
 997:libraries/littlefs/lfs.c ****         lfs_mdir_t *dir, const lfs_block_t pair[2],
 998:libraries/littlefs/lfs.c ****         lfs_tag_t fmask, lfs_tag_t ftag, uint16_t *id,
 999:libraries/littlefs/lfs.c ****         int (*cb)(void *data, lfs_tag_t tag, const void *buffer), void *data) {
1000:libraries/littlefs/lfs.c ****     // we can find tag very efficiently during a fetch, since we're already
1001:libraries/littlefs/lfs.c ****     // scanning the entire directory
1002:libraries/littlefs/lfs.c ****     lfs_stag_t besttag = -1;
1003:libraries/littlefs/lfs.c **** 
1004:libraries/littlefs/lfs.c ****     // if either block address is invalid we return LFS_ERR_CORRUPT here,
1005:libraries/littlefs/lfs.c ****     // otherwise later writes to the pair could fail
1006:libraries/littlefs/lfs.c ****     if (pair[0] >= lfs->cfg->block_count || pair[1] >= lfs->cfg->block_count) {
1007:libraries/littlefs/lfs.c ****         return LFS_ERR_CORRUPT;
1008:libraries/littlefs/lfs.c ****     }
1009:libraries/littlefs/lfs.c **** 
1010:libraries/littlefs/lfs.c ****     // find the block with the most recent revision
1011:libraries/littlefs/lfs.c ****     uint32_t revs[2] = {0, 0};
1012:libraries/littlefs/lfs.c ****     int r = 0;
1013:libraries/littlefs/lfs.c ****     for (int i = 0; i < 2; i++) {
ARM GAS  /var/folders/b4/k4jbz0ms4wg23jtq0w6p483m0000gn/T//ccwZ2VjF.s 			page 30


1014:libraries/littlefs/lfs.c ****         int err = lfs_bd_read(lfs,
1015:libraries/littlefs/lfs.c ****                 NULL, &lfs->rcache, sizeof(revs[i]),
1016:libraries/littlefs/lfs.c ****                 pair[i], 0, &revs[i], sizeof(revs[i]));
1017:libraries/littlefs/lfs.c ****         revs[i] = lfs_fromle32(revs[i]);
1018:libraries/littlefs/lfs.c ****         if (err && err != LFS_ERR_CORRUPT) {
1019:libraries/littlefs/lfs.c ****             return err;
1020:libraries/littlefs/lfs.c ****         }
1021:libraries/littlefs/lfs.c **** 
1022:libraries/littlefs/lfs.c ****         if (err != LFS_ERR_CORRUPT &&
1023:libraries/littlefs/lfs.c ****                 lfs_scmp(revs[i], revs[(i+1)%2]) > 0) {
1024:libraries/littlefs/lfs.c ****             r = i;
1025:libraries/littlefs/lfs.c ****         }
1026:libraries/littlefs/lfs.c ****     }
1027:libraries/littlefs/lfs.c **** 
1028:libraries/littlefs/lfs.c ****     dir->pair[0] = pair[(r+0)%2];
1029:libraries/littlefs/lfs.c ****     dir->pair[1] = pair[(r+1)%2];
1030:libraries/littlefs/lfs.c ****     dir->rev = revs[(r+0)%2];
1031:libraries/littlefs/lfs.c ****     dir->off = 0; // nonzero = found some commits
1032:libraries/littlefs/lfs.c **** 
1033:libraries/littlefs/lfs.c ****     // now scan tags to fetch the actual dir and find possible match
1034:libraries/littlefs/lfs.c ****     for (int i = 0; i < 2; i++) {
1035:libraries/littlefs/lfs.c ****         lfs_off_t off = 0;
1036:libraries/littlefs/lfs.c ****         lfs_tag_t ptag = 0xffffffff;
1037:libraries/littlefs/lfs.c **** 
1038:libraries/littlefs/lfs.c ****         uint16_t tempcount = 0;
1039:libraries/littlefs/lfs.c ****         lfs_block_t temptail[2] = {LFS_BLOCK_NULL, LFS_BLOCK_NULL};
1040:libraries/littlefs/lfs.c ****         bool tempsplit = false;
1041:libraries/littlefs/lfs.c ****         lfs_stag_t tempbesttag = besttag;
1042:libraries/littlefs/lfs.c **** 
1043:libraries/littlefs/lfs.c ****         dir->rev = lfs_tole32(dir->rev);
1044:libraries/littlefs/lfs.c ****         uint32_t crc = lfs_crc(0xffffffff, &dir->rev, sizeof(dir->rev));
1045:libraries/littlefs/lfs.c ****         dir->rev = lfs_fromle32(dir->rev);
1046:libraries/littlefs/lfs.c **** 
1047:libraries/littlefs/lfs.c ****         while (true) {
1048:libraries/littlefs/lfs.c ****             // extract next tag
1049:libraries/littlefs/lfs.c ****             lfs_tag_t tag;
1050:libraries/littlefs/lfs.c ****             off += lfs_tag_dsize(ptag);
1051:libraries/littlefs/lfs.c ****             int err = lfs_bd_read(lfs,
1052:libraries/littlefs/lfs.c ****                     NULL, &lfs->rcache, lfs->cfg->block_size,
1053:libraries/littlefs/lfs.c ****                     dir->pair[0], off, &tag, sizeof(tag));
1054:libraries/littlefs/lfs.c ****             if (err) {
1055:libraries/littlefs/lfs.c ****                 if (err == LFS_ERR_CORRUPT) {
1056:libraries/littlefs/lfs.c ****                     // can't continue?
1057:libraries/littlefs/lfs.c ****                     dir->erased = false;
1058:libraries/littlefs/lfs.c ****                     break;
1059:libraries/littlefs/lfs.c ****                 }
1060:libraries/littlefs/lfs.c ****                 return err;
1061:libraries/littlefs/lfs.c ****             }
1062:libraries/littlefs/lfs.c **** 
1063:libraries/littlefs/lfs.c ****             crc = lfs_crc(crc, &tag, sizeof(tag));
1064:libraries/littlefs/lfs.c ****             tag = lfs_frombe32(tag) ^ ptag;
1065:libraries/littlefs/lfs.c **** 
1066:libraries/littlefs/lfs.c ****             // next commit not yet programmed or we're not in valid range
1067:libraries/littlefs/lfs.c ****             if (!lfs_tag_isvalid(tag)) {
1068:libraries/littlefs/lfs.c ****                 dir->erased = (lfs_tag_type1(ptag) == LFS_TYPE_CRC &&
1069:libraries/littlefs/lfs.c ****                         dir->off % lfs->cfg->prog_size == 0);
1070:libraries/littlefs/lfs.c ****                 break;
ARM GAS  /var/folders/b4/k4jbz0ms4wg23jtq0w6p483m0000gn/T//ccwZ2VjF.s 			page 31


1071:libraries/littlefs/lfs.c ****             } else if (off + lfs_tag_dsize(tag) > lfs->cfg->block_size) {
1072:libraries/littlefs/lfs.c ****                 dir->erased = false;
1073:libraries/littlefs/lfs.c ****                 break;
1074:libraries/littlefs/lfs.c ****             }
1075:libraries/littlefs/lfs.c **** 
1076:libraries/littlefs/lfs.c ****             ptag = tag;
1077:libraries/littlefs/lfs.c **** 
1078:libraries/littlefs/lfs.c ****             if (lfs_tag_type1(tag) == LFS_TYPE_CRC) {
1079:libraries/littlefs/lfs.c ****                 // check the crc attr
1080:libraries/littlefs/lfs.c ****                 uint32_t dcrc;
1081:libraries/littlefs/lfs.c ****                 err = lfs_bd_read(lfs,
1082:libraries/littlefs/lfs.c ****                         NULL, &lfs->rcache, lfs->cfg->block_size,
1083:libraries/littlefs/lfs.c ****                         dir->pair[0], off+sizeof(tag), &dcrc, sizeof(dcrc));
1084:libraries/littlefs/lfs.c ****                 if (err) {
1085:libraries/littlefs/lfs.c ****                     if (err == LFS_ERR_CORRUPT) {
1086:libraries/littlefs/lfs.c ****                         dir->erased = false;
1087:libraries/littlefs/lfs.c ****                         break;
1088:libraries/littlefs/lfs.c ****                     }
1089:libraries/littlefs/lfs.c ****                     return err;
1090:libraries/littlefs/lfs.c ****                 }
1091:libraries/littlefs/lfs.c ****                 dcrc = lfs_fromle32(dcrc);
1092:libraries/littlefs/lfs.c **** 
1093:libraries/littlefs/lfs.c ****                 if (crc != dcrc) {
1094:libraries/littlefs/lfs.c ****                     dir->erased = false;
1095:libraries/littlefs/lfs.c ****                     break;
1096:libraries/littlefs/lfs.c ****                 }
1097:libraries/littlefs/lfs.c **** 
1098:libraries/littlefs/lfs.c ****                 // reset the next bit if we need to
1099:libraries/littlefs/lfs.c ****                 ptag ^= (lfs_tag_t)(lfs_tag_chunk(tag) & 1U) << 31;
1100:libraries/littlefs/lfs.c **** 
1101:libraries/littlefs/lfs.c ****                 // toss our crc into the filesystem seed for
1102:libraries/littlefs/lfs.c ****                 // pseudorandom numbers, note we use another crc here
1103:libraries/littlefs/lfs.c ****                 // as a collection function because it is sufficiently
1104:libraries/littlefs/lfs.c ****                 // random and convenient
1105:libraries/littlefs/lfs.c ****                 lfs->seed = lfs_crc(lfs->seed, &crc, sizeof(crc));
1106:libraries/littlefs/lfs.c **** 
1107:libraries/littlefs/lfs.c ****                 // update with what's found so far
1108:libraries/littlefs/lfs.c ****                 besttag = tempbesttag;
1109:libraries/littlefs/lfs.c ****                 dir->off = off + lfs_tag_dsize(tag);
1110:libraries/littlefs/lfs.c ****                 dir->etag = ptag;
1111:libraries/littlefs/lfs.c ****                 dir->count = tempcount;
1112:libraries/littlefs/lfs.c ****                 dir->tail[0] = temptail[0];
1113:libraries/littlefs/lfs.c ****                 dir->tail[1] = temptail[1];
1114:libraries/littlefs/lfs.c ****                 dir->split = tempsplit;
1115:libraries/littlefs/lfs.c **** 
1116:libraries/littlefs/lfs.c ****                 // reset crc
1117:libraries/littlefs/lfs.c ****                 crc = 0xffffffff;
1118:libraries/littlefs/lfs.c ****                 continue;
1119:libraries/littlefs/lfs.c ****             }
1120:libraries/littlefs/lfs.c **** 
1121:libraries/littlefs/lfs.c ****             // crc the entry first, hopefully leaving it in the cache
1122:libraries/littlefs/lfs.c ****             for (lfs_off_t j = sizeof(tag); j < lfs_tag_dsize(tag); j++) {
1123:libraries/littlefs/lfs.c ****                 uint8_t dat;
1124:libraries/littlefs/lfs.c ****                 err = lfs_bd_read(lfs,
1125:libraries/littlefs/lfs.c ****                         NULL, &lfs->rcache, lfs->cfg->block_size,
1126:libraries/littlefs/lfs.c ****                         dir->pair[0], off+j, &dat, 1);
1127:libraries/littlefs/lfs.c ****                 if (err) {
ARM GAS  /var/folders/b4/k4jbz0ms4wg23jtq0w6p483m0000gn/T//ccwZ2VjF.s 			page 32


1128:libraries/littlefs/lfs.c ****                     if (err == LFS_ERR_CORRUPT) {
1129:libraries/littlefs/lfs.c ****                         dir->erased = false;
1130:libraries/littlefs/lfs.c ****                         break;
1131:libraries/littlefs/lfs.c ****                     }
1132:libraries/littlefs/lfs.c ****                     return err;
1133:libraries/littlefs/lfs.c ****                 }
1134:libraries/littlefs/lfs.c **** 
1135:libraries/littlefs/lfs.c ****                 crc = lfs_crc(crc, &dat, 1);
1136:libraries/littlefs/lfs.c ****             }
1137:libraries/littlefs/lfs.c **** 
1138:libraries/littlefs/lfs.c ****             // directory modification tags?
1139:libraries/littlefs/lfs.c ****             if (lfs_tag_type1(tag) == LFS_TYPE_NAME) {
1140:libraries/littlefs/lfs.c ****                 // increase count of files if necessary
1141:libraries/littlefs/lfs.c ****                 if (lfs_tag_id(tag) >= tempcount) {
1142:libraries/littlefs/lfs.c ****                     tempcount = lfs_tag_id(tag) + 1;
1143:libraries/littlefs/lfs.c ****                 }
1144:libraries/littlefs/lfs.c ****             } else if (lfs_tag_type1(tag) == LFS_TYPE_SPLICE) {
1145:libraries/littlefs/lfs.c ****                 tempcount += lfs_tag_splice(tag);
1146:libraries/littlefs/lfs.c **** 
1147:libraries/littlefs/lfs.c ****                 if (tag == (LFS_MKTAG(LFS_TYPE_DELETE, 0, 0) |
1148:libraries/littlefs/lfs.c ****                         (LFS_MKTAG(0, 0x3ff, 0) & tempbesttag))) {
1149:libraries/littlefs/lfs.c ****                     tempbesttag |= 0x80000000;
1150:libraries/littlefs/lfs.c ****                 } else if (tempbesttag != -1 &&
1151:libraries/littlefs/lfs.c ****                         lfs_tag_id(tag) <= lfs_tag_id(tempbesttag)) {
1152:libraries/littlefs/lfs.c ****                     tempbesttag += LFS_MKTAG(0, lfs_tag_splice(tag), 0);
1153:libraries/littlefs/lfs.c ****                 }
1154:libraries/littlefs/lfs.c ****             } else if (lfs_tag_type1(tag) == LFS_TYPE_TAIL) {
1155:libraries/littlefs/lfs.c ****                 tempsplit = (lfs_tag_chunk(tag) & 1);
1156:libraries/littlefs/lfs.c **** 
1157:libraries/littlefs/lfs.c ****                 err = lfs_bd_read(lfs,
1158:libraries/littlefs/lfs.c ****                         NULL, &lfs->rcache, lfs->cfg->block_size,
1159:libraries/littlefs/lfs.c ****                         dir->pair[0], off+sizeof(tag), &temptail, 8);
1160:libraries/littlefs/lfs.c ****                 if (err) {
1161:libraries/littlefs/lfs.c ****                     if (err == LFS_ERR_CORRUPT) {
1162:libraries/littlefs/lfs.c ****                         dir->erased = false;
1163:libraries/littlefs/lfs.c ****                         break;
1164:libraries/littlefs/lfs.c ****                     }
1165:libraries/littlefs/lfs.c ****                 }
1166:libraries/littlefs/lfs.c ****                 lfs_pair_fromle32(temptail);
1167:libraries/littlefs/lfs.c ****             }
1168:libraries/littlefs/lfs.c **** 
1169:libraries/littlefs/lfs.c ****             // found a match for our fetcher?
1170:libraries/littlefs/lfs.c ****             if ((fmask & tag) == (fmask & ftag)) {
1171:libraries/littlefs/lfs.c ****                 int res = cb(data, tag, &(struct lfs_diskoff){
1172:libraries/littlefs/lfs.c ****                         dir->pair[0], off+sizeof(tag)});
1173:libraries/littlefs/lfs.c ****                 if (res < 0) {
1174:libraries/littlefs/lfs.c ****                     if (res == LFS_ERR_CORRUPT) {
1175:libraries/littlefs/lfs.c ****                         dir->erased = false;
1176:libraries/littlefs/lfs.c ****                         break;
1177:libraries/littlefs/lfs.c ****                     }
1178:libraries/littlefs/lfs.c ****                     return res;
1179:libraries/littlefs/lfs.c ****                 }
1180:libraries/littlefs/lfs.c **** 
1181:libraries/littlefs/lfs.c ****                 if (res == LFS_CMP_EQ) {
1182:libraries/littlefs/lfs.c ****                     // found a match
1183:libraries/littlefs/lfs.c ****                     tempbesttag = tag;
1184:libraries/littlefs/lfs.c ****                 } else if ((LFS_MKTAG(0x7ff, 0x3ff, 0) & tag) ==
ARM GAS  /var/folders/b4/k4jbz0ms4wg23jtq0w6p483m0000gn/T//ccwZ2VjF.s 			page 33


1185:libraries/littlefs/lfs.c ****                         (LFS_MKTAG(0x7ff, 0x3ff, 0) & tempbesttag)) {
1186:libraries/littlefs/lfs.c ****                     // found an identical tag, but contents didn't match
1187:libraries/littlefs/lfs.c ****                     // this must mean that our besttag has been overwritten
1188:libraries/littlefs/lfs.c ****                     tempbesttag = -1;
1189:libraries/littlefs/lfs.c ****                 } else if (res == LFS_CMP_GT &&
1190:libraries/littlefs/lfs.c ****                         lfs_tag_id(tag) <= lfs_tag_id(tempbesttag)) {
1191:libraries/littlefs/lfs.c ****                     // found a greater match, keep track to keep things sorted
1192:libraries/littlefs/lfs.c ****                     tempbesttag = tag | 0x80000000;
1193:libraries/littlefs/lfs.c ****                 }
1194:libraries/littlefs/lfs.c ****             }
1195:libraries/littlefs/lfs.c ****         }
1196:libraries/littlefs/lfs.c **** 
1197:libraries/littlefs/lfs.c ****         // consider what we have good enough
1198:libraries/littlefs/lfs.c ****         if (dir->off > 0) {
1199:libraries/littlefs/lfs.c ****             // synthetic move
1200:libraries/littlefs/lfs.c ****             if (lfs_gstate_hasmovehere(&lfs->gdisk, dir->pair)) {
1201:libraries/littlefs/lfs.c ****                 if (lfs_tag_id(lfs->gdisk.tag) == lfs_tag_id(besttag)) {
1202:libraries/littlefs/lfs.c ****                     besttag |= 0x80000000;
1203:libraries/littlefs/lfs.c ****                 } else if (besttag != -1 &&
1204:libraries/littlefs/lfs.c ****                         lfs_tag_id(lfs->gdisk.tag) < lfs_tag_id(besttag)) {
1205:libraries/littlefs/lfs.c ****                     besttag -= LFS_MKTAG(0, 1, 0);
1206:libraries/littlefs/lfs.c ****                 }
1207:libraries/littlefs/lfs.c ****             }
1208:libraries/littlefs/lfs.c **** 
1209:libraries/littlefs/lfs.c ****             // found tag? or found best id?
1210:libraries/littlefs/lfs.c ****             if (id) {
1211:libraries/littlefs/lfs.c ****                 *id = lfs_min(lfs_tag_id(besttag), dir->count);
1212:libraries/littlefs/lfs.c ****             }
1213:libraries/littlefs/lfs.c **** 
1214:libraries/littlefs/lfs.c ****             if (lfs_tag_isvalid(besttag)) {
1215:libraries/littlefs/lfs.c ****                 return besttag;
1216:libraries/littlefs/lfs.c ****             } else if (lfs_tag_id(besttag) < dir->count) {
1217:libraries/littlefs/lfs.c ****                 return LFS_ERR_NOENT;
1218:libraries/littlefs/lfs.c ****             } else {
1219:libraries/littlefs/lfs.c ****                 return 0;
1220:libraries/littlefs/lfs.c ****             }
1221:libraries/littlefs/lfs.c ****         }
1222:libraries/littlefs/lfs.c **** 
1223:libraries/littlefs/lfs.c ****         // failed, try the other block?
1224:libraries/littlefs/lfs.c ****         lfs_pair_swap(dir->pair);
1225:libraries/littlefs/lfs.c ****         dir->rev = revs[(r+1)%2];
1226:libraries/littlefs/lfs.c ****     }
1227:libraries/littlefs/lfs.c **** 
1228:libraries/littlefs/lfs.c ****     LFS_ERROR("Corrupted dir pair at {0x%"PRIx32", 0x%"PRIx32"}",
1229:libraries/littlefs/lfs.c ****             dir->pair[0], dir->pair[1]);
1230:libraries/littlefs/lfs.c ****     return LFS_ERR_CORRUPT;
1231:libraries/littlefs/lfs.c **** }
1232:libraries/littlefs/lfs.c **** 
1233:libraries/littlefs/lfs.c **** static int lfs_dir_fetch(lfs_t *lfs,
1234:libraries/littlefs/lfs.c ****         lfs_mdir_t *dir, const lfs_block_t pair[2]) {
1235:libraries/littlefs/lfs.c ****     // note, mask=-1, tag=-1 can never match a tag since this
1236:libraries/littlefs/lfs.c ****     // pattern has the invalid bit set
1237:libraries/littlefs/lfs.c ****     return (int)lfs_dir_fetchmatch(lfs, dir, pair,
1238:libraries/littlefs/lfs.c ****             (lfs_tag_t)-1, (lfs_tag_t)-1, NULL, NULL, NULL);
1239:libraries/littlefs/lfs.c **** }
1240:libraries/littlefs/lfs.c **** 
1241:libraries/littlefs/lfs.c **** static int lfs_dir_getgstate(lfs_t *lfs, const lfs_mdir_t *dir,
ARM GAS  /var/folders/b4/k4jbz0ms4wg23jtq0w6p483m0000gn/T//ccwZ2VjF.s 			page 34


1242:libraries/littlefs/lfs.c ****         lfs_gstate_t *gstate) {
1243:libraries/littlefs/lfs.c ****     lfs_gstate_t temp;
1244:libraries/littlefs/lfs.c ****     lfs_stag_t res = lfs_dir_get(lfs, dir, LFS_MKTAG(0x7ff, 0, 0),
1245:libraries/littlefs/lfs.c ****             LFS_MKTAG(LFS_TYPE_MOVESTATE, 0, sizeof(temp)), &temp);
1246:libraries/littlefs/lfs.c ****     if (res < 0 && res != LFS_ERR_NOENT) {
1247:libraries/littlefs/lfs.c ****         return res;
1248:libraries/littlefs/lfs.c ****     }
1249:libraries/littlefs/lfs.c **** 
1250:libraries/littlefs/lfs.c ****     if (res != LFS_ERR_NOENT) {
1251:libraries/littlefs/lfs.c ****         // xor together to find resulting gstate
1252:libraries/littlefs/lfs.c ****         lfs_gstate_fromle32(&temp);
1253:libraries/littlefs/lfs.c ****         lfs_gstate_xor(gstate, &temp);
1254:libraries/littlefs/lfs.c ****     }
1255:libraries/littlefs/lfs.c **** 
1256:libraries/littlefs/lfs.c ****     return 0;
1257:libraries/littlefs/lfs.c **** }
1258:libraries/littlefs/lfs.c **** 
1259:libraries/littlefs/lfs.c **** static int lfs_dir_getinfo(lfs_t *lfs, lfs_mdir_t *dir,
1260:libraries/littlefs/lfs.c ****         uint16_t id, struct lfs_info *info) {
1261:libraries/littlefs/lfs.c ****     if (id == 0x3ff) {
1262:libraries/littlefs/lfs.c ****         // special case for root
1263:libraries/littlefs/lfs.c ****         strcpy(info->name, "/");
1264:libraries/littlefs/lfs.c ****         info->type = LFS_TYPE_DIR;
1265:libraries/littlefs/lfs.c ****         return 0;
1266:libraries/littlefs/lfs.c ****     }
1267:libraries/littlefs/lfs.c **** 
1268:libraries/littlefs/lfs.c ****     lfs_stag_t tag = lfs_dir_get(lfs, dir, LFS_MKTAG(0x780, 0x3ff, 0),
1269:libraries/littlefs/lfs.c ****             LFS_MKTAG(LFS_TYPE_NAME, id, lfs->name_max+1), info->name);
1270:libraries/littlefs/lfs.c ****     if (tag < 0) {
1271:libraries/littlefs/lfs.c ****         return (int)tag;
1272:libraries/littlefs/lfs.c ****     }
1273:libraries/littlefs/lfs.c **** 
1274:libraries/littlefs/lfs.c ****     info->type = lfs_tag_type3(tag);
1275:libraries/littlefs/lfs.c **** 
1276:libraries/littlefs/lfs.c ****     struct lfs_ctz ctz;
1277:libraries/littlefs/lfs.c ****     tag = lfs_dir_get(lfs, dir, LFS_MKTAG(0x700, 0x3ff, 0),
1278:libraries/littlefs/lfs.c ****             LFS_MKTAG(LFS_TYPE_STRUCT, id, sizeof(ctz)), &ctz);
1279:libraries/littlefs/lfs.c ****     if (tag < 0) {
1280:libraries/littlefs/lfs.c ****         return (int)tag;
1281:libraries/littlefs/lfs.c ****     }
1282:libraries/littlefs/lfs.c ****     lfs_ctz_fromle32(&ctz);
1283:libraries/littlefs/lfs.c **** 
1284:libraries/littlefs/lfs.c ****     if (lfs_tag_type3(tag) == LFS_TYPE_CTZSTRUCT) {
1285:libraries/littlefs/lfs.c ****         info->size = ctz.size;
1286:libraries/littlefs/lfs.c ****     } else if (lfs_tag_type3(tag) == LFS_TYPE_INLINESTRUCT) {
1287:libraries/littlefs/lfs.c ****         info->size = lfs_tag_size(tag);
1288:libraries/littlefs/lfs.c ****     }
1289:libraries/littlefs/lfs.c **** 
1290:libraries/littlefs/lfs.c ****     return 0;
1291:libraries/littlefs/lfs.c **** }
1292:libraries/littlefs/lfs.c **** 
1293:libraries/littlefs/lfs.c **** struct lfs_dir_find_match {
1294:libraries/littlefs/lfs.c ****     lfs_t *lfs;
1295:libraries/littlefs/lfs.c ****     const void *name;
1296:libraries/littlefs/lfs.c ****     lfs_size_t size;
1297:libraries/littlefs/lfs.c **** };
1298:libraries/littlefs/lfs.c **** 
ARM GAS  /var/folders/b4/k4jbz0ms4wg23jtq0w6p483m0000gn/T//ccwZ2VjF.s 			page 35


1299:libraries/littlefs/lfs.c **** static int lfs_dir_find_match(void *data,
1300:libraries/littlefs/lfs.c ****         lfs_tag_t tag, const void *buffer) {
1301:libraries/littlefs/lfs.c ****     struct lfs_dir_find_match *name = data;
1302:libraries/littlefs/lfs.c ****     lfs_t *lfs = name->lfs;
1303:libraries/littlefs/lfs.c ****     const struct lfs_diskoff *disk = buffer;
1304:libraries/littlefs/lfs.c **** 
1305:libraries/littlefs/lfs.c ****     // compare with disk
1306:libraries/littlefs/lfs.c ****     lfs_size_t diff = lfs_min(name->size, lfs_tag_size(tag));
1307:libraries/littlefs/lfs.c ****     int res = lfs_bd_cmp(lfs,
1308:libraries/littlefs/lfs.c ****             NULL, &lfs->rcache, diff,
1309:libraries/littlefs/lfs.c ****             disk->block, disk->off, name->name, diff);
1310:libraries/littlefs/lfs.c ****     if (res != LFS_CMP_EQ) {
1311:libraries/littlefs/lfs.c ****         return res;
1312:libraries/littlefs/lfs.c ****     }
1313:libraries/littlefs/lfs.c **** 
1314:libraries/littlefs/lfs.c ****     // only equal if our size is still the same
1315:libraries/littlefs/lfs.c ****     if (name->size != lfs_tag_size(tag)) {
1316:libraries/littlefs/lfs.c ****         return (name->size < lfs_tag_size(tag)) ? LFS_CMP_LT : LFS_CMP_GT;
1317:libraries/littlefs/lfs.c ****     }
1318:libraries/littlefs/lfs.c **** 
1319:libraries/littlefs/lfs.c ****     // found a match!
1320:libraries/littlefs/lfs.c ****     return LFS_CMP_EQ;
1321:libraries/littlefs/lfs.c **** }
1322:libraries/littlefs/lfs.c **** 
1323:libraries/littlefs/lfs.c **** static lfs_stag_t lfs_dir_find(lfs_t *lfs, lfs_mdir_t *dir,
1324:libraries/littlefs/lfs.c ****         const char **path, uint16_t *id) {
1325:libraries/littlefs/lfs.c ****     // we reduce path to a single name if we can find it
1326:libraries/littlefs/lfs.c ****     const char *name = *path;
1327:libraries/littlefs/lfs.c ****     if (id) {
1328:libraries/littlefs/lfs.c ****         *id = 0x3ff;
1329:libraries/littlefs/lfs.c ****     }
1330:libraries/littlefs/lfs.c **** 
1331:libraries/littlefs/lfs.c ****     // default to root dir
1332:libraries/littlefs/lfs.c ****     lfs_stag_t tag = LFS_MKTAG(LFS_TYPE_DIR, 0x3ff, 0);
1333:libraries/littlefs/lfs.c ****     dir->tail[0] = lfs->root[0];
1334:libraries/littlefs/lfs.c ****     dir->tail[1] = lfs->root[1];
1335:libraries/littlefs/lfs.c **** 
1336:libraries/littlefs/lfs.c ****     while (true) {
1337:libraries/littlefs/lfs.c **** nextname:
1338:libraries/littlefs/lfs.c ****         // skip slashes
1339:libraries/littlefs/lfs.c ****         name += strspn(name, "/");
1340:libraries/littlefs/lfs.c ****         lfs_size_t namelen = strcspn(name, "/");
1341:libraries/littlefs/lfs.c **** 
1342:libraries/littlefs/lfs.c ****         // skip '.' and root '..'
1343:libraries/littlefs/lfs.c ****         if ((namelen == 1 && memcmp(name, ".", 1) == 0) ||
1344:libraries/littlefs/lfs.c ****             (namelen == 2 && memcmp(name, "..", 2) == 0)) {
1345:libraries/littlefs/lfs.c ****             name += namelen;
1346:libraries/littlefs/lfs.c ****             goto nextname;
1347:libraries/littlefs/lfs.c ****         }
1348:libraries/littlefs/lfs.c **** 
1349:libraries/littlefs/lfs.c ****         // skip if matched by '..' in name
1350:libraries/littlefs/lfs.c ****         const char *suffix = name + namelen;
1351:libraries/littlefs/lfs.c ****         lfs_size_t sufflen;
1352:libraries/littlefs/lfs.c ****         int depth = 1;
1353:libraries/littlefs/lfs.c ****         while (true) {
1354:libraries/littlefs/lfs.c ****             suffix += strspn(suffix, "/");
1355:libraries/littlefs/lfs.c ****             sufflen = strcspn(suffix, "/");
ARM GAS  /var/folders/b4/k4jbz0ms4wg23jtq0w6p483m0000gn/T//ccwZ2VjF.s 			page 36


1356:libraries/littlefs/lfs.c ****             if (sufflen == 0) {
1357:libraries/littlefs/lfs.c ****                 break;
1358:libraries/littlefs/lfs.c ****             }
1359:libraries/littlefs/lfs.c **** 
1360:libraries/littlefs/lfs.c ****             if (sufflen == 2 && memcmp(suffix, "..", 2) == 0) {
1361:libraries/littlefs/lfs.c ****                 depth -= 1;
1362:libraries/littlefs/lfs.c ****                 if (depth == 0) {
1363:libraries/littlefs/lfs.c ****                     name = suffix + sufflen;
1364:libraries/littlefs/lfs.c ****                     goto nextname;
1365:libraries/littlefs/lfs.c ****                 }
1366:libraries/littlefs/lfs.c ****             } else {
1367:libraries/littlefs/lfs.c ****                 depth += 1;
1368:libraries/littlefs/lfs.c ****             }
1369:libraries/littlefs/lfs.c **** 
1370:libraries/littlefs/lfs.c ****             suffix += sufflen;
1371:libraries/littlefs/lfs.c ****         }
1372:libraries/littlefs/lfs.c **** 
1373:libraries/littlefs/lfs.c ****         // found path
1374:libraries/littlefs/lfs.c ****         if (name[0] == '\0') {
1375:libraries/littlefs/lfs.c ****             return tag;
1376:libraries/littlefs/lfs.c ****         }
1377:libraries/littlefs/lfs.c **** 
1378:libraries/littlefs/lfs.c ****         // update what we've found so far
1379:libraries/littlefs/lfs.c ****         *path = name;
1380:libraries/littlefs/lfs.c **** 
1381:libraries/littlefs/lfs.c ****         // only continue if we hit a directory
1382:libraries/littlefs/lfs.c ****         if (lfs_tag_type3(tag) != LFS_TYPE_DIR) {
1383:libraries/littlefs/lfs.c ****             return LFS_ERR_NOTDIR;
1384:libraries/littlefs/lfs.c ****         }
1385:libraries/littlefs/lfs.c **** 
1386:libraries/littlefs/lfs.c ****         // grab the entry data
1387:libraries/littlefs/lfs.c ****         if (lfs_tag_id(tag) != 0x3ff) {
1388:libraries/littlefs/lfs.c ****             lfs_stag_t res = lfs_dir_get(lfs, dir, LFS_MKTAG(0x700, 0x3ff, 0),
1389:libraries/littlefs/lfs.c ****                     LFS_MKTAG(LFS_TYPE_STRUCT, lfs_tag_id(tag), 8), dir->tail);
1390:libraries/littlefs/lfs.c ****             if (res < 0) {
1391:libraries/littlefs/lfs.c ****                 return res;
1392:libraries/littlefs/lfs.c ****             }
1393:libraries/littlefs/lfs.c ****             lfs_pair_fromle32(dir->tail);
1394:libraries/littlefs/lfs.c ****         }
1395:libraries/littlefs/lfs.c **** 
1396:libraries/littlefs/lfs.c ****         // find entry matching name
1397:libraries/littlefs/lfs.c ****         while (true) {
1398:libraries/littlefs/lfs.c ****             tag = lfs_dir_fetchmatch(lfs, dir, dir->tail,
1399:libraries/littlefs/lfs.c ****                     LFS_MKTAG(0x780, 0, 0),
1400:libraries/littlefs/lfs.c ****                     LFS_MKTAG(LFS_TYPE_NAME, 0, namelen),
1401:libraries/littlefs/lfs.c ****                      // are we last name?
1402:libraries/littlefs/lfs.c ****                     (strchr(name, '/') == NULL) ? id : NULL,
1403:libraries/littlefs/lfs.c ****                     lfs_dir_find_match, &(struct lfs_dir_find_match){
1404:libraries/littlefs/lfs.c ****                         lfs, name, namelen});
1405:libraries/littlefs/lfs.c ****             if (tag < 0) {
1406:libraries/littlefs/lfs.c ****                 return tag;
1407:libraries/littlefs/lfs.c ****             }
1408:libraries/littlefs/lfs.c **** 
1409:libraries/littlefs/lfs.c ****             if (tag) {
1410:libraries/littlefs/lfs.c ****                 break;
1411:libraries/littlefs/lfs.c ****             }
1412:libraries/littlefs/lfs.c **** 
ARM GAS  /var/folders/b4/k4jbz0ms4wg23jtq0w6p483m0000gn/T//ccwZ2VjF.s 			page 37


1413:libraries/littlefs/lfs.c ****             if (!dir->split) {
1414:libraries/littlefs/lfs.c ****                 return LFS_ERR_NOENT;
1415:libraries/littlefs/lfs.c ****             }
1416:libraries/littlefs/lfs.c ****         }
1417:libraries/littlefs/lfs.c **** 
1418:libraries/littlefs/lfs.c ****         // to next name
1419:libraries/littlefs/lfs.c ****         name += namelen;
1420:libraries/littlefs/lfs.c ****     }
1421:libraries/littlefs/lfs.c **** }
1422:libraries/littlefs/lfs.c **** 
1423:libraries/littlefs/lfs.c **** // commit logic
1424:libraries/littlefs/lfs.c **** struct lfs_commit {
1425:libraries/littlefs/lfs.c ****     lfs_block_t block;
1426:libraries/littlefs/lfs.c ****     lfs_off_t off;
1427:libraries/littlefs/lfs.c ****     lfs_tag_t ptag;
1428:libraries/littlefs/lfs.c ****     uint32_t crc;
1429:libraries/littlefs/lfs.c **** 
1430:libraries/littlefs/lfs.c ****     lfs_off_t begin;
1431:libraries/littlefs/lfs.c ****     lfs_off_t end;
1432:libraries/littlefs/lfs.c **** };
1433:libraries/littlefs/lfs.c **** 
1434:libraries/littlefs/lfs.c **** #ifndef LFS_READONLY
1435:libraries/littlefs/lfs.c **** static int lfs_dir_commitprog(lfs_t *lfs, struct lfs_commit *commit,
1436:libraries/littlefs/lfs.c ****         const void *buffer, lfs_size_t size) {
1437:libraries/littlefs/lfs.c ****     int err = lfs_bd_prog(lfs,
1438:libraries/littlefs/lfs.c ****             &lfs->pcache, &lfs->rcache, false,
1439:libraries/littlefs/lfs.c ****             commit->block, commit->off ,
1440:libraries/littlefs/lfs.c ****             (const uint8_t*)buffer, size);
1441:libraries/littlefs/lfs.c ****     if (err) {
1442:libraries/littlefs/lfs.c ****         return err;
1443:libraries/littlefs/lfs.c ****     }
1444:libraries/littlefs/lfs.c **** 
1445:libraries/littlefs/lfs.c ****     commit->crc = lfs_crc(commit->crc, buffer, size);
1446:libraries/littlefs/lfs.c ****     commit->off += size;
1447:libraries/littlefs/lfs.c ****     return 0;
1448:libraries/littlefs/lfs.c **** }
1449:libraries/littlefs/lfs.c **** #endif
1450:libraries/littlefs/lfs.c **** 
1451:libraries/littlefs/lfs.c **** #ifndef LFS_READONLY
1452:libraries/littlefs/lfs.c **** static int lfs_dir_commitattr(lfs_t *lfs, struct lfs_commit *commit,
1453:libraries/littlefs/lfs.c ****         lfs_tag_t tag, const void *buffer) {
1454:libraries/littlefs/lfs.c ****     // check if we fit
1455:libraries/littlefs/lfs.c ****     lfs_size_t dsize = lfs_tag_dsize(tag);
1456:libraries/littlefs/lfs.c ****     if (commit->off + dsize > commit->end) {
1457:libraries/littlefs/lfs.c ****         return LFS_ERR_NOSPC;
1458:libraries/littlefs/lfs.c ****     }
1459:libraries/littlefs/lfs.c **** 
1460:libraries/littlefs/lfs.c ****     // write out tag
1461:libraries/littlefs/lfs.c ****     lfs_tag_t ntag = lfs_tobe32((tag & 0x7fffffff) ^ commit->ptag);
1462:libraries/littlefs/lfs.c ****     int err = lfs_dir_commitprog(lfs, commit, &ntag, sizeof(ntag));
1463:libraries/littlefs/lfs.c ****     if (err) {
1464:libraries/littlefs/lfs.c ****         return err;
1465:libraries/littlefs/lfs.c ****     }
1466:libraries/littlefs/lfs.c **** 
1467:libraries/littlefs/lfs.c ****     if (!(tag & 0x80000000)) {
1468:libraries/littlefs/lfs.c ****         // from memory
1469:libraries/littlefs/lfs.c ****         err = lfs_dir_commitprog(lfs, commit, buffer, dsize-sizeof(tag));
ARM GAS  /var/folders/b4/k4jbz0ms4wg23jtq0w6p483m0000gn/T//ccwZ2VjF.s 			page 38


1470:libraries/littlefs/lfs.c ****         if (err) {
1471:libraries/littlefs/lfs.c ****             return err;
1472:libraries/littlefs/lfs.c ****         }
1473:libraries/littlefs/lfs.c ****     } else {
1474:libraries/littlefs/lfs.c ****         // from disk
1475:libraries/littlefs/lfs.c ****         const struct lfs_diskoff *disk = buffer;
1476:libraries/littlefs/lfs.c ****         for (lfs_off_t i = 0; i < dsize-sizeof(tag); i++) {
1477:libraries/littlefs/lfs.c ****             // rely on caching to make this efficient
1478:libraries/littlefs/lfs.c ****             uint8_t dat;
1479:libraries/littlefs/lfs.c ****             err = lfs_bd_read(lfs,
1480:libraries/littlefs/lfs.c ****                     NULL, &lfs->rcache, dsize-sizeof(tag)-i,
1481:libraries/littlefs/lfs.c ****                     disk->block, disk->off+i, &dat, 1);
1482:libraries/littlefs/lfs.c ****             if (err) {
1483:libraries/littlefs/lfs.c ****                 return err;
1484:libraries/littlefs/lfs.c ****             }
1485:libraries/littlefs/lfs.c **** 
1486:libraries/littlefs/lfs.c ****             err = lfs_dir_commitprog(lfs, commit, &dat, 1);
1487:libraries/littlefs/lfs.c ****             if (err) {
1488:libraries/littlefs/lfs.c ****                 return err;
1489:libraries/littlefs/lfs.c ****             }
1490:libraries/littlefs/lfs.c ****         }
1491:libraries/littlefs/lfs.c ****     }
1492:libraries/littlefs/lfs.c **** 
1493:libraries/littlefs/lfs.c ****     commit->ptag = tag & 0x7fffffff;
1494:libraries/littlefs/lfs.c ****     return 0;
1495:libraries/littlefs/lfs.c **** }
1496:libraries/littlefs/lfs.c **** #endif
1497:libraries/littlefs/lfs.c **** 
1498:libraries/littlefs/lfs.c **** #ifndef LFS_READONLY
1499:libraries/littlefs/lfs.c **** static int lfs_dir_commitcrc(lfs_t *lfs, struct lfs_commit *commit) {
1500:libraries/littlefs/lfs.c ****     // align to program units
1501:libraries/littlefs/lfs.c ****     const lfs_off_t end = lfs_alignup(commit->off + 2*sizeof(uint32_t),
1502:libraries/littlefs/lfs.c ****             lfs->cfg->prog_size);
1503:libraries/littlefs/lfs.c **** 
1504:libraries/littlefs/lfs.c ****     lfs_off_t off1 = 0;
1505:libraries/littlefs/lfs.c ****     uint32_t crc1 = 0;
1506:libraries/littlefs/lfs.c **** 
1507:libraries/littlefs/lfs.c ****     // create crc tags to fill up remainder of commit, note that
1508:libraries/littlefs/lfs.c ****     // padding is not crced, which lets fetches skip padding but
1509:libraries/littlefs/lfs.c ****     // makes committing a bit more complicated
1510:libraries/littlefs/lfs.c ****     while (commit->off < end) {
1511:libraries/littlefs/lfs.c ****         lfs_off_t off = commit->off + sizeof(lfs_tag_t);
1512:libraries/littlefs/lfs.c ****         lfs_off_t noff = lfs_min(end - off, 0x3fe) + off;
1513:libraries/littlefs/lfs.c ****         if (noff < end) {
1514:libraries/littlefs/lfs.c ****             noff = lfs_min(noff, end - 2*sizeof(uint32_t));
1515:libraries/littlefs/lfs.c ****         }
1516:libraries/littlefs/lfs.c **** 
1517:libraries/littlefs/lfs.c ****         // read erased state from next program unit
1518:libraries/littlefs/lfs.c ****         lfs_tag_t tag = 0xffffffff;
1519:libraries/littlefs/lfs.c ****         int err = lfs_bd_read(lfs,
1520:libraries/littlefs/lfs.c ****                 NULL, &lfs->rcache, sizeof(tag),
1521:libraries/littlefs/lfs.c ****                 commit->block, noff, &tag, sizeof(tag));
1522:libraries/littlefs/lfs.c ****         if (err && err != LFS_ERR_CORRUPT) {
1523:libraries/littlefs/lfs.c ****             return err;
1524:libraries/littlefs/lfs.c ****         }
1525:libraries/littlefs/lfs.c **** 
1526:libraries/littlefs/lfs.c ****         // build crc tag
ARM GAS  /var/folders/b4/k4jbz0ms4wg23jtq0w6p483m0000gn/T//ccwZ2VjF.s 			page 39


1527:libraries/littlefs/lfs.c ****         bool reset = ~lfs_frombe32(tag) >> 31;
1528:libraries/littlefs/lfs.c ****         tag = LFS_MKTAG(LFS_TYPE_CRC + reset, 0x3ff, noff - off);
1529:libraries/littlefs/lfs.c **** 
1530:libraries/littlefs/lfs.c ****         // write out crc
1531:libraries/littlefs/lfs.c ****         uint32_t footer[2];
1532:libraries/littlefs/lfs.c ****         footer[0] = lfs_tobe32(tag ^ commit->ptag);
1533:libraries/littlefs/lfs.c ****         commit->crc = lfs_crc(commit->crc, &footer[0], sizeof(footer[0]));
1534:libraries/littlefs/lfs.c ****         footer[1] = lfs_tole32(commit->crc);
1535:libraries/littlefs/lfs.c ****         err = lfs_bd_prog(lfs,
1536:libraries/littlefs/lfs.c ****                 &lfs->pcache, &lfs->rcache, false,
1537:libraries/littlefs/lfs.c ****                 commit->block, commit->off, &footer, sizeof(footer));
1538:libraries/littlefs/lfs.c ****         if (err) {
1539:libraries/littlefs/lfs.c ****             return err;
1540:libraries/littlefs/lfs.c ****         }
1541:libraries/littlefs/lfs.c **** 
1542:libraries/littlefs/lfs.c ****         // keep track of non-padding checksum to verify
1543:libraries/littlefs/lfs.c ****         if (off1 == 0) {
1544:libraries/littlefs/lfs.c ****             off1 = commit->off + sizeof(uint32_t);
1545:libraries/littlefs/lfs.c ****             crc1 = commit->crc;
1546:libraries/littlefs/lfs.c ****         }
1547:libraries/littlefs/lfs.c **** 
1548:libraries/littlefs/lfs.c ****         commit->off += sizeof(tag)+lfs_tag_size(tag);
1549:libraries/littlefs/lfs.c ****         commit->ptag = tag ^ ((lfs_tag_t)reset << 31);
1550:libraries/littlefs/lfs.c ****         commit->crc = 0xffffffff; // reset crc for next "commit"
1551:libraries/littlefs/lfs.c ****     }
1552:libraries/littlefs/lfs.c **** 
1553:libraries/littlefs/lfs.c ****     // flush buffers
1554:libraries/littlefs/lfs.c ****     int err = lfs_bd_sync(lfs, &lfs->pcache, &lfs->rcache, false);
1555:libraries/littlefs/lfs.c ****     if (err) {
1556:libraries/littlefs/lfs.c ****         return err;
1557:libraries/littlefs/lfs.c ****     }
1558:libraries/littlefs/lfs.c **** 
1559:libraries/littlefs/lfs.c ****     // successful commit, check checksums to make sure
1560:libraries/littlefs/lfs.c ****     lfs_off_t off = commit->begin;
1561:libraries/littlefs/lfs.c ****     lfs_off_t noff = off1;
1562:libraries/littlefs/lfs.c ****     while (off < end) {
1563:libraries/littlefs/lfs.c ****         uint32_t crc = 0xffffffff;
1564:libraries/littlefs/lfs.c ****         for (lfs_off_t i = off; i < noff+sizeof(uint32_t); i++) {
1565:libraries/littlefs/lfs.c ****             // check against written crc, may catch blocks that
1566:libraries/littlefs/lfs.c ****             // become readonly and match our commit size exactly
1567:libraries/littlefs/lfs.c ****             if (i == off1 && crc != crc1) {
1568:libraries/littlefs/lfs.c ****                 return LFS_ERR_CORRUPT;
1569:libraries/littlefs/lfs.c ****             }
1570:libraries/littlefs/lfs.c **** 
1571:libraries/littlefs/lfs.c ****             // leave it up to caching to make this efficient
1572:libraries/littlefs/lfs.c ****             uint8_t dat;
1573:libraries/littlefs/lfs.c ****             err = lfs_bd_read(lfs,
1574:libraries/littlefs/lfs.c ****                     NULL, &lfs->rcache, noff+sizeof(uint32_t)-i,
1575:libraries/littlefs/lfs.c ****                     commit->block, i, &dat, 1);
1576:libraries/littlefs/lfs.c ****             if (err) {
1577:libraries/littlefs/lfs.c ****                 return err;
1578:libraries/littlefs/lfs.c ****             }
1579:libraries/littlefs/lfs.c **** 
1580:libraries/littlefs/lfs.c ****             crc = lfs_crc(crc, &dat, 1);
1581:libraries/littlefs/lfs.c ****         }
1582:libraries/littlefs/lfs.c **** 
1583:libraries/littlefs/lfs.c ****         // detected write error?
ARM GAS  /var/folders/b4/k4jbz0ms4wg23jtq0w6p483m0000gn/T//ccwZ2VjF.s 			page 40


1584:libraries/littlefs/lfs.c ****         if (crc != 0) {
1585:libraries/littlefs/lfs.c ****             return LFS_ERR_CORRUPT;
1586:libraries/littlefs/lfs.c ****         }
1587:libraries/littlefs/lfs.c **** 
1588:libraries/littlefs/lfs.c ****         // skip padding
1589:libraries/littlefs/lfs.c ****         off = lfs_min(end - noff, 0x3fe) + noff;
1590:libraries/littlefs/lfs.c ****         if (off < end) {
1591:libraries/littlefs/lfs.c ****             off = lfs_min(off, end - 2*sizeof(uint32_t));
1592:libraries/littlefs/lfs.c ****         }
1593:libraries/littlefs/lfs.c ****         noff = off + sizeof(uint32_t);
1594:libraries/littlefs/lfs.c ****     }
1595:libraries/littlefs/lfs.c **** 
1596:libraries/littlefs/lfs.c ****     return 0;
1597:libraries/littlefs/lfs.c **** }
1598:libraries/littlefs/lfs.c **** #endif
1599:libraries/littlefs/lfs.c **** 
1600:libraries/littlefs/lfs.c **** #ifndef LFS_READONLY
1601:libraries/littlefs/lfs.c **** static int lfs_dir_alloc(lfs_t *lfs, lfs_mdir_t *dir) {
1602:libraries/littlefs/lfs.c ****     // allocate pair of dir blocks (backwards, so we write block 1 first)
1603:libraries/littlefs/lfs.c ****     for (int i = 0; i < 2; i++) {
1604:libraries/littlefs/lfs.c ****         int err = lfs_alloc(lfs, &dir->pair[(i+1)%2]);
1605:libraries/littlefs/lfs.c ****         if (err) {
1606:libraries/littlefs/lfs.c ****             return err;
1607:libraries/littlefs/lfs.c ****         }
1608:libraries/littlefs/lfs.c ****     }
1609:libraries/littlefs/lfs.c **** 
1610:libraries/littlefs/lfs.c ****     // zero for reproducibility in case initial block is unreadable
1611:libraries/littlefs/lfs.c ****     dir->rev = 0;
1612:libraries/littlefs/lfs.c **** 
1613:libraries/littlefs/lfs.c ****     // rather than clobbering one of the blocks we just pretend
1614:libraries/littlefs/lfs.c ****     // the revision may be valid
1615:libraries/littlefs/lfs.c ****     int err = lfs_bd_read(lfs,
1616:libraries/littlefs/lfs.c ****             NULL, &lfs->rcache, sizeof(dir->rev),
1617:libraries/littlefs/lfs.c ****             dir->pair[0], 0, &dir->rev, sizeof(dir->rev));
1618:libraries/littlefs/lfs.c ****     dir->rev = lfs_fromle32(dir->rev);
1619:libraries/littlefs/lfs.c ****     if (err && err != LFS_ERR_CORRUPT) {
1620:libraries/littlefs/lfs.c ****         return err;
1621:libraries/littlefs/lfs.c ****     }
1622:libraries/littlefs/lfs.c **** 
1623:libraries/littlefs/lfs.c ****     // to make sure we don't immediately evict, align the new revision count
1624:libraries/littlefs/lfs.c ****     // to our block_cycles modulus, see lfs_dir_compact for why our modulus
1625:libraries/littlefs/lfs.c ****     // is tweaked this way
1626:libraries/littlefs/lfs.c ****     if (lfs->cfg->block_cycles > 0) {
1627:libraries/littlefs/lfs.c ****         dir->rev = lfs_alignup(dir->rev, ((lfs->cfg->block_cycles+1)|1));
1628:libraries/littlefs/lfs.c ****     }
1629:libraries/littlefs/lfs.c **** 
1630:libraries/littlefs/lfs.c ****     // set defaults
1631:libraries/littlefs/lfs.c ****     dir->off = sizeof(dir->rev);
1632:libraries/littlefs/lfs.c ****     dir->etag = 0xffffffff;
1633:libraries/littlefs/lfs.c ****     dir->count = 0;
1634:libraries/littlefs/lfs.c ****     dir->tail[0] = LFS_BLOCK_NULL;
1635:libraries/littlefs/lfs.c ****     dir->tail[1] = LFS_BLOCK_NULL;
1636:libraries/littlefs/lfs.c ****     dir->erased = false;
1637:libraries/littlefs/lfs.c ****     dir->split = false;
1638:libraries/littlefs/lfs.c **** 
1639:libraries/littlefs/lfs.c ****     // don't write out yet, let caller take care of that
1640:libraries/littlefs/lfs.c ****     return 0;
ARM GAS  /var/folders/b4/k4jbz0ms4wg23jtq0w6p483m0000gn/T//ccwZ2VjF.s 			page 41


1641:libraries/littlefs/lfs.c **** }
1642:libraries/littlefs/lfs.c **** #endif
1643:libraries/littlefs/lfs.c **** 
1644:libraries/littlefs/lfs.c **** #ifndef LFS_READONLY
1645:libraries/littlefs/lfs.c **** static int lfs_dir_drop(lfs_t *lfs, lfs_mdir_t *dir, lfs_mdir_t *tail) {
1646:libraries/littlefs/lfs.c ****     // steal state
1647:libraries/littlefs/lfs.c ****     int err = lfs_dir_getgstate(lfs, tail, &lfs->gdelta);
1648:libraries/littlefs/lfs.c ****     if (err) {
1649:libraries/littlefs/lfs.c ****         return err;
1650:libraries/littlefs/lfs.c ****     }
1651:libraries/littlefs/lfs.c **** 
1652:libraries/littlefs/lfs.c ****     // steal tail
1653:libraries/littlefs/lfs.c ****     lfs_pair_tole32(tail->tail);
1654:libraries/littlefs/lfs.c ****     err = lfs_dir_commit(lfs, dir, LFS_MKATTRS(
1655:libraries/littlefs/lfs.c ****             {LFS_MKTAG(LFS_TYPE_TAIL + tail->split, 0x3ff, 8), tail->tail}));
1656:libraries/littlefs/lfs.c ****     lfs_pair_fromle32(tail->tail);
1657:libraries/littlefs/lfs.c ****     if (err) {
1658:libraries/littlefs/lfs.c ****         return err;
1659:libraries/littlefs/lfs.c ****     }
1660:libraries/littlefs/lfs.c **** 
1661:libraries/littlefs/lfs.c ****     return 0;
1662:libraries/littlefs/lfs.c **** }
1663:libraries/littlefs/lfs.c **** #endif
1664:libraries/littlefs/lfs.c **** 
1665:libraries/littlefs/lfs.c **** #ifndef LFS_READONLY
1666:libraries/littlefs/lfs.c **** static int lfs_dir_split(lfs_t *lfs,
1667:libraries/littlefs/lfs.c ****         lfs_mdir_t *dir, const struct lfs_mattr *attrs, int attrcount,
1668:libraries/littlefs/lfs.c ****         lfs_mdir_t *source, uint16_t split, uint16_t end) {
1669:libraries/littlefs/lfs.c ****     // create tail metadata pair
1670:libraries/littlefs/lfs.c ****     lfs_mdir_t tail;
1671:libraries/littlefs/lfs.c ****     int err = lfs_dir_alloc(lfs, &tail);
1672:libraries/littlefs/lfs.c ****     if (err) {
1673:libraries/littlefs/lfs.c ****         return err;
1674:libraries/littlefs/lfs.c ****     }
1675:libraries/littlefs/lfs.c **** 
1676:libraries/littlefs/lfs.c ****     tail.split = dir->split;
1677:libraries/littlefs/lfs.c ****     tail.tail[0] = dir->tail[0];
1678:libraries/littlefs/lfs.c ****     tail.tail[1] = dir->tail[1];
1679:libraries/littlefs/lfs.c **** 
1680:libraries/littlefs/lfs.c ****     // note we don't care about LFS_OK_RELOCATED
1681:libraries/littlefs/lfs.c ****     int res = lfs_dir_compact(lfs, &tail, attrs, attrcount, source, split, end);
1682:libraries/littlefs/lfs.c ****     if (res < 0) {
1683:libraries/littlefs/lfs.c ****         return res;
1684:libraries/littlefs/lfs.c ****     }
1685:libraries/littlefs/lfs.c **** 
1686:libraries/littlefs/lfs.c ****     dir->tail[0] = tail.pair[0];
1687:libraries/littlefs/lfs.c ****     dir->tail[1] = tail.pair[1];
1688:libraries/littlefs/lfs.c ****     dir->split = true;
1689:libraries/littlefs/lfs.c **** 
1690:libraries/littlefs/lfs.c ****     // update root if needed
1691:libraries/littlefs/lfs.c ****     if (lfs_pair_cmp(dir->pair, lfs->root) == 0 && split == 0) {
1692:libraries/littlefs/lfs.c ****         lfs->root[0] = tail.pair[0];
1693:libraries/littlefs/lfs.c ****         lfs->root[1] = tail.pair[1];
1694:libraries/littlefs/lfs.c ****     }
1695:libraries/littlefs/lfs.c **** 
1696:libraries/littlefs/lfs.c ****     return 0;
1697:libraries/littlefs/lfs.c **** }
ARM GAS  /var/folders/b4/k4jbz0ms4wg23jtq0w6p483m0000gn/T//ccwZ2VjF.s 			page 42


1698:libraries/littlefs/lfs.c **** #endif
1699:libraries/littlefs/lfs.c **** 
1700:libraries/littlefs/lfs.c **** #ifndef LFS_READONLY
1701:libraries/littlefs/lfs.c **** static int lfs_dir_commit_size(void *p, lfs_tag_t tag, const void *buffer) {
 596              		.loc 1 1701 76 is_stmt 1 view -0
 597              		.cfi_startproc
 598              		@ args = 0, pretend = 0, frame = 0
 599              		@ frame_needed = 0, uses_anonymous_args = 0
1702:libraries/littlefs/lfs.c ****     lfs_size_t *size = p;
 600              		.loc 1 1702 5 view .LVU161
1701:libraries/littlefs/lfs.c ****     lfs_size_t *size = p;
 601              		.loc 1 1701 76 is_stmt 0 view .LVU162
 602 0000 0246     		mov	r2, r0
 603              	.LVL43:
1703:libraries/littlefs/lfs.c ****     (void)buffer;
 604              		.loc 1 1703 5 is_stmt 1 view .LVU163
1704:libraries/littlefs/lfs.c **** 
1705:libraries/littlefs/lfs.c ****     *size += lfs_tag_dsize(tag);
 605              		.loc 1 1705 5 view .LVU164
1701:libraries/littlefs/lfs.c ****     lfs_size_t *size = p;
 606              		.loc 1 1701 76 is_stmt 0 view .LVU165
 607 0002 08B5     		push	{r3, lr}
 608              	.LCFI5:
 609              		.cfi_def_cfa_offset 8
 610              		.cfi_offset 3, -8
 611              		.cfi_offset 14, -4
 612              		.loc 1 1705 14 view .LVU166
 613 0004 0846     		mov	r0, r1
 614              	.LVL44:
 615              		.loc 1 1705 14 view .LVU167
 616 0006 FFF7FEFF 		bl	lfs_tag_dsize
 617              	.LVL45:
 618              		.loc 1 1705 11 view .LVU168
 619 000a 1368     		ldr	r3, [r2]
 620 000c 0344     		add	r3, r3, r0
 621 000e 1360     		str	r3, [r2]
1706:libraries/littlefs/lfs.c ****     return 0;
 622              		.loc 1 1706 5 is_stmt 1 view .LVU169
1707:libraries/littlefs/lfs.c **** }
 623              		.loc 1 1707 1 is_stmt 0 view .LVU170
 624 0010 0020     		movs	r0, #0
 625 0012 08BD     		pop	{r3, pc}
 626              		.cfi_endproc
 627              	.LFE76:
 629              		.section	.text.lfs_fs_size_count,"ax",%progbits
 630              		.align	1
 631              		.syntax unified
 632              		.thumb
 633              		.thumb_func
 635              	lfs_fs_size_count:
 636              	.LVL46:
 637              	.LFB132:
1708:libraries/littlefs/lfs.c **** #endif
1709:libraries/littlefs/lfs.c **** 
1710:libraries/littlefs/lfs.c **** #ifndef LFS_READONLY
1711:libraries/littlefs/lfs.c **** struct lfs_dir_commit_commit {
1712:libraries/littlefs/lfs.c ****     lfs_t *lfs;
ARM GAS  /var/folders/b4/k4jbz0ms4wg23jtq0w6p483m0000gn/T//ccwZ2VjF.s 			page 43


1713:libraries/littlefs/lfs.c ****     struct lfs_commit *commit;
1714:libraries/littlefs/lfs.c **** };
1715:libraries/littlefs/lfs.c **** #endif
1716:libraries/littlefs/lfs.c **** 
1717:libraries/littlefs/lfs.c **** #ifndef LFS_READONLY
1718:libraries/littlefs/lfs.c **** static int lfs_dir_commit_commit(void *p, lfs_tag_t tag, const void *buffer) {
1719:libraries/littlefs/lfs.c ****     struct lfs_dir_commit_commit *commit = p;
1720:libraries/littlefs/lfs.c ****     return lfs_dir_commitattr(commit->lfs, commit->commit, tag, buffer);
1721:libraries/littlefs/lfs.c **** }
1722:libraries/littlefs/lfs.c **** #endif
1723:libraries/littlefs/lfs.c **** 
1724:libraries/littlefs/lfs.c **** #ifndef LFS_READONLY
1725:libraries/littlefs/lfs.c **** static bool lfs_dir_needsrelocation(lfs_t *lfs, lfs_mdir_t *dir) {
1726:libraries/littlefs/lfs.c ****     // If our revision count == n * block_cycles, we should force a relocation,
1727:libraries/littlefs/lfs.c ****     // this is how littlefs wear-levels at the metadata-pair level. Note that we
1728:libraries/littlefs/lfs.c ****     // actually use (block_cycles+1)|1, this is to avoid two corner cases:
1729:libraries/littlefs/lfs.c ****     // 1. block_cycles = 1, which would prevent relocations from terminating
1730:libraries/littlefs/lfs.c ****     // 2. block_cycles = 2n, which, due to aliasing, would only ever relocate
1731:libraries/littlefs/lfs.c ****     //    one metadata block in the pair, effectively making this useless
1732:libraries/littlefs/lfs.c ****     return (lfs->cfg->block_cycles > 0
1733:libraries/littlefs/lfs.c ****             && ((dir->rev + 1) % ((lfs->cfg->block_cycles+1)|1) == 0));
1734:libraries/littlefs/lfs.c **** }
1735:libraries/littlefs/lfs.c **** #endif
1736:libraries/littlefs/lfs.c **** 
1737:libraries/littlefs/lfs.c **** #ifndef LFS_READONLY
1738:libraries/littlefs/lfs.c **** static int lfs_dir_compact(lfs_t *lfs,
1739:libraries/littlefs/lfs.c ****         lfs_mdir_t *dir, const struct lfs_mattr *attrs, int attrcount,
1740:libraries/littlefs/lfs.c ****         lfs_mdir_t *source, uint16_t begin, uint16_t end) {
1741:libraries/littlefs/lfs.c ****     // save some state in case block is bad
1742:libraries/littlefs/lfs.c ****     bool relocated = false;
1743:libraries/littlefs/lfs.c ****     bool tired = lfs_dir_needsrelocation(lfs, dir);
1744:libraries/littlefs/lfs.c **** 
1745:libraries/littlefs/lfs.c ****     // increment revision count
1746:libraries/littlefs/lfs.c ****     dir->rev += 1;
1747:libraries/littlefs/lfs.c **** 
1748:libraries/littlefs/lfs.c ****     // do not proactively relocate blocks during migrations, this
1749:libraries/littlefs/lfs.c ****     // can cause a number of failure states such: clobbering the
1750:libraries/littlefs/lfs.c ****     // v1 superblock if we relocate root, and invalidating directory
1751:libraries/littlefs/lfs.c ****     // pointers if we relocate the head of a directory. On top of
1752:libraries/littlefs/lfs.c ****     // this, relocations increase the overall complexity of
1753:libraries/littlefs/lfs.c ****     // lfs_migration, which is already a delicate operation.
1754:libraries/littlefs/lfs.c **** #ifdef LFS_MIGRATE
1755:libraries/littlefs/lfs.c ****     if (lfs->lfs1) {
1756:libraries/littlefs/lfs.c ****         tired = false;
1757:libraries/littlefs/lfs.c ****     }
1758:libraries/littlefs/lfs.c **** #endif
1759:libraries/littlefs/lfs.c **** 
1760:libraries/littlefs/lfs.c ****     if (tired && lfs_pair_cmp(dir->pair, (const lfs_block_t[2]){0, 1}) != 0) {
1761:libraries/littlefs/lfs.c ****         // we're writing too much, time to relocate
1762:libraries/littlefs/lfs.c ****         goto relocate;
1763:libraries/littlefs/lfs.c ****     }
1764:libraries/littlefs/lfs.c **** 
1765:libraries/littlefs/lfs.c ****     // begin loop to commit compaction to blocks until a compact sticks
1766:libraries/littlefs/lfs.c ****     while (true) {
1767:libraries/littlefs/lfs.c ****         {
1768:libraries/littlefs/lfs.c ****             // setup commit state
1769:libraries/littlefs/lfs.c ****             struct lfs_commit commit = {
ARM GAS  /var/folders/b4/k4jbz0ms4wg23jtq0w6p483m0000gn/T//ccwZ2VjF.s 			page 44


1770:libraries/littlefs/lfs.c ****                 .block = dir->pair[1],
1771:libraries/littlefs/lfs.c ****                 .off = 0,
1772:libraries/littlefs/lfs.c ****                 .ptag = 0xffffffff,
1773:libraries/littlefs/lfs.c ****                 .crc = 0xffffffff,
1774:libraries/littlefs/lfs.c **** 
1775:libraries/littlefs/lfs.c ****                 .begin = 0,
1776:libraries/littlefs/lfs.c ****                 .end = (lfs->cfg->metadata_max ?
1777:libraries/littlefs/lfs.c ****                     lfs->cfg->metadata_max : lfs->cfg->block_size) - 8,
1778:libraries/littlefs/lfs.c ****             };
1779:libraries/littlefs/lfs.c **** 
1780:libraries/littlefs/lfs.c ****             // erase block to write to
1781:libraries/littlefs/lfs.c ****             int err = lfs_bd_erase(lfs, dir->pair[1]);
1782:libraries/littlefs/lfs.c ****             if (err) {
1783:libraries/littlefs/lfs.c ****                 if (err == LFS_ERR_CORRUPT) {
1784:libraries/littlefs/lfs.c ****                     goto relocate;
1785:libraries/littlefs/lfs.c ****                 }
1786:libraries/littlefs/lfs.c ****                 return err;
1787:libraries/littlefs/lfs.c ****             }
1788:libraries/littlefs/lfs.c **** 
1789:libraries/littlefs/lfs.c ****             // write out header
1790:libraries/littlefs/lfs.c ****             dir->rev = lfs_tole32(dir->rev);
1791:libraries/littlefs/lfs.c ****             err = lfs_dir_commitprog(lfs, &commit,
1792:libraries/littlefs/lfs.c ****                     &dir->rev, sizeof(dir->rev));
1793:libraries/littlefs/lfs.c ****             dir->rev = lfs_fromle32(dir->rev);
1794:libraries/littlefs/lfs.c ****             if (err) {
1795:libraries/littlefs/lfs.c ****                 if (err == LFS_ERR_CORRUPT) {
1796:libraries/littlefs/lfs.c ****                     goto relocate;
1797:libraries/littlefs/lfs.c ****                 }
1798:libraries/littlefs/lfs.c ****                 return err;
1799:libraries/littlefs/lfs.c ****             }
1800:libraries/littlefs/lfs.c **** 
1801:libraries/littlefs/lfs.c ****             // traverse the directory, this time writing out all unique tags
1802:libraries/littlefs/lfs.c ****             err = lfs_dir_traverse(lfs,
1803:libraries/littlefs/lfs.c ****                     source, 0, 0xffffffff, attrs, attrcount,
1804:libraries/littlefs/lfs.c ****                     LFS_MKTAG(0x400, 0x3ff, 0),
1805:libraries/littlefs/lfs.c ****                     LFS_MKTAG(LFS_TYPE_NAME, 0, 0),
1806:libraries/littlefs/lfs.c ****                     begin, end, -begin,
1807:libraries/littlefs/lfs.c ****                     lfs_dir_commit_commit, &(struct lfs_dir_commit_commit){
1808:libraries/littlefs/lfs.c ****                         lfs, &commit});
1809:libraries/littlefs/lfs.c ****             if (err) {
1810:libraries/littlefs/lfs.c ****                 if (err == LFS_ERR_CORRUPT) {
1811:libraries/littlefs/lfs.c ****                     goto relocate;
1812:libraries/littlefs/lfs.c ****                 }
1813:libraries/littlefs/lfs.c ****                 return err;
1814:libraries/littlefs/lfs.c ****             }
1815:libraries/littlefs/lfs.c **** 
1816:libraries/littlefs/lfs.c ****             // commit tail, which may be new after last size check
1817:libraries/littlefs/lfs.c ****             if (!lfs_pair_isnull(dir->tail)) {
1818:libraries/littlefs/lfs.c ****                 lfs_pair_tole32(dir->tail);
1819:libraries/littlefs/lfs.c ****                 err = lfs_dir_commitattr(lfs, &commit,
1820:libraries/littlefs/lfs.c ****                         LFS_MKTAG(LFS_TYPE_TAIL + dir->split, 0x3ff, 8),
1821:libraries/littlefs/lfs.c ****                         dir->tail);
1822:libraries/littlefs/lfs.c ****                 lfs_pair_fromle32(dir->tail);
1823:libraries/littlefs/lfs.c ****                 if (err) {
1824:libraries/littlefs/lfs.c ****                     if (err == LFS_ERR_CORRUPT) {
1825:libraries/littlefs/lfs.c ****                         goto relocate;
1826:libraries/littlefs/lfs.c ****                     }
ARM GAS  /var/folders/b4/k4jbz0ms4wg23jtq0w6p483m0000gn/T//ccwZ2VjF.s 			page 45


1827:libraries/littlefs/lfs.c ****                     return err;
1828:libraries/littlefs/lfs.c ****                 }
1829:libraries/littlefs/lfs.c ****             }
1830:libraries/littlefs/lfs.c **** 
1831:libraries/littlefs/lfs.c ****             // bring over gstate?
1832:libraries/littlefs/lfs.c ****             lfs_gstate_t delta = {0};
1833:libraries/littlefs/lfs.c ****             if (!relocated) {
1834:libraries/littlefs/lfs.c ****                 lfs_gstate_xor(&delta, &lfs->gdisk);
1835:libraries/littlefs/lfs.c ****                 lfs_gstate_xor(&delta, &lfs->gstate);
1836:libraries/littlefs/lfs.c ****             }
1837:libraries/littlefs/lfs.c ****             lfs_gstate_xor(&delta, &lfs->gdelta);
1838:libraries/littlefs/lfs.c ****             delta.tag &= ~LFS_MKTAG(0, 0, 0x3ff);
1839:libraries/littlefs/lfs.c **** 
1840:libraries/littlefs/lfs.c ****             err = lfs_dir_getgstate(lfs, dir, &delta);
1841:libraries/littlefs/lfs.c ****             if (err) {
1842:libraries/littlefs/lfs.c ****                 return err;
1843:libraries/littlefs/lfs.c ****             }
1844:libraries/littlefs/lfs.c **** 
1845:libraries/littlefs/lfs.c ****             if (!lfs_gstate_iszero(&delta)) {
1846:libraries/littlefs/lfs.c ****                 lfs_gstate_tole32(&delta);
1847:libraries/littlefs/lfs.c ****                 err = lfs_dir_commitattr(lfs, &commit,
1848:libraries/littlefs/lfs.c ****                         LFS_MKTAG(LFS_TYPE_MOVESTATE, 0x3ff,
1849:libraries/littlefs/lfs.c ****                             sizeof(delta)), &delta);
1850:libraries/littlefs/lfs.c ****                 if (err) {
1851:libraries/littlefs/lfs.c ****                     if (err == LFS_ERR_CORRUPT) {
1852:libraries/littlefs/lfs.c ****                         goto relocate;
1853:libraries/littlefs/lfs.c ****                     }
1854:libraries/littlefs/lfs.c ****                     return err;
1855:libraries/littlefs/lfs.c ****                 }
1856:libraries/littlefs/lfs.c ****             }
1857:libraries/littlefs/lfs.c **** 
1858:libraries/littlefs/lfs.c ****             // complete commit with crc
1859:libraries/littlefs/lfs.c ****             err = lfs_dir_commitcrc(lfs, &commit);
1860:libraries/littlefs/lfs.c ****             if (err) {
1861:libraries/littlefs/lfs.c ****                 if (err == LFS_ERR_CORRUPT) {
1862:libraries/littlefs/lfs.c ****                     goto relocate;
1863:libraries/littlefs/lfs.c ****                 }
1864:libraries/littlefs/lfs.c ****                 return err;
1865:libraries/littlefs/lfs.c ****             }
1866:libraries/littlefs/lfs.c **** 
1867:libraries/littlefs/lfs.c ****             // successful compaction, swap dir pair to indicate most recent
1868:libraries/littlefs/lfs.c ****             LFS_ASSERT(commit.off % lfs->cfg->prog_size == 0);
1869:libraries/littlefs/lfs.c ****             lfs_pair_swap(dir->pair);
1870:libraries/littlefs/lfs.c ****             dir->count = end - begin;
1871:libraries/littlefs/lfs.c ****             dir->off = commit.off;
1872:libraries/littlefs/lfs.c ****             dir->etag = commit.ptag;
1873:libraries/littlefs/lfs.c ****             // update gstate
1874:libraries/littlefs/lfs.c ****             lfs->gdelta = (lfs_gstate_t){0};
1875:libraries/littlefs/lfs.c ****             if (!relocated) {
1876:libraries/littlefs/lfs.c ****                 lfs->gdisk = lfs->gstate;
1877:libraries/littlefs/lfs.c ****             }
1878:libraries/littlefs/lfs.c ****         }
1879:libraries/littlefs/lfs.c ****         break;
1880:libraries/littlefs/lfs.c **** 
1881:libraries/littlefs/lfs.c **** relocate:
1882:libraries/littlefs/lfs.c ****         // commit was corrupted, drop caches and prepare to relocate block
1883:libraries/littlefs/lfs.c ****         relocated = true;
ARM GAS  /var/folders/b4/k4jbz0ms4wg23jtq0w6p483m0000gn/T//ccwZ2VjF.s 			page 46


1884:libraries/littlefs/lfs.c ****         lfs_cache_drop(lfs, &lfs->pcache);
1885:libraries/littlefs/lfs.c ****         if (!tired) {
1886:libraries/littlefs/lfs.c ****             LFS_DEBUG("Bad block at 0x%"PRIx32, dir->pair[1]);
1887:libraries/littlefs/lfs.c ****         }
1888:libraries/littlefs/lfs.c **** 
1889:libraries/littlefs/lfs.c ****         // can't relocate superblock, filesystem is now frozen
1890:libraries/littlefs/lfs.c ****         if (lfs_pair_cmp(dir->pair, (const lfs_block_t[2]){0, 1}) == 0) {
1891:libraries/littlefs/lfs.c ****             LFS_WARN("Superblock 0x%"PRIx32" has become unwritable",
1892:libraries/littlefs/lfs.c ****                     dir->pair[1]);
1893:libraries/littlefs/lfs.c ****             return LFS_ERR_NOSPC;
1894:libraries/littlefs/lfs.c ****         }
1895:libraries/littlefs/lfs.c **** 
1896:libraries/littlefs/lfs.c ****         // relocate half of pair
1897:libraries/littlefs/lfs.c ****         int err = lfs_alloc(lfs, &dir->pair[1]);
1898:libraries/littlefs/lfs.c ****         if (err && (err != LFS_ERR_NOSPC || !tired)) {
1899:libraries/littlefs/lfs.c ****             return err;
1900:libraries/littlefs/lfs.c ****         }
1901:libraries/littlefs/lfs.c **** 
1902:libraries/littlefs/lfs.c ****         tired = false;
1903:libraries/littlefs/lfs.c ****         continue;
1904:libraries/littlefs/lfs.c ****     }
1905:libraries/littlefs/lfs.c **** 
1906:libraries/littlefs/lfs.c ****     return relocated ? LFS_OK_RELOCATED : 0;
1907:libraries/littlefs/lfs.c **** }
1908:libraries/littlefs/lfs.c **** #endif
1909:libraries/littlefs/lfs.c **** 
1910:libraries/littlefs/lfs.c **** #ifndef LFS_READONLY
1911:libraries/littlefs/lfs.c **** static int lfs_dir_splittingcompact(lfs_t *lfs, lfs_mdir_t *dir,
1912:libraries/littlefs/lfs.c ****         const struct lfs_mattr *attrs, int attrcount,
1913:libraries/littlefs/lfs.c ****         lfs_mdir_t *source, uint16_t begin, uint16_t end) {
1914:libraries/littlefs/lfs.c ****     while (true) {
1915:libraries/littlefs/lfs.c ****         // find size of first split, we do this by halving the split until
1916:libraries/littlefs/lfs.c ****         // the metadata is guaranteed to fit
1917:libraries/littlefs/lfs.c ****         //
1918:libraries/littlefs/lfs.c ****         // Note that this isn't a true binary search, we never increase the
1919:libraries/littlefs/lfs.c ****         // split size. This may result in poorly distributed metadata but isn't
1920:libraries/littlefs/lfs.c ****         // worth the extra code size or performance hit to fix.
1921:libraries/littlefs/lfs.c ****         lfs_size_t split = begin;
1922:libraries/littlefs/lfs.c ****         while (end - split > 1) {
1923:libraries/littlefs/lfs.c ****             lfs_size_t size = 0;
1924:libraries/littlefs/lfs.c ****             int err = lfs_dir_traverse(lfs,
1925:libraries/littlefs/lfs.c ****                     source, 0, 0xffffffff, attrs, attrcount,
1926:libraries/littlefs/lfs.c ****                     LFS_MKTAG(0x400, 0x3ff, 0),
1927:libraries/littlefs/lfs.c ****                     LFS_MKTAG(LFS_TYPE_NAME, 0, 0),
1928:libraries/littlefs/lfs.c ****                     split, end, -split,
1929:libraries/littlefs/lfs.c ****                     lfs_dir_commit_size, &size);
1930:libraries/littlefs/lfs.c ****             if (err) {
1931:libraries/littlefs/lfs.c ****                 return err;
1932:libraries/littlefs/lfs.c ****             }
1933:libraries/littlefs/lfs.c **** 
1934:libraries/littlefs/lfs.c ****             // space is complicated, we need room for tail, crc, gstate,
1935:libraries/littlefs/lfs.c ****             // cleanup delete, and we cap at half a block to give room
1936:libraries/littlefs/lfs.c ****             // for metadata updates.
1937:libraries/littlefs/lfs.c ****             if (end - split < 0xff
1938:libraries/littlefs/lfs.c ****                     && size <= lfs_min(lfs->cfg->block_size - 36,
1939:libraries/littlefs/lfs.c ****                         lfs_alignup(
1940:libraries/littlefs/lfs.c ****                             (lfs->cfg->metadata_max
ARM GAS  /var/folders/b4/k4jbz0ms4wg23jtq0w6p483m0000gn/T//ccwZ2VjF.s 			page 47


1941:libraries/littlefs/lfs.c ****                                 ? lfs->cfg->metadata_max
1942:libraries/littlefs/lfs.c ****                                 : lfs->cfg->block_size)/2,
1943:libraries/littlefs/lfs.c ****                             lfs->cfg->prog_size))) {
1944:libraries/littlefs/lfs.c ****                 break;
1945:libraries/littlefs/lfs.c ****             }
1946:libraries/littlefs/lfs.c **** 
1947:libraries/littlefs/lfs.c ****             split = split + ((end - split) / 2);
1948:libraries/littlefs/lfs.c ****         }
1949:libraries/littlefs/lfs.c **** 
1950:libraries/littlefs/lfs.c ****         if (split == begin) {
1951:libraries/littlefs/lfs.c ****             // no split needed
1952:libraries/littlefs/lfs.c ****             break;
1953:libraries/littlefs/lfs.c ****         }
1954:libraries/littlefs/lfs.c **** 
1955:libraries/littlefs/lfs.c ****         // split into two metadata pairs and continue
1956:libraries/littlefs/lfs.c ****         int err = lfs_dir_split(lfs, dir, attrs, attrcount,
1957:libraries/littlefs/lfs.c ****                 source, split, end);
1958:libraries/littlefs/lfs.c ****         if (err && err != LFS_ERR_NOSPC) {
1959:libraries/littlefs/lfs.c ****             return err;
1960:libraries/littlefs/lfs.c ****         }
1961:libraries/littlefs/lfs.c **** 
1962:libraries/littlefs/lfs.c ****         if (err) {
1963:libraries/littlefs/lfs.c ****             // we can't allocate a new block, try to compact with degraded
1964:libraries/littlefs/lfs.c ****             // performance
1965:libraries/littlefs/lfs.c ****             LFS_WARN("Unable to split {0x%"PRIx32", 0x%"PRIx32"}",
1966:libraries/littlefs/lfs.c ****                     dir->pair[0], dir->pair[1]);
1967:libraries/littlefs/lfs.c ****             break;
1968:libraries/littlefs/lfs.c ****         } else {
1969:libraries/littlefs/lfs.c ****             end = split;
1970:libraries/littlefs/lfs.c ****         }
1971:libraries/littlefs/lfs.c ****     }
1972:libraries/littlefs/lfs.c **** 
1973:libraries/littlefs/lfs.c ****     if (lfs_dir_needsrelocation(lfs, dir)
1974:libraries/littlefs/lfs.c ****             && lfs_pair_cmp(dir->pair, (const lfs_block_t[2]){0, 1}) == 0) {
1975:libraries/littlefs/lfs.c ****         // oh no! we're writing too much to the superblock,
1976:libraries/littlefs/lfs.c ****         // should we expand?
1977:libraries/littlefs/lfs.c ****         lfs_ssize_t size = lfs_fs_rawsize(lfs);
1978:libraries/littlefs/lfs.c ****         if (size < 0) {
1979:libraries/littlefs/lfs.c ****             return size;
1980:libraries/littlefs/lfs.c ****         }
1981:libraries/littlefs/lfs.c **** 
1982:libraries/littlefs/lfs.c ****         // do we have extra space? littlefs can't reclaim this space
1983:libraries/littlefs/lfs.c ****         // by itself, so expand cautiously
1984:libraries/littlefs/lfs.c ****         if ((lfs_size_t)size < lfs->cfg->block_count/2) {
1985:libraries/littlefs/lfs.c ****             LFS_DEBUG("Expanding superblock at rev %"PRIu32, dir->rev);
1986:libraries/littlefs/lfs.c ****             int err = lfs_dir_split(lfs, dir, attrs, attrcount,
1987:libraries/littlefs/lfs.c ****                     source, begin, end);
1988:libraries/littlefs/lfs.c ****             if (err && err != LFS_ERR_NOSPC) {
1989:libraries/littlefs/lfs.c ****                 return err;
1990:libraries/littlefs/lfs.c ****             }
1991:libraries/littlefs/lfs.c **** 
1992:libraries/littlefs/lfs.c ****             if (err) {
1993:libraries/littlefs/lfs.c ****                 // welp, we tried, if we ran out of space there's not much
1994:libraries/littlefs/lfs.c ****                 // we can do, we'll error later if we've become frozen
1995:libraries/littlefs/lfs.c ****                 LFS_WARN("Unable to expand superblock");
1996:libraries/littlefs/lfs.c ****             } else {
1997:libraries/littlefs/lfs.c ****                 end = begin;
ARM GAS  /var/folders/b4/k4jbz0ms4wg23jtq0w6p483m0000gn/T//ccwZ2VjF.s 			page 48


1998:libraries/littlefs/lfs.c ****             }
1999:libraries/littlefs/lfs.c ****         }
2000:libraries/littlefs/lfs.c ****     }
2001:libraries/littlefs/lfs.c **** 
2002:libraries/littlefs/lfs.c ****     return lfs_dir_compact(lfs, dir, attrs, attrcount, source, begin, end);
2003:libraries/littlefs/lfs.c **** }
2004:libraries/littlefs/lfs.c **** #endif
2005:libraries/littlefs/lfs.c **** 
2006:libraries/littlefs/lfs.c **** #ifndef LFS_READONLY
2007:libraries/littlefs/lfs.c **** static int lfs_dir_relocatingcommit(lfs_t *lfs, lfs_mdir_t *dir,
2008:libraries/littlefs/lfs.c ****         const lfs_block_t pair[2],
2009:libraries/littlefs/lfs.c ****         const struct lfs_mattr *attrs, int attrcount,
2010:libraries/littlefs/lfs.c ****         lfs_mdir_t *pdir) {
2011:libraries/littlefs/lfs.c ****     int state = 0;
2012:libraries/littlefs/lfs.c **** 
2013:libraries/littlefs/lfs.c ****     // calculate changes to the directory
2014:libraries/littlefs/lfs.c ****     bool hasdelete = false;
2015:libraries/littlefs/lfs.c ****     for (int i = 0; i < attrcount; i++) {
2016:libraries/littlefs/lfs.c ****         if (lfs_tag_type3(attrs[i].tag) == LFS_TYPE_CREATE) {
2017:libraries/littlefs/lfs.c ****             dir->count += 1;
2018:libraries/littlefs/lfs.c ****         } else if (lfs_tag_type3(attrs[i].tag) == LFS_TYPE_DELETE) {
2019:libraries/littlefs/lfs.c ****             LFS_ASSERT(dir->count > 0);
2020:libraries/littlefs/lfs.c ****             dir->count -= 1;
2021:libraries/littlefs/lfs.c ****             hasdelete = true;
2022:libraries/littlefs/lfs.c ****         } else if (lfs_tag_type1(attrs[i].tag) == LFS_TYPE_TAIL) {
2023:libraries/littlefs/lfs.c ****             dir->tail[0] = ((lfs_block_t*)attrs[i].buffer)[0];
2024:libraries/littlefs/lfs.c ****             dir->tail[1] = ((lfs_block_t*)attrs[i].buffer)[1];
2025:libraries/littlefs/lfs.c ****             dir->split = (lfs_tag_chunk(attrs[i].tag) & 1);
2026:libraries/littlefs/lfs.c ****             lfs_pair_fromle32(dir->tail);
2027:libraries/littlefs/lfs.c ****         }
2028:libraries/littlefs/lfs.c ****     }
2029:libraries/littlefs/lfs.c **** 
2030:libraries/littlefs/lfs.c ****     // should we actually drop the directory block?
2031:libraries/littlefs/lfs.c ****     if (hasdelete && dir->count == 0) {
2032:libraries/littlefs/lfs.c ****         LFS_ASSERT(pdir);
2033:libraries/littlefs/lfs.c ****         int err = lfs_fs_pred(lfs, dir->pair, pdir);
2034:libraries/littlefs/lfs.c ****         if (err && err != LFS_ERR_NOENT) {
2035:libraries/littlefs/lfs.c ****             return err;
2036:libraries/littlefs/lfs.c ****         }
2037:libraries/littlefs/lfs.c **** 
2038:libraries/littlefs/lfs.c ****         if (err != LFS_ERR_NOENT && pdir->split) {
2039:libraries/littlefs/lfs.c ****             state = LFS_OK_DROPPED;
2040:libraries/littlefs/lfs.c ****             goto fixmlist;
2041:libraries/littlefs/lfs.c ****         }
2042:libraries/littlefs/lfs.c ****     }
2043:libraries/littlefs/lfs.c **** 
2044:libraries/littlefs/lfs.c ****     if (dir->erased) {
2045:libraries/littlefs/lfs.c ****         // try to commit
2046:libraries/littlefs/lfs.c ****         struct lfs_commit commit = {
2047:libraries/littlefs/lfs.c ****             .block = dir->pair[0],
2048:libraries/littlefs/lfs.c ****             .off = dir->off,
2049:libraries/littlefs/lfs.c ****             .ptag = dir->etag,
2050:libraries/littlefs/lfs.c ****             .crc = 0xffffffff,
2051:libraries/littlefs/lfs.c **** 
2052:libraries/littlefs/lfs.c ****             .begin = dir->off,
2053:libraries/littlefs/lfs.c ****             .end = (lfs->cfg->metadata_max ?
2054:libraries/littlefs/lfs.c ****                 lfs->cfg->metadata_max : lfs->cfg->block_size) - 8,
ARM GAS  /var/folders/b4/k4jbz0ms4wg23jtq0w6p483m0000gn/T//ccwZ2VjF.s 			page 49


2055:libraries/littlefs/lfs.c ****         };
2056:libraries/littlefs/lfs.c **** 
2057:libraries/littlefs/lfs.c ****         // traverse attrs that need to be written out
2058:libraries/littlefs/lfs.c ****         lfs_pair_tole32(dir->tail);
2059:libraries/littlefs/lfs.c ****         int err = lfs_dir_traverse(lfs,
2060:libraries/littlefs/lfs.c ****                 dir, dir->off, dir->etag, attrs, attrcount,
2061:libraries/littlefs/lfs.c ****                 0, 0, 0, 0, 0,
2062:libraries/littlefs/lfs.c ****                 lfs_dir_commit_commit, &(struct lfs_dir_commit_commit){
2063:libraries/littlefs/lfs.c ****                     lfs, &commit});
2064:libraries/littlefs/lfs.c ****         lfs_pair_fromle32(dir->tail);
2065:libraries/littlefs/lfs.c ****         if (err) {
2066:libraries/littlefs/lfs.c ****             if (err == LFS_ERR_NOSPC || err == LFS_ERR_CORRUPT) {
2067:libraries/littlefs/lfs.c ****                 goto compact;
2068:libraries/littlefs/lfs.c ****             }
2069:libraries/littlefs/lfs.c ****             return err;
2070:libraries/littlefs/lfs.c ****         }
2071:libraries/littlefs/lfs.c **** 
2072:libraries/littlefs/lfs.c ****         // commit any global diffs if we have any
2073:libraries/littlefs/lfs.c ****         lfs_gstate_t delta = {0};
2074:libraries/littlefs/lfs.c ****         lfs_gstate_xor(&delta, &lfs->gstate);
2075:libraries/littlefs/lfs.c ****         lfs_gstate_xor(&delta, &lfs->gdisk);
2076:libraries/littlefs/lfs.c ****         lfs_gstate_xor(&delta, &lfs->gdelta);
2077:libraries/littlefs/lfs.c ****         delta.tag &= ~LFS_MKTAG(0, 0, 0x3ff);
2078:libraries/littlefs/lfs.c ****         if (!lfs_gstate_iszero(&delta)) {
2079:libraries/littlefs/lfs.c ****             err = lfs_dir_getgstate(lfs, dir, &delta);
2080:libraries/littlefs/lfs.c ****             if (err) {
2081:libraries/littlefs/lfs.c ****                 return err;
2082:libraries/littlefs/lfs.c ****             }
2083:libraries/littlefs/lfs.c **** 
2084:libraries/littlefs/lfs.c ****             lfs_gstate_tole32(&delta);
2085:libraries/littlefs/lfs.c ****             err = lfs_dir_commitattr(lfs, &commit,
2086:libraries/littlefs/lfs.c ****                     LFS_MKTAG(LFS_TYPE_MOVESTATE, 0x3ff,
2087:libraries/littlefs/lfs.c ****                         sizeof(delta)), &delta);
2088:libraries/littlefs/lfs.c ****             if (err) {
2089:libraries/littlefs/lfs.c ****                 if (err == LFS_ERR_NOSPC || err == LFS_ERR_CORRUPT) {
2090:libraries/littlefs/lfs.c ****                     goto compact;
2091:libraries/littlefs/lfs.c ****                 }
2092:libraries/littlefs/lfs.c ****                 return err;
2093:libraries/littlefs/lfs.c ****             }
2094:libraries/littlefs/lfs.c ****         }
2095:libraries/littlefs/lfs.c **** 
2096:libraries/littlefs/lfs.c ****         // finalize commit with the crc
2097:libraries/littlefs/lfs.c ****         err = lfs_dir_commitcrc(lfs, &commit);
2098:libraries/littlefs/lfs.c ****         if (err) {
2099:libraries/littlefs/lfs.c ****             if (err == LFS_ERR_NOSPC || err == LFS_ERR_CORRUPT) {
2100:libraries/littlefs/lfs.c ****                 goto compact;
2101:libraries/littlefs/lfs.c ****             }
2102:libraries/littlefs/lfs.c ****             return err;
2103:libraries/littlefs/lfs.c ****         }
2104:libraries/littlefs/lfs.c **** 
2105:libraries/littlefs/lfs.c ****         // successful commit, update dir
2106:libraries/littlefs/lfs.c ****         LFS_ASSERT(commit.off % lfs->cfg->prog_size == 0);
2107:libraries/littlefs/lfs.c ****         dir->off = commit.off;
2108:libraries/littlefs/lfs.c ****         dir->etag = commit.ptag;
2109:libraries/littlefs/lfs.c ****         // and update gstate
2110:libraries/littlefs/lfs.c ****         lfs->gdisk = lfs->gstate;
2111:libraries/littlefs/lfs.c ****         lfs->gdelta = (lfs_gstate_t){0};
ARM GAS  /var/folders/b4/k4jbz0ms4wg23jtq0w6p483m0000gn/T//ccwZ2VjF.s 			page 50


2112:libraries/littlefs/lfs.c **** 
2113:libraries/littlefs/lfs.c ****         goto fixmlist;
2114:libraries/littlefs/lfs.c ****     }
2115:libraries/littlefs/lfs.c **** 
2116:libraries/littlefs/lfs.c **** compact:
2117:libraries/littlefs/lfs.c ****     // fall back to compaction
2118:libraries/littlefs/lfs.c ****     lfs_cache_drop(lfs, &lfs->pcache);
2119:libraries/littlefs/lfs.c **** 
2120:libraries/littlefs/lfs.c ****     state = lfs_dir_splittingcompact(lfs, dir, attrs, attrcount,
2121:libraries/littlefs/lfs.c ****             dir, 0, dir->count);
2122:libraries/littlefs/lfs.c ****     if (state < 0) {
2123:libraries/littlefs/lfs.c ****         return state;
2124:libraries/littlefs/lfs.c ****     }
2125:libraries/littlefs/lfs.c **** 
2126:libraries/littlefs/lfs.c ****     goto fixmlist;
2127:libraries/littlefs/lfs.c **** 
2128:libraries/littlefs/lfs.c **** fixmlist:;
2129:libraries/littlefs/lfs.c ****     // this complicated bit of logic is for fixing up any active
2130:libraries/littlefs/lfs.c ****     // metadata-pairs that we may have affected
2131:libraries/littlefs/lfs.c ****     //
2132:libraries/littlefs/lfs.c ****     // note we have to make two passes since the mdir passed to
2133:libraries/littlefs/lfs.c ****     // lfs_dir_commit could also be in this list, and even then
2134:libraries/littlefs/lfs.c ****     // we need to copy the pair so they don't get clobbered if we refetch
2135:libraries/littlefs/lfs.c ****     // our mdir.
2136:libraries/littlefs/lfs.c ****     lfs_block_t oldpair[2] = {pair[0], pair[1]};
2137:libraries/littlefs/lfs.c ****     for (struct lfs_mlist *d = lfs->mlist; d; d = d->next) {
2138:libraries/littlefs/lfs.c ****         if (lfs_pair_cmp(d->m.pair, oldpair) == 0) {
2139:libraries/littlefs/lfs.c ****             d->m = *dir;
2140:libraries/littlefs/lfs.c ****             if (d->m.pair != pair) {
2141:libraries/littlefs/lfs.c ****                 for (int i = 0; i < attrcount; i++) {
2142:libraries/littlefs/lfs.c ****                     if (lfs_tag_type3(attrs[i].tag) == LFS_TYPE_DELETE &&
2143:libraries/littlefs/lfs.c ****                             d->id == lfs_tag_id(attrs[i].tag)) {
2144:libraries/littlefs/lfs.c ****                         d->m.pair[0] = LFS_BLOCK_NULL;
2145:libraries/littlefs/lfs.c ****                         d->m.pair[1] = LFS_BLOCK_NULL;
2146:libraries/littlefs/lfs.c ****                     } else if (lfs_tag_type3(attrs[i].tag) == LFS_TYPE_DELETE &&
2147:libraries/littlefs/lfs.c ****                             d->id > lfs_tag_id(attrs[i].tag)) {
2148:libraries/littlefs/lfs.c ****                         d->id -= 1;
2149:libraries/littlefs/lfs.c ****                         if (d->type == LFS_TYPE_DIR) {
2150:libraries/littlefs/lfs.c ****                             ((lfs_dir_t*)d)->pos -= 1;
2151:libraries/littlefs/lfs.c ****                         }
2152:libraries/littlefs/lfs.c ****                     } else if (lfs_tag_type3(attrs[i].tag) == LFS_TYPE_CREATE &&
2153:libraries/littlefs/lfs.c ****                             d->id >= lfs_tag_id(attrs[i].tag)) {
2154:libraries/littlefs/lfs.c ****                         d->id += 1;
2155:libraries/littlefs/lfs.c ****                         if (d->type == LFS_TYPE_DIR) {
2156:libraries/littlefs/lfs.c ****                             ((lfs_dir_t*)d)->pos += 1;
2157:libraries/littlefs/lfs.c ****                         }
2158:libraries/littlefs/lfs.c ****                     }
2159:libraries/littlefs/lfs.c ****                 }
2160:libraries/littlefs/lfs.c ****             }
2161:libraries/littlefs/lfs.c **** 
2162:libraries/littlefs/lfs.c ****             while (d->id >= d->m.count && d->m.split) {
2163:libraries/littlefs/lfs.c ****                 // we split and id is on tail now
2164:libraries/littlefs/lfs.c ****                 d->id -= d->m.count;
2165:libraries/littlefs/lfs.c ****                 int err = lfs_dir_fetch(lfs, &d->m, d->m.tail);
2166:libraries/littlefs/lfs.c ****                 if (err) {
2167:libraries/littlefs/lfs.c ****                     return err;
2168:libraries/littlefs/lfs.c ****                 }
ARM GAS  /var/folders/b4/k4jbz0ms4wg23jtq0w6p483m0000gn/T//ccwZ2VjF.s 			page 51


2169:libraries/littlefs/lfs.c ****             }
2170:libraries/littlefs/lfs.c ****         }
2171:libraries/littlefs/lfs.c ****     }
2172:libraries/littlefs/lfs.c **** 
2173:libraries/littlefs/lfs.c ****     return state;
2174:libraries/littlefs/lfs.c **** }
2175:libraries/littlefs/lfs.c **** #endif
2176:libraries/littlefs/lfs.c **** 
2177:libraries/littlefs/lfs.c **** #ifndef LFS_READONLY
2178:libraries/littlefs/lfs.c **** static int lfs_dir_orphaningcommit(lfs_t *lfs, lfs_mdir_t *dir,
2179:libraries/littlefs/lfs.c ****         const struct lfs_mattr *attrs, int attrcount) {
2180:libraries/littlefs/lfs.c ****     // check for any inline files that aren't RAM backed and
2181:libraries/littlefs/lfs.c ****     // forcefully evict them, needed for filesystem consistency
2182:libraries/littlefs/lfs.c ****     for (lfs_file_t *f = (lfs_file_t*)lfs->mlist; f; f = f->next) {
2183:libraries/littlefs/lfs.c ****         if (dir != &f->m && lfs_pair_cmp(f->m.pair, dir->pair) == 0 &&
2184:libraries/littlefs/lfs.c ****                 f->type == LFS_TYPE_REG && (f->flags & LFS_F_INLINE) &&
2185:libraries/littlefs/lfs.c ****                 f->ctz.size > lfs->cfg->cache_size) {
2186:libraries/littlefs/lfs.c ****             int err = lfs_file_outline(lfs, f);
2187:libraries/littlefs/lfs.c ****             if (err) {
2188:libraries/littlefs/lfs.c ****                 return err;
2189:libraries/littlefs/lfs.c ****             }
2190:libraries/littlefs/lfs.c **** 
2191:libraries/littlefs/lfs.c ****             err = lfs_file_flush(lfs, f);
2192:libraries/littlefs/lfs.c ****             if (err) {
2193:libraries/littlefs/lfs.c ****                 return err;
2194:libraries/littlefs/lfs.c ****             }
2195:libraries/littlefs/lfs.c ****         }
2196:libraries/littlefs/lfs.c ****     }
2197:libraries/littlefs/lfs.c **** 
2198:libraries/littlefs/lfs.c ****     lfs_block_t lpair[2] = {dir->pair[0], dir->pair[1]};
2199:libraries/littlefs/lfs.c ****     lfs_mdir_t ldir = *dir;
2200:libraries/littlefs/lfs.c ****     lfs_mdir_t pdir;
2201:libraries/littlefs/lfs.c ****     int state = lfs_dir_relocatingcommit(lfs, &ldir, dir->pair,
2202:libraries/littlefs/lfs.c ****             attrs, attrcount, &pdir);
2203:libraries/littlefs/lfs.c ****     if (state < 0) {
2204:libraries/littlefs/lfs.c ****         return state;
2205:libraries/littlefs/lfs.c ****     }
2206:libraries/littlefs/lfs.c **** 
2207:libraries/littlefs/lfs.c ****     // update if we're not in mlist, note we may have already been
2208:libraries/littlefs/lfs.c ****     // updated if we are in mlist
2209:libraries/littlefs/lfs.c ****     if (lfs_pair_cmp(dir->pair, lpair) == 0) {
2210:libraries/littlefs/lfs.c ****         *dir = ldir;
2211:libraries/littlefs/lfs.c ****     }
2212:libraries/littlefs/lfs.c **** 
2213:libraries/littlefs/lfs.c ****     // commit was successful, but may require other changes in the
2214:libraries/littlefs/lfs.c ****     // filesystem, these would normally be tail recursive, but we have
2215:libraries/littlefs/lfs.c ****     // flattened them here avoid unbounded stack usage
2216:libraries/littlefs/lfs.c **** 
2217:libraries/littlefs/lfs.c ****     // need to drop?
2218:libraries/littlefs/lfs.c ****     if (state == LFS_OK_DROPPED) {
2219:libraries/littlefs/lfs.c ****         // steal state
2220:libraries/littlefs/lfs.c ****         int err = lfs_dir_getgstate(lfs, dir, &lfs->gdelta);
2221:libraries/littlefs/lfs.c ****         if (err) {
2222:libraries/littlefs/lfs.c ****             return err;
2223:libraries/littlefs/lfs.c ****         }
2224:libraries/littlefs/lfs.c **** 
2225:libraries/littlefs/lfs.c ****         // steal tail, note that this can't create a recursive drop
ARM GAS  /var/folders/b4/k4jbz0ms4wg23jtq0w6p483m0000gn/T//ccwZ2VjF.s 			page 52


2226:libraries/littlefs/lfs.c ****         lpair[0] = pdir.pair[0];
2227:libraries/littlefs/lfs.c ****         lpair[1] = pdir.pair[1];
2228:libraries/littlefs/lfs.c ****         lfs_pair_tole32(dir->tail);
2229:libraries/littlefs/lfs.c ****         state = lfs_dir_relocatingcommit(lfs, &pdir, lpair, LFS_MKATTRS(
2230:libraries/littlefs/lfs.c ****                     {LFS_MKTAG(LFS_TYPE_TAIL + dir->split, 0x3ff, 8),
2231:libraries/littlefs/lfs.c ****                         dir->tail}),
2232:libraries/littlefs/lfs.c ****                 NULL);
2233:libraries/littlefs/lfs.c ****         lfs_pair_fromle32(dir->tail);
2234:libraries/littlefs/lfs.c ****         if (state < 0) {
2235:libraries/littlefs/lfs.c ****             return state;
2236:libraries/littlefs/lfs.c ****         }
2237:libraries/littlefs/lfs.c **** 
2238:libraries/littlefs/lfs.c ****         ldir = pdir;
2239:libraries/littlefs/lfs.c ****     }
2240:libraries/littlefs/lfs.c **** 
2241:libraries/littlefs/lfs.c ****     // need to relocate?
2242:libraries/littlefs/lfs.c ****     bool orphans = false;
2243:libraries/littlefs/lfs.c ****     while (state == LFS_OK_RELOCATED) {
2244:libraries/littlefs/lfs.c ****         LFS_DEBUG("Relocating {0x%"PRIx32", 0x%"PRIx32"} "
2245:libraries/littlefs/lfs.c ****                     "-> {0x%"PRIx32", 0x%"PRIx32"}",
2246:libraries/littlefs/lfs.c ****                 lpair[0], lpair[1], ldir.pair[0], ldir.pair[1]);
2247:libraries/littlefs/lfs.c ****         state = 0;
2248:libraries/littlefs/lfs.c **** 
2249:libraries/littlefs/lfs.c ****         // update internal root
2250:libraries/littlefs/lfs.c ****         if (lfs_pair_cmp(lpair, lfs->root) == 0) {
2251:libraries/littlefs/lfs.c ****             lfs->root[0] = ldir.pair[0];
2252:libraries/littlefs/lfs.c ****             lfs->root[1] = ldir.pair[1];
2253:libraries/littlefs/lfs.c ****         }
2254:libraries/littlefs/lfs.c **** 
2255:libraries/littlefs/lfs.c ****         // update internally tracked dirs
2256:libraries/littlefs/lfs.c ****         for (struct lfs_mlist *d = lfs->mlist; d; d = d->next) {
2257:libraries/littlefs/lfs.c ****             if (lfs_pair_cmp(lpair, d->m.pair) == 0) {
2258:libraries/littlefs/lfs.c ****                 d->m.pair[0] = ldir.pair[0];
2259:libraries/littlefs/lfs.c ****                 d->m.pair[1] = ldir.pair[1];
2260:libraries/littlefs/lfs.c ****             }
2261:libraries/littlefs/lfs.c **** 
2262:libraries/littlefs/lfs.c ****             if (d->type == LFS_TYPE_DIR &&
2263:libraries/littlefs/lfs.c ****                     lfs_pair_cmp(lpair, ((lfs_dir_t*)d)->head) == 0) {
2264:libraries/littlefs/lfs.c ****                 ((lfs_dir_t*)d)->head[0] = ldir.pair[0];
2265:libraries/littlefs/lfs.c ****                 ((lfs_dir_t*)d)->head[1] = ldir.pair[1];
2266:libraries/littlefs/lfs.c ****             }
2267:libraries/littlefs/lfs.c ****         }
2268:libraries/littlefs/lfs.c **** 
2269:libraries/littlefs/lfs.c ****         // find parent
2270:libraries/littlefs/lfs.c ****         lfs_stag_t tag = lfs_fs_parent(lfs, lpair, &pdir);
2271:libraries/littlefs/lfs.c ****         if (tag < 0 && tag != LFS_ERR_NOENT) {
2272:libraries/littlefs/lfs.c ****             return tag;
2273:libraries/littlefs/lfs.c ****         }
2274:libraries/littlefs/lfs.c **** 
2275:libraries/littlefs/lfs.c ****         bool hasparent = (tag != LFS_ERR_NOENT);
2276:libraries/littlefs/lfs.c ****         if (tag != LFS_ERR_NOENT) {
2277:libraries/littlefs/lfs.c ****             // note that if we have a parent, we must have a pred, so this will
2278:libraries/littlefs/lfs.c ****             // always create an orphan
2279:libraries/littlefs/lfs.c ****             int err = lfs_fs_preporphans(lfs, +1);
2280:libraries/littlefs/lfs.c ****             if (err) {
2281:libraries/littlefs/lfs.c ****                 return err;
2282:libraries/littlefs/lfs.c ****             }
ARM GAS  /var/folders/b4/k4jbz0ms4wg23jtq0w6p483m0000gn/T//ccwZ2VjF.s 			page 53


2283:libraries/littlefs/lfs.c **** 
2284:libraries/littlefs/lfs.c ****             // fix pending move in this pair? this looks like an optimization but
2285:libraries/littlefs/lfs.c ****             // is in fact _required_ since relocating may outdate the move.
2286:libraries/littlefs/lfs.c ****             uint16_t moveid = 0x3ff;
2287:libraries/littlefs/lfs.c ****             if (lfs_gstate_hasmovehere(&lfs->gstate, pdir.pair)) {
2288:libraries/littlefs/lfs.c ****                 moveid = lfs_tag_id(lfs->gstate.tag);
2289:libraries/littlefs/lfs.c ****                 LFS_DEBUG("Fixing move while relocating "
2290:libraries/littlefs/lfs.c ****                         "{0x%"PRIx32", 0x%"PRIx32"} 0x%"PRIx16"\n",
2291:libraries/littlefs/lfs.c ****                         pdir.pair[0], pdir.pair[1], moveid);
2292:libraries/littlefs/lfs.c ****                 lfs_fs_prepmove(lfs, 0x3ff, NULL);
2293:libraries/littlefs/lfs.c ****                 if (moveid < lfs_tag_id(tag)) {
2294:libraries/littlefs/lfs.c ****                     tag -= LFS_MKTAG(0, 1, 0);
2295:libraries/littlefs/lfs.c ****                 }
2296:libraries/littlefs/lfs.c ****             }
2297:libraries/littlefs/lfs.c **** 
2298:libraries/littlefs/lfs.c ****             lfs_block_t ppair[2] = {pdir.pair[0], pdir.pair[1]};
2299:libraries/littlefs/lfs.c ****             lfs_pair_tole32(ldir.pair);
2300:libraries/littlefs/lfs.c ****             state = lfs_dir_relocatingcommit(lfs, &pdir, ppair, LFS_MKATTRS(
2301:libraries/littlefs/lfs.c ****                         {LFS_MKTAG_IF(moveid != 0x3ff,
2302:libraries/littlefs/lfs.c ****                             LFS_TYPE_DELETE, moveid, 0), NULL},
2303:libraries/littlefs/lfs.c ****                         {tag, ldir.pair}),
2304:libraries/littlefs/lfs.c ****                     NULL);
2305:libraries/littlefs/lfs.c ****             lfs_pair_fromle32(ldir.pair);
2306:libraries/littlefs/lfs.c ****             if (state < 0) {
2307:libraries/littlefs/lfs.c ****                 return state;
2308:libraries/littlefs/lfs.c ****             }
2309:libraries/littlefs/lfs.c **** 
2310:libraries/littlefs/lfs.c ****             if (state == LFS_OK_RELOCATED) {
2311:libraries/littlefs/lfs.c ****                 lpair[0] = ppair[0];
2312:libraries/littlefs/lfs.c ****                 lpair[1] = ppair[1];
2313:libraries/littlefs/lfs.c ****                 ldir = pdir;
2314:libraries/littlefs/lfs.c ****                 orphans = true;
2315:libraries/littlefs/lfs.c ****                 continue;
2316:libraries/littlefs/lfs.c ****             }
2317:libraries/littlefs/lfs.c ****         }
2318:libraries/littlefs/lfs.c **** 
2319:libraries/littlefs/lfs.c ****         // find pred
2320:libraries/littlefs/lfs.c ****         int err = lfs_fs_pred(lfs, lpair, &pdir);
2321:libraries/littlefs/lfs.c ****         if (err && err != LFS_ERR_NOENT) {
2322:libraries/littlefs/lfs.c ****             return err;
2323:libraries/littlefs/lfs.c ****         }
2324:libraries/littlefs/lfs.c ****         LFS_ASSERT(!(hasparent && err == LFS_ERR_NOENT));
2325:libraries/littlefs/lfs.c **** 
2326:libraries/littlefs/lfs.c ****         // if we can't find dir, it must be new
2327:libraries/littlefs/lfs.c ****         if (err != LFS_ERR_NOENT) {
2328:libraries/littlefs/lfs.c ****             if (lfs_gstate_hasorphans(&lfs->gstate)) {
2329:libraries/littlefs/lfs.c ****                 // next step, clean up orphans
2330:libraries/littlefs/lfs.c ****                 err = lfs_fs_preporphans(lfs, -hasparent);
2331:libraries/littlefs/lfs.c ****                 if (err) {
2332:libraries/littlefs/lfs.c ****                     return err;
2333:libraries/littlefs/lfs.c ****                 }
2334:libraries/littlefs/lfs.c ****             }
2335:libraries/littlefs/lfs.c **** 
2336:libraries/littlefs/lfs.c ****             // fix pending move in this pair? this looks like an optimization
2337:libraries/littlefs/lfs.c ****             // but is in fact _required_ since relocating may outdate the move.
2338:libraries/littlefs/lfs.c ****             uint16_t moveid = 0x3ff;
2339:libraries/littlefs/lfs.c ****             if (lfs_gstate_hasmovehere(&lfs->gstate, pdir.pair)) {
ARM GAS  /var/folders/b4/k4jbz0ms4wg23jtq0w6p483m0000gn/T//ccwZ2VjF.s 			page 54


2340:libraries/littlefs/lfs.c ****                 moveid = lfs_tag_id(lfs->gstate.tag);
2341:libraries/littlefs/lfs.c ****                 LFS_DEBUG("Fixing move while relocating "
2342:libraries/littlefs/lfs.c ****                         "{0x%"PRIx32", 0x%"PRIx32"} 0x%"PRIx16"\n",
2343:libraries/littlefs/lfs.c ****                         pdir.pair[0], pdir.pair[1], moveid);
2344:libraries/littlefs/lfs.c ****                 lfs_fs_prepmove(lfs, 0x3ff, NULL);
2345:libraries/littlefs/lfs.c ****             }
2346:libraries/littlefs/lfs.c **** 
2347:libraries/littlefs/lfs.c ****             // replace bad pair, either we clean up desync, or no desync occured
2348:libraries/littlefs/lfs.c ****             lpair[0] = pdir.pair[0];
2349:libraries/littlefs/lfs.c ****             lpair[1] = pdir.pair[1];
2350:libraries/littlefs/lfs.c ****             lfs_pair_tole32(ldir.pair);
2351:libraries/littlefs/lfs.c ****             state = lfs_dir_relocatingcommit(lfs, &pdir, lpair, LFS_MKATTRS(
2352:libraries/littlefs/lfs.c ****                         {LFS_MKTAG_IF(moveid != 0x3ff,
2353:libraries/littlefs/lfs.c ****                             LFS_TYPE_DELETE, moveid, 0), NULL},
2354:libraries/littlefs/lfs.c ****                         {LFS_MKTAG(LFS_TYPE_TAIL + pdir.split, 0x3ff, 8),
2355:libraries/littlefs/lfs.c ****                             ldir.pair}),
2356:libraries/littlefs/lfs.c ****                     NULL);
2357:libraries/littlefs/lfs.c ****             lfs_pair_fromle32(ldir.pair);
2358:libraries/littlefs/lfs.c ****             if (state < 0) {
2359:libraries/littlefs/lfs.c ****                 return state;
2360:libraries/littlefs/lfs.c ****             }
2361:libraries/littlefs/lfs.c **** 
2362:libraries/littlefs/lfs.c ****             ldir = pdir;
2363:libraries/littlefs/lfs.c ****         }
2364:libraries/littlefs/lfs.c ****     }
2365:libraries/littlefs/lfs.c **** 
2366:libraries/littlefs/lfs.c ****     return orphans ? LFS_OK_ORPHANED : 0;
2367:libraries/littlefs/lfs.c **** }
2368:libraries/littlefs/lfs.c **** #endif
2369:libraries/littlefs/lfs.c **** 
2370:libraries/littlefs/lfs.c **** #ifndef LFS_READONLY
2371:libraries/littlefs/lfs.c **** static int lfs_dir_commit(lfs_t *lfs, lfs_mdir_t *dir,
2372:libraries/littlefs/lfs.c ****         const struct lfs_mattr *attrs, int attrcount) {
2373:libraries/littlefs/lfs.c ****     int orphans = lfs_dir_orphaningcommit(lfs, dir, attrs, attrcount);
2374:libraries/littlefs/lfs.c ****     if (orphans < 0) {
2375:libraries/littlefs/lfs.c ****         return orphans;
2376:libraries/littlefs/lfs.c ****     }
2377:libraries/littlefs/lfs.c **** 
2378:libraries/littlefs/lfs.c ****     if (orphans) {
2379:libraries/littlefs/lfs.c ****         // make sure we've removed all orphans, this is a noop if there
2380:libraries/littlefs/lfs.c ****         // are none, but if we had nested blocks failures we may have
2381:libraries/littlefs/lfs.c ****         // created some
2382:libraries/littlefs/lfs.c ****         int err = lfs_fs_deorphan(lfs, false);
2383:libraries/littlefs/lfs.c ****         if (err) {
2384:libraries/littlefs/lfs.c ****             return err;
2385:libraries/littlefs/lfs.c ****         }
2386:libraries/littlefs/lfs.c ****     }
2387:libraries/littlefs/lfs.c **** 
2388:libraries/littlefs/lfs.c ****     return 0;
2389:libraries/littlefs/lfs.c **** }
2390:libraries/littlefs/lfs.c **** #endif
2391:libraries/littlefs/lfs.c **** 
2392:libraries/littlefs/lfs.c **** 
2393:libraries/littlefs/lfs.c **** /// Top level directory operations ///
2394:libraries/littlefs/lfs.c **** #ifndef LFS_READONLY
2395:libraries/littlefs/lfs.c **** static int lfs_rawmkdir(lfs_t *lfs, const char *path) {
2396:libraries/littlefs/lfs.c ****     // deorphan if we haven't yet, needed at most once after poweron
ARM GAS  /var/folders/b4/k4jbz0ms4wg23jtq0w6p483m0000gn/T//ccwZ2VjF.s 			page 55


2397:libraries/littlefs/lfs.c ****     int err = lfs_fs_forceconsistency(lfs);
2398:libraries/littlefs/lfs.c ****     if (err) {
2399:libraries/littlefs/lfs.c ****         return err;
2400:libraries/littlefs/lfs.c ****     }
2401:libraries/littlefs/lfs.c **** 
2402:libraries/littlefs/lfs.c ****     struct lfs_mlist cwd;
2403:libraries/littlefs/lfs.c ****     cwd.next = lfs->mlist;
2404:libraries/littlefs/lfs.c ****     uint16_t id;
2405:libraries/littlefs/lfs.c ****     err = lfs_dir_find(lfs, &cwd.m, &path, &id);
2406:libraries/littlefs/lfs.c ****     if (!(err == LFS_ERR_NOENT && id != 0x3ff)) {
2407:libraries/littlefs/lfs.c ****         return (err < 0) ? err : LFS_ERR_EXIST;
2408:libraries/littlefs/lfs.c ****     }
2409:libraries/littlefs/lfs.c **** 
2410:libraries/littlefs/lfs.c ****     // check that name fits
2411:libraries/littlefs/lfs.c ****     lfs_size_t nlen = strlen(path);
2412:libraries/littlefs/lfs.c ****     if (nlen > lfs->name_max) {
2413:libraries/littlefs/lfs.c ****         return LFS_ERR_NAMETOOLONG;
2414:libraries/littlefs/lfs.c ****     }
2415:libraries/littlefs/lfs.c **** 
2416:libraries/littlefs/lfs.c ****     // build up new directory
2417:libraries/littlefs/lfs.c ****     lfs_alloc_ack(lfs);
2418:libraries/littlefs/lfs.c ****     lfs_mdir_t dir;
2419:libraries/littlefs/lfs.c ****     err = lfs_dir_alloc(lfs, &dir);
2420:libraries/littlefs/lfs.c ****     if (err) {
2421:libraries/littlefs/lfs.c ****         return err;
2422:libraries/littlefs/lfs.c ****     }
2423:libraries/littlefs/lfs.c **** 
2424:libraries/littlefs/lfs.c ****     // find end of list
2425:libraries/littlefs/lfs.c ****     lfs_mdir_t pred = cwd.m;
2426:libraries/littlefs/lfs.c ****     while (pred.split) {
2427:libraries/littlefs/lfs.c ****         err = lfs_dir_fetch(lfs, &pred, pred.tail);
2428:libraries/littlefs/lfs.c ****         if (err) {
2429:libraries/littlefs/lfs.c ****             return err;
2430:libraries/littlefs/lfs.c ****         }
2431:libraries/littlefs/lfs.c ****     }
2432:libraries/littlefs/lfs.c **** 
2433:libraries/littlefs/lfs.c ****     // setup dir
2434:libraries/littlefs/lfs.c ****     lfs_pair_tole32(pred.tail);
2435:libraries/littlefs/lfs.c ****     err = lfs_dir_commit(lfs, &dir, LFS_MKATTRS(
2436:libraries/littlefs/lfs.c ****             {LFS_MKTAG(LFS_TYPE_SOFTTAIL, 0x3ff, 8), pred.tail}));
2437:libraries/littlefs/lfs.c ****     lfs_pair_fromle32(pred.tail);
2438:libraries/littlefs/lfs.c ****     if (err) {
2439:libraries/littlefs/lfs.c ****         return err;
2440:libraries/littlefs/lfs.c ****     }
2441:libraries/littlefs/lfs.c **** 
2442:libraries/littlefs/lfs.c ****     // current block not end of list?
2443:libraries/littlefs/lfs.c ****     if (cwd.m.split) {
2444:libraries/littlefs/lfs.c ****         // update tails, this creates a desync
2445:libraries/littlefs/lfs.c ****         err = lfs_fs_preporphans(lfs, +1);
2446:libraries/littlefs/lfs.c ****         if (err) {
2447:libraries/littlefs/lfs.c ****             return err;
2448:libraries/littlefs/lfs.c ****         }
2449:libraries/littlefs/lfs.c **** 
2450:libraries/littlefs/lfs.c ****         // it's possible our predecessor has to be relocated, and if
2451:libraries/littlefs/lfs.c ****         // our parent is our predecessor's predecessor, this could have
2452:libraries/littlefs/lfs.c ****         // caused our parent to go out of date, fortunately we can hook
2453:libraries/littlefs/lfs.c ****         // ourselves into littlefs to catch this
ARM GAS  /var/folders/b4/k4jbz0ms4wg23jtq0w6p483m0000gn/T//ccwZ2VjF.s 			page 56


2454:libraries/littlefs/lfs.c ****         cwd.type = 0;
2455:libraries/littlefs/lfs.c ****         cwd.id = 0;
2456:libraries/littlefs/lfs.c ****         lfs->mlist = &cwd;
2457:libraries/littlefs/lfs.c **** 
2458:libraries/littlefs/lfs.c ****         lfs_pair_tole32(dir.pair);
2459:libraries/littlefs/lfs.c ****         err = lfs_dir_commit(lfs, &pred, LFS_MKATTRS(
2460:libraries/littlefs/lfs.c ****                 {LFS_MKTAG(LFS_TYPE_SOFTTAIL, 0x3ff, 8), dir.pair}));
2461:libraries/littlefs/lfs.c ****         lfs_pair_fromle32(dir.pair);
2462:libraries/littlefs/lfs.c ****         if (err) {
2463:libraries/littlefs/lfs.c ****             lfs->mlist = cwd.next;
2464:libraries/littlefs/lfs.c ****             return err;
2465:libraries/littlefs/lfs.c ****         }
2466:libraries/littlefs/lfs.c **** 
2467:libraries/littlefs/lfs.c ****         lfs->mlist = cwd.next;
2468:libraries/littlefs/lfs.c ****         err = lfs_fs_preporphans(lfs, -1);
2469:libraries/littlefs/lfs.c ****         if (err) {
2470:libraries/littlefs/lfs.c ****             return err;
2471:libraries/littlefs/lfs.c ****         }
2472:libraries/littlefs/lfs.c ****     }
2473:libraries/littlefs/lfs.c **** 
2474:libraries/littlefs/lfs.c ****     // now insert into our parent block
2475:libraries/littlefs/lfs.c ****     lfs_pair_tole32(dir.pair);
2476:libraries/littlefs/lfs.c ****     err = lfs_dir_commit(lfs, &cwd.m, LFS_MKATTRS(
2477:libraries/littlefs/lfs.c ****             {LFS_MKTAG(LFS_TYPE_CREATE, id, 0), NULL},
2478:libraries/littlefs/lfs.c ****             {LFS_MKTAG(LFS_TYPE_DIR, id, nlen), path},
2479:libraries/littlefs/lfs.c ****             {LFS_MKTAG(LFS_TYPE_DIRSTRUCT, id, 8), dir.pair},
2480:libraries/littlefs/lfs.c ****             {LFS_MKTAG_IF(!cwd.m.split,
2481:libraries/littlefs/lfs.c ****                 LFS_TYPE_SOFTTAIL, 0x3ff, 8), dir.pair}));
2482:libraries/littlefs/lfs.c ****     lfs_pair_fromle32(dir.pair);
2483:libraries/littlefs/lfs.c ****     if (err) {
2484:libraries/littlefs/lfs.c ****         return err;
2485:libraries/littlefs/lfs.c ****     }
2486:libraries/littlefs/lfs.c **** 
2487:libraries/littlefs/lfs.c ****     return 0;
2488:libraries/littlefs/lfs.c **** }
2489:libraries/littlefs/lfs.c **** #endif
2490:libraries/littlefs/lfs.c **** 
2491:libraries/littlefs/lfs.c **** static int lfs_dir_rawopen(lfs_t *lfs, lfs_dir_t *dir, const char *path) {
2492:libraries/littlefs/lfs.c ****     lfs_stag_t tag = lfs_dir_find(lfs, &dir->m, &path, NULL);
2493:libraries/littlefs/lfs.c ****     if (tag < 0) {
2494:libraries/littlefs/lfs.c ****         return tag;
2495:libraries/littlefs/lfs.c ****     }
2496:libraries/littlefs/lfs.c **** 
2497:libraries/littlefs/lfs.c ****     if (lfs_tag_type3(tag) != LFS_TYPE_DIR) {
2498:libraries/littlefs/lfs.c ****         return LFS_ERR_NOTDIR;
2499:libraries/littlefs/lfs.c ****     }
2500:libraries/littlefs/lfs.c **** 
2501:libraries/littlefs/lfs.c ****     lfs_block_t pair[2];
2502:libraries/littlefs/lfs.c ****     if (lfs_tag_id(tag) == 0x3ff) {
2503:libraries/littlefs/lfs.c ****         // handle root dir separately
2504:libraries/littlefs/lfs.c ****         pair[0] = lfs->root[0];
2505:libraries/littlefs/lfs.c ****         pair[1] = lfs->root[1];
2506:libraries/littlefs/lfs.c ****     } else {
2507:libraries/littlefs/lfs.c ****         // get dir pair from parent
2508:libraries/littlefs/lfs.c ****         lfs_stag_t res = lfs_dir_get(lfs, &dir->m, LFS_MKTAG(0x700, 0x3ff, 0),
2509:libraries/littlefs/lfs.c ****                 LFS_MKTAG(LFS_TYPE_STRUCT, lfs_tag_id(tag), 8), pair);
2510:libraries/littlefs/lfs.c ****         if (res < 0) {
ARM GAS  /var/folders/b4/k4jbz0ms4wg23jtq0w6p483m0000gn/T//ccwZ2VjF.s 			page 57


2511:libraries/littlefs/lfs.c ****             return res;
2512:libraries/littlefs/lfs.c ****         }
2513:libraries/littlefs/lfs.c ****         lfs_pair_fromle32(pair);
2514:libraries/littlefs/lfs.c ****     }
2515:libraries/littlefs/lfs.c **** 
2516:libraries/littlefs/lfs.c ****     // fetch first pair
2517:libraries/littlefs/lfs.c ****     int err = lfs_dir_fetch(lfs, &dir->m, pair);
2518:libraries/littlefs/lfs.c ****     if (err) {
2519:libraries/littlefs/lfs.c ****         return err;
2520:libraries/littlefs/lfs.c ****     }
2521:libraries/littlefs/lfs.c **** 
2522:libraries/littlefs/lfs.c ****     // setup entry
2523:libraries/littlefs/lfs.c ****     dir->head[0] = dir->m.pair[0];
2524:libraries/littlefs/lfs.c ****     dir->head[1] = dir->m.pair[1];
2525:libraries/littlefs/lfs.c ****     dir->id = 0;
2526:libraries/littlefs/lfs.c ****     dir->pos = 0;
2527:libraries/littlefs/lfs.c **** 
2528:libraries/littlefs/lfs.c ****     // add to list of mdirs
2529:libraries/littlefs/lfs.c ****     dir->type = LFS_TYPE_DIR;
2530:libraries/littlefs/lfs.c ****     lfs_mlist_append(lfs, (struct lfs_mlist *)dir);
2531:libraries/littlefs/lfs.c **** 
2532:libraries/littlefs/lfs.c ****     return 0;
2533:libraries/littlefs/lfs.c **** }
2534:libraries/littlefs/lfs.c **** 
2535:libraries/littlefs/lfs.c **** static int lfs_dir_rawclose(lfs_t *lfs, lfs_dir_t *dir) {
2536:libraries/littlefs/lfs.c ****     // remove from list of mdirs
2537:libraries/littlefs/lfs.c ****     lfs_mlist_remove(lfs, (struct lfs_mlist *)dir);
2538:libraries/littlefs/lfs.c **** 
2539:libraries/littlefs/lfs.c ****     return 0;
2540:libraries/littlefs/lfs.c **** }
2541:libraries/littlefs/lfs.c **** 
2542:libraries/littlefs/lfs.c **** static int lfs_dir_rawread(lfs_t *lfs, lfs_dir_t *dir, struct lfs_info *info) {
2543:libraries/littlefs/lfs.c ****     memset(info, 0, sizeof(*info));
2544:libraries/littlefs/lfs.c **** 
2545:libraries/littlefs/lfs.c ****     // special offset for '.' and '..'
2546:libraries/littlefs/lfs.c ****     if (dir->pos == 0) {
2547:libraries/littlefs/lfs.c ****         info->type = LFS_TYPE_DIR;
2548:libraries/littlefs/lfs.c ****         strcpy(info->name, ".");
2549:libraries/littlefs/lfs.c ****         dir->pos += 1;
2550:libraries/littlefs/lfs.c ****         return true;
2551:libraries/littlefs/lfs.c ****     } else if (dir->pos == 1) {
2552:libraries/littlefs/lfs.c ****         info->type = LFS_TYPE_DIR;
2553:libraries/littlefs/lfs.c ****         strcpy(info->name, "..");
2554:libraries/littlefs/lfs.c ****         dir->pos += 1;
2555:libraries/littlefs/lfs.c ****         return true;
2556:libraries/littlefs/lfs.c ****     }
2557:libraries/littlefs/lfs.c **** 
2558:libraries/littlefs/lfs.c ****     while (true) {
2559:libraries/littlefs/lfs.c ****         if (dir->id == dir->m.count) {
2560:libraries/littlefs/lfs.c ****             if (!dir->m.split) {
2561:libraries/littlefs/lfs.c ****                 return false;
2562:libraries/littlefs/lfs.c ****             }
2563:libraries/littlefs/lfs.c **** 
2564:libraries/littlefs/lfs.c ****             int err = lfs_dir_fetch(lfs, &dir->m, dir->m.tail);
2565:libraries/littlefs/lfs.c ****             if (err) {
2566:libraries/littlefs/lfs.c ****                 return err;
2567:libraries/littlefs/lfs.c ****             }
ARM GAS  /var/folders/b4/k4jbz0ms4wg23jtq0w6p483m0000gn/T//ccwZ2VjF.s 			page 58


2568:libraries/littlefs/lfs.c **** 
2569:libraries/littlefs/lfs.c ****             dir->id = 0;
2570:libraries/littlefs/lfs.c ****         }
2571:libraries/littlefs/lfs.c **** 
2572:libraries/littlefs/lfs.c ****         int err = lfs_dir_getinfo(lfs, &dir->m, dir->id, info);
2573:libraries/littlefs/lfs.c ****         if (err && err != LFS_ERR_NOENT) {
2574:libraries/littlefs/lfs.c ****             return err;
2575:libraries/littlefs/lfs.c ****         }
2576:libraries/littlefs/lfs.c **** 
2577:libraries/littlefs/lfs.c ****         dir->id += 1;
2578:libraries/littlefs/lfs.c ****         if (err != LFS_ERR_NOENT) {
2579:libraries/littlefs/lfs.c ****             break;
2580:libraries/littlefs/lfs.c ****         }
2581:libraries/littlefs/lfs.c ****     }
2582:libraries/littlefs/lfs.c **** 
2583:libraries/littlefs/lfs.c ****     dir->pos += 1;
2584:libraries/littlefs/lfs.c ****     return true;
2585:libraries/littlefs/lfs.c **** }
2586:libraries/littlefs/lfs.c **** 
2587:libraries/littlefs/lfs.c **** static int lfs_dir_rawseek(lfs_t *lfs, lfs_dir_t *dir, lfs_off_t off) {
2588:libraries/littlefs/lfs.c ****     // simply walk from head dir
2589:libraries/littlefs/lfs.c ****     int err = lfs_dir_rawrewind(lfs, dir);
2590:libraries/littlefs/lfs.c ****     if (err) {
2591:libraries/littlefs/lfs.c ****         return err;
2592:libraries/littlefs/lfs.c ****     }
2593:libraries/littlefs/lfs.c **** 
2594:libraries/littlefs/lfs.c ****     // first two for ./..
2595:libraries/littlefs/lfs.c ****     dir->pos = lfs_min(2, off);
2596:libraries/littlefs/lfs.c ****     off -= dir->pos;
2597:libraries/littlefs/lfs.c **** 
2598:libraries/littlefs/lfs.c ****     // skip superblock entry
2599:libraries/littlefs/lfs.c ****     dir->id = (off > 0 && lfs_pair_cmp(dir->head, lfs->root) == 0);
2600:libraries/littlefs/lfs.c **** 
2601:libraries/littlefs/lfs.c ****     while (off > 0) {
2602:libraries/littlefs/lfs.c ****         int diff = lfs_min(dir->m.count - dir->id, off);
2603:libraries/littlefs/lfs.c ****         dir->id += diff;
2604:libraries/littlefs/lfs.c ****         dir->pos += diff;
2605:libraries/littlefs/lfs.c ****         off -= diff;
2606:libraries/littlefs/lfs.c **** 
2607:libraries/littlefs/lfs.c ****         if (dir->id == dir->m.count) {
2608:libraries/littlefs/lfs.c ****             if (!dir->m.split) {
2609:libraries/littlefs/lfs.c ****                 return LFS_ERR_INVAL;
2610:libraries/littlefs/lfs.c ****             }
2611:libraries/littlefs/lfs.c **** 
2612:libraries/littlefs/lfs.c ****             err = lfs_dir_fetch(lfs, &dir->m, dir->m.tail);
2613:libraries/littlefs/lfs.c ****             if (err) {
2614:libraries/littlefs/lfs.c ****                 return err;
2615:libraries/littlefs/lfs.c ****             }
2616:libraries/littlefs/lfs.c **** 
2617:libraries/littlefs/lfs.c ****             dir->id = 0;
2618:libraries/littlefs/lfs.c ****         }
2619:libraries/littlefs/lfs.c ****     }
2620:libraries/littlefs/lfs.c **** 
2621:libraries/littlefs/lfs.c ****     return 0;
2622:libraries/littlefs/lfs.c **** }
2623:libraries/littlefs/lfs.c **** 
2624:libraries/littlefs/lfs.c **** static lfs_soff_t lfs_dir_rawtell(lfs_t *lfs, lfs_dir_t *dir) {
ARM GAS  /var/folders/b4/k4jbz0ms4wg23jtq0w6p483m0000gn/T//ccwZ2VjF.s 			page 59


2625:libraries/littlefs/lfs.c ****     (void)lfs;
2626:libraries/littlefs/lfs.c ****     return dir->pos;
2627:libraries/littlefs/lfs.c **** }
2628:libraries/littlefs/lfs.c **** 
2629:libraries/littlefs/lfs.c **** static int lfs_dir_rawrewind(lfs_t *lfs, lfs_dir_t *dir) {
2630:libraries/littlefs/lfs.c ****     // reload the head dir
2631:libraries/littlefs/lfs.c ****     int err = lfs_dir_fetch(lfs, &dir->m, dir->head);
2632:libraries/littlefs/lfs.c ****     if (err) {
2633:libraries/littlefs/lfs.c ****         return err;
2634:libraries/littlefs/lfs.c ****     }
2635:libraries/littlefs/lfs.c **** 
2636:libraries/littlefs/lfs.c ****     dir->id = 0;
2637:libraries/littlefs/lfs.c ****     dir->pos = 0;
2638:libraries/littlefs/lfs.c ****     return 0;
2639:libraries/littlefs/lfs.c **** }
2640:libraries/littlefs/lfs.c **** 
2641:libraries/littlefs/lfs.c **** 
2642:libraries/littlefs/lfs.c **** /// File index list operations ///
2643:libraries/littlefs/lfs.c **** static int lfs_ctz_index(lfs_t *lfs, lfs_off_t *off) {
2644:libraries/littlefs/lfs.c ****     lfs_off_t size = *off;
2645:libraries/littlefs/lfs.c ****     lfs_off_t b = lfs->cfg->block_size - 2*4;
2646:libraries/littlefs/lfs.c ****     lfs_off_t i = size / b;
2647:libraries/littlefs/lfs.c ****     if (i == 0) {
2648:libraries/littlefs/lfs.c ****         return 0;
2649:libraries/littlefs/lfs.c ****     }
2650:libraries/littlefs/lfs.c **** 
2651:libraries/littlefs/lfs.c ****     i = (size - 4*(lfs_popc(i-1)+2)) / b;
2652:libraries/littlefs/lfs.c ****     *off = size - b*i - 4*lfs_popc(i);
2653:libraries/littlefs/lfs.c ****     return i;
2654:libraries/littlefs/lfs.c **** }
2655:libraries/littlefs/lfs.c **** 
2656:libraries/littlefs/lfs.c **** static int lfs_ctz_find(lfs_t *lfs,
2657:libraries/littlefs/lfs.c ****         const lfs_cache_t *pcache, lfs_cache_t *rcache,
2658:libraries/littlefs/lfs.c ****         lfs_block_t head, lfs_size_t size,
2659:libraries/littlefs/lfs.c ****         lfs_size_t pos, lfs_block_t *block, lfs_off_t *off) {
2660:libraries/littlefs/lfs.c ****     if (size == 0) {
2661:libraries/littlefs/lfs.c ****         *block = LFS_BLOCK_NULL;
2662:libraries/littlefs/lfs.c ****         *off = 0;
2663:libraries/littlefs/lfs.c ****         return 0;
2664:libraries/littlefs/lfs.c ****     }
2665:libraries/littlefs/lfs.c **** 
2666:libraries/littlefs/lfs.c ****     lfs_off_t current = lfs_ctz_index(lfs, &(lfs_off_t){size-1});
2667:libraries/littlefs/lfs.c ****     lfs_off_t target = lfs_ctz_index(lfs, &pos);
2668:libraries/littlefs/lfs.c **** 
2669:libraries/littlefs/lfs.c ****     while (current > target) {
2670:libraries/littlefs/lfs.c ****         lfs_size_t skip = lfs_min(
2671:libraries/littlefs/lfs.c ****                 lfs_npw2(current-target+1) - 1,
2672:libraries/littlefs/lfs.c ****                 lfs_ctz(current));
2673:libraries/littlefs/lfs.c **** 
2674:libraries/littlefs/lfs.c ****         int err = lfs_bd_read(lfs,
2675:libraries/littlefs/lfs.c ****                 pcache, rcache, sizeof(head),
2676:libraries/littlefs/lfs.c ****                 head, 4*skip, &head, sizeof(head));
2677:libraries/littlefs/lfs.c ****         head = lfs_fromle32(head);
2678:libraries/littlefs/lfs.c ****         if (err) {
2679:libraries/littlefs/lfs.c ****             return err;
2680:libraries/littlefs/lfs.c ****         }
2681:libraries/littlefs/lfs.c **** 
ARM GAS  /var/folders/b4/k4jbz0ms4wg23jtq0w6p483m0000gn/T//ccwZ2VjF.s 			page 60


2682:libraries/littlefs/lfs.c ****         current -= 1 << skip;
2683:libraries/littlefs/lfs.c ****     }
2684:libraries/littlefs/lfs.c **** 
2685:libraries/littlefs/lfs.c ****     *block = head;
2686:libraries/littlefs/lfs.c ****     *off = pos;
2687:libraries/littlefs/lfs.c ****     return 0;
2688:libraries/littlefs/lfs.c **** }
2689:libraries/littlefs/lfs.c **** 
2690:libraries/littlefs/lfs.c **** #ifndef LFS_READONLY
2691:libraries/littlefs/lfs.c **** static int lfs_ctz_extend(lfs_t *lfs,
2692:libraries/littlefs/lfs.c ****         lfs_cache_t *pcache, lfs_cache_t *rcache,
2693:libraries/littlefs/lfs.c ****         lfs_block_t head, lfs_size_t size,
2694:libraries/littlefs/lfs.c ****         lfs_block_t *block, lfs_off_t *off) {
2695:libraries/littlefs/lfs.c ****     while (true) {
2696:libraries/littlefs/lfs.c ****         // go ahead and grab a block
2697:libraries/littlefs/lfs.c ****         lfs_block_t nblock;
2698:libraries/littlefs/lfs.c ****         int err = lfs_alloc(lfs, &nblock);
2699:libraries/littlefs/lfs.c ****         if (err) {
2700:libraries/littlefs/lfs.c ****             return err;
2701:libraries/littlefs/lfs.c ****         }
2702:libraries/littlefs/lfs.c **** 
2703:libraries/littlefs/lfs.c ****         {
2704:libraries/littlefs/lfs.c ****             err = lfs_bd_erase(lfs, nblock);
2705:libraries/littlefs/lfs.c ****             if (err) {
2706:libraries/littlefs/lfs.c ****                 if (err == LFS_ERR_CORRUPT) {
2707:libraries/littlefs/lfs.c ****                     goto relocate;
2708:libraries/littlefs/lfs.c ****                 }
2709:libraries/littlefs/lfs.c ****                 return err;
2710:libraries/littlefs/lfs.c ****             }
2711:libraries/littlefs/lfs.c **** 
2712:libraries/littlefs/lfs.c ****             if (size == 0) {
2713:libraries/littlefs/lfs.c ****                 *block = nblock;
2714:libraries/littlefs/lfs.c ****                 *off = 0;
2715:libraries/littlefs/lfs.c ****                 return 0;
2716:libraries/littlefs/lfs.c ****             }
2717:libraries/littlefs/lfs.c **** 
2718:libraries/littlefs/lfs.c ****             lfs_size_t noff = size - 1;
2719:libraries/littlefs/lfs.c ****             lfs_off_t index = lfs_ctz_index(lfs, &noff);
2720:libraries/littlefs/lfs.c ****             noff = noff + 1;
2721:libraries/littlefs/lfs.c **** 
2722:libraries/littlefs/lfs.c ****             // just copy out the last block if it is incomplete
2723:libraries/littlefs/lfs.c ****             if (noff != lfs->cfg->block_size) {
2724:libraries/littlefs/lfs.c ****                 for (lfs_off_t i = 0; i < noff; i++) {
2725:libraries/littlefs/lfs.c ****                     uint8_t data;
2726:libraries/littlefs/lfs.c ****                     err = lfs_bd_read(lfs,
2727:libraries/littlefs/lfs.c ****                             NULL, rcache, noff-i,
2728:libraries/littlefs/lfs.c ****                             head, i, &data, 1);
2729:libraries/littlefs/lfs.c ****                     if (err) {
2730:libraries/littlefs/lfs.c ****                         return err;
2731:libraries/littlefs/lfs.c ****                     }
2732:libraries/littlefs/lfs.c **** 
2733:libraries/littlefs/lfs.c ****                     err = lfs_bd_prog(lfs,
2734:libraries/littlefs/lfs.c ****                             pcache, rcache, true,
2735:libraries/littlefs/lfs.c ****                             nblock, i, &data, 1);
2736:libraries/littlefs/lfs.c ****                     if (err) {
2737:libraries/littlefs/lfs.c ****                         if (err == LFS_ERR_CORRUPT) {
2738:libraries/littlefs/lfs.c ****                             goto relocate;
ARM GAS  /var/folders/b4/k4jbz0ms4wg23jtq0w6p483m0000gn/T//ccwZ2VjF.s 			page 61


2739:libraries/littlefs/lfs.c ****                         }
2740:libraries/littlefs/lfs.c ****                         return err;
2741:libraries/littlefs/lfs.c ****                     }
2742:libraries/littlefs/lfs.c ****                 }
2743:libraries/littlefs/lfs.c **** 
2744:libraries/littlefs/lfs.c ****                 *block = nblock;
2745:libraries/littlefs/lfs.c ****                 *off = noff;
2746:libraries/littlefs/lfs.c ****                 return 0;
2747:libraries/littlefs/lfs.c ****             }
2748:libraries/littlefs/lfs.c **** 
2749:libraries/littlefs/lfs.c ****             // append block
2750:libraries/littlefs/lfs.c ****             index += 1;
2751:libraries/littlefs/lfs.c ****             lfs_size_t skips = lfs_ctz(index) + 1;
2752:libraries/littlefs/lfs.c ****             lfs_block_t nhead = head;
2753:libraries/littlefs/lfs.c ****             for (lfs_off_t i = 0; i < skips; i++) {
2754:libraries/littlefs/lfs.c ****                 nhead = lfs_tole32(nhead);
2755:libraries/littlefs/lfs.c ****                 err = lfs_bd_prog(lfs, pcache, rcache, true,
2756:libraries/littlefs/lfs.c ****                         nblock, 4*i, &nhead, 4);
2757:libraries/littlefs/lfs.c ****                 nhead = lfs_fromle32(nhead);
2758:libraries/littlefs/lfs.c ****                 if (err) {
2759:libraries/littlefs/lfs.c ****                     if (err == LFS_ERR_CORRUPT) {
2760:libraries/littlefs/lfs.c ****                         goto relocate;
2761:libraries/littlefs/lfs.c ****                     }
2762:libraries/littlefs/lfs.c ****                     return err;
2763:libraries/littlefs/lfs.c ****                 }
2764:libraries/littlefs/lfs.c **** 
2765:libraries/littlefs/lfs.c ****                 if (i != skips-1) {
2766:libraries/littlefs/lfs.c ****                     err = lfs_bd_read(lfs,
2767:libraries/littlefs/lfs.c ****                             NULL, rcache, sizeof(nhead),
2768:libraries/littlefs/lfs.c ****                             nhead, 4*i, &nhead, sizeof(nhead));
2769:libraries/littlefs/lfs.c ****                     nhead = lfs_fromle32(nhead);
2770:libraries/littlefs/lfs.c ****                     if (err) {
2771:libraries/littlefs/lfs.c ****                         return err;
2772:libraries/littlefs/lfs.c ****                     }
2773:libraries/littlefs/lfs.c ****                 }
2774:libraries/littlefs/lfs.c ****             }
2775:libraries/littlefs/lfs.c **** 
2776:libraries/littlefs/lfs.c ****             *block = nblock;
2777:libraries/littlefs/lfs.c ****             *off = 4*skips;
2778:libraries/littlefs/lfs.c ****             return 0;
2779:libraries/littlefs/lfs.c ****         }
2780:libraries/littlefs/lfs.c **** 
2781:libraries/littlefs/lfs.c **** relocate:
2782:libraries/littlefs/lfs.c ****         LFS_DEBUG("Bad block at 0x%"PRIx32, nblock);
2783:libraries/littlefs/lfs.c **** 
2784:libraries/littlefs/lfs.c ****         // just clear cache and try a new block
2785:libraries/littlefs/lfs.c ****         lfs_cache_drop(lfs, pcache);
2786:libraries/littlefs/lfs.c ****     }
2787:libraries/littlefs/lfs.c **** }
2788:libraries/littlefs/lfs.c **** #endif
2789:libraries/littlefs/lfs.c **** 
2790:libraries/littlefs/lfs.c **** static int lfs_ctz_traverse(lfs_t *lfs,
2791:libraries/littlefs/lfs.c ****         const lfs_cache_t *pcache, lfs_cache_t *rcache,
2792:libraries/littlefs/lfs.c ****         lfs_block_t head, lfs_size_t size,
2793:libraries/littlefs/lfs.c ****         int (*cb)(void*, lfs_block_t), void *data) {
2794:libraries/littlefs/lfs.c ****     if (size == 0) {
2795:libraries/littlefs/lfs.c ****         return 0;
ARM GAS  /var/folders/b4/k4jbz0ms4wg23jtq0w6p483m0000gn/T//ccwZ2VjF.s 			page 62


2796:libraries/littlefs/lfs.c ****     }
2797:libraries/littlefs/lfs.c **** 
2798:libraries/littlefs/lfs.c ****     lfs_off_t index = lfs_ctz_index(lfs, &(lfs_off_t){size-1});
2799:libraries/littlefs/lfs.c **** 
2800:libraries/littlefs/lfs.c ****     while (true) {
2801:libraries/littlefs/lfs.c ****         int err = cb(data, head);
2802:libraries/littlefs/lfs.c ****         if (err) {
2803:libraries/littlefs/lfs.c ****             return err;
2804:libraries/littlefs/lfs.c ****         }
2805:libraries/littlefs/lfs.c **** 
2806:libraries/littlefs/lfs.c ****         if (index == 0) {
2807:libraries/littlefs/lfs.c ****             return 0;
2808:libraries/littlefs/lfs.c ****         }
2809:libraries/littlefs/lfs.c **** 
2810:libraries/littlefs/lfs.c ****         lfs_block_t heads[2];
2811:libraries/littlefs/lfs.c ****         int count = 2 - (index & 1);
2812:libraries/littlefs/lfs.c ****         err = lfs_bd_read(lfs,
2813:libraries/littlefs/lfs.c ****                 pcache, rcache, count*sizeof(head),
2814:libraries/littlefs/lfs.c ****                 head, 0, &heads, count*sizeof(head));
2815:libraries/littlefs/lfs.c ****         heads[0] = lfs_fromle32(heads[0]);
2816:libraries/littlefs/lfs.c ****         heads[1] = lfs_fromle32(heads[1]);
2817:libraries/littlefs/lfs.c ****         if (err) {
2818:libraries/littlefs/lfs.c ****             return err;
2819:libraries/littlefs/lfs.c ****         }
2820:libraries/littlefs/lfs.c **** 
2821:libraries/littlefs/lfs.c ****         for (int i = 0; i < count-1; i++) {
2822:libraries/littlefs/lfs.c ****             err = cb(data, heads[i]);
2823:libraries/littlefs/lfs.c ****             if (err) {
2824:libraries/littlefs/lfs.c ****                 return err;
2825:libraries/littlefs/lfs.c ****             }
2826:libraries/littlefs/lfs.c ****         }
2827:libraries/littlefs/lfs.c **** 
2828:libraries/littlefs/lfs.c ****         head = heads[count-1];
2829:libraries/littlefs/lfs.c ****         index -= count;
2830:libraries/littlefs/lfs.c ****     }
2831:libraries/littlefs/lfs.c **** }
2832:libraries/littlefs/lfs.c **** 
2833:libraries/littlefs/lfs.c **** 
2834:libraries/littlefs/lfs.c **** /// Top level file operations ///
2835:libraries/littlefs/lfs.c **** static int lfs_file_rawopencfg(lfs_t *lfs, lfs_file_t *file,
2836:libraries/littlefs/lfs.c ****         const char *path, int flags,
2837:libraries/littlefs/lfs.c ****         const struct lfs_file_config *cfg) {
2838:libraries/littlefs/lfs.c **** #ifndef LFS_READONLY
2839:libraries/littlefs/lfs.c ****     // deorphan if we haven't yet, needed at most once after poweron
2840:libraries/littlefs/lfs.c ****     if ((flags & LFS_O_WRONLY) == LFS_O_WRONLY) {
2841:libraries/littlefs/lfs.c ****         int err = lfs_fs_forceconsistency(lfs);
2842:libraries/littlefs/lfs.c ****         if (err) {
2843:libraries/littlefs/lfs.c ****             return err;
2844:libraries/littlefs/lfs.c ****         }
2845:libraries/littlefs/lfs.c ****     }
2846:libraries/littlefs/lfs.c **** #else
2847:libraries/littlefs/lfs.c ****     LFS_ASSERT((flags & LFS_O_RDONLY) == LFS_O_RDONLY);
2848:libraries/littlefs/lfs.c **** #endif
2849:libraries/littlefs/lfs.c **** 
2850:libraries/littlefs/lfs.c ****     // setup simple file details
2851:libraries/littlefs/lfs.c ****     int err;
2852:libraries/littlefs/lfs.c ****     file->cfg = cfg;
ARM GAS  /var/folders/b4/k4jbz0ms4wg23jtq0w6p483m0000gn/T//ccwZ2VjF.s 			page 63


2853:libraries/littlefs/lfs.c ****     file->flags = flags;
2854:libraries/littlefs/lfs.c ****     file->pos = 0;
2855:libraries/littlefs/lfs.c ****     file->off = 0;
2856:libraries/littlefs/lfs.c ****     file->cache.buffer = NULL;
2857:libraries/littlefs/lfs.c **** 
2858:libraries/littlefs/lfs.c ****     // allocate entry for file if it doesn't exist
2859:libraries/littlefs/lfs.c ****     lfs_stag_t tag = lfs_dir_find(lfs, &file->m, &path, &file->id);
2860:libraries/littlefs/lfs.c ****     if (tag < 0 && !(tag == LFS_ERR_NOENT && file->id != 0x3ff)) {
2861:libraries/littlefs/lfs.c ****         err = tag;
2862:libraries/littlefs/lfs.c ****         goto cleanup;
2863:libraries/littlefs/lfs.c ****     }
2864:libraries/littlefs/lfs.c **** 
2865:libraries/littlefs/lfs.c ****     // get id, add to list of mdirs to catch update changes
2866:libraries/littlefs/lfs.c ****     file->type = LFS_TYPE_REG;
2867:libraries/littlefs/lfs.c ****     lfs_mlist_append(lfs, (struct lfs_mlist *)file);
2868:libraries/littlefs/lfs.c **** 
2869:libraries/littlefs/lfs.c **** #ifdef LFS_READONLY
2870:libraries/littlefs/lfs.c ****     if (tag == LFS_ERR_NOENT) {
2871:libraries/littlefs/lfs.c ****         err = LFS_ERR_NOENT;
2872:libraries/littlefs/lfs.c ****         goto cleanup;
2873:libraries/littlefs/lfs.c **** #else
2874:libraries/littlefs/lfs.c ****     if (tag == LFS_ERR_NOENT) {
2875:libraries/littlefs/lfs.c ****         if (!(flags & LFS_O_CREAT)) {
2876:libraries/littlefs/lfs.c ****             err = LFS_ERR_NOENT;
2877:libraries/littlefs/lfs.c ****             goto cleanup;
2878:libraries/littlefs/lfs.c ****         }
2879:libraries/littlefs/lfs.c **** 
2880:libraries/littlefs/lfs.c ****         // check that name fits
2881:libraries/littlefs/lfs.c ****         lfs_size_t nlen = strlen(path);
2882:libraries/littlefs/lfs.c ****         if (nlen > lfs->name_max) {
2883:libraries/littlefs/lfs.c ****             err = LFS_ERR_NAMETOOLONG;
2884:libraries/littlefs/lfs.c ****             goto cleanup;
2885:libraries/littlefs/lfs.c ****         }
2886:libraries/littlefs/lfs.c **** 
2887:libraries/littlefs/lfs.c ****         // get next slot and create entry to remember name
2888:libraries/littlefs/lfs.c ****         err = lfs_dir_commit(lfs, &file->m, LFS_MKATTRS(
2889:libraries/littlefs/lfs.c ****                 {LFS_MKTAG(LFS_TYPE_CREATE, file->id, 0), NULL},
2890:libraries/littlefs/lfs.c ****                 {LFS_MKTAG(LFS_TYPE_REG, file->id, nlen), path},
2891:libraries/littlefs/lfs.c ****                 {LFS_MKTAG(LFS_TYPE_INLINESTRUCT, file->id, 0), NULL}));
2892:libraries/littlefs/lfs.c **** 
2893:libraries/littlefs/lfs.c ****         // it may happen that the file name doesn't fit in the metadata blocks, e.g., a 256 byte fi
2894:libraries/littlefs/lfs.c ****         // not fit in a 128 byte block.
2895:libraries/littlefs/lfs.c ****         err = (err == LFS_ERR_NOSPC) ? LFS_ERR_NAMETOOLONG : err;
2896:libraries/littlefs/lfs.c ****         if (err) {
2897:libraries/littlefs/lfs.c ****             goto cleanup;
2898:libraries/littlefs/lfs.c ****         }
2899:libraries/littlefs/lfs.c **** 
2900:libraries/littlefs/lfs.c ****         tag = LFS_MKTAG(LFS_TYPE_INLINESTRUCT, 0, 0);
2901:libraries/littlefs/lfs.c ****     } else if (flags & LFS_O_EXCL) {
2902:libraries/littlefs/lfs.c ****         err = LFS_ERR_EXIST;
2903:libraries/littlefs/lfs.c ****         goto cleanup;
2904:libraries/littlefs/lfs.c **** #endif
2905:libraries/littlefs/lfs.c ****     } else if (lfs_tag_type3(tag) != LFS_TYPE_REG) {
2906:libraries/littlefs/lfs.c ****         err = LFS_ERR_ISDIR;
2907:libraries/littlefs/lfs.c ****         goto cleanup;
2908:libraries/littlefs/lfs.c **** #ifndef LFS_READONLY
2909:libraries/littlefs/lfs.c ****     } else if (flags & LFS_O_TRUNC) {
ARM GAS  /var/folders/b4/k4jbz0ms4wg23jtq0w6p483m0000gn/T//ccwZ2VjF.s 			page 64


2910:libraries/littlefs/lfs.c ****         // truncate if requested
2911:libraries/littlefs/lfs.c ****         tag = LFS_MKTAG(LFS_TYPE_INLINESTRUCT, file->id, 0);
2912:libraries/littlefs/lfs.c ****         file->flags |= LFS_F_DIRTY;
2913:libraries/littlefs/lfs.c **** #endif
2914:libraries/littlefs/lfs.c ****     } else {
2915:libraries/littlefs/lfs.c ****         // try to load what's on disk, if it's inlined we'll fix it later
2916:libraries/littlefs/lfs.c ****         tag = lfs_dir_get(lfs, &file->m, LFS_MKTAG(0x700, 0x3ff, 0),
2917:libraries/littlefs/lfs.c ****                 LFS_MKTAG(LFS_TYPE_STRUCT, file->id, 8), &file->ctz);
2918:libraries/littlefs/lfs.c ****         if (tag < 0) {
2919:libraries/littlefs/lfs.c ****             err = tag;
2920:libraries/littlefs/lfs.c ****             goto cleanup;
2921:libraries/littlefs/lfs.c ****         }
2922:libraries/littlefs/lfs.c ****         lfs_ctz_fromle32(&file->ctz);
2923:libraries/littlefs/lfs.c ****     }
2924:libraries/littlefs/lfs.c **** 
2925:libraries/littlefs/lfs.c ****     // fetch attrs
2926:libraries/littlefs/lfs.c ****     for (unsigned i = 0; i < file->cfg->attr_count; i++) {
2927:libraries/littlefs/lfs.c ****         // if opened for read / read-write operations
2928:libraries/littlefs/lfs.c ****         if ((file->flags & LFS_O_RDONLY) == LFS_O_RDONLY) {
2929:libraries/littlefs/lfs.c ****             lfs_stag_t res = lfs_dir_get(lfs, &file->m,
2930:libraries/littlefs/lfs.c ****                     LFS_MKTAG(0x7ff, 0x3ff, 0),
2931:libraries/littlefs/lfs.c ****                     LFS_MKTAG(LFS_TYPE_USERATTR + file->cfg->attrs[i].type,
2932:libraries/littlefs/lfs.c ****                         file->id, file->cfg->attrs[i].size),
2933:libraries/littlefs/lfs.c ****                         file->cfg->attrs[i].buffer);
2934:libraries/littlefs/lfs.c ****             if (res < 0 && res != LFS_ERR_NOENT) {
2935:libraries/littlefs/lfs.c ****                 err = res;
2936:libraries/littlefs/lfs.c ****                 goto cleanup;
2937:libraries/littlefs/lfs.c ****             }
2938:libraries/littlefs/lfs.c ****         }
2939:libraries/littlefs/lfs.c **** 
2940:libraries/littlefs/lfs.c **** #ifndef LFS_READONLY
2941:libraries/littlefs/lfs.c ****         // if opened for write / read-write operations
2942:libraries/littlefs/lfs.c ****         if ((file->flags & LFS_O_WRONLY) == LFS_O_WRONLY) {
2943:libraries/littlefs/lfs.c ****             if (file->cfg->attrs[i].size > lfs->attr_max) {
2944:libraries/littlefs/lfs.c ****                 err = LFS_ERR_NOSPC;
2945:libraries/littlefs/lfs.c ****                 goto cleanup;
2946:libraries/littlefs/lfs.c ****             }
2947:libraries/littlefs/lfs.c **** 
2948:libraries/littlefs/lfs.c ****             file->flags |= LFS_F_DIRTY;
2949:libraries/littlefs/lfs.c ****         }
2950:libraries/littlefs/lfs.c **** #endif
2951:libraries/littlefs/lfs.c ****     }
2952:libraries/littlefs/lfs.c **** 
2953:libraries/littlefs/lfs.c ****     // allocate buffer if needed
2954:libraries/littlefs/lfs.c ****     if (file->cfg->buffer) {
2955:libraries/littlefs/lfs.c ****         file->cache.buffer = file->cfg->buffer;
2956:libraries/littlefs/lfs.c ****     } else {
2957:libraries/littlefs/lfs.c ****         file->cache.buffer = lfs_malloc(lfs->cfg->cache_size);
2958:libraries/littlefs/lfs.c ****         if (!file->cache.buffer) {
2959:libraries/littlefs/lfs.c ****             err = LFS_ERR_NOMEM;
2960:libraries/littlefs/lfs.c ****             goto cleanup;
2961:libraries/littlefs/lfs.c ****         }
2962:libraries/littlefs/lfs.c ****     }
2963:libraries/littlefs/lfs.c **** 
2964:libraries/littlefs/lfs.c ****     // zero to avoid information leak
2965:libraries/littlefs/lfs.c ****     lfs_cache_zero(lfs, &file->cache);
2966:libraries/littlefs/lfs.c **** 
ARM GAS  /var/folders/b4/k4jbz0ms4wg23jtq0w6p483m0000gn/T//ccwZ2VjF.s 			page 65


2967:libraries/littlefs/lfs.c ****     if (lfs_tag_type3(tag) == LFS_TYPE_INLINESTRUCT) {
2968:libraries/littlefs/lfs.c ****         // load inline files
2969:libraries/littlefs/lfs.c ****         file->ctz.head = LFS_BLOCK_INLINE;
2970:libraries/littlefs/lfs.c ****         file->ctz.size = lfs_tag_size(tag);
2971:libraries/littlefs/lfs.c ****         file->flags |= LFS_F_INLINE;
2972:libraries/littlefs/lfs.c ****         file->cache.block = file->ctz.head;
2973:libraries/littlefs/lfs.c ****         file->cache.off = 0;
2974:libraries/littlefs/lfs.c ****         file->cache.size = lfs->cfg->cache_size;
2975:libraries/littlefs/lfs.c **** 
2976:libraries/littlefs/lfs.c ****         // don't always read (may be new/trunc file)
2977:libraries/littlefs/lfs.c ****         if (file->ctz.size > 0) {
2978:libraries/littlefs/lfs.c ****             lfs_stag_t res = lfs_dir_get(lfs, &file->m,
2979:libraries/littlefs/lfs.c ****                     LFS_MKTAG(0x700, 0x3ff, 0),
2980:libraries/littlefs/lfs.c ****                     LFS_MKTAG(LFS_TYPE_STRUCT, file->id,
2981:libraries/littlefs/lfs.c ****                         lfs_min(file->cache.size, 0x3fe)),
2982:libraries/littlefs/lfs.c ****                     file->cache.buffer);
2983:libraries/littlefs/lfs.c ****             if (res < 0) {
2984:libraries/littlefs/lfs.c ****                 err = res;
2985:libraries/littlefs/lfs.c ****                 goto cleanup;
2986:libraries/littlefs/lfs.c ****             }
2987:libraries/littlefs/lfs.c ****         }
2988:libraries/littlefs/lfs.c ****     }
2989:libraries/littlefs/lfs.c **** 
2990:libraries/littlefs/lfs.c ****     return 0;
2991:libraries/littlefs/lfs.c **** 
2992:libraries/littlefs/lfs.c **** cleanup:
2993:libraries/littlefs/lfs.c ****     // clean up lingering resources
2994:libraries/littlefs/lfs.c **** #ifndef LFS_READONLY
2995:libraries/littlefs/lfs.c ****     file->flags |= LFS_F_ERRED;
2996:libraries/littlefs/lfs.c **** #endif
2997:libraries/littlefs/lfs.c ****     lfs_file_rawclose(lfs, file);
2998:libraries/littlefs/lfs.c ****     return err;
2999:libraries/littlefs/lfs.c **** }
3000:libraries/littlefs/lfs.c **** 
3001:libraries/littlefs/lfs.c **** static int lfs_file_rawopen(lfs_t *lfs, lfs_file_t *file,
3002:libraries/littlefs/lfs.c ****         const char *path, int flags) {
3003:libraries/littlefs/lfs.c ****     static const struct lfs_file_config defaults = {0};
3004:libraries/littlefs/lfs.c ****     int err = lfs_file_rawopencfg(lfs, file, path, flags, &defaults);
3005:libraries/littlefs/lfs.c ****     return err;
3006:libraries/littlefs/lfs.c **** }
3007:libraries/littlefs/lfs.c **** 
3008:libraries/littlefs/lfs.c **** static int lfs_file_rawclose(lfs_t *lfs, lfs_file_t *file) {
3009:libraries/littlefs/lfs.c **** #ifndef LFS_READONLY
3010:libraries/littlefs/lfs.c ****     int err = lfs_file_rawsync(lfs, file);
3011:libraries/littlefs/lfs.c **** #else
3012:libraries/littlefs/lfs.c ****     int err = 0;
3013:libraries/littlefs/lfs.c **** #endif
3014:libraries/littlefs/lfs.c **** 
3015:libraries/littlefs/lfs.c ****     // remove from list of mdirs
3016:libraries/littlefs/lfs.c ****     lfs_mlist_remove(lfs, (struct lfs_mlist*)file);
3017:libraries/littlefs/lfs.c **** 
3018:libraries/littlefs/lfs.c ****     // clean up memory
3019:libraries/littlefs/lfs.c ****     if (!file->cfg->buffer) {
3020:libraries/littlefs/lfs.c ****         lfs_free(file->cache.buffer);
3021:libraries/littlefs/lfs.c ****     }
3022:libraries/littlefs/lfs.c **** 
3023:libraries/littlefs/lfs.c ****     return err;
ARM GAS  /var/folders/b4/k4jbz0ms4wg23jtq0w6p483m0000gn/T//ccwZ2VjF.s 			page 66


3024:libraries/littlefs/lfs.c **** }
3025:libraries/littlefs/lfs.c **** 
3026:libraries/littlefs/lfs.c **** 
3027:libraries/littlefs/lfs.c **** #ifndef LFS_READONLY
3028:libraries/littlefs/lfs.c **** static int lfs_file_relocate(lfs_t *lfs, lfs_file_t *file) {
3029:libraries/littlefs/lfs.c ****     while (true) {
3030:libraries/littlefs/lfs.c ****         // just relocate what exists into new block
3031:libraries/littlefs/lfs.c ****         lfs_block_t nblock;
3032:libraries/littlefs/lfs.c ****         int err = lfs_alloc(lfs, &nblock);
3033:libraries/littlefs/lfs.c ****         if (err) {
3034:libraries/littlefs/lfs.c ****             return err;
3035:libraries/littlefs/lfs.c ****         }
3036:libraries/littlefs/lfs.c **** 
3037:libraries/littlefs/lfs.c ****         err = lfs_bd_erase(lfs, nblock);
3038:libraries/littlefs/lfs.c ****         if (err) {
3039:libraries/littlefs/lfs.c ****             if (err == LFS_ERR_CORRUPT) {
3040:libraries/littlefs/lfs.c ****                 goto relocate;
3041:libraries/littlefs/lfs.c ****             }
3042:libraries/littlefs/lfs.c ****             return err;
3043:libraries/littlefs/lfs.c ****         }
3044:libraries/littlefs/lfs.c **** 
3045:libraries/littlefs/lfs.c ****         // either read from dirty cache or disk
3046:libraries/littlefs/lfs.c ****         for (lfs_off_t i = 0; i < file->off; i++) {
3047:libraries/littlefs/lfs.c ****             uint8_t data;
3048:libraries/littlefs/lfs.c ****             if (file->flags & LFS_F_INLINE) {
3049:libraries/littlefs/lfs.c ****                 err = lfs_dir_getread(lfs, &file->m,
3050:libraries/littlefs/lfs.c ****                         // note we evict inline files before they can be dirty
3051:libraries/littlefs/lfs.c ****                         NULL, &file->cache, file->off-i,
3052:libraries/littlefs/lfs.c ****                         LFS_MKTAG(0xfff, 0x1ff, 0),
3053:libraries/littlefs/lfs.c ****                         LFS_MKTAG(LFS_TYPE_INLINESTRUCT, file->id, 0),
3054:libraries/littlefs/lfs.c ****                         i, &data, 1);
3055:libraries/littlefs/lfs.c ****                 if (err) {
3056:libraries/littlefs/lfs.c ****                     return err;
3057:libraries/littlefs/lfs.c ****                 }
3058:libraries/littlefs/lfs.c ****             } else {
3059:libraries/littlefs/lfs.c ****                 err = lfs_bd_read(lfs,
3060:libraries/littlefs/lfs.c ****                         &file->cache, &lfs->rcache, file->off-i,
3061:libraries/littlefs/lfs.c ****                         file->block, i, &data, 1);
3062:libraries/littlefs/lfs.c ****                 if (err) {
3063:libraries/littlefs/lfs.c ****                     return err;
3064:libraries/littlefs/lfs.c ****                 }
3065:libraries/littlefs/lfs.c ****             }
3066:libraries/littlefs/lfs.c **** 
3067:libraries/littlefs/lfs.c ****             err = lfs_bd_prog(lfs,
3068:libraries/littlefs/lfs.c ****                     &lfs->pcache, &lfs->rcache, true,
3069:libraries/littlefs/lfs.c ****                     nblock, i, &data, 1);
3070:libraries/littlefs/lfs.c ****             if (err) {
3071:libraries/littlefs/lfs.c ****                 if (err == LFS_ERR_CORRUPT) {
3072:libraries/littlefs/lfs.c ****                     goto relocate;
3073:libraries/littlefs/lfs.c ****                 }
3074:libraries/littlefs/lfs.c ****                 return err;
3075:libraries/littlefs/lfs.c ****             }
3076:libraries/littlefs/lfs.c ****         }
3077:libraries/littlefs/lfs.c **** 
3078:libraries/littlefs/lfs.c ****         // copy over new state of file
3079:libraries/littlefs/lfs.c ****         memcpy(file->cache.buffer, lfs->pcache.buffer, lfs->cfg->cache_size);
3080:libraries/littlefs/lfs.c ****         file->cache.block = lfs->pcache.block;
ARM GAS  /var/folders/b4/k4jbz0ms4wg23jtq0w6p483m0000gn/T//ccwZ2VjF.s 			page 67


3081:libraries/littlefs/lfs.c ****         file->cache.off = lfs->pcache.off;
3082:libraries/littlefs/lfs.c ****         file->cache.size = lfs->pcache.size;
3083:libraries/littlefs/lfs.c ****         lfs_cache_zero(lfs, &lfs->pcache);
3084:libraries/littlefs/lfs.c **** 
3085:libraries/littlefs/lfs.c ****         file->block = nblock;
3086:libraries/littlefs/lfs.c ****         file->flags |= LFS_F_WRITING;
3087:libraries/littlefs/lfs.c ****         return 0;
3088:libraries/littlefs/lfs.c **** 
3089:libraries/littlefs/lfs.c **** relocate:
3090:libraries/littlefs/lfs.c ****         LFS_DEBUG("Bad block at 0x%"PRIx32, nblock);
3091:libraries/littlefs/lfs.c **** 
3092:libraries/littlefs/lfs.c ****         // just clear cache and try a new block
3093:libraries/littlefs/lfs.c ****         lfs_cache_drop(lfs, &lfs->pcache);
3094:libraries/littlefs/lfs.c ****     }
3095:libraries/littlefs/lfs.c **** }
3096:libraries/littlefs/lfs.c **** #endif
3097:libraries/littlefs/lfs.c **** 
3098:libraries/littlefs/lfs.c **** #ifndef LFS_READONLY
3099:libraries/littlefs/lfs.c **** static int lfs_file_outline(lfs_t *lfs, lfs_file_t *file) {
3100:libraries/littlefs/lfs.c ****     file->off = file->pos;
3101:libraries/littlefs/lfs.c ****     lfs_alloc_ack(lfs);
3102:libraries/littlefs/lfs.c ****     int err = lfs_file_relocate(lfs, file);
3103:libraries/littlefs/lfs.c ****     if (err) {
3104:libraries/littlefs/lfs.c ****         return err;
3105:libraries/littlefs/lfs.c ****     }
3106:libraries/littlefs/lfs.c **** 
3107:libraries/littlefs/lfs.c ****     file->flags &= ~LFS_F_INLINE;
3108:libraries/littlefs/lfs.c ****     return 0;
3109:libraries/littlefs/lfs.c **** }
3110:libraries/littlefs/lfs.c **** #endif
3111:libraries/littlefs/lfs.c **** 
3112:libraries/littlefs/lfs.c **** static int lfs_file_flush(lfs_t *lfs, lfs_file_t *file) {
3113:libraries/littlefs/lfs.c ****     if (file->flags & LFS_F_READING) {
3114:libraries/littlefs/lfs.c ****         if (!(file->flags & LFS_F_INLINE)) {
3115:libraries/littlefs/lfs.c ****             lfs_cache_drop(lfs, &file->cache);
3116:libraries/littlefs/lfs.c ****         }
3117:libraries/littlefs/lfs.c ****         file->flags &= ~LFS_F_READING;
3118:libraries/littlefs/lfs.c ****     }
3119:libraries/littlefs/lfs.c **** 
3120:libraries/littlefs/lfs.c **** #ifndef LFS_READONLY
3121:libraries/littlefs/lfs.c ****     if (file->flags & LFS_F_WRITING) {
3122:libraries/littlefs/lfs.c ****         lfs_off_t pos = file->pos;
3123:libraries/littlefs/lfs.c **** 
3124:libraries/littlefs/lfs.c ****         if (!(file->flags & LFS_F_INLINE)) {
3125:libraries/littlefs/lfs.c ****             // copy over anything after current branch
3126:libraries/littlefs/lfs.c ****             lfs_file_t orig = {
3127:libraries/littlefs/lfs.c ****                 .ctz.head = file->ctz.head,
3128:libraries/littlefs/lfs.c ****                 .ctz.size = file->ctz.size,
3129:libraries/littlefs/lfs.c ****                 .flags = LFS_O_RDONLY,
3130:libraries/littlefs/lfs.c ****                 .pos = file->pos,
3131:libraries/littlefs/lfs.c ****                 .cache = lfs->rcache,
3132:libraries/littlefs/lfs.c ****             };
3133:libraries/littlefs/lfs.c ****             lfs_cache_drop(lfs, &lfs->rcache);
3134:libraries/littlefs/lfs.c **** 
3135:libraries/littlefs/lfs.c ****             while (file->pos < file->ctz.size) {
3136:libraries/littlefs/lfs.c ****                 // copy over a byte at a time, leave it up to caching
3137:libraries/littlefs/lfs.c ****                 // to make this efficient
ARM GAS  /var/folders/b4/k4jbz0ms4wg23jtq0w6p483m0000gn/T//ccwZ2VjF.s 			page 68


3138:libraries/littlefs/lfs.c ****                 uint8_t data;
3139:libraries/littlefs/lfs.c ****                 lfs_ssize_t res = lfs_file_flushedread(lfs, &orig, &data, 1);
3140:libraries/littlefs/lfs.c ****                 if (res < 0) {
3141:libraries/littlefs/lfs.c ****                     return res;
3142:libraries/littlefs/lfs.c ****                 }
3143:libraries/littlefs/lfs.c **** 
3144:libraries/littlefs/lfs.c ****                 res = lfs_file_flushedwrite(lfs, file, &data, 1);
3145:libraries/littlefs/lfs.c ****                 if (res < 0) {
3146:libraries/littlefs/lfs.c ****                     return res;
3147:libraries/littlefs/lfs.c ****                 }
3148:libraries/littlefs/lfs.c **** 
3149:libraries/littlefs/lfs.c ****                 // keep our reference to the rcache in sync
3150:libraries/littlefs/lfs.c ****                 if (lfs->rcache.block != LFS_BLOCK_NULL) {
3151:libraries/littlefs/lfs.c ****                     lfs_cache_drop(lfs, &orig.cache);
3152:libraries/littlefs/lfs.c ****                     lfs_cache_drop(lfs, &lfs->rcache);
3153:libraries/littlefs/lfs.c ****                 }
3154:libraries/littlefs/lfs.c ****             }
3155:libraries/littlefs/lfs.c **** 
3156:libraries/littlefs/lfs.c ****             // write out what we have
3157:libraries/littlefs/lfs.c ****             while (true) {
3158:libraries/littlefs/lfs.c ****                 int err = lfs_bd_flush(lfs, &file->cache, &lfs->rcache, true);
3159:libraries/littlefs/lfs.c ****                 if (err) {
3160:libraries/littlefs/lfs.c ****                     if (err == LFS_ERR_CORRUPT) {
3161:libraries/littlefs/lfs.c ****                         goto relocate;
3162:libraries/littlefs/lfs.c ****                     }
3163:libraries/littlefs/lfs.c ****                     return err;
3164:libraries/littlefs/lfs.c ****                 }
3165:libraries/littlefs/lfs.c **** 
3166:libraries/littlefs/lfs.c ****                 break;
3167:libraries/littlefs/lfs.c **** 
3168:libraries/littlefs/lfs.c **** relocate:
3169:libraries/littlefs/lfs.c ****                 LFS_DEBUG("Bad block at 0x%"PRIx32, file->block);
3170:libraries/littlefs/lfs.c ****                 err = lfs_file_relocate(lfs, file);
3171:libraries/littlefs/lfs.c ****                 if (err) {
3172:libraries/littlefs/lfs.c ****                     return err;
3173:libraries/littlefs/lfs.c ****                 }
3174:libraries/littlefs/lfs.c ****             }
3175:libraries/littlefs/lfs.c ****         } else {
3176:libraries/littlefs/lfs.c ****             file->pos = lfs_max(file->pos, file->ctz.size);
3177:libraries/littlefs/lfs.c ****         }
3178:libraries/littlefs/lfs.c **** 
3179:libraries/littlefs/lfs.c ****         // actual file updates
3180:libraries/littlefs/lfs.c ****         file->ctz.head = file->block;
3181:libraries/littlefs/lfs.c ****         file->ctz.size = file->pos;
3182:libraries/littlefs/lfs.c ****         file->flags &= ~LFS_F_WRITING;
3183:libraries/littlefs/lfs.c ****         file->flags |= LFS_F_DIRTY;
3184:libraries/littlefs/lfs.c **** 
3185:libraries/littlefs/lfs.c ****         file->pos = pos;
3186:libraries/littlefs/lfs.c ****     }
3187:libraries/littlefs/lfs.c **** #endif
3188:libraries/littlefs/lfs.c **** 
3189:libraries/littlefs/lfs.c ****     return 0;
3190:libraries/littlefs/lfs.c **** }
3191:libraries/littlefs/lfs.c **** 
3192:libraries/littlefs/lfs.c **** #ifndef LFS_READONLY
3193:libraries/littlefs/lfs.c **** static int lfs_file_rawsync(lfs_t *lfs, lfs_file_t *file) {
3194:libraries/littlefs/lfs.c ****     if (file->flags & LFS_F_ERRED) {
ARM GAS  /var/folders/b4/k4jbz0ms4wg23jtq0w6p483m0000gn/T//ccwZ2VjF.s 			page 69


3195:libraries/littlefs/lfs.c ****         // it's not safe to do anything if our file errored
3196:libraries/littlefs/lfs.c ****         return 0;
3197:libraries/littlefs/lfs.c ****     }
3198:libraries/littlefs/lfs.c **** 
3199:libraries/littlefs/lfs.c ****     int err = lfs_file_flush(lfs, file);
3200:libraries/littlefs/lfs.c ****     if (err) {
3201:libraries/littlefs/lfs.c ****         file->flags |= LFS_F_ERRED;
3202:libraries/littlefs/lfs.c ****         return err;
3203:libraries/littlefs/lfs.c ****     }
3204:libraries/littlefs/lfs.c **** 
3205:libraries/littlefs/lfs.c **** 
3206:libraries/littlefs/lfs.c ****     if ((file->flags & LFS_F_DIRTY) &&
3207:libraries/littlefs/lfs.c ****             !lfs_pair_isnull(file->m.pair)) {
3208:libraries/littlefs/lfs.c ****         // update dir entry
3209:libraries/littlefs/lfs.c ****         uint16_t type;
3210:libraries/littlefs/lfs.c ****         const void *buffer;
3211:libraries/littlefs/lfs.c ****         lfs_size_t size;
3212:libraries/littlefs/lfs.c ****         struct lfs_ctz ctz;
3213:libraries/littlefs/lfs.c ****         if (file->flags & LFS_F_INLINE) {
3214:libraries/littlefs/lfs.c ****             // inline the whole file
3215:libraries/littlefs/lfs.c ****             type = LFS_TYPE_INLINESTRUCT;
3216:libraries/littlefs/lfs.c ****             buffer = file->cache.buffer;
3217:libraries/littlefs/lfs.c ****             size = file->ctz.size;
3218:libraries/littlefs/lfs.c ****         } else {
3219:libraries/littlefs/lfs.c ****             // update the ctz reference
3220:libraries/littlefs/lfs.c ****             type = LFS_TYPE_CTZSTRUCT;
3221:libraries/littlefs/lfs.c ****             // copy ctz so alloc will work during a relocate
3222:libraries/littlefs/lfs.c ****             ctz = file->ctz;
3223:libraries/littlefs/lfs.c ****             lfs_ctz_tole32(&ctz);
3224:libraries/littlefs/lfs.c ****             buffer = &ctz;
3225:libraries/littlefs/lfs.c ****             size = sizeof(ctz);
3226:libraries/littlefs/lfs.c ****         }
3227:libraries/littlefs/lfs.c **** 
3228:libraries/littlefs/lfs.c ****         // commit file data and attributes
3229:libraries/littlefs/lfs.c ****         err = lfs_dir_commit(lfs, &file->m, LFS_MKATTRS(
3230:libraries/littlefs/lfs.c ****                 {LFS_MKTAG(type, file->id, size), buffer},
3231:libraries/littlefs/lfs.c ****                 {LFS_MKTAG(LFS_FROM_USERATTRS, file->id,
3232:libraries/littlefs/lfs.c ****                     file->cfg->attr_count), file->cfg->attrs}));
3233:libraries/littlefs/lfs.c ****         if (err) {
3234:libraries/littlefs/lfs.c ****             file->flags |= LFS_F_ERRED;
3235:libraries/littlefs/lfs.c ****             return err;
3236:libraries/littlefs/lfs.c ****         }
3237:libraries/littlefs/lfs.c **** 
3238:libraries/littlefs/lfs.c ****         file->flags &= ~LFS_F_DIRTY;
3239:libraries/littlefs/lfs.c ****     }
3240:libraries/littlefs/lfs.c **** 
3241:libraries/littlefs/lfs.c ****     return 0;
3242:libraries/littlefs/lfs.c **** }
3243:libraries/littlefs/lfs.c **** #endif
3244:libraries/littlefs/lfs.c **** 
3245:libraries/littlefs/lfs.c **** static lfs_ssize_t lfs_file_flushedread(lfs_t *lfs, lfs_file_t *file,
3246:libraries/littlefs/lfs.c ****         void *buffer, lfs_size_t size) {
3247:libraries/littlefs/lfs.c ****     uint8_t *data = buffer;
3248:libraries/littlefs/lfs.c ****     lfs_size_t nsize = size;
3249:libraries/littlefs/lfs.c **** 
3250:libraries/littlefs/lfs.c ****     if (file->pos >= file->ctz.size) {
3251:libraries/littlefs/lfs.c ****         // eof if past end
ARM GAS  /var/folders/b4/k4jbz0ms4wg23jtq0w6p483m0000gn/T//ccwZ2VjF.s 			page 70


3252:libraries/littlefs/lfs.c ****         return 0;
3253:libraries/littlefs/lfs.c ****     }
3254:libraries/littlefs/lfs.c **** 
3255:libraries/littlefs/lfs.c ****     size = lfs_min(size, file->ctz.size - file->pos);
3256:libraries/littlefs/lfs.c ****     nsize = size;
3257:libraries/littlefs/lfs.c **** 
3258:libraries/littlefs/lfs.c ****     while (nsize > 0) {
3259:libraries/littlefs/lfs.c ****         // check if we need a new block
3260:libraries/littlefs/lfs.c ****         if (!(file->flags & LFS_F_READING) ||
3261:libraries/littlefs/lfs.c ****                 file->off == lfs->cfg->block_size) {
3262:libraries/littlefs/lfs.c ****             if (!(file->flags & LFS_F_INLINE)) {
3263:libraries/littlefs/lfs.c ****                 int err = lfs_ctz_find(lfs, NULL, &file->cache,
3264:libraries/littlefs/lfs.c ****                         file->ctz.head, file->ctz.size,
3265:libraries/littlefs/lfs.c ****                         file->pos, &file->block, &file->off);
3266:libraries/littlefs/lfs.c ****                 if (err) {
3267:libraries/littlefs/lfs.c ****                     return err;
3268:libraries/littlefs/lfs.c ****                 }
3269:libraries/littlefs/lfs.c ****             } else {
3270:libraries/littlefs/lfs.c ****                 file->block = LFS_BLOCK_INLINE;
3271:libraries/littlefs/lfs.c ****                 file->off = file->pos;
3272:libraries/littlefs/lfs.c ****             }
3273:libraries/littlefs/lfs.c **** 
3274:libraries/littlefs/lfs.c ****             file->flags |= LFS_F_READING;
3275:libraries/littlefs/lfs.c ****         }
3276:libraries/littlefs/lfs.c **** 
3277:libraries/littlefs/lfs.c ****         // read as much as we can in current block
3278:libraries/littlefs/lfs.c ****         lfs_size_t diff = lfs_min(nsize, lfs->cfg->block_size - file->off);
3279:libraries/littlefs/lfs.c ****         if (file->flags & LFS_F_INLINE) {
3280:libraries/littlefs/lfs.c ****             int err = lfs_dir_getread(lfs, &file->m,
3281:libraries/littlefs/lfs.c ****                     NULL, &file->cache, lfs->cfg->block_size,
3282:libraries/littlefs/lfs.c ****                     LFS_MKTAG(0xfff, 0x1ff, 0),
3283:libraries/littlefs/lfs.c ****                     LFS_MKTAG(LFS_TYPE_INLINESTRUCT, file->id, 0),
3284:libraries/littlefs/lfs.c ****                     file->off, data, diff);
3285:libraries/littlefs/lfs.c ****             if (err) {
3286:libraries/littlefs/lfs.c ****                 return err;
