ARM GAS  /var/folders/b4/k4jbz0ms4wg23jtq0w6p483m0000gn/T//ccnt82Fy.s 			page 1


   1              		.cpu cortex-m4
   2              		.arch armv7e-m
   3              		.fpu softvfp
   4              		.eabi_attribute 20, 1
   5              		.eabi_attribute 21, 1
   6              		.eabi_attribute 23, 3
   7              		.eabi_attribute 24, 1
   8              		.eabi_attribute 25, 1
   9              		.eabi_attribute 26, 1
  10              		.eabi_attribute 30, 4
  11              		.eabi_attribute 34, 1
  12              		.eabi_attribute 18, 4
  13              		.file	"main.c"
  14              		.text
  15              	.Ltext0:
  16              		.cfi_sections	.debug_frame
  17              		.section	.rodata.main.str1.1,"aMS",%progbits,1
  18              	.LC0:
  19 0000 4150505F 		.ascii	"APP_STATUS\000"
  19      53544154 
  19      555300
  20              		.section	.text.startup.main,"ax",%progbits
  21              		.align	1
  22              		.global	main
  23              		.syntax unified
  24              		.thumb
  25              		.thumb_func
  27              	main:
  28              	.LFB740:
  29              		.file 1 "app/src/main.c"
   1:app/src/main.c **** #include "lfs_port.h"
   2:app/src/main.c **** #include "main.h"
   3:app/src/main.c **** 
   4:app/src/main.c **** static BOOT_ErrorStatus jump_to_app(void)
   5:app/src/main.c **** {
   6:app/src/main.c ****   BOOT_ErrorStatus e_ret_status = BOOT_ERROR;
   7:app/src/main.c ****   uint32_t jump_address;
   8:app/src/main.c ****   typedef void (*Function_Pointer)(void);
   9:app/src/main.c ****   Function_Pointer p_jump_to_function;
  10:app/src/main.c **** 
  11:app/src/main.c ****   if (e_ret_status == BOOT_SUCCESS)
  12:app/src/main.c ****   {
  13:app/src/main.c ****     /* Initialize address to jump */
  14:app/src/main.c ****     jump_address = *(__IO uint32_t *)(((uint32_t)LOADER_REGION_ROM_START + 4));
  15:app/src/main.c ****     p_jump_to_function = (Function_Pointer)jump_address;
  16:app/src/main.c **** 
  17:app/src/main.c ****     /* Initialize loader's Stack Pointer */
  18:app/src/main.c ****     __set_MSP(*(__IO uint32_t *)(LOADER_REGION_ROM_START));
  19:app/src/main.c **** 
  20:app/src/main.c ****     /* Jump into loader */
  21:app/src/main.c ****     p_jump_to_function();
  22:app/src/main.c ****   }
  23:app/src/main.c **** 
  24:app/src/main.c ****   /* The point below should NOT be reached */
  25:app/src/main.c ****   return e_ret_status;
  26:app/src/main.c **** }
  27:app/src/main.c **** 
ARM GAS  /var/folders/b4/k4jbz0ms4wg23jtq0w6p483m0000gn/T//ccnt82Fy.s 			page 2


  28:app/src/main.c **** static BOOT_ErrorStatus app_updata(void)
  29:app/src/main.c **** {
  30:app/src/main.c ****   lfs_file_t file;
  31:app/src/main.c ****   uint8_t app_status;
  32:app/src/main.c ****   if (lfs_file_open(&lfs, &file, "APP_STATUS", LFS_O_RDWR | LFS_O_CREAT) == LFS_ERR_OK)
  33:app/src/main.c ****   {
  34:app/src/main.c ****     lfs_file_read(&lfs, &file, &app_status, 1);
  35:app/src/main.c ****     lfs_file_close(&lfs, &file);
  36:app/src/main.c ****   }
  37:app/src/main.c ****   if (app_status != 1)
  38:app/src/main.c ****   {
  39:app/src/main.c ****     if (lfs_file_open(&lfs, &file, "APP_STATUS", LFS_O_RDWR | LFS_O_CREAT) == LFS_ERR_OK)
  40:app/src/main.c ****     {
  41:app/src/main.c ****       app_status = 1;
  42:app/src/main.c ****       lfs_file_write(&lfs, &file, &app_status, 1);
  43:app/src/main.c ****       lfs_file_close(&lfs, &file);
  44:app/src/main.c ****     }
  45:app/src/main.c ****   }
  46:app/src/main.c ****   return BOOT_SUCCESS;
  47:app/src/main.c **** }
  48:app/src/main.c **** int main(void)
  49:app/src/main.c **** {
  30              		.loc 1 49 1 view -0
  31              		.cfi_startproc
  32              		@ args = 0, pretend = 0, frame = 88
  33              		@ frame_needed = 0, uses_anonymous_args = 0
  50:app/src/main.c ****   boot_init();
  34              		.loc 1 50 3 view .LVU1
  49:app/src/main.c ****   boot_init();
  35              		.loc 1 49 1 is_stmt 0 view .LVU2
  36 0000 00B5     		push	{lr}
  37              	.LCFI0:
  38              		.cfi_def_cfa_offset 4
  39              		.cfi_offset 14, -4
  40 0002 97B0     		sub	sp, sp, #92
  41              	.LCFI1:
  42              		.cfi_def_cfa_offset 96
  43              		.loc 1 50 3 view .LVU3
  44 0004 FFF7FEFF 		bl	boot_init
  45              	.LVL0:
  51:app/src/main.c ****   if (BOOT_SUCCESS != lfs_Init())
  46              		.loc 1 51 3 is_stmt 1 view .LVU4
  47              		.loc 1 51 23 is_stmt 0 view .LVU5
  48 0008 FFF7FEFF 		bl	lfs_Init
  49              	.LVL1:
  50              		.loc 1 51 6 view .LVU6
  51 000c 58BB     		cbnz	r0, .L2
  52:app/src/main.c ****   {
  53:app/src/main.c ****     goto jump;
  54:app/src/main.c ****   }
  55:app/src/main.c ****   app_updata();
  52              		.loc 1 55 3 is_stmt 1 view .LVU7
  53              	.LBB8:
  54              	.LBI8:
  28:app/src/main.c **** {
  55              		.loc 1 28 25 view .LVU8
  56              	.LBB9:
ARM GAS  /var/folders/b4/k4jbz0ms4wg23jtq0w6p483m0000gn/T//ccnt82Fy.s 			page 3


  30:app/src/main.c ****   uint8_t app_status;
  57              		.loc 1 30 3 view .LVU9
  31:app/src/main.c ****   if (lfs_file_open(&lfs, &file, "APP_STATUS", LFS_O_RDWR | LFS_O_CREAT) == LFS_ERR_OK)
  58              		.loc 1 31 3 view .LVU10
  32:app/src/main.c ****   {
  59              		.loc 1 32 3 view .LVU11
  32:app/src/main.c ****   {
  60              		.loc 1 32 7 is_stmt 0 view .LVU12
  61 000e 184A     		ldr	r2, .L7
  62 0010 1848     		ldr	r0, .L7+4
  63 0012 40F20313 		movw	r3, #259
  64 0016 01A9     		add	r1, sp, #4
  65 0018 FFF7FEFF 		bl	lfs_file_open
  66              	.LVL2:
  32:app/src/main.c ****   {
  67              		.loc 1 32 6 view .LVU13
  68 001c 50B9     		cbnz	r0, .L3
  34:app/src/main.c ****     lfs_file_close(&lfs, &file);
  69              		.loc 1 34 5 is_stmt 1 view .LVU14
  70 001e 01A9     		add	r1, sp, #4
  71 0020 1448     		ldr	r0, .L7+4
  72 0022 0123     		movs	r3, #1
  73 0024 0DF10302 		add	r2, sp, #3
  74 0028 FFF7FEFF 		bl	lfs_file_read
  75              	.LVL3:
  35:app/src/main.c ****   }
  76              		.loc 1 35 5 view .LVU15
  77 002c 1148     		ldr	r0, .L7+4
  78 002e 01A9     		add	r1, sp, #4
  79 0030 FFF7FEFF 		bl	lfs_file_close
  80              	.LVL4:
  81              	.L3:
  37:app/src/main.c ****   {
  82              		.loc 1 37 3 view .LVU16
  37:app/src/main.c ****   {
  83              		.loc 1 37 6 is_stmt 0 view .LVU17
  84 0034 9DF80330 		ldrb	r3, [sp, #3]	@ zero_extendqisi2
  85 0038 012B     		cmp	r3, #1
  86 003a 14D0     		beq	.L2
  39:app/src/main.c ****     {
  87              		.loc 1 39 5 is_stmt 1 view .LVU18
  39:app/src/main.c ****     {
  88              		.loc 1 39 9 is_stmt 0 view .LVU19
  89 003c 0C4A     		ldr	r2, .L7
  90 003e 0D48     		ldr	r0, .L7+4
  91 0040 40F20313 		movw	r3, #259
  92 0044 01A9     		add	r1, sp, #4
  93 0046 FFF7FEFF 		bl	lfs_file_open
  94              	.LVL5:
  39:app/src/main.c ****     {
  95              		.loc 1 39 8 view .LVU20
  96 004a 60B9     		cbnz	r0, .L2
  41:app/src/main.c ****       lfs_file_write(&lfs, &file, &app_status, 1);
  97              		.loc 1 41 7 is_stmt 1 view .LVU21
  41:app/src/main.c ****       lfs_file_write(&lfs, &file, &app_status, 1);
  98              		.loc 1 41 18 is_stmt 0 view .LVU22
  99 004c 0123     		movs	r3, #1
ARM GAS  /var/folders/b4/k4jbz0ms4wg23jtq0w6p483m0000gn/T//ccnt82Fy.s 			page 4


  42:app/src/main.c ****       lfs_file_close(&lfs, &file);
 100              		.loc 1 42 7 view .LVU23
 101 004e 01A9     		add	r1, sp, #4
 102 0050 0848     		ldr	r0, .L7+4
  41:app/src/main.c ****       lfs_file_write(&lfs, &file, &app_status, 1);
 103              		.loc 1 41 18 view .LVU24
 104 0052 8DF80330 		strb	r3, [sp, #3]
  42:app/src/main.c ****       lfs_file_close(&lfs, &file);
 105              		.loc 1 42 7 is_stmt 1 view .LVU25
 106 0056 0DF10302 		add	r2, sp, #3
 107 005a FFF7FEFF 		bl	lfs_file_write
 108              	.LVL6:
  43:app/src/main.c ****     }
 109              		.loc 1 43 7 view .LVU26
 110 005e 0548     		ldr	r0, .L7+4
 111 0060 01A9     		add	r1, sp, #4
 112 0062 FFF7FEFF 		bl	lfs_file_close
 113              	.LVL7:
  46:app/src/main.c **** }
 114              		.loc 1 46 3 view .LVU27
 115              	.L2:
 116              	.LBE9:
 117              	.LBE8:
  56:app/src/main.c **** jump:
  57:app/src/main.c ****   jump_to_app();
 118              		.loc 1 57 3 view .LVU28
   6:app/src/main.c ****   uint32_t jump_address;
 119              		.loc 1 6 3 view .LVU29
   7:app/src/main.c ****   typedef void (*Function_Pointer)(void);
 120              		.loc 1 7 3 view .LVU30
   8:app/src/main.c ****   Function_Pointer p_jump_to_function;
 121              		.loc 1 8 3 view .LVU31
   9:app/src/main.c **** 
 122              		.loc 1 9 3 view .LVU32
  11:app/src/main.c ****   {
 123              		.loc 1 11 3 view .LVU33
  25:app/src/main.c **** }
 124              		.loc 1 25 3 view .LVU34
  58:app/src/main.c ****   return 0;
 125              		.loc 1 58 3 view .LVU35
  59:app/src/main.c **** }...
 126              		.loc 1 59 1 is_stmt 0 view .LVU36
 127 0066 0020     		movs	r0, #0
 128 0068 17B0     		add	sp, sp, #92
 129              	.LCFI2:
 130              		.cfi_def_cfa_offset 4
 131              		@ sp needed
 132 006a 5DF804FB 		ldr	pc, [sp], #4
 133              	.L8:
 134 006e 00BF     		.align	2
 135              	.L7:
 136 0070 00000000 		.word	.LC0
 137 0074 00000000 		.word	lfs
 138              		.cfi_endproc
 139              	.LFE740:
 141              		.text
 142              	.Letext0:
ARM GAS  /var/folders/b4/k4jbz0ms4wg23jtq0w6p483m0000gn/T//ccnt82Fy.s 			page 5


 143              		.file 2 "/Applications/ARM/arm-none-eabi/include/machine/_default_types.h"
 144              		.file 3 "/Applications/ARM/arm-none-eabi/include/sys/_stdint.h"
 145              		.file 4 "app/inc/main.h"
 146              		.file 5 "libraries/littlefs/lfs.h"
 147              		.file 6 "hardware/bsp/stm32wlxx/board.h"
 148              		.file 7 "components/littlefs/lfs_port.h"
 149              		.file 8 "hardware/mcu/st/stm32wlxx_hal_driver/Inc/stm32wlxx_ll_dma.h"
 150              		.file 9 "hardware/mcu/st/CMSIS_5/CMSIS/Core/Include/cmsis_gcc.h"
ARM GAS  /var/folders/b4/k4jbz0ms4wg23jtq0w6p483m0000gn/T//ccnt82Fy.s 			page 6


DEFINED SYMBOLS
                            *ABS*:0000000000000000 main.c
/var/folders/b4/k4jbz0ms4wg23jtq0w6p483m0000gn/T//ccnt82Fy.s:21     .text.startup.main:0000000000000000 $t
/var/folders/b4/k4jbz0ms4wg23jtq0w6p483m0000gn/T//ccnt82Fy.s:27     .text.startup.main:0000000000000000 main
/var/folders/b4/k4jbz0ms4wg23jtq0w6p483m0000gn/T//ccnt82Fy.s:136    .text.startup.main:0000000000000070 $d

UNDEFINED SYMBOLS
boot_init
lfs_Init
lfs_file_open
lfs_file_read
lfs_file_close
lfs_file_write
lfs
