ARM GAS  /var/folders/b4/k4jbz0ms4wg23jtq0w6p483m0000gn/T//cchh5TYj.s 			page 1


   1              		.cpu cortex-m4
   2              		.arch armv7e-m
   3              		.fpu softvfp
   4              		.eabi_attribute 20, 1
   5              		.eabi_attribute 21, 1
   6              		.eabi_attribute 23, 3
   7              		.eabi_attribute 24, 1
   8              		.eabi_attribute 25, 1
   9              		.eabi_attribute 26, 1
  10              		.eabi_attribute 30, 4
  11              		.eabi_attribute 34, 1
  12              		.eabi_attribute 18, 4
  13              		.file	"stm32wlxx_hal.c"
  14              		.text
  15              	.Ltext0:
  16              		.cfi_sections	.debug_frame
  17              		.section	.text.HAL_MspInit,"ax",%progbits
  18              		.align	1
  19              		.weak	HAL_MspInit
  20              		.syntax unified
  21              		.thumb
  22              		.thumb_func
  24              	HAL_MspInit:
  25              	.LFB723:
  26              		.file 1 "hardware/mcu/st/stm32wlxx_hal_driver/Src/stm32wlxx_hal.c"
   1:hardware/mcu/st/stm32wlxx_hal_driver/Src/stm32wlxx_hal.c **** /**
   2:hardware/mcu/st/stm32wlxx_hal_driver/Src/stm32wlxx_hal.c ****   ******************************************************************************
   3:hardware/mcu/st/stm32wlxx_hal_driver/Src/stm32wlxx_hal.c ****   * @file    stm32wlxx_hal.c
   4:hardware/mcu/st/stm32wlxx_hal_driver/Src/stm32wlxx_hal.c ****   * @author  MCD Application Team
   5:hardware/mcu/st/stm32wlxx_hal_driver/Src/stm32wlxx_hal.c ****   * @brief   HAL module driver.
   6:hardware/mcu/st/stm32wlxx_hal_driver/Src/stm32wlxx_hal.c ****   *          This is the common part of the HAL initialization
   7:hardware/mcu/st/stm32wlxx_hal_driver/Src/stm32wlxx_hal.c ****   *
   8:hardware/mcu/st/stm32wlxx_hal_driver/Src/stm32wlxx_hal.c ****   @verbatim
   9:hardware/mcu/st/stm32wlxx_hal_driver/Src/stm32wlxx_hal.c ****   ==============================================================================
  10:hardware/mcu/st/stm32wlxx_hal_driver/Src/stm32wlxx_hal.c ****                      ##### How to use this driver #####
  11:hardware/mcu/st/stm32wlxx_hal_driver/Src/stm32wlxx_hal.c ****   ==============================================================================
  12:hardware/mcu/st/stm32wlxx_hal_driver/Src/stm32wlxx_hal.c ****     [..]
  13:hardware/mcu/st/stm32wlxx_hal_driver/Src/stm32wlxx_hal.c ****     The common HAL driver contains a set of generic and common APIs that can be
  14:hardware/mcu/st/stm32wlxx_hal_driver/Src/stm32wlxx_hal.c ****     used by the PPP peripheral drivers and the user to start using the HAL.
  15:hardware/mcu/st/stm32wlxx_hal_driver/Src/stm32wlxx_hal.c ****     [..]
  16:hardware/mcu/st/stm32wlxx_hal_driver/Src/stm32wlxx_hal.c ****     The HAL contains two APIs' categories:
  17:hardware/mcu/st/stm32wlxx_hal_driver/Src/stm32wlxx_hal.c ****          (+) Common HAL APIs
  18:hardware/mcu/st/stm32wlxx_hal_driver/Src/stm32wlxx_hal.c ****          (+) Services HAL APIs
  19:hardware/mcu/st/stm32wlxx_hal_driver/Src/stm32wlxx_hal.c **** 
  20:hardware/mcu/st/stm32wlxx_hal_driver/Src/stm32wlxx_hal.c ****   @endverbatim
  21:hardware/mcu/st/stm32wlxx_hal_driver/Src/stm32wlxx_hal.c ****   ******************************************************************************
  22:hardware/mcu/st/stm32wlxx_hal_driver/Src/stm32wlxx_hal.c ****   * @attention
  23:hardware/mcu/st/stm32wlxx_hal_driver/Src/stm32wlxx_hal.c ****   *
  24:hardware/mcu/st/stm32wlxx_hal_driver/Src/stm32wlxx_hal.c ****   * <h2><center>&copy; Copyright (c) 2020 STMicroelectronics.
  25:hardware/mcu/st/stm32wlxx_hal_driver/Src/stm32wlxx_hal.c ****   * All rights reserved.</center></h2>
  26:hardware/mcu/st/stm32wlxx_hal_driver/Src/stm32wlxx_hal.c ****   *
  27:hardware/mcu/st/stm32wlxx_hal_driver/Src/stm32wlxx_hal.c ****   * This software component is licensed by ST under BSD 3-Clause license,
  28:hardware/mcu/st/stm32wlxx_hal_driver/Src/stm32wlxx_hal.c ****   * the "License"; You may not use this file except in compliance with the
  29:hardware/mcu/st/stm32wlxx_hal_driver/Src/stm32wlxx_hal.c ****   * License. You may obtain a copy of the License at:
  30:hardware/mcu/st/stm32wlxx_hal_driver/Src/stm32wlxx_hal.c ****   *                       opensource.org/licenses/BSD-3-Clause
  31:hardware/mcu/st/stm32wlxx_hal_driver/Src/stm32wlxx_hal.c ****   *
  32:hardware/mcu/st/stm32wlxx_hal_driver/Src/stm32wlxx_hal.c ****   ******************************************************************************
ARM GAS  /var/folders/b4/k4jbz0ms4wg23jtq0w6p483m0000gn/T//cchh5TYj.s 			page 2


  33:hardware/mcu/st/stm32wlxx_hal_driver/Src/stm32wlxx_hal.c ****   */
  34:hardware/mcu/st/stm32wlxx_hal_driver/Src/stm32wlxx_hal.c **** 
  35:hardware/mcu/st/stm32wlxx_hal_driver/Src/stm32wlxx_hal.c **** /* Includes ------------------------------------------------------------------*/
  36:hardware/mcu/st/stm32wlxx_hal_driver/Src/stm32wlxx_hal.c **** #include "stm32wlxx_hal.h"
  37:hardware/mcu/st/stm32wlxx_hal_driver/Src/stm32wlxx_hal.c **** 
  38:hardware/mcu/st/stm32wlxx_hal_driver/Src/stm32wlxx_hal.c **** /** @addtogroup STM32WLxx_HAL_Driver
  39:hardware/mcu/st/stm32wlxx_hal_driver/Src/stm32wlxx_hal.c ****   * @{
  40:hardware/mcu/st/stm32wlxx_hal_driver/Src/stm32wlxx_hal.c ****   */
  41:hardware/mcu/st/stm32wlxx_hal_driver/Src/stm32wlxx_hal.c **** 
  42:hardware/mcu/st/stm32wlxx_hal_driver/Src/stm32wlxx_hal.c **** /** @addtogroup HAL
  43:hardware/mcu/st/stm32wlxx_hal_driver/Src/stm32wlxx_hal.c ****   * @brief HAL module driver
  44:hardware/mcu/st/stm32wlxx_hal_driver/Src/stm32wlxx_hal.c ****   * @{
  45:hardware/mcu/st/stm32wlxx_hal_driver/Src/stm32wlxx_hal.c ****   */
  46:hardware/mcu/st/stm32wlxx_hal_driver/Src/stm32wlxx_hal.c **** 
  47:hardware/mcu/st/stm32wlxx_hal_driver/Src/stm32wlxx_hal.c **** #ifdef HAL_MODULE_ENABLED
  48:hardware/mcu/st/stm32wlxx_hal_driver/Src/stm32wlxx_hal.c **** 
  49:hardware/mcu/st/stm32wlxx_hal_driver/Src/stm32wlxx_hal.c **** /* Private typedef -----------------------------------------------------------*/
  50:hardware/mcu/st/stm32wlxx_hal_driver/Src/stm32wlxx_hal.c **** /* Private define ------------------------------------------------------------*/
  51:hardware/mcu/st/stm32wlxx_hal_driver/Src/stm32wlxx_hal.c **** 
  52:hardware/mcu/st/stm32wlxx_hal_driver/Src/stm32wlxx_hal.c **** /** @defgroup HAL_Private_Constants HAL Private Constants
  53:hardware/mcu/st/stm32wlxx_hal_driver/Src/stm32wlxx_hal.c ****   * @{
  54:hardware/mcu/st/stm32wlxx_hal_driver/Src/stm32wlxx_hal.c ****   */
  55:hardware/mcu/st/stm32wlxx_hal_driver/Src/stm32wlxx_hal.c **** /**
  56:hardware/mcu/st/stm32wlxx_hal_driver/Src/stm32wlxx_hal.c ****  * @brief STM32WLxx HAL Driver version number
  57:hardware/mcu/st/stm32wlxx_hal_driver/Src/stm32wlxx_hal.c ****    */
  58:hardware/mcu/st/stm32wlxx_hal_driver/Src/stm32wlxx_hal.c **** #define __STM32WLxx_HAL_VERSION_MAIN   (0x01U) /*!< [31:24] main version */
  59:hardware/mcu/st/stm32wlxx_hal_driver/Src/stm32wlxx_hal.c **** #define __STM32WLxx_HAL_VERSION_SUB1   (0x01U) /*!< [23:16] sub1 version */
  60:hardware/mcu/st/stm32wlxx_hal_driver/Src/stm32wlxx_hal.c **** #define __STM32WLxx_HAL_VERSION_SUB2   (0x00U) /*!< [15:8]  sub2 version */
  61:hardware/mcu/st/stm32wlxx_hal_driver/Src/stm32wlxx_hal.c **** #define __STM32WLxx_HAL_VERSION_RC     (0x00U) /*!< [7:0]  release candidate */
  62:hardware/mcu/st/stm32wlxx_hal_driver/Src/stm32wlxx_hal.c **** #define __STM32WLxx_HAL_VERSION         ((__STM32WLxx_HAL_VERSION_MAIN << 24U)\
  63:hardware/mcu/st/stm32wlxx_hal_driver/Src/stm32wlxx_hal.c ****                                         |(__STM32WLxx_HAL_VERSION_SUB1 << 16U)\
  64:hardware/mcu/st/stm32wlxx_hal_driver/Src/stm32wlxx_hal.c ****                                         |(__STM32WLxx_HAL_VERSION_SUB2 << 8U )\
  65:hardware/mcu/st/stm32wlxx_hal_driver/Src/stm32wlxx_hal.c ****                                         |(__STM32WLxx_HAL_VERSION_RC))
  66:hardware/mcu/st/stm32wlxx_hal_driver/Src/stm32wlxx_hal.c **** 
  67:hardware/mcu/st/stm32wlxx_hal_driver/Src/stm32wlxx_hal.c **** #define VREFBUF_TIMEOUT_VALUE     10U   /* 10 ms */
  68:hardware/mcu/st/stm32wlxx_hal_driver/Src/stm32wlxx_hal.c **** 
  69:hardware/mcu/st/stm32wlxx_hal_driver/Src/stm32wlxx_hal.c **** /**
  70:hardware/mcu/st/stm32wlxx_hal_driver/Src/stm32wlxx_hal.c ****   * @}
  71:hardware/mcu/st/stm32wlxx_hal_driver/Src/stm32wlxx_hal.c ****   */
  72:hardware/mcu/st/stm32wlxx_hal_driver/Src/stm32wlxx_hal.c **** 
  73:hardware/mcu/st/stm32wlxx_hal_driver/Src/stm32wlxx_hal.c **** /* Private macro -------------------------------------------------------------*/
  74:hardware/mcu/st/stm32wlxx_hal_driver/Src/stm32wlxx_hal.c **** /* Exported variables ---------------------------------------------------------*/
  75:hardware/mcu/st/stm32wlxx_hal_driver/Src/stm32wlxx_hal.c **** /** @defgroup HAL_Exported_Variables HAL Exported Variables
  76:hardware/mcu/st/stm32wlxx_hal_driver/Src/stm32wlxx_hal.c ****   * @{
  77:hardware/mcu/st/stm32wlxx_hal_driver/Src/stm32wlxx_hal.c ****   */
  78:hardware/mcu/st/stm32wlxx_hal_driver/Src/stm32wlxx_hal.c **** __IO uint32_t uwTick;
  79:hardware/mcu/st/stm32wlxx_hal_driver/Src/stm32wlxx_hal.c **** uint32_t uwTickPrio   = (1UL << __NVIC_PRIO_BITS); /* Invalid PRIO */
  80:hardware/mcu/st/stm32wlxx_hal_driver/Src/stm32wlxx_hal.c **** HAL_TickFreqTypeDef uwTickFreq = HAL_TICK_FREQ_DEFAULT;  /* 1KHz */
  81:hardware/mcu/st/stm32wlxx_hal_driver/Src/stm32wlxx_hal.c **** /**
  82:hardware/mcu/st/stm32wlxx_hal_driver/Src/stm32wlxx_hal.c ****   * @}
  83:hardware/mcu/st/stm32wlxx_hal_driver/Src/stm32wlxx_hal.c ****   */
  84:hardware/mcu/st/stm32wlxx_hal_driver/Src/stm32wlxx_hal.c **** 
  85:hardware/mcu/st/stm32wlxx_hal_driver/Src/stm32wlxx_hal.c **** /* Private function prototypes -----------------------------------------------*/
  86:hardware/mcu/st/stm32wlxx_hal_driver/Src/stm32wlxx_hal.c **** /* Exported functions --------------------------------------------------------*/
  87:hardware/mcu/st/stm32wlxx_hal_driver/Src/stm32wlxx_hal.c **** 
  88:hardware/mcu/st/stm32wlxx_hal_driver/Src/stm32wlxx_hal.c **** /** @addtogroup HAL_Exported_Functions
  89:hardware/mcu/st/stm32wlxx_hal_driver/Src/stm32wlxx_hal.c ****   * @{
ARM GAS  /var/folders/b4/k4jbz0ms4wg23jtq0w6p483m0000gn/T//cchh5TYj.s 			page 3


  90:hardware/mcu/st/stm32wlxx_hal_driver/Src/stm32wlxx_hal.c ****   */
  91:hardware/mcu/st/stm32wlxx_hal_driver/Src/stm32wlxx_hal.c **** 
  92:hardware/mcu/st/stm32wlxx_hal_driver/Src/stm32wlxx_hal.c **** /** @addtogroup HAL_Exported_Functions_Group1
  93:hardware/mcu/st/stm32wlxx_hal_driver/Src/stm32wlxx_hal.c ****  *  @brief    HAL Initialization and Configuration functions
  94:hardware/mcu/st/stm32wlxx_hal_driver/Src/stm32wlxx_hal.c ****  *
  95:hardware/mcu/st/stm32wlxx_hal_driver/Src/stm32wlxx_hal.c **** @verbatim
  96:hardware/mcu/st/stm32wlxx_hal_driver/Src/stm32wlxx_hal.c ****  ===============================================================================
  97:hardware/mcu/st/stm32wlxx_hal_driver/Src/stm32wlxx_hal.c ****            ##### HAL Initialization and Configuration functions #####
  98:hardware/mcu/st/stm32wlxx_hal_driver/Src/stm32wlxx_hal.c ****  ===============================================================================
  99:hardware/mcu/st/stm32wlxx_hal_driver/Src/stm32wlxx_hal.c ****     [..]  This section provides functions allowing to:
 100:hardware/mcu/st/stm32wlxx_hal_driver/Src/stm32wlxx_hal.c ****       (+) Initialize the Flash interface the NVIC allocation and initial time base
 101:hardware/mcu/st/stm32wlxx_hal_driver/Src/stm32wlxx_hal.c ****           clock configuration.
 102:hardware/mcu/st/stm32wlxx_hal_driver/Src/stm32wlxx_hal.c ****       (+) De-initialize common part of the HAL.
 103:hardware/mcu/st/stm32wlxx_hal_driver/Src/stm32wlxx_hal.c ****       (+) Configure the time base source to have 1ms time base with a dedicated
 104:hardware/mcu/st/stm32wlxx_hal_driver/Src/stm32wlxx_hal.c ****           Tick interrupt priority.
 105:hardware/mcu/st/stm32wlxx_hal_driver/Src/stm32wlxx_hal.c ****         (++) SysTick timer is used by default as source of time base, but user
 106:hardware/mcu/st/stm32wlxx_hal_driver/Src/stm32wlxx_hal.c ****              can eventually implement his proper time base source (a general purpose
 107:hardware/mcu/st/stm32wlxx_hal_driver/Src/stm32wlxx_hal.c ****              timer for example or other time source), keeping in mind that Time base
 108:hardware/mcu/st/stm32wlxx_hal_driver/Src/stm32wlxx_hal.c ****              duration should be kept 1ms since PPP_TIMEOUT_VALUEs are defined and
 109:hardware/mcu/st/stm32wlxx_hal_driver/Src/stm32wlxx_hal.c ****              handled in milliseconds basis.
 110:hardware/mcu/st/stm32wlxx_hal_driver/Src/stm32wlxx_hal.c ****         (++) Time base configuration function (HAL_InitTick ()) is called automatically
 111:hardware/mcu/st/stm32wlxx_hal_driver/Src/stm32wlxx_hal.c ****              at the beginning of the program after reset by HAL_Init() or at any time
 112:hardware/mcu/st/stm32wlxx_hal_driver/Src/stm32wlxx_hal.c ****              when clock is configured, by HAL_RCC_ClockConfig().
 113:hardware/mcu/st/stm32wlxx_hal_driver/Src/stm32wlxx_hal.c ****         (++) Source of time base is configured  to generate interrupts at regular
 114:hardware/mcu/st/stm32wlxx_hal_driver/Src/stm32wlxx_hal.c ****              time intervals. Care must be taken if HAL_Delay() is called from a
 115:hardware/mcu/st/stm32wlxx_hal_driver/Src/stm32wlxx_hal.c ****              peripheral ISR process, the Tick interrupt line must have higher priority
 116:hardware/mcu/st/stm32wlxx_hal_driver/Src/stm32wlxx_hal.c ****             (numerically lower) than the peripheral interrupt. Otherwise the caller
 117:hardware/mcu/st/stm32wlxx_hal_driver/Src/stm32wlxx_hal.c ****             ISR process will be blocked.
 118:hardware/mcu/st/stm32wlxx_hal_driver/Src/stm32wlxx_hal.c ****        (++) functions affecting time base configurations are declared as __weak
 119:hardware/mcu/st/stm32wlxx_hal_driver/Src/stm32wlxx_hal.c ****              to make  override possible  in case of other  implementations in user file.
 120:hardware/mcu/st/stm32wlxx_hal_driver/Src/stm32wlxx_hal.c **** @endverbatim
 121:hardware/mcu/st/stm32wlxx_hal_driver/Src/stm32wlxx_hal.c ****   * @{
 122:hardware/mcu/st/stm32wlxx_hal_driver/Src/stm32wlxx_hal.c ****   */
 123:hardware/mcu/st/stm32wlxx_hal_driver/Src/stm32wlxx_hal.c **** 
 124:hardware/mcu/st/stm32wlxx_hal_driver/Src/stm32wlxx_hal.c **** /**
 125:hardware/mcu/st/stm32wlxx_hal_driver/Src/stm32wlxx_hal.c ****   * @brief  This function is used to initialize the HAL Library; it must be the first
 126:hardware/mcu/st/stm32wlxx_hal_driver/Src/stm32wlxx_hal.c ****   *         instruction to be executed in the main program (before to call any other
 127:hardware/mcu/st/stm32wlxx_hal_driver/Src/stm32wlxx_hal.c ****   *         HAL function), it performs the following:
 128:hardware/mcu/st/stm32wlxx_hal_driver/Src/stm32wlxx_hal.c ****   *           Configure the Flash prefetch, instruction and Data caches.
 129:hardware/mcu/st/stm32wlxx_hal_driver/Src/stm32wlxx_hal.c ****   *           Configures the SysTick to generate an interrupt each 1 millisecond,
 130:hardware/mcu/st/stm32wlxx_hal_driver/Src/stm32wlxx_hal.c ****   *           which is clocked by the MSI (at this stage, the clock is not yet
 131:hardware/mcu/st/stm32wlxx_hal_driver/Src/stm32wlxx_hal.c ****   *           configured and thus the system is running from the internal MSI at 4 MHz).
 132:hardware/mcu/st/stm32wlxx_hal_driver/Src/stm32wlxx_hal.c ****   *           Set NVIC Group Priority to 4.
 133:hardware/mcu/st/stm32wlxx_hal_driver/Src/stm32wlxx_hal.c ****   *           Calls the HAL_MspInit() callback function defined in user file
 134:hardware/mcu/st/stm32wlxx_hal_driver/Src/stm32wlxx_hal.c ****   *           "stm32wlxx_hal_msp.c" to do the global low level hardware initialization
 135:hardware/mcu/st/stm32wlxx_hal_driver/Src/stm32wlxx_hal.c ****   *
 136:hardware/mcu/st/stm32wlxx_hal_driver/Src/stm32wlxx_hal.c ****   * @note   SysTick is used as time base for the HAL_Delay() function, the application
 137:hardware/mcu/st/stm32wlxx_hal_driver/Src/stm32wlxx_hal.c ****   *         need to ensure that the SysTick time base is always set to 1 millisecond
 138:hardware/mcu/st/stm32wlxx_hal_driver/Src/stm32wlxx_hal.c ****   *         to have correct HAL operation.
 139:hardware/mcu/st/stm32wlxx_hal_driver/Src/stm32wlxx_hal.c ****   * @retval HAL status
 140:hardware/mcu/st/stm32wlxx_hal_driver/Src/stm32wlxx_hal.c ****   */
 141:hardware/mcu/st/stm32wlxx_hal_driver/Src/stm32wlxx_hal.c **** HAL_StatusTypeDef HAL_Init(void)
 142:hardware/mcu/st/stm32wlxx_hal_driver/Src/stm32wlxx_hal.c **** {
 143:hardware/mcu/st/stm32wlxx_hal_driver/Src/stm32wlxx_hal.c ****   HAL_StatusTypeDef  status = HAL_OK;
 144:hardware/mcu/st/stm32wlxx_hal_driver/Src/stm32wlxx_hal.c ****   /* Configure Flash prefetch, Instruction cache, Data cache */
 145:hardware/mcu/st/stm32wlxx_hal_driver/Src/stm32wlxx_hal.c ****   /* Default configuration at reset is:                      */
 146:hardware/mcu/st/stm32wlxx_hal_driver/Src/stm32wlxx_hal.c ****   /* - Prefetch disabled                                     */
ARM GAS  /var/folders/b4/k4jbz0ms4wg23jtq0w6p483m0000gn/T//cchh5TYj.s 			page 4


 147:hardware/mcu/st/stm32wlxx_hal_driver/Src/stm32wlxx_hal.c ****   /* - Instruction cache enabled                             */
 148:hardware/mcu/st/stm32wlxx_hal_driver/Src/stm32wlxx_hal.c ****   /* - Data cache enabled                                    */
 149:hardware/mcu/st/stm32wlxx_hal_driver/Src/stm32wlxx_hal.c **** #if (INSTRUCTION_CACHE_ENABLE == 0U)
 150:hardware/mcu/st/stm32wlxx_hal_driver/Src/stm32wlxx_hal.c ****   __HAL_FLASH_INSTRUCTION_CACHE_DISABLE();
 151:hardware/mcu/st/stm32wlxx_hal_driver/Src/stm32wlxx_hal.c **** #endif /* INSTRUCTION_CACHE_ENABLE */
 152:hardware/mcu/st/stm32wlxx_hal_driver/Src/stm32wlxx_hal.c **** 
 153:hardware/mcu/st/stm32wlxx_hal_driver/Src/stm32wlxx_hal.c **** #ifdef CORE_CM0PLUS
 154:hardware/mcu/st/stm32wlxx_hal_driver/Src/stm32wlxx_hal.c **** #else
 155:hardware/mcu/st/stm32wlxx_hal_driver/Src/stm32wlxx_hal.c **** #if (DATA_CACHE_ENABLE == 0U)
 156:hardware/mcu/st/stm32wlxx_hal_driver/Src/stm32wlxx_hal.c ****   __HAL_FLASH_DATA_CACHE_DISABLE();
 157:hardware/mcu/st/stm32wlxx_hal_driver/Src/stm32wlxx_hal.c **** #endif /* DATA_CACHE_ENABLE */
 158:hardware/mcu/st/stm32wlxx_hal_driver/Src/stm32wlxx_hal.c **** #endif
 159:hardware/mcu/st/stm32wlxx_hal_driver/Src/stm32wlxx_hal.c **** 
 160:hardware/mcu/st/stm32wlxx_hal_driver/Src/stm32wlxx_hal.c **** #if (PREFETCH_ENABLE != 0U)
 161:hardware/mcu/st/stm32wlxx_hal_driver/Src/stm32wlxx_hal.c ****   __HAL_FLASH_PREFETCH_BUFFER_ENABLE();
 162:hardware/mcu/st/stm32wlxx_hal_driver/Src/stm32wlxx_hal.c **** #endif /* PREFETCH_ENABLE */
 163:hardware/mcu/st/stm32wlxx_hal_driver/Src/stm32wlxx_hal.c **** 
 164:hardware/mcu/st/stm32wlxx_hal_driver/Src/stm32wlxx_hal.c **** #ifdef CORE_CM0PLUS
 165:hardware/mcu/st/stm32wlxx_hal_driver/Src/stm32wlxx_hal.c **** #else
 166:hardware/mcu/st/stm32wlxx_hal_driver/Src/stm32wlxx_hal.c ****   /* Set Interrupt Group Priority */
 167:hardware/mcu/st/stm32wlxx_hal_driver/Src/stm32wlxx_hal.c ****   HAL_NVIC_SetPriorityGrouping(NVIC_PRIORITYGROUP_4);
 168:hardware/mcu/st/stm32wlxx_hal_driver/Src/stm32wlxx_hal.c **** #endif
 169:hardware/mcu/st/stm32wlxx_hal_driver/Src/stm32wlxx_hal.c **** 
 170:hardware/mcu/st/stm32wlxx_hal_driver/Src/stm32wlxx_hal.c ****   /* Update the SystemCoreClock global variable */
 171:hardware/mcu/st/stm32wlxx_hal_driver/Src/stm32wlxx_hal.c **** #if defined(DUAL_CORE) && defined(CORE_CM0PLUS)
 172:hardware/mcu/st/stm32wlxx_hal_driver/Src/stm32wlxx_hal.c ****   SystemCoreClock = HAL_RCC_GetHCLK2Freq();
 173:hardware/mcu/st/stm32wlxx_hal_driver/Src/stm32wlxx_hal.c **** #else
 174:hardware/mcu/st/stm32wlxx_hal_driver/Src/stm32wlxx_hal.c ****   SystemCoreClock = HAL_RCC_GetHCLKFreq();
 175:hardware/mcu/st/stm32wlxx_hal_driver/Src/stm32wlxx_hal.c **** #endif
 176:hardware/mcu/st/stm32wlxx_hal_driver/Src/stm32wlxx_hal.c **** 
 177:hardware/mcu/st/stm32wlxx_hal_driver/Src/stm32wlxx_hal.c ****   /* Use SysTick as time base source and configure 1ms tick (default clock after Reset is MSI) */
 178:hardware/mcu/st/stm32wlxx_hal_driver/Src/stm32wlxx_hal.c ****   if (HAL_InitTick(TICK_INT_PRIORITY) != HAL_OK)
 179:hardware/mcu/st/stm32wlxx_hal_driver/Src/stm32wlxx_hal.c ****   {
 180:hardware/mcu/st/stm32wlxx_hal_driver/Src/stm32wlxx_hal.c ****     status = HAL_ERROR;
 181:hardware/mcu/st/stm32wlxx_hal_driver/Src/stm32wlxx_hal.c ****   }
 182:hardware/mcu/st/stm32wlxx_hal_driver/Src/stm32wlxx_hal.c ****   else
 183:hardware/mcu/st/stm32wlxx_hal_driver/Src/stm32wlxx_hal.c ****   {
 184:hardware/mcu/st/stm32wlxx_hal_driver/Src/stm32wlxx_hal.c ****     /* Init the low level hardware */
 185:hardware/mcu/st/stm32wlxx_hal_driver/Src/stm32wlxx_hal.c ****     HAL_MspInit();
 186:hardware/mcu/st/stm32wlxx_hal_driver/Src/stm32wlxx_hal.c ****   }
 187:hardware/mcu/st/stm32wlxx_hal_driver/Src/stm32wlxx_hal.c **** 
 188:hardware/mcu/st/stm32wlxx_hal_driver/Src/stm32wlxx_hal.c ****   /* Return function status */
 189:hardware/mcu/st/stm32wlxx_hal_driver/Src/stm32wlxx_hal.c ****   return status;
 190:hardware/mcu/st/stm32wlxx_hal_driver/Src/stm32wlxx_hal.c **** }
 191:hardware/mcu/st/stm32wlxx_hal_driver/Src/stm32wlxx_hal.c **** 
 192:hardware/mcu/st/stm32wlxx_hal_driver/Src/stm32wlxx_hal.c **** /**
 193:hardware/mcu/st/stm32wlxx_hal_driver/Src/stm32wlxx_hal.c ****   * @brief  This function de-Initializes common part of the HAL and stops the source of time base.
 194:hardware/mcu/st/stm32wlxx_hal_driver/Src/stm32wlxx_hal.c ****   * @note   This function is optional.
 195:hardware/mcu/st/stm32wlxx_hal_driver/Src/stm32wlxx_hal.c ****   * @retval HAL status
 196:hardware/mcu/st/stm32wlxx_hal_driver/Src/stm32wlxx_hal.c ****   */
 197:hardware/mcu/st/stm32wlxx_hal_driver/Src/stm32wlxx_hal.c **** HAL_StatusTypeDef HAL_DeInit(void)
 198:hardware/mcu/st/stm32wlxx_hal_driver/Src/stm32wlxx_hal.c **** {
 199:hardware/mcu/st/stm32wlxx_hal_driver/Src/stm32wlxx_hal.c ****   /* Reset of all peripherals */
 200:hardware/mcu/st/stm32wlxx_hal_driver/Src/stm32wlxx_hal.c ****   __HAL_RCC_APB1_FORCE_RESET();
 201:hardware/mcu/st/stm32wlxx_hal_driver/Src/stm32wlxx_hal.c ****   __HAL_RCC_APB1_RELEASE_RESET();
 202:hardware/mcu/st/stm32wlxx_hal_driver/Src/stm32wlxx_hal.c **** 
 203:hardware/mcu/st/stm32wlxx_hal_driver/Src/stm32wlxx_hal.c ****   __HAL_RCC_APB2_FORCE_RESET();
ARM GAS  /var/folders/b4/k4jbz0ms4wg23jtq0w6p483m0000gn/T//cchh5TYj.s 			page 5


 204:hardware/mcu/st/stm32wlxx_hal_driver/Src/stm32wlxx_hal.c ****   __HAL_RCC_APB2_RELEASE_RESET();
 205:hardware/mcu/st/stm32wlxx_hal_driver/Src/stm32wlxx_hal.c **** 
 206:hardware/mcu/st/stm32wlxx_hal_driver/Src/stm32wlxx_hal.c ****   __HAL_RCC_APB3_FORCE_RESET();
 207:hardware/mcu/st/stm32wlxx_hal_driver/Src/stm32wlxx_hal.c ****   __HAL_RCC_APB3_RELEASE_RESET();
 208:hardware/mcu/st/stm32wlxx_hal_driver/Src/stm32wlxx_hal.c **** 
 209:hardware/mcu/st/stm32wlxx_hal_driver/Src/stm32wlxx_hal.c ****   __HAL_RCC_AHB1_FORCE_RESET();
 210:hardware/mcu/st/stm32wlxx_hal_driver/Src/stm32wlxx_hal.c ****   __HAL_RCC_AHB1_RELEASE_RESET();
 211:hardware/mcu/st/stm32wlxx_hal_driver/Src/stm32wlxx_hal.c **** 
 212:hardware/mcu/st/stm32wlxx_hal_driver/Src/stm32wlxx_hal.c ****   __HAL_RCC_AHB2_FORCE_RESET();
 213:hardware/mcu/st/stm32wlxx_hal_driver/Src/stm32wlxx_hal.c ****   __HAL_RCC_AHB2_RELEASE_RESET();
 214:hardware/mcu/st/stm32wlxx_hal_driver/Src/stm32wlxx_hal.c **** 
 215:hardware/mcu/st/stm32wlxx_hal_driver/Src/stm32wlxx_hal.c ****   __HAL_RCC_AHB3_FORCE_RESET();
 216:hardware/mcu/st/stm32wlxx_hal_driver/Src/stm32wlxx_hal.c ****   __HAL_RCC_AHB3_RELEASE_RESET();
 217:hardware/mcu/st/stm32wlxx_hal_driver/Src/stm32wlxx_hal.c **** 
 218:hardware/mcu/st/stm32wlxx_hal_driver/Src/stm32wlxx_hal.c ****   /* De-Init the low level hardware */
 219:hardware/mcu/st/stm32wlxx_hal_driver/Src/stm32wlxx_hal.c ****   HAL_MspDeInit();
 220:hardware/mcu/st/stm32wlxx_hal_driver/Src/stm32wlxx_hal.c **** 
 221:hardware/mcu/st/stm32wlxx_hal_driver/Src/stm32wlxx_hal.c ****   /* Return function status */
 222:hardware/mcu/st/stm32wlxx_hal_driver/Src/stm32wlxx_hal.c ****   return HAL_OK;
 223:hardware/mcu/st/stm32wlxx_hal_driver/Src/stm32wlxx_hal.c **** }
 224:hardware/mcu/st/stm32wlxx_hal_driver/Src/stm32wlxx_hal.c **** 
 225:hardware/mcu/st/stm32wlxx_hal_driver/Src/stm32wlxx_hal.c **** /**
 226:hardware/mcu/st/stm32wlxx_hal_driver/Src/stm32wlxx_hal.c ****   * @brief  Initialize the MSP.
 227:hardware/mcu/st/stm32wlxx_hal_driver/Src/stm32wlxx_hal.c ****   * @retval None
 228:hardware/mcu/st/stm32wlxx_hal_driver/Src/stm32wlxx_hal.c ****   */
 229:hardware/mcu/st/stm32wlxx_hal_driver/Src/stm32wlxx_hal.c **** __weak void HAL_MspInit(void)
 230:hardware/mcu/st/stm32wlxx_hal_driver/Src/stm32wlxx_hal.c **** {
  27              		.loc 1 230 1 view -0
  28              		.cfi_startproc
  29              		@ args = 0, pretend = 0, frame = 0
  30              		@ frame_needed = 0, uses_anonymous_args = 0
  31              		@ link register save eliminated.
 231:hardware/mcu/st/stm32wlxx_hal_driver/Src/stm32wlxx_hal.c ****   /* NOTE : This function should not be modified, when the callback is needed,
 232:hardware/mcu/st/stm32wlxx_hal_driver/Src/stm32wlxx_hal.c ****             the HAL_MspInit could be implemented in the user file
 233:hardware/mcu/st/stm32wlxx_hal_driver/Src/stm32wlxx_hal.c ****    */
 234:hardware/mcu/st/stm32wlxx_hal_driver/Src/stm32wlxx_hal.c **** }
  32              		.loc 1 234 1 view .LVU1
  33 0000 7047     		bx	lr
  34              		.cfi_endproc
  35              	.LFE723:
  37              		.section	.text.HAL_MspDeInit,"ax",%progbits
  38              		.align	1
  39              		.weak	HAL_MspDeInit
  40              		.syntax unified
  41              		.thumb
  42              		.thumb_func
  44              	HAL_MspDeInit:
  45              	.LFB756:
  46              		.cfi_startproc
  47              		@ args = 0, pretend = 0, frame = 0
  48              		@ frame_needed = 0, uses_anonymous_args = 0
  49              		@ link register save eliminated.
  50 0000 7047     		bx	lr
  51              		.cfi_endproc
  52              	.LFE756:
  54              		.section	.text.HAL_DeInit,"ax",%progbits
  55              		.align	1
ARM GAS  /var/folders/b4/k4jbz0ms4wg23jtq0w6p483m0000gn/T//cchh5TYj.s 			page 6


  56              		.global	HAL_DeInit
  57              		.syntax unified
  58              		.thumb
  59              		.thumb_func
  61              	HAL_DeInit:
  62              	.LFB722:
 198:hardware/mcu/st/stm32wlxx_hal_driver/Src/stm32wlxx_hal.c ****   /* Reset of all peripherals */
  63              		.loc 1 198 1 view -0
  64              		.cfi_startproc
  65              		@ args = 0, pretend = 0, frame = 0
  66              		@ frame_needed = 0, uses_anonymous_args = 0
 200:hardware/mcu/st/stm32wlxx_hal_driver/Src/stm32wlxx_hal.c ****   __HAL_RCC_APB1_RELEASE_RESET();
  67              		.loc 1 200 3 view .LVU3
 200:hardware/mcu/st/stm32wlxx_hal_driver/Src/stm32wlxx_hal.c ****   __HAL_RCC_APB1_RELEASE_RESET();
  68              		.loc 1 200 3 view .LVU4
  69              	.LBB40:
  70              	.LBI40:
  71              		.file 2 "hardware/mcu/st/stm32wlxx_hal_driver/Inc/stm32wlxx_ll_bus.h"
   1:hardware/mcu/st/stm32wlxx_hal_driver/Inc/stm32wlxx_ll_bus.h **** /**
   2:hardware/mcu/st/stm32wlxx_hal_driver/Inc/stm32wlxx_ll_bus.h ****   ******************************************************************************
   3:hardware/mcu/st/stm32wlxx_hal_driver/Inc/stm32wlxx_ll_bus.h ****   * @file    stm32wlxx_ll_bus.h
   4:hardware/mcu/st/stm32wlxx_hal_driver/Inc/stm32wlxx_ll_bus.h ****   * @author  MCD Application Team
   5:hardware/mcu/st/stm32wlxx_hal_driver/Inc/stm32wlxx_ll_bus.h ****   * @brief   Header file of BUS LL module.
   6:hardware/mcu/st/stm32wlxx_hal_driver/Inc/stm32wlxx_ll_bus.h ****   @verbatim
   7:hardware/mcu/st/stm32wlxx_hal_driver/Inc/stm32wlxx_ll_bus.h ****                       ##### RCC Limitations #####
   8:hardware/mcu/st/stm32wlxx_hal_driver/Inc/stm32wlxx_ll_bus.h ****   ==============================================================================
   9:hardware/mcu/st/stm32wlxx_hal_driver/Inc/stm32wlxx_ll_bus.h ****     [..]
  10:hardware/mcu/st/stm32wlxx_hal_driver/Inc/stm32wlxx_ll_bus.h ****       A delay between an RCC peripheral clock enable and the effective peripheral
  11:hardware/mcu/st/stm32wlxx_hal_driver/Inc/stm32wlxx_ll_bus.h ****       enabling should be taken into account in order to manage the peripheral read/write
  12:hardware/mcu/st/stm32wlxx_hal_driver/Inc/stm32wlxx_ll_bus.h ****       from/to registers.w<
  13:hardware/mcu/st/stm32wlxx_hal_driver/Inc/stm32wlxx_ll_bus.h ****       (+) This delay depends on the peripheral mapping.
  14:hardware/mcu/st/stm32wlxx_hal_driver/Inc/stm32wlxx_ll_bus.h ****         (++) AHB & APB peripherals, 1 dummy read is necessary
  15:hardware/mcu/st/stm32wlxx_hal_driver/Inc/stm32wlxx_ll_bus.h **** 
  16:hardware/mcu/st/stm32wlxx_hal_driver/Inc/stm32wlxx_ll_bus.h ****     [..]
  17:hardware/mcu/st/stm32wlxx_hal_driver/Inc/stm32wlxx_ll_bus.h ****       Workarounds:
  18:hardware/mcu/st/stm32wlxx_hal_driver/Inc/stm32wlxx_ll_bus.h ****       (#) For AHB & APB peripherals, a dummy read to the peripheral register has been
  19:hardware/mcu/st/stm32wlxx_hal_driver/Inc/stm32wlxx_ll_bus.h ****           inserted in each LL_{BUS}_GRP{x}_EnableClock() function.
  20:hardware/mcu/st/stm32wlxx_hal_driver/Inc/stm32wlxx_ll_bus.h **** 
  21:hardware/mcu/st/stm32wlxx_hal_driver/Inc/stm32wlxx_ll_bus.h ****   @endverbatim
  22:hardware/mcu/st/stm32wlxx_hal_driver/Inc/stm32wlxx_ll_bus.h ****   ******************************************************************************
  23:hardware/mcu/st/stm32wlxx_hal_driver/Inc/stm32wlxx_ll_bus.h ****   * @attention
  24:hardware/mcu/st/stm32wlxx_hal_driver/Inc/stm32wlxx_ll_bus.h ****   *
  25:hardware/mcu/st/stm32wlxx_hal_driver/Inc/stm32wlxx_ll_bus.h ****   * <h2><center>&copy; Copyright (c) 2020 STMicroelectronics.
  26:hardware/mcu/st/stm32wlxx_hal_driver/Inc/stm32wlxx_ll_bus.h ****   * All rights reserved.</center></h2>
  27:hardware/mcu/st/stm32wlxx_hal_driver/Inc/stm32wlxx_ll_bus.h ****   *
  28:hardware/mcu/st/stm32wlxx_hal_driver/Inc/stm32wlxx_ll_bus.h ****   * This software component is licensed by ST under BSD 3-Clause license,
  29:hardware/mcu/st/stm32wlxx_hal_driver/Inc/stm32wlxx_ll_bus.h ****   * the "License"; You may not use this file except in compliance with the
  30:hardware/mcu/st/stm32wlxx_hal_driver/Inc/stm32wlxx_ll_bus.h ****   * License. You may obtain a copy of the License at:
  31:hardware/mcu/st/stm32wlxx_hal_driver/Inc/stm32wlxx_ll_bus.h ****   *                       opensource.org/licenses/BSD-3-Clause
  32:hardware/mcu/st/stm32wlxx_hal_driver/Inc/stm32wlxx_ll_bus.h ****   *
  33:hardware/mcu/st/stm32wlxx_hal_driver/Inc/stm32wlxx_ll_bus.h ****   ******************************************************************************
  34:hardware/mcu/st/stm32wlxx_hal_driver/Inc/stm32wlxx_ll_bus.h ****   */
  35:hardware/mcu/st/stm32wlxx_hal_driver/Inc/stm32wlxx_ll_bus.h **** 
  36:hardware/mcu/st/stm32wlxx_hal_driver/Inc/stm32wlxx_ll_bus.h **** /* Define to prevent recursive inclusion -------------------------------------*/
  37:hardware/mcu/st/stm32wlxx_hal_driver/Inc/stm32wlxx_ll_bus.h **** #ifndef __STM32WLxx_LL_BUS_H
  38:hardware/mcu/st/stm32wlxx_hal_driver/Inc/stm32wlxx_ll_bus.h **** #define __STM32WLxx_LL_BUS_H
  39:hardware/mcu/st/stm32wlxx_hal_driver/Inc/stm32wlxx_ll_bus.h **** 
ARM GAS  /var/folders/b4/k4jbz0ms4wg23jtq0w6p483m0000gn/T//cchh5TYj.s 			page 7


  40:hardware/mcu/st/stm32wlxx_hal_driver/Inc/stm32wlxx_ll_bus.h **** #ifdef __cplusplus
  41:hardware/mcu/st/stm32wlxx_hal_driver/Inc/stm32wlxx_ll_bus.h **** extern "C" {
  42:hardware/mcu/st/stm32wlxx_hal_driver/Inc/stm32wlxx_ll_bus.h **** #endif
  43:hardware/mcu/st/stm32wlxx_hal_driver/Inc/stm32wlxx_ll_bus.h **** 
  44:hardware/mcu/st/stm32wlxx_hal_driver/Inc/stm32wlxx_ll_bus.h **** /* Includes ------------------------------------------------------------------*/
  45:hardware/mcu/st/stm32wlxx_hal_driver/Inc/stm32wlxx_ll_bus.h **** #include "stm32wlxx.h"
  46:hardware/mcu/st/stm32wlxx_hal_driver/Inc/stm32wlxx_ll_bus.h **** 
  47:hardware/mcu/st/stm32wlxx_hal_driver/Inc/stm32wlxx_ll_bus.h **** /** @addtogroup STM32WLxx_LL_Driver
  48:hardware/mcu/st/stm32wlxx_hal_driver/Inc/stm32wlxx_ll_bus.h ****   * @{
  49:hardware/mcu/st/stm32wlxx_hal_driver/Inc/stm32wlxx_ll_bus.h ****   */
  50:hardware/mcu/st/stm32wlxx_hal_driver/Inc/stm32wlxx_ll_bus.h **** 
  51:hardware/mcu/st/stm32wlxx_hal_driver/Inc/stm32wlxx_ll_bus.h **** #if defined(RCC)
  52:hardware/mcu/st/stm32wlxx_hal_driver/Inc/stm32wlxx_ll_bus.h **** 
  53:hardware/mcu/st/stm32wlxx_hal_driver/Inc/stm32wlxx_ll_bus.h **** /** @defgroup BUS_LL BUS
  54:hardware/mcu/st/stm32wlxx_hal_driver/Inc/stm32wlxx_ll_bus.h ****   * @{
  55:hardware/mcu/st/stm32wlxx_hal_driver/Inc/stm32wlxx_ll_bus.h ****   */
  56:hardware/mcu/st/stm32wlxx_hal_driver/Inc/stm32wlxx_ll_bus.h **** 
  57:hardware/mcu/st/stm32wlxx_hal_driver/Inc/stm32wlxx_ll_bus.h **** /* Private types -------------------------------------------------------------*/
  58:hardware/mcu/st/stm32wlxx_hal_driver/Inc/stm32wlxx_ll_bus.h **** /* Private variables ---------------------------------------------------------*/
  59:hardware/mcu/st/stm32wlxx_hal_driver/Inc/stm32wlxx_ll_bus.h **** 
  60:hardware/mcu/st/stm32wlxx_hal_driver/Inc/stm32wlxx_ll_bus.h **** /* Private constants ---------------------------------------------------------*/
  61:hardware/mcu/st/stm32wlxx_hal_driver/Inc/stm32wlxx_ll_bus.h **** 
  62:hardware/mcu/st/stm32wlxx_hal_driver/Inc/stm32wlxx_ll_bus.h **** /* Private macros ------------------------------------------------------------*/
  63:hardware/mcu/st/stm32wlxx_hal_driver/Inc/stm32wlxx_ll_bus.h **** 
  64:hardware/mcu/st/stm32wlxx_hal_driver/Inc/stm32wlxx_ll_bus.h **** /* Exported types ------------------------------------------------------------*/
  65:hardware/mcu/st/stm32wlxx_hal_driver/Inc/stm32wlxx_ll_bus.h **** 
  66:hardware/mcu/st/stm32wlxx_hal_driver/Inc/stm32wlxx_ll_bus.h **** /* Exported constants --------------------------------------------------------*/
  67:hardware/mcu/st/stm32wlxx_hal_driver/Inc/stm32wlxx_ll_bus.h **** /** @defgroup BUS_LL_Exported_Constants BUS Exported Constants
  68:hardware/mcu/st/stm32wlxx_hal_driver/Inc/stm32wlxx_ll_bus.h ****   * @{
  69:hardware/mcu/st/stm32wlxx_hal_driver/Inc/stm32wlxx_ll_bus.h ****   */
  70:hardware/mcu/st/stm32wlxx_hal_driver/Inc/stm32wlxx_ll_bus.h **** 
  71:hardware/mcu/st/stm32wlxx_hal_driver/Inc/stm32wlxx_ll_bus.h **** /** @defgroup BUS_LL_EC_AHB1_GRP1_PERIPH  AHB1 GRP1 PERIPH
  72:hardware/mcu/st/stm32wlxx_hal_driver/Inc/stm32wlxx_ll_bus.h ****   * @{
  73:hardware/mcu/st/stm32wlxx_hal_driver/Inc/stm32wlxx_ll_bus.h ****   */
  74:hardware/mcu/st/stm32wlxx_hal_driver/Inc/stm32wlxx_ll_bus.h **** #define LL_AHB1_GRP1_PERIPH_ALL            (0xFFFFFFFFU)
  75:hardware/mcu/st/stm32wlxx_hal_driver/Inc/stm32wlxx_ll_bus.h **** #define LL_AHB1_GRP1_PERIPH_DMA1           RCC_AHB1ENR_DMA1EN
  76:hardware/mcu/st/stm32wlxx_hal_driver/Inc/stm32wlxx_ll_bus.h **** #define LL_AHB1_GRP1_PERIPH_DMA2           RCC_AHB1ENR_DMA2EN
  77:hardware/mcu/st/stm32wlxx_hal_driver/Inc/stm32wlxx_ll_bus.h **** #define LL_AHB1_GRP1_PERIPH_DMAMUX1        RCC_AHB1ENR_DMAMUX1EN
  78:hardware/mcu/st/stm32wlxx_hal_driver/Inc/stm32wlxx_ll_bus.h **** #define LL_AHB1_GRP1_PERIPH_CRC            RCC_AHB1ENR_CRCEN
  79:hardware/mcu/st/stm32wlxx_hal_driver/Inc/stm32wlxx_ll_bus.h **** /**
  80:hardware/mcu/st/stm32wlxx_hal_driver/Inc/stm32wlxx_ll_bus.h ****   * @}
  81:hardware/mcu/st/stm32wlxx_hal_driver/Inc/stm32wlxx_ll_bus.h ****   */
  82:hardware/mcu/st/stm32wlxx_hal_driver/Inc/stm32wlxx_ll_bus.h **** 
  83:hardware/mcu/st/stm32wlxx_hal_driver/Inc/stm32wlxx_ll_bus.h **** /** @defgroup BUS_LL_EC_AHB2_GRP1_PERIPH  AHB2 GRP1 PERIPH
  84:hardware/mcu/st/stm32wlxx_hal_driver/Inc/stm32wlxx_ll_bus.h ****   * @{
  85:hardware/mcu/st/stm32wlxx_hal_driver/Inc/stm32wlxx_ll_bus.h ****   */
  86:hardware/mcu/st/stm32wlxx_hal_driver/Inc/stm32wlxx_ll_bus.h **** #define LL_AHB2_GRP1_PERIPH_ALL            (0xFFFFFFFFU)
  87:hardware/mcu/st/stm32wlxx_hal_driver/Inc/stm32wlxx_ll_bus.h **** #define LL_AHB2_GRP1_PERIPH_GPIOA          RCC_AHB2ENR_GPIOAEN
  88:hardware/mcu/st/stm32wlxx_hal_driver/Inc/stm32wlxx_ll_bus.h **** #define LL_AHB2_GRP1_PERIPH_GPIOB          RCC_AHB2ENR_GPIOBEN
  89:hardware/mcu/st/stm32wlxx_hal_driver/Inc/stm32wlxx_ll_bus.h **** #define LL_AHB2_GRP1_PERIPH_GPIOC          RCC_AHB2ENR_GPIOCEN
  90:hardware/mcu/st/stm32wlxx_hal_driver/Inc/stm32wlxx_ll_bus.h **** #define LL_AHB2_GRP1_PERIPH_GPIOH          RCC_AHB2ENR_GPIOHEN
  91:hardware/mcu/st/stm32wlxx_hal_driver/Inc/stm32wlxx_ll_bus.h **** /**
  92:hardware/mcu/st/stm32wlxx_hal_driver/Inc/stm32wlxx_ll_bus.h ****   * @}
  93:hardware/mcu/st/stm32wlxx_hal_driver/Inc/stm32wlxx_ll_bus.h ****   */
  94:hardware/mcu/st/stm32wlxx_hal_driver/Inc/stm32wlxx_ll_bus.h **** 
  95:hardware/mcu/st/stm32wlxx_hal_driver/Inc/stm32wlxx_ll_bus.h **** /** @defgroup BUS_LL_EC_AHB3_GRP1_PERIPH  AHB3 GRP1 PERIPH
  96:hardware/mcu/st/stm32wlxx_hal_driver/Inc/stm32wlxx_ll_bus.h ****   * @{
ARM GAS  /var/folders/b4/k4jbz0ms4wg23jtq0w6p483m0000gn/T//cchh5TYj.s 			page 8


  97:hardware/mcu/st/stm32wlxx_hal_driver/Inc/stm32wlxx_ll_bus.h ****   */
  98:hardware/mcu/st/stm32wlxx_hal_driver/Inc/stm32wlxx_ll_bus.h **** #define LL_AHB3_GRP1_PERIPH_ALL            (0xFFFFFFFFU)
  99:hardware/mcu/st/stm32wlxx_hal_driver/Inc/stm32wlxx_ll_bus.h **** #define LL_AHB3_GRP1_PERIPH_PKA            RCC_AHB3ENR_PKAEN
 100:hardware/mcu/st/stm32wlxx_hal_driver/Inc/stm32wlxx_ll_bus.h **** #define LL_AHB3_GRP1_PERIPH_AES            RCC_AHB3ENR_AESEN
 101:hardware/mcu/st/stm32wlxx_hal_driver/Inc/stm32wlxx_ll_bus.h **** #define LL_AHB3_GRP1_PERIPH_RNG            RCC_AHB3ENR_RNGEN
 102:hardware/mcu/st/stm32wlxx_hal_driver/Inc/stm32wlxx_ll_bus.h **** #define LL_AHB3_GRP1_PERIPH_HSEM           RCC_AHB3ENR_HSEMEN
 103:hardware/mcu/st/stm32wlxx_hal_driver/Inc/stm32wlxx_ll_bus.h **** #if defined(DUAL_CORE)
 104:hardware/mcu/st/stm32wlxx_hal_driver/Inc/stm32wlxx_ll_bus.h **** #define LL_AHB3_GRP1_PERIPH_IPCC           RCC_AHB3ENR_IPCCEN
 105:hardware/mcu/st/stm32wlxx_hal_driver/Inc/stm32wlxx_ll_bus.h **** #endif /* DUAL_CORE */
 106:hardware/mcu/st/stm32wlxx_hal_driver/Inc/stm32wlxx_ll_bus.h **** #define LL_AHB3_GRP1_PERIPH_SRAM1          RCC_AHB3SMENR_SRAM1SMEN
 107:hardware/mcu/st/stm32wlxx_hal_driver/Inc/stm32wlxx_ll_bus.h **** #define LL_AHB3_GRP1_PERIPH_SRAM2          RCC_AHB3SMENR_SRAM2SMEN
 108:hardware/mcu/st/stm32wlxx_hal_driver/Inc/stm32wlxx_ll_bus.h **** #define LL_AHB3_GRP1_PERIPH_FLASH          RCC_AHB3ENR_FLASHEN
 109:hardware/mcu/st/stm32wlxx_hal_driver/Inc/stm32wlxx_ll_bus.h **** /**
 110:hardware/mcu/st/stm32wlxx_hal_driver/Inc/stm32wlxx_ll_bus.h ****   * @}
 111:hardware/mcu/st/stm32wlxx_hal_driver/Inc/stm32wlxx_ll_bus.h ****   */
 112:hardware/mcu/st/stm32wlxx_hal_driver/Inc/stm32wlxx_ll_bus.h **** 
 113:hardware/mcu/st/stm32wlxx_hal_driver/Inc/stm32wlxx_ll_bus.h **** /** @defgroup BUS_LL_EC_APB1_GRP1_PERIPH  APB1 GRP1 PERIPH
 114:hardware/mcu/st/stm32wlxx_hal_driver/Inc/stm32wlxx_ll_bus.h ****   * @{
 115:hardware/mcu/st/stm32wlxx_hal_driver/Inc/stm32wlxx_ll_bus.h ****   */
 116:hardware/mcu/st/stm32wlxx_hal_driver/Inc/stm32wlxx_ll_bus.h **** #define LL_APB1_GRP1_PERIPH_ALL            (0xFFFFFFFFU)
 117:hardware/mcu/st/stm32wlxx_hal_driver/Inc/stm32wlxx_ll_bus.h **** #define LL_APB1_GRP1_PERIPH_TIM2           RCC_APB1ENR1_TIM2EN
 118:hardware/mcu/st/stm32wlxx_hal_driver/Inc/stm32wlxx_ll_bus.h **** #define LL_APB1_GRP1_PERIPH_RTCAPB         RCC_APB1ENR1_RTCAPBEN
 119:hardware/mcu/st/stm32wlxx_hal_driver/Inc/stm32wlxx_ll_bus.h **** #define LL_APB1_GRP1_PERIPH_WWDG           RCC_APB1ENR1_WWDGEN
 120:hardware/mcu/st/stm32wlxx_hal_driver/Inc/stm32wlxx_ll_bus.h **** #define LL_APB1_GRP1_PERIPH_SPI2           RCC_APB1ENR1_SPI2EN
 121:hardware/mcu/st/stm32wlxx_hal_driver/Inc/stm32wlxx_ll_bus.h **** #define LL_APB1_GRP1_PERIPH_USART2         RCC_APB1ENR1_USART2EN
 122:hardware/mcu/st/stm32wlxx_hal_driver/Inc/stm32wlxx_ll_bus.h **** #define LL_APB1_GRP1_PERIPH_I2C1           RCC_APB1ENR1_I2C1EN
 123:hardware/mcu/st/stm32wlxx_hal_driver/Inc/stm32wlxx_ll_bus.h **** #define LL_APB1_GRP1_PERIPH_I2C2           RCC_APB1ENR1_I2C2EN
 124:hardware/mcu/st/stm32wlxx_hal_driver/Inc/stm32wlxx_ll_bus.h **** #define LL_APB1_GRP1_PERIPH_I2C3           RCC_APB1ENR1_I2C3EN
 125:hardware/mcu/st/stm32wlxx_hal_driver/Inc/stm32wlxx_ll_bus.h **** #define LL_APB1_GRP1_PERIPH_DAC            RCC_APB1ENR1_DACEN
 126:hardware/mcu/st/stm32wlxx_hal_driver/Inc/stm32wlxx_ll_bus.h **** #define LL_APB1_GRP1_PERIPH_LPTIM1         RCC_APB1ENR1_LPTIM1EN
 127:hardware/mcu/st/stm32wlxx_hal_driver/Inc/stm32wlxx_ll_bus.h **** /**
 128:hardware/mcu/st/stm32wlxx_hal_driver/Inc/stm32wlxx_ll_bus.h ****   * @}
 129:hardware/mcu/st/stm32wlxx_hal_driver/Inc/stm32wlxx_ll_bus.h ****   */
 130:hardware/mcu/st/stm32wlxx_hal_driver/Inc/stm32wlxx_ll_bus.h **** 
 131:hardware/mcu/st/stm32wlxx_hal_driver/Inc/stm32wlxx_ll_bus.h **** 
 132:hardware/mcu/st/stm32wlxx_hal_driver/Inc/stm32wlxx_ll_bus.h **** /** @defgroup BUS_LL_EC_APB1_GRP2_PERIPH  APB1 GRP2 PERIPH
 133:hardware/mcu/st/stm32wlxx_hal_driver/Inc/stm32wlxx_ll_bus.h ****   * @{
 134:hardware/mcu/st/stm32wlxx_hal_driver/Inc/stm32wlxx_ll_bus.h ****   */
 135:hardware/mcu/st/stm32wlxx_hal_driver/Inc/stm32wlxx_ll_bus.h **** #define LL_APB1_GRP2_PERIPH_ALL            (0xFFFFFFFFU)
 136:hardware/mcu/st/stm32wlxx_hal_driver/Inc/stm32wlxx_ll_bus.h **** #define LL_APB1_GRP2_PERIPH_LPUART1        RCC_APB1ENR2_LPUART1EN
 137:hardware/mcu/st/stm32wlxx_hal_driver/Inc/stm32wlxx_ll_bus.h **** #define LL_APB1_GRP2_PERIPH_LPTIM2         RCC_APB1ENR2_LPTIM2EN
 138:hardware/mcu/st/stm32wlxx_hal_driver/Inc/stm32wlxx_ll_bus.h **** #define LL_APB1_GRP2_PERIPH_LPTIM3         RCC_APB1ENR2_LPTIM3EN
 139:hardware/mcu/st/stm32wlxx_hal_driver/Inc/stm32wlxx_ll_bus.h **** /**
 140:hardware/mcu/st/stm32wlxx_hal_driver/Inc/stm32wlxx_ll_bus.h ****   * @}
 141:hardware/mcu/st/stm32wlxx_hal_driver/Inc/stm32wlxx_ll_bus.h ****   */
 142:hardware/mcu/st/stm32wlxx_hal_driver/Inc/stm32wlxx_ll_bus.h **** 
 143:hardware/mcu/st/stm32wlxx_hal_driver/Inc/stm32wlxx_ll_bus.h **** /** @defgroup BUS_LL_EC_APB2_GRP1_PERIPH  APB2 GRP1 PERIPH
 144:hardware/mcu/st/stm32wlxx_hal_driver/Inc/stm32wlxx_ll_bus.h ****   * @{
 145:hardware/mcu/st/stm32wlxx_hal_driver/Inc/stm32wlxx_ll_bus.h ****   */
 146:hardware/mcu/st/stm32wlxx_hal_driver/Inc/stm32wlxx_ll_bus.h **** #define LL_APB2_GRP1_PERIPH_ALL            (0xFFFFFFFFU)
 147:hardware/mcu/st/stm32wlxx_hal_driver/Inc/stm32wlxx_ll_bus.h **** #define LL_APB2_GRP1_PERIPH_ADC            RCC_APB2ENR_ADCEN
 148:hardware/mcu/st/stm32wlxx_hal_driver/Inc/stm32wlxx_ll_bus.h **** #define LL_APB2_GRP1_PERIPH_TIM1           RCC_APB2ENR_TIM1EN
 149:hardware/mcu/st/stm32wlxx_hal_driver/Inc/stm32wlxx_ll_bus.h **** #define LL_APB2_GRP1_PERIPH_SPI1           RCC_APB2ENR_SPI1EN
 150:hardware/mcu/st/stm32wlxx_hal_driver/Inc/stm32wlxx_ll_bus.h **** #define LL_APB2_GRP1_PERIPH_USART1         RCC_APB2ENR_USART1EN
 151:hardware/mcu/st/stm32wlxx_hal_driver/Inc/stm32wlxx_ll_bus.h **** #define LL_APB2_GRP1_PERIPH_TIM16          RCC_APB2ENR_TIM16EN
 152:hardware/mcu/st/stm32wlxx_hal_driver/Inc/stm32wlxx_ll_bus.h **** #define LL_APB2_GRP1_PERIPH_TIM17          RCC_APB2ENR_TIM17EN
 153:hardware/mcu/st/stm32wlxx_hal_driver/Inc/stm32wlxx_ll_bus.h **** /**
ARM GAS  /var/folders/b4/k4jbz0ms4wg23jtq0w6p483m0000gn/T//cchh5TYj.s 			page 9


 154:hardware/mcu/st/stm32wlxx_hal_driver/Inc/stm32wlxx_ll_bus.h ****   * @}
 155:hardware/mcu/st/stm32wlxx_hal_driver/Inc/stm32wlxx_ll_bus.h ****   */
 156:hardware/mcu/st/stm32wlxx_hal_driver/Inc/stm32wlxx_ll_bus.h **** 
 157:hardware/mcu/st/stm32wlxx_hal_driver/Inc/stm32wlxx_ll_bus.h **** /** @defgroup BUS_LL_EC_APB3_GRP1_PERIPH  APB3 GRP1 PERIPH
 158:hardware/mcu/st/stm32wlxx_hal_driver/Inc/stm32wlxx_ll_bus.h ****   * @{
 159:hardware/mcu/st/stm32wlxx_hal_driver/Inc/stm32wlxx_ll_bus.h ****   */
 160:hardware/mcu/st/stm32wlxx_hal_driver/Inc/stm32wlxx_ll_bus.h **** #define LL_APB3_GRP1_PERIPH_ALL            (0xFFFFFFFFU)
 161:hardware/mcu/st/stm32wlxx_hal_driver/Inc/stm32wlxx_ll_bus.h **** #define LL_APB3_GRP1_PERIPH_SUBGHZSPI      RCC_APB3ENR_SUBGHZSPIEN
 162:hardware/mcu/st/stm32wlxx_hal_driver/Inc/stm32wlxx_ll_bus.h **** /**
 163:hardware/mcu/st/stm32wlxx_hal_driver/Inc/stm32wlxx_ll_bus.h ****   * @}
 164:hardware/mcu/st/stm32wlxx_hal_driver/Inc/stm32wlxx_ll_bus.h ****   */
 165:hardware/mcu/st/stm32wlxx_hal_driver/Inc/stm32wlxx_ll_bus.h **** 
 166:hardware/mcu/st/stm32wlxx_hal_driver/Inc/stm32wlxx_ll_bus.h **** #if defined(DUAL_CORE)
 167:hardware/mcu/st/stm32wlxx_hal_driver/Inc/stm32wlxx_ll_bus.h **** /** @defgroup BUS_LL_EC_C2_AHB1_GRP1_PERIPH  C2 AHB1 GRP1 PERIPH
 168:hardware/mcu/st/stm32wlxx_hal_driver/Inc/stm32wlxx_ll_bus.h ****   * @{
 169:hardware/mcu/st/stm32wlxx_hal_driver/Inc/stm32wlxx_ll_bus.h ****   */
 170:hardware/mcu/st/stm32wlxx_hal_driver/Inc/stm32wlxx_ll_bus.h **** #define LL_C2_AHB1_GRP1_PERIPH_DMA1         RCC_C2AHB1ENR_DMA1EN
 171:hardware/mcu/st/stm32wlxx_hal_driver/Inc/stm32wlxx_ll_bus.h **** #define LL_C2_AHB1_GRP1_PERIPH_DMA2         RCC_C2AHB1ENR_DMA2EN
 172:hardware/mcu/st/stm32wlxx_hal_driver/Inc/stm32wlxx_ll_bus.h **** #define LL_C2_AHB1_GRP1_PERIPH_DMAMUX1      RCC_C2AHB1ENR_DMAMUX1EN
 173:hardware/mcu/st/stm32wlxx_hal_driver/Inc/stm32wlxx_ll_bus.h **** #define LL_C2_AHB1_GRP1_PERIPH_CRC          RCC_C2AHB1ENR_CRCEN
 174:hardware/mcu/st/stm32wlxx_hal_driver/Inc/stm32wlxx_ll_bus.h **** /**
 175:hardware/mcu/st/stm32wlxx_hal_driver/Inc/stm32wlxx_ll_bus.h ****   * @}
 176:hardware/mcu/st/stm32wlxx_hal_driver/Inc/stm32wlxx_ll_bus.h ****   */
 177:hardware/mcu/st/stm32wlxx_hal_driver/Inc/stm32wlxx_ll_bus.h **** 
 178:hardware/mcu/st/stm32wlxx_hal_driver/Inc/stm32wlxx_ll_bus.h **** 
 179:hardware/mcu/st/stm32wlxx_hal_driver/Inc/stm32wlxx_ll_bus.h **** /** @defgroup BUS_LL_EC_C2_AHB2_GRP1_PERIPH  C2 AHB2 GRP1 PERIPH
 180:hardware/mcu/st/stm32wlxx_hal_driver/Inc/stm32wlxx_ll_bus.h ****   * @{
 181:hardware/mcu/st/stm32wlxx_hal_driver/Inc/stm32wlxx_ll_bus.h ****   */
 182:hardware/mcu/st/stm32wlxx_hal_driver/Inc/stm32wlxx_ll_bus.h **** #define LL_C2_AHB2_GRP1_PERIPH_GPIOA        RCC_C2AHB2ENR_GPIOAEN
 183:hardware/mcu/st/stm32wlxx_hal_driver/Inc/stm32wlxx_ll_bus.h **** #define LL_C2_AHB2_GRP1_PERIPH_GPIOB        RCC_C2AHB2ENR_GPIOBEN
 184:hardware/mcu/st/stm32wlxx_hal_driver/Inc/stm32wlxx_ll_bus.h **** #define LL_C2_AHB2_GRP1_PERIPH_GPIOC        RCC_C2AHB2ENR_GPIOCEN
 185:hardware/mcu/st/stm32wlxx_hal_driver/Inc/stm32wlxx_ll_bus.h **** #define LL_C2_AHB2_GRP1_PERIPH_GPIOH        RCC_C2AHB2ENR_GPIOHEN
 186:hardware/mcu/st/stm32wlxx_hal_driver/Inc/stm32wlxx_ll_bus.h **** /**
 187:hardware/mcu/st/stm32wlxx_hal_driver/Inc/stm32wlxx_ll_bus.h ****   * @}
 188:hardware/mcu/st/stm32wlxx_hal_driver/Inc/stm32wlxx_ll_bus.h ****   */
 189:hardware/mcu/st/stm32wlxx_hal_driver/Inc/stm32wlxx_ll_bus.h **** 
 190:hardware/mcu/st/stm32wlxx_hal_driver/Inc/stm32wlxx_ll_bus.h **** 
 191:hardware/mcu/st/stm32wlxx_hal_driver/Inc/stm32wlxx_ll_bus.h **** /** @defgroup BUS_LL_EC_C2_AHB3_GRP1_PERIPH  C2 AHB3 GRP1 PERIPH
 192:hardware/mcu/st/stm32wlxx_hal_driver/Inc/stm32wlxx_ll_bus.h ****   * @{
 193:hardware/mcu/st/stm32wlxx_hal_driver/Inc/stm32wlxx_ll_bus.h ****   */
 194:hardware/mcu/st/stm32wlxx_hal_driver/Inc/stm32wlxx_ll_bus.h **** #define LL_C2_AHB3_GRP1_PERIPH_PKA          RCC_C2AHB3ENR_PKAEN
 195:hardware/mcu/st/stm32wlxx_hal_driver/Inc/stm32wlxx_ll_bus.h **** #define LL_C2_AHB3_GRP1_PERIPH_AES          RCC_C2AHB3ENR_AESEN
 196:hardware/mcu/st/stm32wlxx_hal_driver/Inc/stm32wlxx_ll_bus.h **** #define LL_C2_AHB3_GRP1_PERIPH_RNG          RCC_C2AHB3ENR_RNGEN
 197:hardware/mcu/st/stm32wlxx_hal_driver/Inc/stm32wlxx_ll_bus.h **** #define LL_C2_AHB3_GRP1_PERIPH_HSEM         RCC_C2AHB3ENR_HSEMEN
 198:hardware/mcu/st/stm32wlxx_hal_driver/Inc/stm32wlxx_ll_bus.h **** #define LL_C2_AHB3_GRP1_PERIPH_IPCC         RCC_C2AHB3ENR_IPCCEN
 199:hardware/mcu/st/stm32wlxx_hal_driver/Inc/stm32wlxx_ll_bus.h **** #define LL_C2_AHB3_GRP1_PERIPH_FLASH        RCC_C2AHB3ENR_FLASHEN
 200:hardware/mcu/st/stm32wlxx_hal_driver/Inc/stm32wlxx_ll_bus.h **** #define LL_C2_AHB3_GRP1_PERIPH_SRAM1        RCC_C2AHB3SMENR_SRAM1SMEN
 201:hardware/mcu/st/stm32wlxx_hal_driver/Inc/stm32wlxx_ll_bus.h **** #define LL_C2_AHB3_GRP1_PERIPH_SRAM2        RCC_C2AHB3SMENR_SRAM2SMEN
 202:hardware/mcu/st/stm32wlxx_hal_driver/Inc/stm32wlxx_ll_bus.h **** /**
 203:hardware/mcu/st/stm32wlxx_hal_driver/Inc/stm32wlxx_ll_bus.h ****   * @}
 204:hardware/mcu/st/stm32wlxx_hal_driver/Inc/stm32wlxx_ll_bus.h ****   */
 205:hardware/mcu/st/stm32wlxx_hal_driver/Inc/stm32wlxx_ll_bus.h **** 
 206:hardware/mcu/st/stm32wlxx_hal_driver/Inc/stm32wlxx_ll_bus.h **** 
 207:hardware/mcu/st/stm32wlxx_hal_driver/Inc/stm32wlxx_ll_bus.h **** /** @defgroup BUS_LL_EC_C2_APB1_GRP1_PERIPH  C2 APB1 GRP1 PERIPH
 208:hardware/mcu/st/stm32wlxx_hal_driver/Inc/stm32wlxx_ll_bus.h ****   * @{
 209:hardware/mcu/st/stm32wlxx_hal_driver/Inc/stm32wlxx_ll_bus.h ****   */
 210:hardware/mcu/st/stm32wlxx_hal_driver/Inc/stm32wlxx_ll_bus.h **** #define LL_C2_APB1_GRP1_PERIPH_TIM2         RCC_C2APB1ENR1_TIM2EN
ARM GAS  /var/folders/b4/k4jbz0ms4wg23jtq0w6p483m0000gn/T//cchh5TYj.s 			page 10


 211:hardware/mcu/st/stm32wlxx_hal_driver/Inc/stm32wlxx_ll_bus.h **** #define LL_C2_APB1_GRP1_PERIPH_RTCAPB       RCC_C2APB1ENR1_RTCAPBEN
 212:hardware/mcu/st/stm32wlxx_hal_driver/Inc/stm32wlxx_ll_bus.h **** #define LL_C2_APB1_GRP1_PERIPH_SPI2         RCC_C2APB1ENR1_SPI2EN
 213:hardware/mcu/st/stm32wlxx_hal_driver/Inc/stm32wlxx_ll_bus.h **** #define LL_C2_APB1_GRP1_PERIPH_USART2       RCC_C2APB1ENR1_USART2EN
 214:hardware/mcu/st/stm32wlxx_hal_driver/Inc/stm32wlxx_ll_bus.h **** #define LL_C2_APB1_GRP1_PERIPH_I2C1         RCC_C2APB1ENR1_I2C1EN
 215:hardware/mcu/st/stm32wlxx_hal_driver/Inc/stm32wlxx_ll_bus.h **** #define LL_C2_APB1_GRP1_PERIPH_I2C2         RCC_C2APB1ENR1_I2C2EN
 216:hardware/mcu/st/stm32wlxx_hal_driver/Inc/stm32wlxx_ll_bus.h **** #define LL_C2_APB1_GRP1_PERIPH_I2C3         RCC_C2APB1ENR1_I2C3EN
 217:hardware/mcu/st/stm32wlxx_hal_driver/Inc/stm32wlxx_ll_bus.h **** #define LL_C2_APB1_GRP1_PERIPH_DAC          RCC_C2APB1ENR1_DACEN
 218:hardware/mcu/st/stm32wlxx_hal_driver/Inc/stm32wlxx_ll_bus.h **** #define LL_C2_APB1_GRP1_PERIPH_LPTIM1       RCC_C2APB1ENR1_LPTIM1EN
 219:hardware/mcu/st/stm32wlxx_hal_driver/Inc/stm32wlxx_ll_bus.h **** /**
 220:hardware/mcu/st/stm32wlxx_hal_driver/Inc/stm32wlxx_ll_bus.h ****   * @}
 221:hardware/mcu/st/stm32wlxx_hal_driver/Inc/stm32wlxx_ll_bus.h ****   */
 222:hardware/mcu/st/stm32wlxx_hal_driver/Inc/stm32wlxx_ll_bus.h **** 
 223:hardware/mcu/st/stm32wlxx_hal_driver/Inc/stm32wlxx_ll_bus.h **** 
 224:hardware/mcu/st/stm32wlxx_hal_driver/Inc/stm32wlxx_ll_bus.h **** /** @defgroup BUS_LL_EC_C2_APB1_GRP2_PERIPH  C2 APB1 GRP2 PERIPH
 225:hardware/mcu/st/stm32wlxx_hal_driver/Inc/stm32wlxx_ll_bus.h ****   * @{
 226:hardware/mcu/st/stm32wlxx_hal_driver/Inc/stm32wlxx_ll_bus.h ****   */
 227:hardware/mcu/st/stm32wlxx_hal_driver/Inc/stm32wlxx_ll_bus.h **** #define LL_C2_APB1_GRP2_PERIPH_LPUART1      RCC_C2APB1ENR2_LPUART1EN
 228:hardware/mcu/st/stm32wlxx_hal_driver/Inc/stm32wlxx_ll_bus.h **** #define LL_C2_APB1_GRP2_PERIPH_LPTIM2       RCC_C2APB1ENR2_LPTIM2EN
 229:hardware/mcu/st/stm32wlxx_hal_driver/Inc/stm32wlxx_ll_bus.h **** #define LL_C2_APB1_GRP2_PERIPH_LPTIM3       RCC_C2APB1ENR2_LPTIM3EN
 230:hardware/mcu/st/stm32wlxx_hal_driver/Inc/stm32wlxx_ll_bus.h **** /**
 231:hardware/mcu/st/stm32wlxx_hal_driver/Inc/stm32wlxx_ll_bus.h ****   * @}
 232:hardware/mcu/st/stm32wlxx_hal_driver/Inc/stm32wlxx_ll_bus.h ****   */
 233:hardware/mcu/st/stm32wlxx_hal_driver/Inc/stm32wlxx_ll_bus.h **** 
 234:hardware/mcu/st/stm32wlxx_hal_driver/Inc/stm32wlxx_ll_bus.h **** 
 235:hardware/mcu/st/stm32wlxx_hal_driver/Inc/stm32wlxx_ll_bus.h **** /** @defgroup BUS_LL_EC_C2_APB2_GRP1_PERIPH  C2 APB2 GRP1 PERIPH
 236:hardware/mcu/st/stm32wlxx_hal_driver/Inc/stm32wlxx_ll_bus.h ****   * @{
 237:hardware/mcu/st/stm32wlxx_hal_driver/Inc/stm32wlxx_ll_bus.h ****   */
 238:hardware/mcu/st/stm32wlxx_hal_driver/Inc/stm32wlxx_ll_bus.h **** #define LL_C2_APB2_GRP1_PERIPH_ADC          RCC_C2APB2ENR_ADCEN
 239:hardware/mcu/st/stm32wlxx_hal_driver/Inc/stm32wlxx_ll_bus.h **** #define LL_C2_APB2_GRP1_PERIPH_TIM1         RCC_C2APB2ENR_TIM1EN
 240:hardware/mcu/st/stm32wlxx_hal_driver/Inc/stm32wlxx_ll_bus.h **** #define LL_C2_APB2_GRP1_PERIPH_SPI1         RCC_C2APB2ENR_SPI1EN
 241:hardware/mcu/st/stm32wlxx_hal_driver/Inc/stm32wlxx_ll_bus.h **** #define LL_C2_APB2_GRP1_PERIPH_USART1       RCC_C2APB2ENR_USART1EN
 242:hardware/mcu/st/stm32wlxx_hal_driver/Inc/stm32wlxx_ll_bus.h **** #define LL_C2_APB2_GRP1_PERIPH_TIM16        RCC_C2APB2ENR_TIM16EN
 243:hardware/mcu/st/stm32wlxx_hal_driver/Inc/stm32wlxx_ll_bus.h **** #define LL_C2_APB2_GRP1_PERIPH_TIM17        RCC_C2APB2ENR_TIM17EN
 244:hardware/mcu/st/stm32wlxx_hal_driver/Inc/stm32wlxx_ll_bus.h **** /**
 245:hardware/mcu/st/stm32wlxx_hal_driver/Inc/stm32wlxx_ll_bus.h ****   * @}
 246:hardware/mcu/st/stm32wlxx_hal_driver/Inc/stm32wlxx_ll_bus.h ****   */
 247:hardware/mcu/st/stm32wlxx_hal_driver/Inc/stm32wlxx_ll_bus.h **** 
 248:hardware/mcu/st/stm32wlxx_hal_driver/Inc/stm32wlxx_ll_bus.h **** 
 249:hardware/mcu/st/stm32wlxx_hal_driver/Inc/stm32wlxx_ll_bus.h **** /** @defgroup BUS_LL_EC_C2_APB3_GRP1_PERIPH  C2 APB3 GRP1 PERIPH
 250:hardware/mcu/st/stm32wlxx_hal_driver/Inc/stm32wlxx_ll_bus.h ****   * @{
 251:hardware/mcu/st/stm32wlxx_hal_driver/Inc/stm32wlxx_ll_bus.h ****   */
 252:hardware/mcu/st/stm32wlxx_hal_driver/Inc/stm32wlxx_ll_bus.h **** #define LL_C2_APB3_GRP1_PERIPH_SUBGHZSPI    RCC_C2APB3ENR_SUBGHZSPIEN
 253:hardware/mcu/st/stm32wlxx_hal_driver/Inc/stm32wlxx_ll_bus.h **** /**
 254:hardware/mcu/st/stm32wlxx_hal_driver/Inc/stm32wlxx_ll_bus.h ****   * @}
 255:hardware/mcu/st/stm32wlxx_hal_driver/Inc/stm32wlxx_ll_bus.h ****   */
 256:hardware/mcu/st/stm32wlxx_hal_driver/Inc/stm32wlxx_ll_bus.h **** #endif /* DUAL_CORE */
 257:hardware/mcu/st/stm32wlxx_hal_driver/Inc/stm32wlxx_ll_bus.h **** 
 258:hardware/mcu/st/stm32wlxx_hal_driver/Inc/stm32wlxx_ll_bus.h **** /**
 259:hardware/mcu/st/stm32wlxx_hal_driver/Inc/stm32wlxx_ll_bus.h ****   * @}
 260:hardware/mcu/st/stm32wlxx_hal_driver/Inc/stm32wlxx_ll_bus.h ****   */
 261:hardware/mcu/st/stm32wlxx_hal_driver/Inc/stm32wlxx_ll_bus.h **** 
 262:hardware/mcu/st/stm32wlxx_hal_driver/Inc/stm32wlxx_ll_bus.h **** /* Exported macro ------------------------------------------------------------*/
 263:hardware/mcu/st/stm32wlxx_hal_driver/Inc/stm32wlxx_ll_bus.h **** 
 264:hardware/mcu/st/stm32wlxx_hal_driver/Inc/stm32wlxx_ll_bus.h **** /* Exported functions --------------------------------------------------------*/
 265:hardware/mcu/st/stm32wlxx_hal_driver/Inc/stm32wlxx_ll_bus.h **** 
 266:hardware/mcu/st/stm32wlxx_hal_driver/Inc/stm32wlxx_ll_bus.h **** /** @defgroup BUS_LL_Exported_Functions BUS Exported Functions
 267:hardware/mcu/st/stm32wlxx_hal_driver/Inc/stm32wlxx_ll_bus.h ****   * @{
ARM GAS  /var/folders/b4/k4jbz0ms4wg23jtq0w6p483m0000gn/T//cchh5TYj.s 			page 11


 268:hardware/mcu/st/stm32wlxx_hal_driver/Inc/stm32wlxx_ll_bus.h ****   */
 269:hardware/mcu/st/stm32wlxx_hal_driver/Inc/stm32wlxx_ll_bus.h **** 
 270:hardware/mcu/st/stm32wlxx_hal_driver/Inc/stm32wlxx_ll_bus.h **** /** @defgroup BUS_LL_EF_AHB1 AHB1
 271:hardware/mcu/st/stm32wlxx_hal_driver/Inc/stm32wlxx_ll_bus.h ****   * @{
 272:hardware/mcu/st/stm32wlxx_hal_driver/Inc/stm32wlxx_ll_bus.h ****   */
 273:hardware/mcu/st/stm32wlxx_hal_driver/Inc/stm32wlxx_ll_bus.h **** 
 274:hardware/mcu/st/stm32wlxx_hal_driver/Inc/stm32wlxx_ll_bus.h **** /**
 275:hardware/mcu/st/stm32wlxx_hal_driver/Inc/stm32wlxx_ll_bus.h ****   * @brief  Enable AHB1 peripherals clock.
 276:hardware/mcu/st/stm32wlxx_hal_driver/Inc/stm32wlxx_ll_bus.h ****   * @rmtoll AHB1ENR      DMA1EN        LL_AHB1_GRP1_EnableClock\n
 277:hardware/mcu/st/stm32wlxx_hal_driver/Inc/stm32wlxx_ll_bus.h ****   *         AHB1ENR      DMA2EN        LL_AHB1_GRP1_EnableClock\n
 278:hardware/mcu/st/stm32wlxx_hal_driver/Inc/stm32wlxx_ll_bus.h ****   *         AHB1ENR      DMAMUX1EN     LL_AHB1_GRP1_EnableClock\n
 279:hardware/mcu/st/stm32wlxx_hal_driver/Inc/stm32wlxx_ll_bus.h ****   *         AHB1ENR      CRCEN         LL_AHB1_GRP1_EnableClock\n
 280:hardware/mcu/st/stm32wlxx_hal_driver/Inc/stm32wlxx_ll_bus.h ****   * @param  Periphs This parameter can be a combination of the following values:
 281:hardware/mcu/st/stm32wlxx_hal_driver/Inc/stm32wlxx_ll_bus.h ****   *         @arg @ref LL_AHB1_GRP1_PERIPH_DMA1
 282:hardware/mcu/st/stm32wlxx_hal_driver/Inc/stm32wlxx_ll_bus.h ****   *         @arg @ref LL_AHB1_GRP1_PERIPH_DMA2
 283:hardware/mcu/st/stm32wlxx_hal_driver/Inc/stm32wlxx_ll_bus.h ****   *         @arg @ref LL_AHB1_GRP1_PERIPH_DMAMUX1
 284:hardware/mcu/st/stm32wlxx_hal_driver/Inc/stm32wlxx_ll_bus.h ****   *         @arg @ref LL_AHB1_GRP1_PERIPH_CRC
 285:hardware/mcu/st/stm32wlxx_hal_driver/Inc/stm32wlxx_ll_bus.h ****   * @retval None
 286:hardware/mcu/st/stm32wlxx_hal_driver/Inc/stm32wlxx_ll_bus.h ****   */
 287:hardware/mcu/st/stm32wlxx_hal_driver/Inc/stm32wlxx_ll_bus.h **** __STATIC_INLINE void LL_AHB1_GRP1_EnableClock(uint32_t Periphs)
 288:hardware/mcu/st/stm32wlxx_hal_driver/Inc/stm32wlxx_ll_bus.h **** {
 289:hardware/mcu/st/stm32wlxx_hal_driver/Inc/stm32wlxx_ll_bus.h ****   __IO uint32_t tmpreg;
 290:hardware/mcu/st/stm32wlxx_hal_driver/Inc/stm32wlxx_ll_bus.h ****   SET_BIT(RCC->AHB1ENR, Periphs);
 291:hardware/mcu/st/stm32wlxx_hal_driver/Inc/stm32wlxx_ll_bus.h ****   /* Delay after an RCC peripheral clock enabling */
 292:hardware/mcu/st/stm32wlxx_hal_driver/Inc/stm32wlxx_ll_bus.h ****   tmpreg = READ_BIT(RCC->AHB1ENR, Periphs);
 293:hardware/mcu/st/stm32wlxx_hal_driver/Inc/stm32wlxx_ll_bus.h ****   (void)tmpreg;
 294:hardware/mcu/st/stm32wlxx_hal_driver/Inc/stm32wlxx_ll_bus.h **** }
 295:hardware/mcu/st/stm32wlxx_hal_driver/Inc/stm32wlxx_ll_bus.h **** 
 296:hardware/mcu/st/stm32wlxx_hal_driver/Inc/stm32wlxx_ll_bus.h **** /**
 297:hardware/mcu/st/stm32wlxx_hal_driver/Inc/stm32wlxx_ll_bus.h ****   * @brief  Check if AHB1 peripheral clock is enabled or not
 298:hardware/mcu/st/stm32wlxx_hal_driver/Inc/stm32wlxx_ll_bus.h ****   * @rmtoll AHB1ENR      DMA1EN        LL_AHB1_GRP1_IsEnabledClock\n
 299:hardware/mcu/st/stm32wlxx_hal_driver/Inc/stm32wlxx_ll_bus.h ****   *         AHB1ENR      DMA2EN        LL_AHB1_GRP1_IsEnabledClock\n
 300:hardware/mcu/st/stm32wlxx_hal_driver/Inc/stm32wlxx_ll_bus.h ****   *         AHB1ENR      DMAMUX1EN     LL_AHB1_GRP1_IsEnabledClock\n
 301:hardware/mcu/st/stm32wlxx_hal_driver/Inc/stm32wlxx_ll_bus.h ****   *         AHB1ENR      CRCEN         LL_AHB1_GRP1_IsEnabledClock\n
 302:hardware/mcu/st/stm32wlxx_hal_driver/Inc/stm32wlxx_ll_bus.h ****   * @param  Periphs This parameter can be a combination of the following values:
 303:hardware/mcu/st/stm32wlxx_hal_driver/Inc/stm32wlxx_ll_bus.h ****   *         @arg @ref LL_AHB1_GRP1_PERIPH_DMA1
 304:hardware/mcu/st/stm32wlxx_hal_driver/Inc/stm32wlxx_ll_bus.h ****   *         @arg @ref LL_AHB1_GRP1_PERIPH_DMA2
 305:hardware/mcu/st/stm32wlxx_hal_driver/Inc/stm32wlxx_ll_bus.h ****   *         @arg @ref LL_AHB1_GRP1_PERIPH_DMAMUX1
 306:hardware/mcu/st/stm32wlxx_hal_driver/Inc/stm32wlxx_ll_bus.h ****   *         @arg @ref LL_AHB1_GRP1_PERIPH_CRC
 307:hardware/mcu/st/stm32wlxx_hal_driver/Inc/stm32wlxx_ll_bus.h ****   * @retval uint32_t
 308:hardware/mcu/st/stm32wlxx_hal_driver/Inc/stm32wlxx_ll_bus.h ****   */
 309:hardware/mcu/st/stm32wlxx_hal_driver/Inc/stm32wlxx_ll_bus.h **** __STATIC_INLINE uint32_t LL_AHB1_GRP1_IsEnabledClock(uint32_t Periphs)
 310:hardware/mcu/st/stm32wlxx_hal_driver/Inc/stm32wlxx_ll_bus.h **** {
 311:hardware/mcu/st/stm32wlxx_hal_driver/Inc/stm32wlxx_ll_bus.h ****   return ((READ_BIT(RCC->AHB1ENR, Periphs) == (Periphs)) ? 1UL : 0UL);
 312:hardware/mcu/st/stm32wlxx_hal_driver/Inc/stm32wlxx_ll_bus.h **** }
 313:hardware/mcu/st/stm32wlxx_hal_driver/Inc/stm32wlxx_ll_bus.h **** 
 314:hardware/mcu/st/stm32wlxx_hal_driver/Inc/stm32wlxx_ll_bus.h **** /**
 315:hardware/mcu/st/stm32wlxx_hal_driver/Inc/stm32wlxx_ll_bus.h ****   * @brief  Disable AHB1 peripherals clock.
 316:hardware/mcu/st/stm32wlxx_hal_driver/Inc/stm32wlxx_ll_bus.h ****   * @rmtoll AHB1ENR      DMA1EN        LL_AHB1_GRP1_DisableClock\n
 317:hardware/mcu/st/stm32wlxx_hal_driver/Inc/stm32wlxx_ll_bus.h ****   *         AHB1ENR      DMA2EN        LL_AHB1_GRP1_DisableClock\n
 318:hardware/mcu/st/stm32wlxx_hal_driver/Inc/stm32wlxx_ll_bus.h ****   *         AHB1ENR      DMAMUX1EN     LL_AHB1_GRP1_DisableClock\n
 319:hardware/mcu/st/stm32wlxx_hal_driver/Inc/stm32wlxx_ll_bus.h ****   *         AHB1ENR      CRCEN         LL_AHB1_GRP1_DisableClock\n
 320:hardware/mcu/st/stm32wlxx_hal_driver/Inc/stm32wlxx_ll_bus.h ****   * @param  Periphs This parameter can be a combination of the following values:
 321:hardware/mcu/st/stm32wlxx_hal_driver/Inc/stm32wlxx_ll_bus.h ****   *         @arg @ref LL_AHB1_GRP1_PERIPH_DMA1
 322:hardware/mcu/st/stm32wlxx_hal_driver/Inc/stm32wlxx_ll_bus.h ****   *         @arg @ref LL_AHB1_GRP1_PERIPH_DMA2
 323:hardware/mcu/st/stm32wlxx_hal_driver/Inc/stm32wlxx_ll_bus.h ****   *         @arg @ref LL_AHB1_GRP1_PERIPH_DMAMUX1
 324:hardware/mcu/st/stm32wlxx_hal_driver/Inc/stm32wlxx_ll_bus.h ****   *         @arg @ref LL_AHB1_GRP1_PERIPH_CRC
ARM GAS  /var/folders/b4/k4jbz0ms4wg23jtq0w6p483m0000gn/T//cchh5TYj.s 			page 12


 325:hardware/mcu/st/stm32wlxx_hal_driver/Inc/stm32wlxx_ll_bus.h ****   * @retval None
 326:hardware/mcu/st/stm32wlxx_hal_driver/Inc/stm32wlxx_ll_bus.h ****   */
 327:hardware/mcu/st/stm32wlxx_hal_driver/Inc/stm32wlxx_ll_bus.h **** __STATIC_INLINE void LL_AHB1_GRP1_DisableClock(uint32_t Periphs)
 328:hardware/mcu/st/stm32wlxx_hal_driver/Inc/stm32wlxx_ll_bus.h **** {
 329:hardware/mcu/st/stm32wlxx_hal_driver/Inc/stm32wlxx_ll_bus.h ****   CLEAR_BIT(RCC->AHB1ENR, Periphs);
 330:hardware/mcu/st/stm32wlxx_hal_driver/Inc/stm32wlxx_ll_bus.h **** }
 331:hardware/mcu/st/stm32wlxx_hal_driver/Inc/stm32wlxx_ll_bus.h **** 
 332:hardware/mcu/st/stm32wlxx_hal_driver/Inc/stm32wlxx_ll_bus.h **** /**
 333:hardware/mcu/st/stm32wlxx_hal_driver/Inc/stm32wlxx_ll_bus.h ****   * @brief  Force AHB1 peripherals reset.
 334:hardware/mcu/st/stm32wlxx_hal_driver/Inc/stm32wlxx_ll_bus.h ****   * @rmtoll AHB1RSTR     DMA1RST       LL_AHB1_GRP1_ForceReset\n
 335:hardware/mcu/st/stm32wlxx_hal_driver/Inc/stm32wlxx_ll_bus.h ****   *         AHB1RSTR     DMA2RST       LL_AHB1_GRP1_ForceReset\n
 336:hardware/mcu/st/stm32wlxx_hal_driver/Inc/stm32wlxx_ll_bus.h ****   *         AHB1RSTR     DMAMUX1RST    LL_AHB1_GRP1_ForceReset\n
 337:hardware/mcu/st/stm32wlxx_hal_driver/Inc/stm32wlxx_ll_bus.h ****   *         AHB1RSTR     CRCRST        LL_AHB1_GRP1_ForceReset\n
 338:hardware/mcu/st/stm32wlxx_hal_driver/Inc/stm32wlxx_ll_bus.h ****   * @param  Periphs This parameter can be a combination of the following values:
 339:hardware/mcu/st/stm32wlxx_hal_driver/Inc/stm32wlxx_ll_bus.h ****   *         @arg @ref LL_AHB1_GRP1_PERIPH_ALL
 340:hardware/mcu/st/stm32wlxx_hal_driver/Inc/stm32wlxx_ll_bus.h ****   *         @arg @ref LL_AHB1_GRP1_PERIPH_DMA1
 341:hardware/mcu/st/stm32wlxx_hal_driver/Inc/stm32wlxx_ll_bus.h ****   *         @arg @ref LL_AHB1_GRP1_PERIPH_DMA2
 342:hardware/mcu/st/stm32wlxx_hal_driver/Inc/stm32wlxx_ll_bus.h ****   *         @arg @ref LL_AHB1_GRP1_PERIPH_DMAMUX1
 343:hardware/mcu/st/stm32wlxx_hal_driver/Inc/stm32wlxx_ll_bus.h ****   *         @arg @ref LL_AHB1_GRP1_PERIPH_CRC
 344:hardware/mcu/st/stm32wlxx_hal_driver/Inc/stm32wlxx_ll_bus.h ****   * @retval None
 345:hardware/mcu/st/stm32wlxx_hal_driver/Inc/stm32wlxx_ll_bus.h ****   */
 346:hardware/mcu/st/stm32wlxx_hal_driver/Inc/stm32wlxx_ll_bus.h **** __STATIC_INLINE void LL_AHB1_GRP1_ForceReset(uint32_t Periphs)
 347:hardware/mcu/st/stm32wlxx_hal_driver/Inc/stm32wlxx_ll_bus.h **** {
 348:hardware/mcu/st/stm32wlxx_hal_driver/Inc/stm32wlxx_ll_bus.h ****   SET_BIT(RCC->AHB1RSTR, Periphs);
 349:hardware/mcu/st/stm32wlxx_hal_driver/Inc/stm32wlxx_ll_bus.h **** }
 350:hardware/mcu/st/stm32wlxx_hal_driver/Inc/stm32wlxx_ll_bus.h **** 
 351:hardware/mcu/st/stm32wlxx_hal_driver/Inc/stm32wlxx_ll_bus.h **** /**
 352:hardware/mcu/st/stm32wlxx_hal_driver/Inc/stm32wlxx_ll_bus.h ****   * @brief  Release AHB1 peripherals reset.
 353:hardware/mcu/st/stm32wlxx_hal_driver/Inc/stm32wlxx_ll_bus.h ****   * @rmtoll AHB1RSTR     DMA1RST       LL_AHB1_GRP1_ReleaseReset\n
 354:hardware/mcu/st/stm32wlxx_hal_driver/Inc/stm32wlxx_ll_bus.h ****   *         AHB1RSTR     DMA2RST       LL_AHB1_GRP1_ReleaseReset\n
 355:hardware/mcu/st/stm32wlxx_hal_driver/Inc/stm32wlxx_ll_bus.h ****   *         AHB1RSTR     DMAMUX1RST     LL_AHB1_GRP1_ReleaseReset\n
 356:hardware/mcu/st/stm32wlxx_hal_driver/Inc/stm32wlxx_ll_bus.h ****   *         AHB1RSTR     CRCRST        LL_AHB1_GRP1_ReleaseReset\n
 357:hardware/mcu/st/stm32wlxx_hal_driver/Inc/stm32wlxx_ll_bus.h ****   * @param  Periphs This parameter can be a combination of the following values:
 358:hardware/mcu/st/stm32wlxx_hal_driver/Inc/stm32wlxx_ll_bus.h ****   *         @arg @ref LL_AHB1_GRP1_PERIPH_ALL
 359:hardware/mcu/st/stm32wlxx_hal_driver/Inc/stm32wlxx_ll_bus.h ****   *         @arg @ref LL_AHB1_GRP1_PERIPH_DMA1
 360:hardware/mcu/st/stm32wlxx_hal_driver/Inc/stm32wlxx_ll_bus.h ****   *         @arg @ref LL_AHB1_GRP1_PERIPH_DMA2
 361:hardware/mcu/st/stm32wlxx_hal_driver/Inc/stm32wlxx_ll_bus.h ****   *         @arg @ref LL_AHB1_GRP1_PERIPH_DMAMUX1
 362:hardware/mcu/st/stm32wlxx_hal_driver/Inc/stm32wlxx_ll_bus.h ****   *         @arg @ref LL_AHB1_GRP1_PERIPH_CRC
 363:hardware/mcu/st/stm32wlxx_hal_driver/Inc/stm32wlxx_ll_bus.h ****   * @retval None
 364:hardware/mcu/st/stm32wlxx_hal_driver/Inc/stm32wlxx_ll_bus.h ****   */
 365:hardware/mcu/st/stm32wlxx_hal_driver/Inc/stm32wlxx_ll_bus.h **** __STATIC_INLINE void LL_AHB1_GRP1_ReleaseReset(uint32_t Periphs)
 366:hardware/mcu/st/stm32wlxx_hal_driver/Inc/stm32wlxx_ll_bus.h **** {
 367:hardware/mcu/st/stm32wlxx_hal_driver/Inc/stm32wlxx_ll_bus.h ****   CLEAR_BIT(RCC->AHB1RSTR, Periphs);
 368:hardware/mcu/st/stm32wlxx_hal_driver/Inc/stm32wlxx_ll_bus.h **** }
 369:hardware/mcu/st/stm32wlxx_hal_driver/Inc/stm32wlxx_ll_bus.h **** 
 370:hardware/mcu/st/stm32wlxx_hal_driver/Inc/stm32wlxx_ll_bus.h **** /**
 371:hardware/mcu/st/stm32wlxx_hal_driver/Inc/stm32wlxx_ll_bus.h ****   * @brief  Enable AHB1 peripherals clock during Low Power (Sleep) mode.
 372:hardware/mcu/st/stm32wlxx_hal_driver/Inc/stm32wlxx_ll_bus.h ****   * @rmtoll AHB1SMENR    DMA1SMEN      LL_AHB1_GRP1_EnableClockSleep\n
 373:hardware/mcu/st/stm32wlxx_hal_driver/Inc/stm32wlxx_ll_bus.h ****   *         AHB1SMENR    DMA2SMEN      LL_AHB1_GRP1_EnableClockSleep\n
 374:hardware/mcu/st/stm32wlxx_hal_driver/Inc/stm32wlxx_ll_bus.h ****   *         AHB1SMENR    DMAMUX1SMEN   LL_AHB1_GRP1_EnableClockSleep\n
 375:hardware/mcu/st/stm32wlxx_hal_driver/Inc/stm32wlxx_ll_bus.h ****   *         AHB1SMENR    CRCSMEN       LL_AHB1_GRP1_EnableClockSleep\n
 376:hardware/mcu/st/stm32wlxx_hal_driver/Inc/stm32wlxx_ll_bus.h ****   * @param  Periphs This parameter can be a combination of the following values:
 377:hardware/mcu/st/stm32wlxx_hal_driver/Inc/stm32wlxx_ll_bus.h ****   *         @arg @ref LL_AHB1_GRP1_PERIPH_DMA1
 378:hardware/mcu/st/stm32wlxx_hal_driver/Inc/stm32wlxx_ll_bus.h ****   *         @arg @ref LL_AHB1_GRP1_PERIPH_DMA2
 379:hardware/mcu/st/stm32wlxx_hal_driver/Inc/stm32wlxx_ll_bus.h ****   *         @arg @ref LL_AHB1_GRP1_PERIPH_DMAMUX1
 380:hardware/mcu/st/stm32wlxx_hal_driver/Inc/stm32wlxx_ll_bus.h ****   *         @arg @ref LL_AHB1_GRP1_PERIPH_CRC
 381:hardware/mcu/st/stm32wlxx_hal_driver/Inc/stm32wlxx_ll_bus.h ****   * @retval None
ARM GAS  /var/folders/b4/k4jbz0ms4wg23jtq0w6p483m0000gn/T//cchh5TYj.s 			page 13


 382:hardware/mcu/st/stm32wlxx_hal_driver/Inc/stm32wlxx_ll_bus.h ****   */
 383:hardware/mcu/st/stm32wlxx_hal_driver/Inc/stm32wlxx_ll_bus.h **** __STATIC_INLINE void LL_AHB1_GRP1_EnableClockSleep(uint32_t Periphs)
 384:hardware/mcu/st/stm32wlxx_hal_driver/Inc/stm32wlxx_ll_bus.h **** {
 385:hardware/mcu/st/stm32wlxx_hal_driver/Inc/stm32wlxx_ll_bus.h ****   __IO uint32_t tmpreg;
 386:hardware/mcu/st/stm32wlxx_hal_driver/Inc/stm32wlxx_ll_bus.h ****   SET_BIT(RCC->AHB1SMENR, Periphs);
 387:hardware/mcu/st/stm32wlxx_hal_driver/Inc/stm32wlxx_ll_bus.h ****   /* Delay after an RCC peripheral clock enabling */
 388:hardware/mcu/st/stm32wlxx_hal_driver/Inc/stm32wlxx_ll_bus.h ****   tmpreg = READ_BIT(RCC->AHB1SMENR, Periphs);
 389:hardware/mcu/st/stm32wlxx_hal_driver/Inc/stm32wlxx_ll_bus.h ****   (void)tmpreg;
 390:hardware/mcu/st/stm32wlxx_hal_driver/Inc/stm32wlxx_ll_bus.h **** }
 391:hardware/mcu/st/stm32wlxx_hal_driver/Inc/stm32wlxx_ll_bus.h **** 
 392:hardware/mcu/st/stm32wlxx_hal_driver/Inc/stm32wlxx_ll_bus.h **** /**
 393:hardware/mcu/st/stm32wlxx_hal_driver/Inc/stm32wlxx_ll_bus.h ****   * @brief  Check if AHB1 peripheral clock is enabled by the clock gating during CPU1 CSleep mode
 394:hardware/mcu/st/stm32wlxx_hal_driver/Inc/stm32wlxx_ll_bus.h ****   * @rmtoll AHB1SMENR    DMA1SMEN      LL_AHB1_GRP1_IsEnabledClockSleep\n
 395:hardware/mcu/st/stm32wlxx_hal_driver/Inc/stm32wlxx_ll_bus.h ****   *         AHB1SMENR    DMA2SMEN      LL_AHB1_GRP1_IsEnabledClockSleep\n
 396:hardware/mcu/st/stm32wlxx_hal_driver/Inc/stm32wlxx_ll_bus.h ****   *         AHB1SMENR    DMAMUX1SMEN   LL_AHB1_GRP1_IsEnabledClockSleep\n
 397:hardware/mcu/st/stm32wlxx_hal_driver/Inc/stm32wlxx_ll_bus.h ****   *         AHB1SMENR    CRCSMEN       LL_AHB1_GRP1_IsEnabledClockSleep
 398:hardware/mcu/st/stm32wlxx_hal_driver/Inc/stm32wlxx_ll_bus.h ****   * @param  Periphs This parameter can be a combination of the following values:
 399:hardware/mcu/st/stm32wlxx_hal_driver/Inc/stm32wlxx_ll_bus.h ****   *         @arg @ref LL_AHB1_GRP1_PERIPH_DMA1
 400:hardware/mcu/st/stm32wlxx_hal_driver/Inc/stm32wlxx_ll_bus.h ****   *         @arg @ref LL_AHB1_GRP1_PERIPH_DMA2
 401:hardware/mcu/st/stm32wlxx_hal_driver/Inc/stm32wlxx_ll_bus.h ****   *         @arg @ref LL_AHB1_GRP1_PERIPH_DMAMUX1
 402:hardware/mcu/st/stm32wlxx_hal_driver/Inc/stm32wlxx_ll_bus.h ****   *         @arg @ref LL_AHB1_GRP1_PERIPH_CRC
 403:hardware/mcu/st/stm32wlxx_hal_driver/Inc/stm32wlxx_ll_bus.h ****   * @retval uint32_t
 404:hardware/mcu/st/stm32wlxx_hal_driver/Inc/stm32wlxx_ll_bus.h ****   */
 405:hardware/mcu/st/stm32wlxx_hal_driver/Inc/stm32wlxx_ll_bus.h **** __STATIC_INLINE uint32_t LL_AHB1_GRP1_IsEnabledClockSleep(uint32_t Periphs)
 406:hardware/mcu/st/stm32wlxx_hal_driver/Inc/stm32wlxx_ll_bus.h **** {
 407:hardware/mcu/st/stm32wlxx_hal_driver/Inc/stm32wlxx_ll_bus.h ****   return ((READ_BIT(RCC->AHB1SMENR, Periphs) == (Periphs)) ? 1UL : 0UL);
 408:hardware/mcu/st/stm32wlxx_hal_driver/Inc/stm32wlxx_ll_bus.h **** }
 409:hardware/mcu/st/stm32wlxx_hal_driver/Inc/stm32wlxx_ll_bus.h **** 
 410:hardware/mcu/st/stm32wlxx_hal_driver/Inc/stm32wlxx_ll_bus.h **** /**
 411:hardware/mcu/st/stm32wlxx_hal_driver/Inc/stm32wlxx_ll_bus.h ****   * @brief  Disable AHB1 peripherals clock during Low Power (Sleep) mode.
 412:hardware/mcu/st/stm32wlxx_hal_driver/Inc/stm32wlxx_ll_bus.h ****   * @rmtoll AHB1SMENR    DMA1SMEN      LL_AHB1_GRP1_DisableClockSleep\n
 413:hardware/mcu/st/stm32wlxx_hal_driver/Inc/stm32wlxx_ll_bus.h ****   *         AHB1SMENR    DMA2SMEN      LL_AHB1_GRP1_DisableClockSleep\n
 414:hardware/mcu/st/stm32wlxx_hal_driver/Inc/stm32wlxx_ll_bus.h ****   *         AHB1SMENR    DMAMUX1SMEN   LL_AHB1_GRP1_DisableClockSleep\n
 415:hardware/mcu/st/stm32wlxx_hal_driver/Inc/stm32wlxx_ll_bus.h ****   *         AHB1SMENR    CRCSMEN       LL_AHB1_GRP1_DisableClockSleep\n
 416:hardware/mcu/st/stm32wlxx_hal_driver/Inc/stm32wlxx_ll_bus.h ****   * @param  Periphs This parameter can be a combination of the following values:
 417:hardware/mcu/st/stm32wlxx_hal_driver/Inc/stm32wlxx_ll_bus.h ****   *         @arg @ref LL_AHB1_GRP1_PERIPH_DMA1
 418:hardware/mcu/st/stm32wlxx_hal_driver/Inc/stm32wlxx_ll_bus.h ****   *         @arg @ref LL_AHB1_GRP1_PERIPH_DMA2
 419:hardware/mcu/st/stm32wlxx_hal_driver/Inc/stm32wlxx_ll_bus.h ****   *         @arg @ref LL_AHB1_GRP1_PERIPH_DMAMUX1
 420:hardware/mcu/st/stm32wlxx_hal_driver/Inc/stm32wlxx_ll_bus.h ****   *         @arg @ref LL_AHB1_GRP1_PERIPH_CRC
 421:hardware/mcu/st/stm32wlxx_hal_driver/Inc/stm32wlxx_ll_bus.h ****   * @retval None
 422:hardware/mcu/st/stm32wlxx_hal_driver/Inc/stm32wlxx_ll_bus.h ****   */
 423:hardware/mcu/st/stm32wlxx_hal_driver/Inc/stm32wlxx_ll_bus.h **** __STATIC_INLINE void LL_AHB1_GRP1_DisableClockSleep(uint32_t Periphs)
 424:hardware/mcu/st/stm32wlxx_hal_driver/Inc/stm32wlxx_ll_bus.h **** {
 425:hardware/mcu/st/stm32wlxx_hal_driver/Inc/stm32wlxx_ll_bus.h ****   CLEAR_BIT(RCC->AHB1SMENR, Periphs);
 426:hardware/mcu/st/stm32wlxx_hal_driver/Inc/stm32wlxx_ll_bus.h **** }
 427:hardware/mcu/st/stm32wlxx_hal_driver/Inc/stm32wlxx_ll_bus.h **** 
 428:hardware/mcu/st/stm32wlxx_hal_driver/Inc/stm32wlxx_ll_bus.h **** /**
 429:hardware/mcu/st/stm32wlxx_hal_driver/Inc/stm32wlxx_ll_bus.h ****   * @}
 430:hardware/mcu/st/stm32wlxx_hal_driver/Inc/stm32wlxx_ll_bus.h ****   */
 431:hardware/mcu/st/stm32wlxx_hal_driver/Inc/stm32wlxx_ll_bus.h **** 
 432:hardware/mcu/st/stm32wlxx_hal_driver/Inc/stm32wlxx_ll_bus.h **** /** @defgroup BUS_LL_EF_AHB2 AHB2
 433:hardware/mcu/st/stm32wlxx_hal_driver/Inc/stm32wlxx_ll_bus.h ****   * @{
 434:hardware/mcu/st/stm32wlxx_hal_driver/Inc/stm32wlxx_ll_bus.h ****   */
 435:hardware/mcu/st/stm32wlxx_hal_driver/Inc/stm32wlxx_ll_bus.h **** 
 436:hardware/mcu/st/stm32wlxx_hal_driver/Inc/stm32wlxx_ll_bus.h **** /**
 437:hardware/mcu/st/stm32wlxx_hal_driver/Inc/stm32wlxx_ll_bus.h ****   * @brief  Enable AHB2 peripherals clock.
 438:hardware/mcu/st/stm32wlxx_hal_driver/Inc/stm32wlxx_ll_bus.h ****   * @rmtoll AHB2ENR      GPIOAEN       LL_AHB2_GRP1_EnableClock\n
ARM GAS  /var/folders/b4/k4jbz0ms4wg23jtq0w6p483m0000gn/T//cchh5TYj.s 			page 14


 439:hardware/mcu/st/stm32wlxx_hal_driver/Inc/stm32wlxx_ll_bus.h ****   *         AHB2ENR      GPIOBEN       LL_AHB2_GRP1_EnableClock\n
 440:hardware/mcu/st/stm32wlxx_hal_driver/Inc/stm32wlxx_ll_bus.h ****   *         AHB2ENR      GPIOCEN       LL_AHB2_GRP1_EnableClock\n
 441:hardware/mcu/st/stm32wlxx_hal_driver/Inc/stm32wlxx_ll_bus.h ****   *         AHB2ENR      GPIOHEN       LL_AHB2_GRP1_EnableClock\n
 442:hardware/mcu/st/stm32wlxx_hal_driver/Inc/stm32wlxx_ll_bus.h ****   * @param  Periphs This parameter can be a combination of the following values:
 443:hardware/mcu/st/stm32wlxx_hal_driver/Inc/stm32wlxx_ll_bus.h ****   *         @arg @ref LL_AHB2_GRP1_PERIPH_GPIOA
 444:hardware/mcu/st/stm32wlxx_hal_driver/Inc/stm32wlxx_ll_bus.h ****   *         @arg @ref LL_AHB2_GRP1_PERIPH_GPIOB
 445:hardware/mcu/st/stm32wlxx_hal_driver/Inc/stm32wlxx_ll_bus.h ****   *         @arg @ref LL_AHB2_GRP1_PERIPH_GPIOC
 446:hardware/mcu/st/stm32wlxx_hal_driver/Inc/stm32wlxx_ll_bus.h ****   *         @arg @ref LL_AHB2_GRP1_PERIPH_GPIOH
 447:hardware/mcu/st/stm32wlxx_hal_driver/Inc/stm32wlxx_ll_bus.h ****   * @retval None
 448:hardware/mcu/st/stm32wlxx_hal_driver/Inc/stm32wlxx_ll_bus.h ****   */
 449:hardware/mcu/st/stm32wlxx_hal_driver/Inc/stm32wlxx_ll_bus.h **** __STATIC_INLINE void LL_AHB2_GRP1_EnableClock(uint32_t Periphs)
 450:hardware/mcu/st/stm32wlxx_hal_driver/Inc/stm32wlxx_ll_bus.h **** {
 451:hardware/mcu/st/stm32wlxx_hal_driver/Inc/stm32wlxx_ll_bus.h ****   __IO uint32_t tmpreg;
 452:hardware/mcu/st/stm32wlxx_hal_driver/Inc/stm32wlxx_ll_bus.h ****   SET_BIT(RCC->AHB2ENR, Periphs);
 453:hardware/mcu/st/stm32wlxx_hal_driver/Inc/stm32wlxx_ll_bus.h ****   /* Delay after an RCC peripheral clock enabling */
 454:hardware/mcu/st/stm32wlxx_hal_driver/Inc/stm32wlxx_ll_bus.h ****   tmpreg = READ_BIT(RCC->AHB2ENR, Periphs);
 455:hardware/mcu/st/stm32wlxx_hal_driver/Inc/stm32wlxx_ll_bus.h ****   (void)tmpreg;
 456:hardware/mcu/st/stm32wlxx_hal_driver/Inc/stm32wlxx_ll_bus.h **** }
 457:hardware/mcu/st/stm32wlxx_hal_driver/Inc/stm32wlxx_ll_bus.h **** 
 458:hardware/mcu/st/stm32wlxx_hal_driver/Inc/stm32wlxx_ll_bus.h **** /**
 459:hardware/mcu/st/stm32wlxx_hal_driver/Inc/stm32wlxx_ll_bus.h ****   * @brief  Check if AHB2 peripheral clock is enabled or not
 460:hardware/mcu/st/stm32wlxx_hal_driver/Inc/stm32wlxx_ll_bus.h ****   * @rmtoll AHB2ENR      GPIOAEN       LL_AHB2_GRP1_IsEnabledClock\n
 461:hardware/mcu/st/stm32wlxx_hal_driver/Inc/stm32wlxx_ll_bus.h ****   *         AHB2ENR      GPIOBEN       LL_AHB2_GRP1_IsEnabledClock\n
 462:hardware/mcu/st/stm32wlxx_hal_driver/Inc/stm32wlxx_ll_bus.h ****   *         AHB2ENR      GPIOCEN       LL_AHB2_GRP1_IsEnabledClock\n
 463:hardware/mcu/st/stm32wlxx_hal_driver/Inc/stm32wlxx_ll_bus.h ****   *         AHB2ENR      GPIOHEN       LL_AHB2_GRP1_IsEnabledClock\n
 464:hardware/mcu/st/stm32wlxx_hal_driver/Inc/stm32wlxx_ll_bus.h ****   * @param  Periphs This parameter can be a combination of the following values:
 465:hardware/mcu/st/stm32wlxx_hal_driver/Inc/stm32wlxx_ll_bus.h ****   *         @arg @ref LL_AHB2_GRP1_PERIPH_GPIOA
 466:hardware/mcu/st/stm32wlxx_hal_driver/Inc/stm32wlxx_ll_bus.h ****   *         @arg @ref LL_AHB2_GRP1_PERIPH_GPIOB
 467:hardware/mcu/st/stm32wlxx_hal_driver/Inc/stm32wlxx_ll_bus.h ****   *         @arg @ref LL_AHB2_GRP1_PERIPH_GPIOC
 468:hardware/mcu/st/stm32wlxx_hal_driver/Inc/stm32wlxx_ll_bus.h ****   *         @arg @ref LL_AHB2_GRP1_PERIPH_GPIOH
 469:hardware/mcu/st/stm32wlxx_hal_driver/Inc/stm32wlxx_ll_bus.h ****   * @retval uint32_t
 470:hardware/mcu/st/stm32wlxx_hal_driver/Inc/stm32wlxx_ll_bus.h ****   */
 471:hardware/mcu/st/stm32wlxx_hal_driver/Inc/stm32wlxx_ll_bus.h **** __STATIC_INLINE uint32_t LL_AHB2_GRP1_IsEnabledClock(uint32_t Periphs)
 472:hardware/mcu/st/stm32wlxx_hal_driver/Inc/stm32wlxx_ll_bus.h **** {
 473:hardware/mcu/st/stm32wlxx_hal_driver/Inc/stm32wlxx_ll_bus.h ****   return ((READ_BIT(RCC->AHB2ENR, Periphs) == (Periphs)) ? 1UL : 0UL);
 474:hardware/mcu/st/stm32wlxx_hal_driver/Inc/stm32wlxx_ll_bus.h **** }
 475:hardware/mcu/st/stm32wlxx_hal_driver/Inc/stm32wlxx_ll_bus.h **** 
 476:hardware/mcu/st/stm32wlxx_hal_driver/Inc/stm32wlxx_ll_bus.h **** /**
 477:hardware/mcu/st/stm32wlxx_hal_driver/Inc/stm32wlxx_ll_bus.h ****   * @brief  Disable AHB2 peripherals clock.
 478:hardware/mcu/st/stm32wlxx_hal_driver/Inc/stm32wlxx_ll_bus.h ****   * @rmtoll AHB2ENR      GPIOAEN       LL_AHB2_GRP1_DisableClock\n
 479:hardware/mcu/st/stm32wlxx_hal_driver/Inc/stm32wlxx_ll_bus.h ****   *         AHB2ENR      GPIOBEN       LL_AHB2_GRP1_DisableClock\n
 480:hardware/mcu/st/stm32wlxx_hal_driver/Inc/stm32wlxx_ll_bus.h ****   *         AHB2ENR      GPIOCEN       LL_AHB2_GRP1_DisableClock\n
 481:hardware/mcu/st/stm32wlxx_hal_driver/Inc/stm32wlxx_ll_bus.h ****   *         AHB2ENR      GPIOHEN       LL_AHB2_GRP1_DisableClock\n
 482:hardware/mcu/st/stm32wlxx_hal_driver/Inc/stm32wlxx_ll_bus.h ****   * @param  Periphs This parameter can be a combination of the following values:
 483:hardware/mcu/st/stm32wlxx_hal_driver/Inc/stm32wlxx_ll_bus.h ****   *         @arg @ref LL_AHB2_GRP1_PERIPH_GPIOA
 484:hardware/mcu/st/stm32wlxx_hal_driver/Inc/stm32wlxx_ll_bus.h ****   *         @arg @ref LL_AHB2_GRP1_PERIPH_GPIOB
 485:hardware/mcu/st/stm32wlxx_hal_driver/Inc/stm32wlxx_ll_bus.h ****   *         @arg @ref LL_AHB2_GRP1_PERIPH_GPIOC
 486:hardware/mcu/st/stm32wlxx_hal_driver/Inc/stm32wlxx_ll_bus.h ****   *         @arg @ref LL_AHB2_GRP1_PERIPH_GPIOH
 487:hardware/mcu/st/stm32wlxx_hal_driver/Inc/stm32wlxx_ll_bus.h ****   * @retval None
 488:hardware/mcu/st/stm32wlxx_hal_driver/Inc/stm32wlxx_ll_bus.h ****   */
 489:hardware/mcu/st/stm32wlxx_hal_driver/Inc/stm32wlxx_ll_bus.h **** __STATIC_INLINE void LL_AHB2_GRP1_DisableClock(uint32_t Periphs)
 490:hardware/mcu/st/stm32wlxx_hal_driver/Inc/stm32wlxx_ll_bus.h **** {
 491:hardware/mcu/st/stm32wlxx_hal_driver/Inc/stm32wlxx_ll_bus.h ****   CLEAR_BIT(RCC->AHB2ENR, Periphs);
 492:hardware/mcu/st/stm32wlxx_hal_driver/Inc/stm32wlxx_ll_bus.h **** }
 493:hardware/mcu/st/stm32wlxx_hal_driver/Inc/stm32wlxx_ll_bus.h **** 
 494:hardware/mcu/st/stm32wlxx_hal_driver/Inc/stm32wlxx_ll_bus.h **** /**
 495:hardware/mcu/st/stm32wlxx_hal_driver/Inc/stm32wlxx_ll_bus.h ****   * @brief  Force AHB2 peripherals reset.
ARM GAS  /var/folders/b4/k4jbz0ms4wg23jtq0w6p483m0000gn/T//cchh5TYj.s 			page 15


 496:hardware/mcu/st/stm32wlxx_hal_driver/Inc/stm32wlxx_ll_bus.h ****   * @rmtoll AHB2RSTR     GPIOARST      LL_AHB2_GRP1_ForceReset\n
 497:hardware/mcu/st/stm32wlxx_hal_driver/Inc/stm32wlxx_ll_bus.h ****   *         AHB2RSTR     GPIOBRST      LL_AHB2_GRP1_ForceReset\n
 498:hardware/mcu/st/stm32wlxx_hal_driver/Inc/stm32wlxx_ll_bus.h ****   *         AHB2RSTR     GPIOCRST      LL_AHB2_GRP1_ForceReset\n
 499:hardware/mcu/st/stm32wlxx_hal_driver/Inc/stm32wlxx_ll_bus.h ****   *         AHB2RSTR     GPIOHRST      LL_AHB2_GRP1_ForceReset
 500:hardware/mcu/st/stm32wlxx_hal_driver/Inc/stm32wlxx_ll_bus.h ****   * @param  Periphs This parameter can be a combination of the following values:
 501:hardware/mcu/st/stm32wlxx_hal_driver/Inc/stm32wlxx_ll_bus.h ****   *         @arg @ref LL_AHB2_GRP1_PERIPH_ALL
 502:hardware/mcu/st/stm32wlxx_hal_driver/Inc/stm32wlxx_ll_bus.h ****   *         @arg @ref LL_AHB2_GRP1_PERIPH_GPIOA
 503:hardware/mcu/st/stm32wlxx_hal_driver/Inc/stm32wlxx_ll_bus.h ****   *         @arg @ref LL_AHB2_GRP1_PERIPH_GPIOB
 504:hardware/mcu/st/stm32wlxx_hal_driver/Inc/stm32wlxx_ll_bus.h ****   *         @arg @ref LL_AHB2_GRP1_PERIPH_GPIOC
 505:hardware/mcu/st/stm32wlxx_hal_driver/Inc/stm32wlxx_ll_bus.h ****   *         @arg @ref LL_AHB2_GRP1_PERIPH_GPIOH
 506:hardware/mcu/st/stm32wlxx_hal_driver/Inc/stm32wlxx_ll_bus.h ****   * @retval None
 507:hardware/mcu/st/stm32wlxx_hal_driver/Inc/stm32wlxx_ll_bus.h ****   */
 508:hardware/mcu/st/stm32wlxx_hal_driver/Inc/stm32wlxx_ll_bus.h **** __STATIC_INLINE void LL_AHB2_GRP1_ForceReset(uint32_t Periphs)
 509:hardware/mcu/st/stm32wlxx_hal_driver/Inc/stm32wlxx_ll_bus.h **** {
 510:hardware/mcu/st/stm32wlxx_hal_driver/Inc/stm32wlxx_ll_bus.h ****   SET_BIT(RCC->AHB2RSTR, Periphs);
 511:hardware/mcu/st/stm32wlxx_hal_driver/Inc/stm32wlxx_ll_bus.h **** }
 512:hardware/mcu/st/stm32wlxx_hal_driver/Inc/stm32wlxx_ll_bus.h **** 
 513:hardware/mcu/st/stm32wlxx_hal_driver/Inc/stm32wlxx_ll_bus.h **** /**
 514:hardware/mcu/st/stm32wlxx_hal_driver/Inc/stm32wlxx_ll_bus.h ****   * @brief  Release AHB2 peripherals reset.
 515:hardware/mcu/st/stm32wlxx_hal_driver/Inc/stm32wlxx_ll_bus.h ****   * @rmtoll AHB2RSTR     GPIOARST      LL_AHB2_GRP1_ReleaseReset\n
 516:hardware/mcu/st/stm32wlxx_hal_driver/Inc/stm32wlxx_ll_bus.h ****   *         AHB2RSTR     GPIOBRST      LL_AHB2_GRP1_ReleaseReset\n
 517:hardware/mcu/st/stm32wlxx_hal_driver/Inc/stm32wlxx_ll_bus.h ****   *         AHB2RSTR     GPIOCRST      LL_AHB2_GRP1_ReleaseReset\n
 518:hardware/mcu/st/stm32wlxx_hal_driver/Inc/stm32wlxx_ll_bus.h ****   *         AHB2RSTR     GPIOHRST      LL_AHB2_GRP1_ReleaseReset\n
 519:hardware/mcu/st/stm32wlxx_hal_driver/Inc/stm32wlxx_ll_bus.h ****   * @param  Periphs This parameter can be a combination of the following values:
 520:hardware/mcu/st/stm32wlxx_hal_driver/Inc/stm32wlxx_ll_bus.h ****   *         @arg @ref LL_AHB2_GRP1_PERIPH_ALL
 521:hardware/mcu/st/stm32wlxx_hal_driver/Inc/stm32wlxx_ll_bus.h ****   *         @arg @ref LL_AHB2_GRP1_PERIPH_GPIOA
 522:hardware/mcu/st/stm32wlxx_hal_driver/Inc/stm32wlxx_ll_bus.h ****   *         @arg @ref LL_AHB2_GRP1_PERIPH_GPIOB
 523:hardware/mcu/st/stm32wlxx_hal_driver/Inc/stm32wlxx_ll_bus.h ****   *         @arg @ref LL_AHB2_GRP1_PERIPH_GPIOC
 524:hardware/mcu/st/stm32wlxx_hal_driver/Inc/stm32wlxx_ll_bus.h ****   *         @arg @ref LL_AHB2_GRP1_PERIPH_GPIOH
 525:hardware/mcu/st/stm32wlxx_hal_driver/Inc/stm32wlxx_ll_bus.h ****   * @retval None
 526:hardware/mcu/st/stm32wlxx_hal_driver/Inc/stm32wlxx_ll_bus.h ****   */
 527:hardware/mcu/st/stm32wlxx_hal_driver/Inc/stm32wlxx_ll_bus.h **** __STATIC_INLINE void LL_AHB2_GRP1_ReleaseReset(uint32_t Periphs)
 528:hardware/mcu/st/stm32wlxx_hal_driver/Inc/stm32wlxx_ll_bus.h **** {
 529:hardware/mcu/st/stm32wlxx_hal_driver/Inc/stm32wlxx_ll_bus.h ****   CLEAR_BIT(RCC->AHB2RSTR, Periphs);
 530:hardware/mcu/st/stm32wlxx_hal_driver/Inc/stm32wlxx_ll_bus.h **** }
 531:hardware/mcu/st/stm32wlxx_hal_driver/Inc/stm32wlxx_ll_bus.h **** 
 532:hardware/mcu/st/stm32wlxx_hal_driver/Inc/stm32wlxx_ll_bus.h **** /**
 533:hardware/mcu/st/stm32wlxx_hal_driver/Inc/stm32wlxx_ll_bus.h ****   * @brief  Enable AHB2 peripherals clock during Low Power (Sleep) mode.
 534:hardware/mcu/st/stm32wlxx_hal_driver/Inc/stm32wlxx_ll_bus.h ****   * @rmtoll AHB2SMENR    GPIOASMEN     LL_AHB2_GRP1_EnableClockSleep\n
 535:hardware/mcu/st/stm32wlxx_hal_driver/Inc/stm32wlxx_ll_bus.h ****   *         AHB2SMENR    GPIOBSMEN     LL_AHB2_GRP1_EnableClockSleep\n
 536:hardware/mcu/st/stm32wlxx_hal_driver/Inc/stm32wlxx_ll_bus.h ****   *         AHB2SMENR    GPIOCSMEN     LL_AHB2_GRP1_EnableClockSleep\n
 537:hardware/mcu/st/stm32wlxx_hal_driver/Inc/stm32wlxx_ll_bus.h ****   *         AHB2SMENR    GPIOHSMEN     LL_AHB2_GRP1_EnableClockSleep\n
 538:hardware/mcu/st/stm32wlxx_hal_driver/Inc/stm32wlxx_ll_bus.h ****   * @param  Periphs This parameter can be a combination of the following values:
 539:hardware/mcu/st/stm32wlxx_hal_driver/Inc/stm32wlxx_ll_bus.h ****   *         @arg @ref LL_AHB2_GRP1_PERIPH_GPIOA
 540:hardware/mcu/st/stm32wlxx_hal_driver/Inc/stm32wlxx_ll_bus.h ****   *         @arg @ref LL_AHB2_GRP1_PERIPH_GPIOB
 541:hardware/mcu/st/stm32wlxx_hal_driver/Inc/stm32wlxx_ll_bus.h ****   *         @arg @ref LL_AHB2_GRP1_PERIPH_GPIOC
 542:hardware/mcu/st/stm32wlxx_hal_driver/Inc/stm32wlxx_ll_bus.h ****   *         @arg @ref LL_AHB2_GRP1_PERIPH_GPIOH
 543:hardware/mcu/st/stm32wlxx_hal_driver/Inc/stm32wlxx_ll_bus.h ****   * @retval None
 544:hardware/mcu/st/stm32wlxx_hal_driver/Inc/stm32wlxx_ll_bus.h ****   */
 545:hardware/mcu/st/stm32wlxx_hal_driver/Inc/stm32wlxx_ll_bus.h **** __STATIC_INLINE void LL_AHB2_GRP1_EnableClockSleep(uint32_t Periphs)
 546:hardware/mcu/st/stm32wlxx_hal_driver/Inc/stm32wlxx_ll_bus.h **** {
 547:hardware/mcu/st/stm32wlxx_hal_driver/Inc/stm32wlxx_ll_bus.h ****   __IO uint32_t tmpreg;
 548:hardware/mcu/st/stm32wlxx_hal_driver/Inc/stm32wlxx_ll_bus.h ****   SET_BIT(RCC->AHB2SMENR, Periphs);
 549:hardware/mcu/st/stm32wlxx_hal_driver/Inc/stm32wlxx_ll_bus.h ****   /* Delay after an RCC peripheral clock enabling */
 550:hardware/mcu/st/stm32wlxx_hal_driver/Inc/stm32wlxx_ll_bus.h ****   tmpreg = READ_BIT(RCC->AHB2SMENR, Periphs);
 551:hardware/mcu/st/stm32wlxx_hal_driver/Inc/stm32wlxx_ll_bus.h ****   (void)tmpreg;
 552:hardware/mcu/st/stm32wlxx_hal_driver/Inc/stm32wlxx_ll_bus.h **** }
ARM GAS  /var/folders/b4/k4jbz0ms4wg23jtq0w6p483m0000gn/T//cchh5TYj.s 			page 16


 553:hardware/mcu/st/stm32wlxx_hal_driver/Inc/stm32wlxx_ll_bus.h **** 
 554:hardware/mcu/st/stm32wlxx_hal_driver/Inc/stm32wlxx_ll_bus.h **** /**
 555:hardware/mcu/st/stm32wlxx_hal_driver/Inc/stm32wlxx_ll_bus.h ****   * @brief  Check if AHB2 peripheral clock is enabled by the clock gating during CPU1 CSleep mode
 556:hardware/mcu/st/stm32wlxx_hal_driver/Inc/stm32wlxx_ll_bus.h ****   * @rmtoll AHB2SMENR    GPIOASMEN     LL_AHB2_GRP1_IsEnabledClockSleep\n
 557:hardware/mcu/st/stm32wlxx_hal_driver/Inc/stm32wlxx_ll_bus.h ****   *         AHB2SMENR    GPIOBSMEN     LL_AHB2_GRP1_IsEnabledClockSleep\n
 558:hardware/mcu/st/stm32wlxx_hal_driver/Inc/stm32wlxx_ll_bus.h ****   *         AHB2SMENR    GPIOCSMEN     LL_AHB2_GRP1_IsEnabledClockSleep\n
 559:hardware/mcu/st/stm32wlxx_hal_driver/Inc/stm32wlxx_ll_bus.h ****   *         AHB2SMENR    GPIOHSMEN     LL_AHB2_GRP1_IsEnabledClockSleep
 560:hardware/mcu/st/stm32wlxx_hal_driver/Inc/stm32wlxx_ll_bus.h ****   * @param  Periphs This parameter can be a combination of the following values:
 561:hardware/mcu/st/stm32wlxx_hal_driver/Inc/stm32wlxx_ll_bus.h ****   *         @arg @ref LL_AHB2_GRP1_PERIPH_GPIOA
 562:hardware/mcu/st/stm32wlxx_hal_driver/Inc/stm32wlxx_ll_bus.h ****   *         @arg @ref LL_AHB2_GRP1_PERIPH_GPIOB
 563:hardware/mcu/st/stm32wlxx_hal_driver/Inc/stm32wlxx_ll_bus.h ****   *         @arg @ref LL_AHB2_GRP1_PERIPH_GPIOC
 564:hardware/mcu/st/stm32wlxx_hal_driver/Inc/stm32wlxx_ll_bus.h ****   *         @arg @ref LL_AHB2_GRP1_PERIPH_GPIOH
 565:hardware/mcu/st/stm32wlxx_hal_driver/Inc/stm32wlxx_ll_bus.h ****   * @retval uint32_t
 566:hardware/mcu/st/stm32wlxx_hal_driver/Inc/stm32wlxx_ll_bus.h ****   */
 567:hardware/mcu/st/stm32wlxx_hal_driver/Inc/stm32wlxx_ll_bus.h **** __STATIC_INLINE uint32_t LL_AHB2_GRP1_IsEnabledClockSleep(uint32_t Periphs)
 568:hardware/mcu/st/stm32wlxx_hal_driver/Inc/stm32wlxx_ll_bus.h **** {
 569:hardware/mcu/st/stm32wlxx_hal_driver/Inc/stm32wlxx_ll_bus.h ****   return ((READ_BIT(RCC->AHB2SMENR, Periphs) == (Periphs)) ? 1UL : 0UL);
 570:hardware/mcu/st/stm32wlxx_hal_driver/Inc/stm32wlxx_ll_bus.h **** }
 571:hardware/mcu/st/stm32wlxx_hal_driver/Inc/stm32wlxx_ll_bus.h **** 
 572:hardware/mcu/st/stm32wlxx_hal_driver/Inc/stm32wlxx_ll_bus.h **** /**
 573:hardware/mcu/st/stm32wlxx_hal_driver/Inc/stm32wlxx_ll_bus.h ****   * @brief  Disable AHB2 peripherals clock during Low Power (Sleep) mode.
 574:hardware/mcu/st/stm32wlxx_hal_driver/Inc/stm32wlxx_ll_bus.h ****   * @rmtoll AHB2SMENR    GPIOASMEN     LL_AHB2_GRP1_DisableClockSleep\n
 575:hardware/mcu/st/stm32wlxx_hal_driver/Inc/stm32wlxx_ll_bus.h ****   *         AHB2SMENR    GPIOBSMEN     LL_AHB2_GRP1_DisableClockSleep\n
 576:hardware/mcu/st/stm32wlxx_hal_driver/Inc/stm32wlxx_ll_bus.h ****   *         AHB2SMENR    GPIOCSMEN     LL_AHB2_GRP1_DisableClockSleep\n
 577:hardware/mcu/st/stm32wlxx_hal_driver/Inc/stm32wlxx_ll_bus.h ****   *         AHB2SMENR    GPIOHSMEN     LL_AHB2_GRP1_DisableClockSleep\n
 578:hardware/mcu/st/stm32wlxx_hal_driver/Inc/stm32wlxx_ll_bus.h ****   * @param  Periphs This parameter can be a combination of the following values:
 579:hardware/mcu/st/stm32wlxx_hal_driver/Inc/stm32wlxx_ll_bus.h ****   *         @arg @ref LL_AHB2_GRP1_PERIPH_GPIOA
 580:hardware/mcu/st/stm32wlxx_hal_driver/Inc/stm32wlxx_ll_bus.h ****   *         @arg @ref LL_AHB2_GRP1_PERIPH_GPIOB
 581:hardware/mcu/st/stm32wlxx_hal_driver/Inc/stm32wlxx_ll_bus.h ****   *         @arg @ref LL_AHB2_GRP1_PERIPH_GPIOC
 582:hardware/mcu/st/stm32wlxx_hal_driver/Inc/stm32wlxx_ll_bus.h ****   *         @arg @ref LL_AHB2_GRP1_PERIPH_GPIOH
 583:hardware/mcu/st/stm32wlxx_hal_driver/Inc/stm32wlxx_ll_bus.h ****   * @retval None
 584:hardware/mcu/st/stm32wlxx_hal_driver/Inc/stm32wlxx_ll_bus.h ****   */
 585:hardware/mcu/st/stm32wlxx_hal_driver/Inc/stm32wlxx_ll_bus.h **** __STATIC_INLINE void LL_AHB2_GRP1_DisableClockSleep(uint32_t Periphs)
 586:hardware/mcu/st/stm32wlxx_hal_driver/Inc/stm32wlxx_ll_bus.h **** {
 587:hardware/mcu/st/stm32wlxx_hal_driver/Inc/stm32wlxx_ll_bus.h ****   CLEAR_BIT(RCC->AHB2SMENR, Periphs);
 588:hardware/mcu/st/stm32wlxx_hal_driver/Inc/stm32wlxx_ll_bus.h **** }
 589:hardware/mcu/st/stm32wlxx_hal_driver/Inc/stm32wlxx_ll_bus.h **** 
 590:hardware/mcu/st/stm32wlxx_hal_driver/Inc/stm32wlxx_ll_bus.h **** /**
 591:hardware/mcu/st/stm32wlxx_hal_driver/Inc/stm32wlxx_ll_bus.h ****   * @}
 592:hardware/mcu/st/stm32wlxx_hal_driver/Inc/stm32wlxx_ll_bus.h ****   */
 593:hardware/mcu/st/stm32wlxx_hal_driver/Inc/stm32wlxx_ll_bus.h **** 
 594:hardware/mcu/st/stm32wlxx_hal_driver/Inc/stm32wlxx_ll_bus.h **** /** @defgroup BUS_LL_EF_AHB3 AHB3
 595:hardware/mcu/st/stm32wlxx_hal_driver/Inc/stm32wlxx_ll_bus.h ****   * @{
 596:hardware/mcu/st/stm32wlxx_hal_driver/Inc/stm32wlxx_ll_bus.h ****   */
 597:hardware/mcu/st/stm32wlxx_hal_driver/Inc/stm32wlxx_ll_bus.h **** 
 598:hardware/mcu/st/stm32wlxx_hal_driver/Inc/stm32wlxx_ll_bus.h **** #if defined(DUAL_CORE) /* Switch added for Documentation generation purpose to exclude IPCC in else
 599:hardware/mcu/st/stm32wlxx_hal_driver/Inc/stm32wlxx_ll_bus.h **** /**
 600:hardware/mcu/st/stm32wlxx_hal_driver/Inc/stm32wlxx_ll_bus.h ****   * @brief  Enable AHB3 peripherals clock.
 601:hardware/mcu/st/stm32wlxx_hal_driver/Inc/stm32wlxx_ll_bus.h ****   * @rmtoll AHB3ENR      PKAEN         LL_AHB3_GRP1_EnableClock\n
 602:hardware/mcu/st/stm32wlxx_hal_driver/Inc/stm32wlxx_ll_bus.h ****   *         AHB3ENR      AESEN         LL_AHB3_GRP1_EnableClock\n
 603:hardware/mcu/st/stm32wlxx_hal_driver/Inc/stm32wlxx_ll_bus.h ****   *         AHB3ENR      RNGEN         LL_AHB3_GRP1_EnableClock\n
 604:hardware/mcu/st/stm32wlxx_hal_driver/Inc/stm32wlxx_ll_bus.h ****   *         AHB3ENR      HSEMEN        LL_AHB3_GRP1_EnableClock\n
 605:hardware/mcu/st/stm32wlxx_hal_driver/Inc/stm32wlxx_ll_bus.h ****   *         AHB3ENR      IPCCEN        LL_AHB3_GRP1_EnableClock\n
 606:hardware/mcu/st/stm32wlxx_hal_driver/Inc/stm32wlxx_ll_bus.h ****   *         AHB3ENR      FLASHEN       LL_AHB3_GRP1_EnableClock
 607:hardware/mcu/st/stm32wlxx_hal_driver/Inc/stm32wlxx_ll_bus.h ****   * @param  Periphs This parameter can be a combination of the following values:
 608:hardware/mcu/st/stm32wlxx_hal_driver/Inc/stm32wlxx_ll_bus.h ****   *         @arg @ref LL_AHB3_GRP1_PERIPH_PKA
 609:hardware/mcu/st/stm32wlxx_hal_driver/Inc/stm32wlxx_ll_bus.h ****   *         @arg @ref LL_AHB3_GRP1_PERIPH_AES
ARM GAS  /var/folders/b4/k4jbz0ms4wg23jtq0w6p483m0000gn/T//cchh5TYj.s 			page 17


 610:hardware/mcu/st/stm32wlxx_hal_driver/Inc/stm32wlxx_ll_bus.h ****   *         @arg @ref LL_AHB3_GRP1_PERIPH_RNG
 611:hardware/mcu/st/stm32wlxx_hal_driver/Inc/stm32wlxx_ll_bus.h ****   *         @arg @ref LL_AHB3_GRP1_PERIPH_HSEM
 612:hardware/mcu/st/stm32wlxx_hal_driver/Inc/stm32wlxx_ll_bus.h ****   *         @arg @ref LL_AHB3_GRP1_PERIPH_IPCC
 613:hardware/mcu/st/stm32wlxx_hal_driver/Inc/stm32wlxx_ll_bus.h ****   *         @arg @ref LL_AHB3_GRP1_PERIPH_FLASH
 614:hardware/mcu/st/stm32wlxx_hal_driver/Inc/stm32wlxx_ll_bus.h ****   * @retval None
 615:hardware/mcu/st/stm32wlxx_hal_driver/Inc/stm32wlxx_ll_bus.h ****   */
 616:hardware/mcu/st/stm32wlxx_hal_driver/Inc/stm32wlxx_ll_bus.h **** 
 617:hardware/mcu/st/stm32wlxx_hal_driver/Inc/stm32wlxx_ll_bus.h **** #else
 618:hardware/mcu/st/stm32wlxx_hal_driver/Inc/stm32wlxx_ll_bus.h **** /**
 619:hardware/mcu/st/stm32wlxx_hal_driver/Inc/stm32wlxx_ll_bus.h ****   * @brief  Enable AHB3 peripherals clock.
 620:hardware/mcu/st/stm32wlxx_hal_driver/Inc/stm32wlxx_ll_bus.h ****   * @rmtoll AHB3ENR      PKAEN         LL_AHB3_GRP1_EnableClock\n
 621:hardware/mcu/st/stm32wlxx_hal_driver/Inc/stm32wlxx_ll_bus.h ****   *         AHB3ENR      AESEN         LL_AHB3_GRP1_EnableClock\n
 622:hardware/mcu/st/stm32wlxx_hal_driver/Inc/stm32wlxx_ll_bus.h ****   *         AHB3ENR      RNGEN         LL_AHB3_GRP1_EnableClock\n
 623:hardware/mcu/st/stm32wlxx_hal_driver/Inc/stm32wlxx_ll_bus.h ****   *         AHB3ENR      HSEMEN        LL_AHB3_GRP1_EnableClock\n
 624:hardware/mcu/st/stm32wlxx_hal_driver/Inc/stm32wlxx_ll_bus.h ****   *         AHB3ENR      FLASHEN       LL_AHB3_GRP1_EnableClock
 625:hardware/mcu/st/stm32wlxx_hal_driver/Inc/stm32wlxx_ll_bus.h ****   * @param  Periphs This parameter can be a combination of the following values:
 626:hardware/mcu/st/stm32wlxx_hal_driver/Inc/stm32wlxx_ll_bus.h ****   *         @arg @ref LL_AHB3_GRP1_PERIPH_PKA
 627:hardware/mcu/st/stm32wlxx_hal_driver/Inc/stm32wlxx_ll_bus.h ****   *         @arg @ref LL_AHB3_GRP1_PERIPH_AES
 628:hardware/mcu/st/stm32wlxx_hal_driver/Inc/stm32wlxx_ll_bus.h ****   *         @arg @ref LL_AHB3_GRP1_PERIPH_RNG
 629:hardware/mcu/st/stm32wlxx_hal_driver/Inc/stm32wlxx_ll_bus.h ****   *         @arg @ref LL_AHB3_GRP1_PERIPH_HSEM
 630:hardware/mcu/st/stm32wlxx_hal_driver/Inc/stm32wlxx_ll_bus.h ****   *         @arg @ref LL_AHB3_GRP1_PERIPH_FLASH
 631:hardware/mcu/st/stm32wlxx_hal_driver/Inc/stm32wlxx_ll_bus.h ****   * @retval None
 632:hardware/mcu/st/stm32wlxx_hal_driver/Inc/stm32wlxx_ll_bus.h ****   */
 633:hardware/mcu/st/stm32wlxx_hal_driver/Inc/stm32wlxx_ll_bus.h **** #endif /* DUAL_CORE */
 634:hardware/mcu/st/stm32wlxx_hal_driver/Inc/stm32wlxx_ll_bus.h **** __STATIC_INLINE void LL_AHB3_GRP1_EnableClock(uint32_t Periphs)
 635:hardware/mcu/st/stm32wlxx_hal_driver/Inc/stm32wlxx_ll_bus.h **** {
 636:hardware/mcu/st/stm32wlxx_hal_driver/Inc/stm32wlxx_ll_bus.h ****   __IO uint32_t tmpreg;
 637:hardware/mcu/st/stm32wlxx_hal_driver/Inc/stm32wlxx_ll_bus.h ****   SET_BIT(RCC->AHB3ENR, Periphs);
 638:hardware/mcu/st/stm32wlxx_hal_driver/Inc/stm32wlxx_ll_bus.h ****   /* Delay after an RCC peripheral clock enabling */
 639:hardware/mcu/st/stm32wlxx_hal_driver/Inc/stm32wlxx_ll_bus.h ****   tmpreg = READ_BIT(RCC->AHB3ENR, Periphs);
 640:hardware/mcu/st/stm32wlxx_hal_driver/Inc/stm32wlxx_ll_bus.h ****   (void)tmpreg;
 641:hardware/mcu/st/stm32wlxx_hal_driver/Inc/stm32wlxx_ll_bus.h **** }
 642:hardware/mcu/st/stm32wlxx_hal_driver/Inc/stm32wlxx_ll_bus.h **** 
 643:hardware/mcu/st/stm32wlxx_hal_driver/Inc/stm32wlxx_ll_bus.h **** #if defined(DUAL_CORE) /* Switch added for Documentation generation purpose to exclude IPCC in else
 644:hardware/mcu/st/stm32wlxx_hal_driver/Inc/stm32wlxx_ll_bus.h **** /**
 645:hardware/mcu/st/stm32wlxx_hal_driver/Inc/stm32wlxx_ll_bus.h ****   * @brief  Check if AHB3 peripheral clock is enabled or not
 646:hardware/mcu/st/stm32wlxx_hal_driver/Inc/stm32wlxx_ll_bus.h ****   * @rmtoll AHB3ENR      PKAEN         LL_AHB3_GRP1_IsEnabledClock\n
 647:hardware/mcu/st/stm32wlxx_hal_driver/Inc/stm32wlxx_ll_bus.h ****   *         AHB3ENR      AESEN         LL_AHB3_GRP1_IsEnabledClock\n
 648:hardware/mcu/st/stm32wlxx_hal_driver/Inc/stm32wlxx_ll_bus.h ****   *         AHB3ENR      RNGEN         LL_AHB3_GRP1_IsEnabledClock\n
 649:hardware/mcu/st/stm32wlxx_hal_driver/Inc/stm32wlxx_ll_bus.h ****   *         AHB3ENR      HSEMEN        LL_AHB3_GRP1_IsEnabledClock\n
 650:hardware/mcu/st/stm32wlxx_hal_driver/Inc/stm32wlxx_ll_bus.h ****   *         AHB3ENR      IPCCEN        LL_AHB3_GRP1_IsEnabledClock\n
 651:hardware/mcu/st/stm32wlxx_hal_driver/Inc/stm32wlxx_ll_bus.h ****   *         AHB3ENR      FLASHEN       LL_AHB3_GRP1_IsEnabledClock
 652:hardware/mcu/st/stm32wlxx_hal_driver/Inc/stm32wlxx_ll_bus.h ****   * @param  Periphs This parameter can be a combination of the following values:
 653:hardware/mcu/st/stm32wlxx_hal_driver/Inc/stm32wlxx_ll_bus.h ****   *         @arg @ref LL_AHB3_GRP1_PERIPH_PKA
 654:hardware/mcu/st/stm32wlxx_hal_driver/Inc/stm32wlxx_ll_bus.h ****   *         @arg @ref LL_AHB3_GRP1_PERIPH_AES
 655:hardware/mcu/st/stm32wlxx_hal_driver/Inc/stm32wlxx_ll_bus.h ****   *         @arg @ref LL_AHB3_GRP1_PERIPH_RNG
 656:hardware/mcu/st/stm32wlxx_hal_driver/Inc/stm32wlxx_ll_bus.h ****   *         @arg @ref LL_AHB3_GRP1_PERIPH_HSEM
 657:hardware/mcu/st/stm32wlxx_hal_driver/Inc/stm32wlxx_ll_bus.h ****   *         @arg @ref LL_AHB3_GRP1_PERIPH_IPCC
 658:hardware/mcu/st/stm32wlxx_hal_driver/Inc/stm32wlxx_ll_bus.h ****   *         @arg @ref LL_AHB3_GRP1_PERIPH_FLASH
 659:hardware/mcu/st/stm32wlxx_hal_driver/Inc/stm32wlxx_ll_bus.h ****   * @retval uint32_t
 660:hardware/mcu/st/stm32wlxx_hal_driver/Inc/stm32wlxx_ll_bus.h ****   */
 661:hardware/mcu/st/stm32wlxx_hal_driver/Inc/stm32wlxx_ll_bus.h **** #else
 662:hardware/mcu/st/stm32wlxx_hal_driver/Inc/stm32wlxx_ll_bus.h **** /**
 663:hardware/mcu/st/stm32wlxx_hal_driver/Inc/stm32wlxx_ll_bus.h ****   * @brief  Check if AHB3 peripheral clock is enabled or not
 664:hardware/mcu/st/stm32wlxx_hal_driver/Inc/stm32wlxx_ll_bus.h ****   * @rmtoll AHB3ENR      PKAEN         LL_AHB3_GRP1_IsEnabledClock\n
 665:hardware/mcu/st/stm32wlxx_hal_driver/Inc/stm32wlxx_ll_bus.h ****   *         AHB3ENR      AESEN         LL_AHB3_GRP1_IsEnabledClock\n
 666:hardware/mcu/st/stm32wlxx_hal_driver/Inc/stm32wlxx_ll_bus.h ****   *         AHB3ENR      RNGEN         LL_AHB3_GRP1_IsEnabledClock\n
ARM GAS  /var/folders/b4/k4jbz0ms4wg23jtq0w6p483m0000gn/T//cchh5TYj.s 			page 18


 667:hardware/mcu/st/stm32wlxx_hal_driver/Inc/stm32wlxx_ll_bus.h ****   *         AHB3ENR      HSEMEN        LL_AHB3_GRP1_IsEnabledClock\n
 668:hardware/mcu/st/stm32wlxx_hal_driver/Inc/stm32wlxx_ll_bus.h ****   *         AHB3ENR      FLASHEN       LL_AHB3_GRP1_IsEnabledClock
 669:hardware/mcu/st/stm32wlxx_hal_driver/Inc/stm32wlxx_ll_bus.h ****   * @param  Periphs This parameter can be a combination of the following values:
 670:hardware/mcu/st/stm32wlxx_hal_driver/Inc/stm32wlxx_ll_bus.h ****   *         @arg @ref LL_AHB3_GRP1_PERIPH_PKA
 671:hardware/mcu/st/stm32wlxx_hal_driver/Inc/stm32wlxx_ll_bus.h ****   *         @arg @ref LL_AHB3_GRP1_PERIPH_AES
 672:hardware/mcu/st/stm32wlxx_hal_driver/Inc/stm32wlxx_ll_bus.h ****   *         @arg @ref LL_AHB3_GRP1_PERIPH_RNG
 673:hardware/mcu/st/stm32wlxx_hal_driver/Inc/stm32wlxx_ll_bus.h ****   *         @arg @ref LL_AHB3_GRP1_PERIPH_HSEM
 674:hardware/mcu/st/stm32wlxx_hal_driver/Inc/stm32wlxx_ll_bus.h ****   *         @arg @ref LL_AHB3_GRP1_PERIPH_FLASH
 675:hardware/mcu/st/stm32wlxx_hal_driver/Inc/stm32wlxx_ll_bus.h ****   * @retval uint32_t
 676:hardware/mcu/st/stm32wlxx_hal_driver/Inc/stm32wlxx_ll_bus.h ****   */
 677:hardware/mcu/st/stm32wlxx_hal_driver/Inc/stm32wlxx_ll_bus.h **** 
 678:hardware/mcu/st/stm32wlxx_hal_driver/Inc/stm32wlxx_ll_bus.h **** #endif /* DUAL_CORE */
 679:hardware/mcu/st/stm32wlxx_hal_driver/Inc/stm32wlxx_ll_bus.h **** __STATIC_INLINE uint32_t LL_AHB3_GRP1_IsEnabledClock(uint32_t Periphs)
 680:hardware/mcu/st/stm32wlxx_hal_driver/Inc/stm32wlxx_ll_bus.h **** {
 681:hardware/mcu/st/stm32wlxx_hal_driver/Inc/stm32wlxx_ll_bus.h ****   return ((READ_BIT(RCC->AHB3ENR, Periphs) == (Periphs)) ? 1UL : 0UL);
 682:hardware/mcu/st/stm32wlxx_hal_driver/Inc/stm32wlxx_ll_bus.h **** }
 683:hardware/mcu/st/stm32wlxx_hal_driver/Inc/stm32wlxx_ll_bus.h **** 
 684:hardware/mcu/st/stm32wlxx_hal_driver/Inc/stm32wlxx_ll_bus.h **** #if defined(DUAL_CORE) /* Switch added for Documentation generation purpose to exclude IPCC in else
 685:hardware/mcu/st/stm32wlxx_hal_driver/Inc/stm32wlxx_ll_bus.h **** /**
 686:hardware/mcu/st/stm32wlxx_hal_driver/Inc/stm32wlxx_ll_bus.h ****   * @brief  Disable AHB3 peripherals clock.
 687:hardware/mcu/st/stm32wlxx_hal_driver/Inc/stm32wlxx_ll_bus.h ****   * @rmtoll AHB3ENR      PKAEN         LL_AHB3_GRP1_DisableClock\n
 688:hardware/mcu/st/stm32wlxx_hal_driver/Inc/stm32wlxx_ll_bus.h ****   *         AHB3ENR      AESEN         LL_AHB3_GRP1_DisableClock\n
 689:hardware/mcu/st/stm32wlxx_hal_driver/Inc/stm32wlxx_ll_bus.h ****   *         AHB3ENR      RNGEN         LL_AHB3_GRP1_DisableClock\n
 690:hardware/mcu/st/stm32wlxx_hal_driver/Inc/stm32wlxx_ll_bus.h ****   *         AHB3ENR      HSEMEN        LL_AHB3_GRP1_DisableClock\n
 691:hardware/mcu/st/stm32wlxx_hal_driver/Inc/stm32wlxx_ll_bus.h ****   *         AHB3ENR      IPCCEN        LL_AHB3_GRP1_DisableClock\n
 692:hardware/mcu/st/stm32wlxx_hal_driver/Inc/stm32wlxx_ll_bus.h ****   *         AHB3ENR      FLASHEN       LL_AHB3_GRP1_DisableClock
 693:hardware/mcu/st/stm32wlxx_hal_driver/Inc/stm32wlxx_ll_bus.h ****   * @param  Periphs This parameter can be a combination of the following values:
 694:hardware/mcu/st/stm32wlxx_hal_driver/Inc/stm32wlxx_ll_bus.h ****   *         @arg @ref LL_AHB3_GRP1_PERIPH_PKA
 695:hardware/mcu/st/stm32wlxx_hal_driver/Inc/stm32wlxx_ll_bus.h ****   *         @arg @ref LL_AHB3_GRP1_PERIPH_AES
 696:hardware/mcu/st/stm32wlxx_hal_driver/Inc/stm32wlxx_ll_bus.h ****   *         @arg @ref LL_AHB3_GRP1_PERIPH_RNG
 697:hardware/mcu/st/stm32wlxx_hal_driver/Inc/stm32wlxx_ll_bus.h ****   *         @arg @ref LL_AHB3_GRP1_PERIPH_HSEM
 698:hardware/mcu/st/stm32wlxx_hal_driver/Inc/stm32wlxx_ll_bus.h ****   *         @arg @ref LL_AHB3_GRP1_PERIPH_IPCC
 699:hardware/mcu/st/stm32wlxx_hal_driver/Inc/stm32wlxx_ll_bus.h ****   *         @arg @ref LL_AHB3_GRP1_PERIPH_FLASH
 700:hardware/mcu/st/stm32wlxx_hal_driver/Inc/stm32wlxx_ll_bus.h ****   * @retval None
 701:hardware/mcu/st/stm32wlxx_hal_driver/Inc/stm32wlxx_ll_bus.h ****   */
 702:hardware/mcu/st/stm32wlxx_hal_driver/Inc/stm32wlxx_ll_bus.h **** 
 703:hardware/mcu/st/stm32wlxx_hal_driver/Inc/stm32wlxx_ll_bus.h **** #else
 704:hardware/mcu/st/stm32wlxx_hal_driver/Inc/stm32wlxx_ll_bus.h **** /**
 705:hardware/mcu/st/stm32wlxx_hal_driver/Inc/stm32wlxx_ll_bus.h ****   * @brief  Disable AHB3 peripherals clock.
 706:hardware/mcu/st/stm32wlxx_hal_driver/Inc/stm32wlxx_ll_bus.h ****   * @rmtoll AHB3ENR      PKAEN         LL_AHB3_GRP1_DisableClock\n
 707:hardware/mcu/st/stm32wlxx_hal_driver/Inc/stm32wlxx_ll_bus.h ****   *         AHB3ENR      AESEN         LL_AHB3_GRP1_DisableClock\n
 708:hardware/mcu/st/stm32wlxx_hal_driver/Inc/stm32wlxx_ll_bus.h ****   *         AHB3ENR      RNGEN         LL_AHB3_GRP1_DisableClock\n
 709:hardware/mcu/st/stm32wlxx_hal_driver/Inc/stm32wlxx_ll_bus.h ****   *         AHB3ENR      HSEMEN        LL_AHB3_GRP1_DisableClock\n
 710:hardware/mcu/st/stm32wlxx_hal_driver/Inc/stm32wlxx_ll_bus.h ****   *         AHB3ENR      FLASHEN       LL_AHB3_GRP1_DisableClock
 711:hardware/mcu/st/stm32wlxx_hal_driver/Inc/stm32wlxx_ll_bus.h ****   * @param  Periphs This parameter can be a combination of the following values:
 712:hardware/mcu/st/stm32wlxx_hal_driver/Inc/stm32wlxx_ll_bus.h ****   *         @arg @ref LL_AHB3_GRP1_PERIPH_PKA
 713:hardware/mcu/st/stm32wlxx_hal_driver/Inc/stm32wlxx_ll_bus.h ****   *         @arg @ref LL_AHB3_GRP1_PERIPH_AES
 714:hardware/mcu/st/stm32wlxx_hal_driver/Inc/stm32wlxx_ll_bus.h ****   *         @arg @ref LL_AHB3_GRP1_PERIPH_RNG
 715:hardware/mcu/st/stm32wlxx_hal_driver/Inc/stm32wlxx_ll_bus.h ****   *         @arg @ref LL_AHB3_GRP1_PERIPH_HSEM
 716:hardware/mcu/st/stm32wlxx_hal_driver/Inc/stm32wlxx_ll_bus.h ****   *         @arg @ref LL_AHB3_GRP1_PERIPH_FLASH
 717:hardware/mcu/st/stm32wlxx_hal_driver/Inc/stm32wlxx_ll_bus.h ****   * @retval None
 718:hardware/mcu/st/stm32wlxx_hal_driver/Inc/stm32wlxx_ll_bus.h ****   */
 719:hardware/mcu/st/stm32wlxx_hal_driver/Inc/stm32wlxx_ll_bus.h **** #endif /* DUAL_CORE */
 720:hardware/mcu/st/stm32wlxx_hal_driver/Inc/stm32wlxx_ll_bus.h **** __STATIC_INLINE void LL_AHB3_GRP1_DisableClock(uint32_t Periphs)
 721:hardware/mcu/st/stm32wlxx_hal_driver/Inc/stm32wlxx_ll_bus.h **** {
 722:hardware/mcu/st/stm32wlxx_hal_driver/Inc/stm32wlxx_ll_bus.h ****   CLEAR_BIT(RCC->AHB3ENR, Periphs);
 723:hardware/mcu/st/stm32wlxx_hal_driver/Inc/stm32wlxx_ll_bus.h **** }
ARM GAS  /var/folders/b4/k4jbz0ms4wg23jtq0w6p483m0000gn/T//cchh5TYj.s 			page 19


 724:hardware/mcu/st/stm32wlxx_hal_driver/Inc/stm32wlxx_ll_bus.h **** 
 725:hardware/mcu/st/stm32wlxx_hal_driver/Inc/stm32wlxx_ll_bus.h **** #if defined(DUAL_CORE) /* Switch added for Documentation generation purpose to exclude IPCC in else
 726:hardware/mcu/st/stm32wlxx_hal_driver/Inc/stm32wlxx_ll_bus.h **** /**
 727:hardware/mcu/st/stm32wlxx_hal_driver/Inc/stm32wlxx_ll_bus.h ****   * @brief  Force AHB3 peripherals reset.
 728:hardware/mcu/st/stm32wlxx_hal_driver/Inc/stm32wlxx_ll_bus.h ****   * @rmtoll AHB3RSTR     PKARST        LL_AHB3_GRP1_ForceReset\n
 729:hardware/mcu/st/stm32wlxx_hal_driver/Inc/stm32wlxx_ll_bus.h ****   *         AHB3RSTR     AESRST        LL_AHB3_GRP1_ForceReset\n
 730:hardware/mcu/st/stm32wlxx_hal_driver/Inc/stm32wlxx_ll_bus.h ****   *         AHB3RSTR     RNGRST        LL_AHB3_GRP1_ForceReset\n
 731:hardware/mcu/st/stm32wlxx_hal_driver/Inc/stm32wlxx_ll_bus.h ****   *         AHB3RSTR     HSEMRST       LL_AHB3_GRP1_ForceReset\n
 732:hardware/mcu/st/stm32wlxx_hal_driver/Inc/stm32wlxx_ll_bus.h ****   *         AHB3RSTR     IPCCRST       LL_AHB3_GRP1_ForceReset\n
 733:hardware/mcu/st/stm32wlxx_hal_driver/Inc/stm32wlxx_ll_bus.h ****   *         AHB3RSTR     FLASHRST      LL_AHB3_GRP1_ForceReset
 734:hardware/mcu/st/stm32wlxx_hal_driver/Inc/stm32wlxx_ll_bus.h ****   * @param  Periphs This parameter can be a combination of the following values:
 735:hardware/mcu/st/stm32wlxx_hal_driver/Inc/stm32wlxx_ll_bus.h ****   *         @arg @ref LL_AHB3_GRP1_PERIPH_ALL
 736:hardware/mcu/st/stm32wlxx_hal_driver/Inc/stm32wlxx_ll_bus.h ****   *         @arg @ref LL_AHB3_GRP1_PERIPH_AES
 737:hardware/mcu/st/stm32wlxx_hal_driver/Inc/stm32wlxx_ll_bus.h ****   *         @arg @ref LL_AHB3_GRP1_PERIPH_PKA
 738:hardware/mcu/st/stm32wlxx_hal_driver/Inc/stm32wlxx_ll_bus.h ****   *         @arg @ref LL_AHB3_GRP1_PERIPH_RNG
 739:hardware/mcu/st/stm32wlxx_hal_driver/Inc/stm32wlxx_ll_bus.h ****   *         @arg @ref LL_AHB3_GRP1_PERIPH_HSEM
 740:hardware/mcu/st/stm32wlxx_hal_driver/Inc/stm32wlxx_ll_bus.h ****   *         @arg @ref LL_AHB3_GRP1_PERIPH_IPCC
 741:hardware/mcu/st/stm32wlxx_hal_driver/Inc/stm32wlxx_ll_bus.h ****   *         @arg @ref LL_AHB3_GRP1_PERIPH_FLASH
 742:hardware/mcu/st/stm32wlxx_hal_driver/Inc/stm32wlxx_ll_bus.h ****   * @retval None
 743:hardware/mcu/st/stm32wlxx_hal_driver/Inc/stm32wlxx_ll_bus.h ****   */
 744:hardware/mcu/st/stm32wlxx_hal_driver/Inc/stm32wlxx_ll_bus.h **** #else
 745:hardware/mcu/st/stm32wlxx_hal_driver/Inc/stm32wlxx_ll_bus.h **** /**
 746:hardware/mcu/st/stm32wlxx_hal_driver/Inc/stm32wlxx_ll_bus.h ****   * @brief  Force AHB3 peripherals reset.
 747:hardware/mcu/st/stm32wlxx_hal_driver/Inc/stm32wlxx_ll_bus.h ****   * @rmtoll AHB3RSTR     PKARST        LL_AHB3_GRP1_ForceReset\n
 748:hardware/mcu/st/stm32wlxx_hal_driver/Inc/stm32wlxx_ll_bus.h ****   *         AHB3RSTR     AESRST        LL_AHB3_GRP1_ForceReset\n
 749:hardware/mcu/st/stm32wlxx_hal_driver/Inc/stm32wlxx_ll_bus.h ****   *         AHB3RSTR     RNGRST        LL_AHB3_GRP1_ForceReset\n
 750:hardware/mcu/st/stm32wlxx_hal_driver/Inc/stm32wlxx_ll_bus.h ****   *         AHB3RSTR     HSEMRST       LL_AHB3_GRP1_ForceReset\n
 751:hardware/mcu/st/stm32wlxx_hal_driver/Inc/stm32wlxx_ll_bus.h ****   *         AHB3RSTR     FLASHRST      LL_AHB3_GRP1_ForceReset
 752:hardware/mcu/st/stm32wlxx_hal_driver/Inc/stm32wlxx_ll_bus.h ****   * @param  Periphs This parameter can be a combination of the following values:
 753:hardware/mcu/st/stm32wlxx_hal_driver/Inc/stm32wlxx_ll_bus.h ****   *         @arg @ref LL_AHB3_GRP1_PERIPH_ALL
 754:hardware/mcu/st/stm32wlxx_hal_driver/Inc/stm32wlxx_ll_bus.h ****   *         @arg @ref LL_AHB3_GRP1_PERIPH_AES
 755:hardware/mcu/st/stm32wlxx_hal_driver/Inc/stm32wlxx_ll_bus.h ****   *         @arg @ref LL_AHB3_GRP1_PERIPH_PKA
 756:hardware/mcu/st/stm32wlxx_hal_driver/Inc/stm32wlxx_ll_bus.h ****   *         @arg @ref LL_AHB3_GRP1_PERIPH_RNG
 757:hardware/mcu/st/stm32wlxx_hal_driver/Inc/stm32wlxx_ll_bus.h ****   *         @arg @ref LL_AHB3_GRP1_PERIPH_HSEM
 758:hardware/mcu/st/stm32wlxx_hal_driver/Inc/stm32wlxx_ll_bus.h ****   *         @arg @ref LL_AHB3_GRP1_PERIPH_FLASH
 759:hardware/mcu/st/stm32wlxx_hal_driver/Inc/stm32wlxx_ll_bus.h ****   * @retval None
 760:hardware/mcu/st/stm32wlxx_hal_driver/Inc/stm32wlxx_ll_bus.h ****   */
 761:hardware/mcu/st/stm32wlxx_hal_driver/Inc/stm32wlxx_ll_bus.h **** 
 762:hardware/mcu/st/stm32wlxx_hal_driver/Inc/stm32wlxx_ll_bus.h **** #endif /* DUAL_CORE */
 763:hardware/mcu/st/stm32wlxx_hal_driver/Inc/stm32wlxx_ll_bus.h **** __STATIC_INLINE void LL_AHB3_GRP1_ForceReset(uint32_t Periphs)
 764:hardware/mcu/st/stm32wlxx_hal_driver/Inc/stm32wlxx_ll_bus.h **** {
 765:hardware/mcu/st/stm32wlxx_hal_driver/Inc/stm32wlxx_ll_bus.h ****   SET_BIT(RCC->AHB3RSTR, Periphs);
 766:hardware/mcu/st/stm32wlxx_hal_driver/Inc/stm32wlxx_ll_bus.h **** }
 767:hardware/mcu/st/stm32wlxx_hal_driver/Inc/stm32wlxx_ll_bus.h **** 
 768:hardware/mcu/st/stm32wlxx_hal_driver/Inc/stm32wlxx_ll_bus.h **** #if defined(DUAL_CORE) /* Switch added for Documentation generation purpose to exclude IPCC in else
 769:hardware/mcu/st/stm32wlxx_hal_driver/Inc/stm32wlxx_ll_bus.h **** /**
 770:hardware/mcu/st/stm32wlxx_hal_driver/Inc/stm32wlxx_ll_bus.h ****   * @brief  Release AHB3 peripherals reset.
 771:hardware/mcu/st/stm32wlxx_hal_driver/Inc/stm32wlxx_ll_bus.h ****   * @rmtoll AHB3RSTR     PKARST        LL_AHB3_GRP1_ReleaseReset\n
 772:hardware/mcu/st/stm32wlxx_hal_driver/Inc/stm32wlxx_ll_bus.h ****   *         AHB3RSTR     AESRST        LL_AHB3_GRP1_ReleaseReset\n
 773:hardware/mcu/st/stm32wlxx_hal_driver/Inc/stm32wlxx_ll_bus.h ****   *         AHB3RSTR     RNGRST        LL_AHB3_GRP1_ReleaseReset\n
 774:hardware/mcu/st/stm32wlxx_hal_driver/Inc/stm32wlxx_ll_bus.h ****   *         AHB3RSTR     HSEMRST       LL_AHB3_GRP1_ReleaseReset\n
 775:hardware/mcu/st/stm32wlxx_hal_driver/Inc/stm32wlxx_ll_bus.h ****   *         AHB3RSTR     IPCCRST       LL_AHB3_GRP1_ReleaseReset\n
 776:hardware/mcu/st/stm32wlxx_hal_driver/Inc/stm32wlxx_ll_bus.h ****   *         AHB3RSTR     FLASHRST      LL_AHB3_GRP1_ReleaseReset
 777:hardware/mcu/st/stm32wlxx_hal_driver/Inc/stm32wlxx_ll_bus.h ****   * @param  Periphs This parameter can be a combination of the following values:
 778:hardware/mcu/st/stm32wlxx_hal_driver/Inc/stm32wlxx_ll_bus.h ****   *         @arg @ref LL_AHB3_GRP1_PERIPH_ALL
 779:hardware/mcu/st/stm32wlxx_hal_driver/Inc/stm32wlxx_ll_bus.h ****   *         @arg @ref LL_AHB3_GRP1_PERIPH_PKA
 780:hardware/mcu/st/stm32wlxx_hal_driver/Inc/stm32wlxx_ll_bus.h ****   *         @arg @ref LL_AHB3_GRP1_PERIPH_AES
ARM GAS  /var/folders/b4/k4jbz0ms4wg23jtq0w6p483m0000gn/T//cchh5TYj.s 			page 20


 781:hardware/mcu/st/stm32wlxx_hal_driver/Inc/stm32wlxx_ll_bus.h ****   *         @arg @ref LL_AHB3_GRP1_PERIPH_RNG
 782:hardware/mcu/st/stm32wlxx_hal_driver/Inc/stm32wlxx_ll_bus.h ****   *         @arg @ref LL_AHB3_GRP1_PERIPH_HSEM
 783:hardware/mcu/st/stm32wlxx_hal_driver/Inc/stm32wlxx_ll_bus.h ****   *         @arg @ref LL_AHB3_GRP1_PERIPH_IPCC
 784:hardware/mcu/st/stm32wlxx_hal_driver/Inc/stm32wlxx_ll_bus.h ****   *         @arg @ref LL_AHB3_GRP1_PERIPH_FLASH
 785:hardware/mcu/st/stm32wlxx_hal_driver/Inc/stm32wlxx_ll_bus.h ****   * @retval None
 786:hardware/mcu/st/stm32wlxx_hal_driver/Inc/stm32wlxx_ll_bus.h ****   */
 787:hardware/mcu/st/stm32wlxx_hal_driver/Inc/stm32wlxx_ll_bus.h **** #else
 788:hardware/mcu/st/stm32wlxx_hal_driver/Inc/stm32wlxx_ll_bus.h **** /**
 789:hardware/mcu/st/stm32wlxx_hal_driver/Inc/stm32wlxx_ll_bus.h ****   * @brief  Release AHB3 peripherals reset.
 790:hardware/mcu/st/stm32wlxx_hal_driver/Inc/stm32wlxx_ll_bus.h ****   * @rmtoll AHB3RSTR     PKARST        LL_AHB3_GRP1_ReleaseReset\n
 791:hardware/mcu/st/stm32wlxx_hal_driver/Inc/stm32wlxx_ll_bus.h ****   *         AHB3RSTR     AESRST        LL_AHB3_GRP1_ReleaseReset\n
 792:hardware/mcu/st/stm32wlxx_hal_driver/Inc/stm32wlxx_ll_bus.h ****   *         AHB3RSTR     RNGRST        LL_AHB3_GRP1_ReleaseReset\n
 793:hardware/mcu/st/stm32wlxx_hal_driver/Inc/stm32wlxx_ll_bus.h ****   *         AHB3RSTR     HSEMRST       LL_AHB3_GRP1_ReleaseReset\n
 794:hardware/mcu/st/stm32wlxx_hal_driver/Inc/stm32wlxx_ll_bus.h ****   *         AHB3RSTR     FLASHRST      LL_AHB3_GRP1_ReleaseReset
 795:hardware/mcu/st/stm32wlxx_hal_driver/Inc/stm32wlxx_ll_bus.h ****   * @param  Periphs This parameter can be a combination of the following values:
 796:hardware/mcu/st/stm32wlxx_hal_driver/Inc/stm32wlxx_ll_bus.h ****   *         @arg @ref LL_AHB3_GRP1_PERIPH_ALL
 797:hardware/mcu/st/stm32wlxx_hal_driver/Inc/stm32wlxx_ll_bus.h ****   *         @arg @ref LL_AHB3_GRP1_PERIPH_PKA
 798:hardware/mcu/st/stm32wlxx_hal_driver/Inc/stm32wlxx_ll_bus.h ****   *         @arg @ref LL_AHB3_GRP1_PERIPH_AES
 799:hardware/mcu/st/stm32wlxx_hal_driver/Inc/stm32wlxx_ll_bus.h ****   *         @arg @ref LL_AHB3_GRP1_PERIPH_RNG
 800:hardware/mcu/st/stm32wlxx_hal_driver/Inc/stm32wlxx_ll_bus.h ****   *         @arg @ref LL_AHB3_GRP1_PERIPH_HSEM
 801:hardware/mcu/st/stm32wlxx_hal_driver/Inc/stm32wlxx_ll_bus.h ****   *         @arg @ref LL_AHB3_GRP1_PERIPH_FLASH
 802:hardware/mcu/st/stm32wlxx_hal_driver/Inc/stm32wlxx_ll_bus.h ****   * @retval None
 803:hardware/mcu/st/stm32wlxx_hal_driver/Inc/stm32wlxx_ll_bus.h ****   */
 804:hardware/mcu/st/stm32wlxx_hal_driver/Inc/stm32wlxx_ll_bus.h **** 
 805:hardware/mcu/st/stm32wlxx_hal_driver/Inc/stm32wlxx_ll_bus.h **** #endif /* DUAL_CORE */
 806:hardware/mcu/st/stm32wlxx_hal_driver/Inc/stm32wlxx_ll_bus.h **** __STATIC_INLINE void LL_AHB3_GRP1_ReleaseReset(uint32_t Periphs)
 807:hardware/mcu/st/stm32wlxx_hal_driver/Inc/stm32wlxx_ll_bus.h **** {
 808:hardware/mcu/st/stm32wlxx_hal_driver/Inc/stm32wlxx_ll_bus.h ****   CLEAR_BIT(RCC->AHB3RSTR, Periphs);
 809:hardware/mcu/st/stm32wlxx_hal_driver/Inc/stm32wlxx_ll_bus.h **** }
 810:hardware/mcu/st/stm32wlxx_hal_driver/Inc/stm32wlxx_ll_bus.h **** 
 811:hardware/mcu/st/stm32wlxx_hal_driver/Inc/stm32wlxx_ll_bus.h **** /**
 812:hardware/mcu/st/stm32wlxx_hal_driver/Inc/stm32wlxx_ll_bus.h ****   * @brief  Enable AHB3 peripherals clock during Low Power (Sleep) mode.
 813:hardware/mcu/st/stm32wlxx_hal_driver/Inc/stm32wlxx_ll_bus.h ****   * @rmtoll AHB3SMENR    PKASMEN       LL_AHB3_GRP1_EnableClockSleep\n
 814:hardware/mcu/st/stm32wlxx_hal_driver/Inc/stm32wlxx_ll_bus.h ****   *         AHB3SMENR    AESSMEN       LL_AHB3_GRP1_EnableClockSleep\n
 815:hardware/mcu/st/stm32wlxx_hal_driver/Inc/stm32wlxx_ll_bus.h ****   *         AHB3SMENR    RNGSMEN       LL_AHB3_GRP1_EnableClockSleep\n
 816:hardware/mcu/st/stm32wlxx_hal_driver/Inc/stm32wlxx_ll_bus.h ****   *         AHB1SMENR    SRAM1SMEN     LL_AHB1_GRP1_EnableClockSleep\n
 817:hardware/mcu/st/stm32wlxx_hal_driver/Inc/stm32wlxx_ll_bus.h ****   *         AHB3SMENR    SRAM2SMEN     LL_AHB3_GRP1_EnableClockSleep\n
 818:hardware/mcu/st/stm32wlxx_hal_driver/Inc/stm32wlxx_ll_bus.h ****   *         AHB3SMENR    FLASHSMEN     LL_AHB3_GRP1_EnableClockSleep
 819:hardware/mcu/st/stm32wlxx_hal_driver/Inc/stm32wlxx_ll_bus.h ****   * @param  Periphs This parameter can be a combination of the following values:
 820:hardware/mcu/st/stm32wlxx_hal_driver/Inc/stm32wlxx_ll_bus.h ****   *         @arg @ref LL_AHB3_GRP1_PERIPH_PKA
 821:hardware/mcu/st/stm32wlxx_hal_driver/Inc/stm32wlxx_ll_bus.h ****   *         @arg @ref LL_AHB3_GRP1_PERIPH_AES
 822:hardware/mcu/st/stm32wlxx_hal_driver/Inc/stm32wlxx_ll_bus.h ****   *         @arg @ref LL_AHB3_GRP1_PERIPH_RNG
 823:hardware/mcu/st/stm32wlxx_hal_driver/Inc/stm32wlxx_ll_bus.h ****   *         @arg @ref LL_AHB3_GRP1_PERIPH_SRAM1
 824:hardware/mcu/st/stm32wlxx_hal_driver/Inc/stm32wlxx_ll_bus.h ****   *         @arg @ref LL_AHB3_GRP1_PERIPH_SRAM2
 825:hardware/mcu/st/stm32wlxx_hal_driver/Inc/stm32wlxx_ll_bus.h ****   *         @arg @ref LL_AHB3_GRP1_PERIPH_FLASH
 826:hardware/mcu/st/stm32wlxx_hal_driver/Inc/stm32wlxx_ll_bus.h ****   * @retval None
 827:hardware/mcu/st/stm32wlxx_hal_driver/Inc/stm32wlxx_ll_bus.h ****   */
 828:hardware/mcu/st/stm32wlxx_hal_driver/Inc/stm32wlxx_ll_bus.h **** __STATIC_INLINE void LL_AHB3_GRP1_EnableClockSleep(uint32_t Periphs)
 829:hardware/mcu/st/stm32wlxx_hal_driver/Inc/stm32wlxx_ll_bus.h **** {
 830:hardware/mcu/st/stm32wlxx_hal_driver/Inc/stm32wlxx_ll_bus.h ****   __IO uint32_t tmpreg;
 831:hardware/mcu/st/stm32wlxx_hal_driver/Inc/stm32wlxx_ll_bus.h ****   SET_BIT(RCC->AHB3SMENR, Periphs);
 832:hardware/mcu/st/stm32wlxx_hal_driver/Inc/stm32wlxx_ll_bus.h ****   /* Delay after an RCC peripheral clock enabling */
 833:hardware/mcu/st/stm32wlxx_hal_driver/Inc/stm32wlxx_ll_bus.h ****   tmpreg = READ_BIT(RCC->AHB3SMENR, Periphs);
 834:hardware/mcu/st/stm32wlxx_hal_driver/Inc/stm32wlxx_ll_bus.h ****   (void)tmpreg;
 835:hardware/mcu/st/stm32wlxx_hal_driver/Inc/stm32wlxx_ll_bus.h **** }
 836:hardware/mcu/st/stm32wlxx_hal_driver/Inc/stm32wlxx_ll_bus.h **** 
 837:hardware/mcu/st/stm32wlxx_hal_driver/Inc/stm32wlxx_ll_bus.h **** /**
ARM GAS  /var/folders/b4/k4jbz0ms4wg23jtq0w6p483m0000gn/T//cchh5TYj.s 			page 21


 838:hardware/mcu/st/stm32wlxx_hal_driver/Inc/stm32wlxx_ll_bus.h ****   * @brief  Check if AHB3 peripheral clock is enabled by the clock gating during CPU1 CSleep mode
 839:hardware/mcu/st/stm32wlxx_hal_driver/Inc/stm32wlxx_ll_bus.h ****   * @rmtoll AHB3SMENR    PKASMEN       LL_AHB3_GRP1_IsEnabledClockSleep\n
 840:hardware/mcu/st/stm32wlxx_hal_driver/Inc/stm32wlxx_ll_bus.h ****   *         AHB3SMENR    AESSMEN       LL_AHB3_GRP1_IsEnabledClockSleep\n
 841:hardware/mcu/st/stm32wlxx_hal_driver/Inc/stm32wlxx_ll_bus.h ****   *         AHB3SMENR    RNGSMEN       LL_AHB3_GRP1_IsEnabledClockSleep\n
 842:hardware/mcu/st/stm32wlxx_hal_driver/Inc/stm32wlxx_ll_bus.h ****   *         AHB1SMENR    SRAM1SMEN     LL_AHB3_GRP1_IsEnabledClockSleep\n
 843:hardware/mcu/st/stm32wlxx_hal_driver/Inc/stm32wlxx_ll_bus.h ****   *         AHB3SMENR    SRAM2SMEN     LL_AHB3_GRP1_IsEnabledClockSleep\n
 844:hardware/mcu/st/stm32wlxx_hal_driver/Inc/stm32wlxx_ll_bus.h ****   *         AHB3SMENR    FLASHSMEN     LL_AHB3_GRP1_IsEnabledClockSleep
 845:hardware/mcu/st/stm32wlxx_hal_driver/Inc/stm32wlxx_ll_bus.h ****   * @param  Periphs This parameter can be a combination of the following values:
 846:hardware/mcu/st/stm32wlxx_hal_driver/Inc/stm32wlxx_ll_bus.h ****   *         @arg @ref LL_AHB3_GRP1_PERIPH_PKA
 847:hardware/mcu/st/stm32wlxx_hal_driver/Inc/stm32wlxx_ll_bus.h ****   *         @arg @ref LL_AHB3_GRP1_PERIPH_AES
 848:hardware/mcu/st/stm32wlxx_hal_driver/Inc/stm32wlxx_ll_bus.h ****   *         @arg @ref LL_AHB3_GRP1_PERIPH_RNG
 849:hardware/mcu/st/stm32wlxx_hal_driver/Inc/stm32wlxx_ll_bus.h ****   *         @arg @ref LL_AHB3_GRP1_PERIPH_SRAM1
 850:hardware/mcu/st/stm32wlxx_hal_driver/Inc/stm32wlxx_ll_bus.h ****   *         @arg @ref LL_AHB3_GRP1_PERIPH_SRAM2
 851:hardware/mcu/st/stm32wlxx_hal_driver/Inc/stm32wlxx_ll_bus.h ****   *         @arg @ref LL_AHB3_GRP1_PERIPH_FLASH
 852:hardware/mcu/st/stm32wlxx_hal_driver/Inc/stm32wlxx_ll_bus.h ****   * @retval None
 853:hardware/mcu/st/stm32wlxx_hal_driver/Inc/stm32wlxx_ll_bus.h ****   */
 854:hardware/mcu/st/stm32wlxx_hal_driver/Inc/stm32wlxx_ll_bus.h **** __STATIC_INLINE uint32_t LL_AHB3_GRP1_IsEnabledClockSleep(uint32_t Periphs)
 855:hardware/mcu/st/stm32wlxx_hal_driver/Inc/stm32wlxx_ll_bus.h **** {
 856:hardware/mcu/st/stm32wlxx_hal_driver/Inc/stm32wlxx_ll_bus.h ****   return ((READ_BIT(RCC->AHB3SMENR, Periphs) == (Periphs)) ? 1UL : 0UL);
 857:hardware/mcu/st/stm32wlxx_hal_driver/Inc/stm32wlxx_ll_bus.h **** }
 858:hardware/mcu/st/stm32wlxx_hal_driver/Inc/stm32wlxx_ll_bus.h **** 
 859:hardware/mcu/st/stm32wlxx_hal_driver/Inc/stm32wlxx_ll_bus.h **** /**
 860:hardware/mcu/st/stm32wlxx_hal_driver/Inc/stm32wlxx_ll_bus.h ****   * @brief  Disable AHB3 peripherals clock during Low Power (Sleep) mode.
 861:hardware/mcu/st/stm32wlxx_hal_driver/Inc/stm32wlxx_ll_bus.h ****   * @rmtoll AHB3SMENR    PKASMEN       LL_AHB3_GRP1_DisableClockSleep\n
 862:hardware/mcu/st/stm32wlxx_hal_driver/Inc/stm32wlxx_ll_bus.h ****   *         AHB3SMENR    AESSMEN       LL_AHB3_GRP1_DisableClockSleep\n
 863:hardware/mcu/st/stm32wlxx_hal_driver/Inc/stm32wlxx_ll_bus.h ****   *         AHB3SMENR    RNGSMEN       LL_AHB3_GRP1_DisableClockSleep\n
 864:hardware/mcu/st/stm32wlxx_hal_driver/Inc/stm32wlxx_ll_bus.h ****   *         AHB3SMENR    SRAM1SMEN     LL_AHB3_GRP1_DisableClockSleep\n
 865:hardware/mcu/st/stm32wlxx_hal_driver/Inc/stm32wlxx_ll_bus.h ****   *         AHB3SMENR    SRAM2SMEN     LL_AHB3_GRP1_DisableClockSleep\n
 866:hardware/mcu/st/stm32wlxx_hal_driver/Inc/stm32wlxx_ll_bus.h ****   *         AHB3SMENR    FLASHSMEN     LL_AHB3_GRP1_DisableClockSleep
 867:hardware/mcu/st/stm32wlxx_hal_driver/Inc/stm32wlxx_ll_bus.h ****   * @param  Periphs This parameter can be a combination of the following values:
 868:hardware/mcu/st/stm32wlxx_hal_driver/Inc/stm32wlxx_ll_bus.h ****   *         @arg @ref LL_AHB3_GRP1_PERIPH_PKA
 869:hardware/mcu/st/stm32wlxx_hal_driver/Inc/stm32wlxx_ll_bus.h ****   *         @arg @ref LL_AHB3_GRP1_PERIPH_AES
 870:hardware/mcu/st/stm32wlxx_hal_driver/Inc/stm32wlxx_ll_bus.h ****   *         @arg @ref LL_AHB3_GRP1_PERIPH_RNG
 871:hardware/mcu/st/stm32wlxx_hal_driver/Inc/stm32wlxx_ll_bus.h ****   *         @arg @ref LL_AHB3_GRP1_PERIPH_SRAM1
 872:hardware/mcu/st/stm32wlxx_hal_driver/Inc/stm32wlxx_ll_bus.h ****   *         @arg @ref LL_AHB3_GRP1_PERIPH_SRAM2
 873:hardware/mcu/st/stm32wlxx_hal_driver/Inc/stm32wlxx_ll_bus.h ****   *         @arg @ref LL_AHB3_GRP1_PERIPH_FLASH
 874:hardware/mcu/st/stm32wlxx_hal_driver/Inc/stm32wlxx_ll_bus.h ****   * @retval None
 875:hardware/mcu/st/stm32wlxx_hal_driver/Inc/stm32wlxx_ll_bus.h ****   */
 876:hardware/mcu/st/stm32wlxx_hal_driver/Inc/stm32wlxx_ll_bus.h **** __STATIC_INLINE void LL_AHB3_GRP1_DisableClockSleep(uint32_t Periphs)
 877:hardware/mcu/st/stm32wlxx_hal_driver/Inc/stm32wlxx_ll_bus.h **** {
 878:hardware/mcu/st/stm32wlxx_hal_driver/Inc/stm32wlxx_ll_bus.h ****   CLEAR_BIT(RCC->AHB3SMENR, Periphs);
 879:hardware/mcu/st/stm32wlxx_hal_driver/Inc/stm32wlxx_ll_bus.h **** }
 880:hardware/mcu/st/stm32wlxx_hal_driver/Inc/stm32wlxx_ll_bus.h **** 
 881:hardware/mcu/st/stm32wlxx_hal_driver/Inc/stm32wlxx_ll_bus.h **** /**
 882:hardware/mcu/st/stm32wlxx_hal_driver/Inc/stm32wlxx_ll_bus.h ****   * @}
 883:hardware/mcu/st/stm32wlxx_hal_driver/Inc/stm32wlxx_ll_bus.h ****   */
 884:hardware/mcu/st/stm32wlxx_hal_driver/Inc/stm32wlxx_ll_bus.h **** 
 885:hardware/mcu/st/stm32wlxx_hal_driver/Inc/stm32wlxx_ll_bus.h **** /** @defgroup BUS_LL_EF_APB1 APB1
 886:hardware/mcu/st/stm32wlxx_hal_driver/Inc/stm32wlxx_ll_bus.h ****   * @{
 887:hardware/mcu/st/stm32wlxx_hal_driver/Inc/stm32wlxx_ll_bus.h ****   */
 888:hardware/mcu/st/stm32wlxx_hal_driver/Inc/stm32wlxx_ll_bus.h **** 
 889:hardware/mcu/st/stm32wlxx_hal_driver/Inc/stm32wlxx_ll_bus.h **** /**
 890:hardware/mcu/st/stm32wlxx_hal_driver/Inc/stm32wlxx_ll_bus.h ****   * @brief  Enable APB1 peripherals clock.
 891:hardware/mcu/st/stm32wlxx_hal_driver/Inc/stm32wlxx_ll_bus.h ****   * @rmtoll APB1ENR1     TIM2EN        LL_APB1_GRP1_EnableClock\n
 892:hardware/mcu/st/stm32wlxx_hal_driver/Inc/stm32wlxx_ll_bus.h ****   *         APB1ENR1     RTCAPBEN      LL_APB1_GRP1_EnableClock\n
 893:hardware/mcu/st/stm32wlxx_hal_driver/Inc/stm32wlxx_ll_bus.h ****   *         APB1ENR1     WWDGEN        LL_APB1_GRP1_EnableClock\n
 894:hardware/mcu/st/stm32wlxx_hal_driver/Inc/stm32wlxx_ll_bus.h ****   *         APB1ENR1     SPI2EN        LL_APB1_GRP1_EnableClock\n
ARM GAS  /var/folders/b4/k4jbz0ms4wg23jtq0w6p483m0000gn/T//cchh5TYj.s 			page 22


 895:hardware/mcu/st/stm32wlxx_hal_driver/Inc/stm32wlxx_ll_bus.h ****   *         APB1ENR1     USART2EN      LL_APB1_GRP1_EnableClock\n
 896:hardware/mcu/st/stm32wlxx_hal_driver/Inc/stm32wlxx_ll_bus.h ****   *         APB1ENR1     I2C1EN        LL_APB1_GRP1_EnableClock\n
 897:hardware/mcu/st/stm32wlxx_hal_driver/Inc/stm32wlxx_ll_bus.h ****   *         APB1ENR1     I2C2EN        LL_APB1_GRP1_EnableClock\n
 898:hardware/mcu/st/stm32wlxx_hal_driver/Inc/stm32wlxx_ll_bus.h ****   *         APB1ENR1     I2C3EN        LL_APB1_GRP1_EnableClock\n
 899:hardware/mcu/st/stm32wlxx_hal_driver/Inc/stm32wlxx_ll_bus.h ****   *         APB1ENR1     DACEN         LL_APB1_GRP1_EnableClock\n
 900:hardware/mcu/st/stm32wlxx_hal_driver/Inc/stm32wlxx_ll_bus.h ****   *         APB1ENR1     LPTIM1EN      LL_APB1_GRP1_EnableClock
 901:hardware/mcu/st/stm32wlxx_hal_driver/Inc/stm32wlxx_ll_bus.h ****   * @param  Periphs This parameter can be a combination of the following values:
 902:hardware/mcu/st/stm32wlxx_hal_driver/Inc/stm32wlxx_ll_bus.h ****   *         @arg @ref LL_APB1_GRP1_PERIPH_TIM2
 903:hardware/mcu/st/stm32wlxx_hal_driver/Inc/stm32wlxx_ll_bus.h ****   *         @arg @ref LL_APB1_GRP1_PERIPH_RTCAPB
 904:hardware/mcu/st/stm32wlxx_hal_driver/Inc/stm32wlxx_ll_bus.h ****   *         @arg @ref LL_APB1_GRP1_PERIPH_WWDG
 905:hardware/mcu/st/stm32wlxx_hal_driver/Inc/stm32wlxx_ll_bus.h ****   *         @arg @ref LL_APB1_GRP1_PERIPH_SPI2
 906:hardware/mcu/st/stm32wlxx_hal_driver/Inc/stm32wlxx_ll_bus.h ****   *         @arg @ref LL_APB1_GRP1_PERIPH_USART2
 907:hardware/mcu/st/stm32wlxx_hal_driver/Inc/stm32wlxx_ll_bus.h ****   *         @arg @ref LL_APB1_GRP1_PERIPH_I2C1
 908:hardware/mcu/st/stm32wlxx_hal_driver/Inc/stm32wlxx_ll_bus.h ****   *         @arg @ref LL_APB1_GRP1_PERIPH_I2C2
 909:hardware/mcu/st/stm32wlxx_hal_driver/Inc/stm32wlxx_ll_bus.h ****   *         @arg @ref LL_APB1_GRP1_PERIPH_I2C3
 910:hardware/mcu/st/stm32wlxx_hal_driver/Inc/stm32wlxx_ll_bus.h ****   *         @arg @ref LL_APB1_GRP1_PERIPH_DAC
 911:hardware/mcu/st/stm32wlxx_hal_driver/Inc/stm32wlxx_ll_bus.h ****   *         @arg @ref LL_APB1_GRP1_PERIPH_LPTIM1
 912:hardware/mcu/st/stm32wlxx_hal_driver/Inc/stm32wlxx_ll_bus.h ****   * @retval None
 913:hardware/mcu/st/stm32wlxx_hal_driver/Inc/stm32wlxx_ll_bus.h ****   */
 914:hardware/mcu/st/stm32wlxx_hal_driver/Inc/stm32wlxx_ll_bus.h **** __STATIC_INLINE void LL_APB1_GRP1_EnableClock(uint32_t Periphs)
 915:hardware/mcu/st/stm32wlxx_hal_driver/Inc/stm32wlxx_ll_bus.h **** {
 916:hardware/mcu/st/stm32wlxx_hal_driver/Inc/stm32wlxx_ll_bus.h ****   __IO uint32_t tmpreg;
 917:hardware/mcu/st/stm32wlxx_hal_driver/Inc/stm32wlxx_ll_bus.h ****   SET_BIT(RCC->APB1ENR1, Periphs);
 918:hardware/mcu/st/stm32wlxx_hal_driver/Inc/stm32wlxx_ll_bus.h ****   /* Delay after an RCC peripheral clock enabling */
 919:hardware/mcu/st/stm32wlxx_hal_driver/Inc/stm32wlxx_ll_bus.h ****   tmpreg = READ_BIT(RCC->APB1ENR1, Periphs);
 920:hardware/mcu/st/stm32wlxx_hal_driver/Inc/stm32wlxx_ll_bus.h ****   (void)tmpreg;
 921:hardware/mcu/st/stm32wlxx_hal_driver/Inc/stm32wlxx_ll_bus.h **** }
 922:hardware/mcu/st/stm32wlxx_hal_driver/Inc/stm32wlxx_ll_bus.h **** 
 923:hardware/mcu/st/stm32wlxx_hal_driver/Inc/stm32wlxx_ll_bus.h **** /**
 924:hardware/mcu/st/stm32wlxx_hal_driver/Inc/stm32wlxx_ll_bus.h ****   * @brief  Enable APB1 peripherals clock.
 925:hardware/mcu/st/stm32wlxx_hal_driver/Inc/stm32wlxx_ll_bus.h ****   * @rmtoll APB1ENR2     LPUART1EN     LL_APB1_GRP2_EnableClock\n
 926:hardware/mcu/st/stm32wlxx_hal_driver/Inc/stm32wlxx_ll_bus.h ****   *         APB1ENR2     LPTIM2EN      LL_APB1_GRP2_EnableClock
 927:hardware/mcu/st/stm32wlxx_hal_driver/Inc/stm32wlxx_ll_bus.h ****   *         APB1ENR2     LPTIM3EN      LL_APB1_GRP2_EnableClock
 928:hardware/mcu/st/stm32wlxx_hal_driver/Inc/stm32wlxx_ll_bus.h ****   * @param  Periphs This parameter can be a combination of the following values:
 929:hardware/mcu/st/stm32wlxx_hal_driver/Inc/stm32wlxx_ll_bus.h ****   *         @arg @ref LL_APB1_GRP2_PERIPH_LPUART1
 930:hardware/mcu/st/stm32wlxx_hal_driver/Inc/stm32wlxx_ll_bus.h ****   *         @arg @ref LL_APB1_GRP2_PERIPH_LPTIM2
 931:hardware/mcu/st/stm32wlxx_hal_driver/Inc/stm32wlxx_ll_bus.h ****   *         @arg @ref LL_APB1_GRP2_PERIPH_LPTIM3
 932:hardware/mcu/st/stm32wlxx_hal_driver/Inc/stm32wlxx_ll_bus.h **** 
 933:hardware/mcu/st/stm32wlxx_hal_driver/Inc/stm32wlxx_ll_bus.h ****   * @retval None
 934:hardware/mcu/st/stm32wlxx_hal_driver/Inc/stm32wlxx_ll_bus.h ****   */
 935:hardware/mcu/st/stm32wlxx_hal_driver/Inc/stm32wlxx_ll_bus.h **** __STATIC_INLINE void LL_APB1_GRP2_EnableClock(uint32_t Periphs)
 936:hardware/mcu/st/stm32wlxx_hal_driver/Inc/stm32wlxx_ll_bus.h **** {
 937:hardware/mcu/st/stm32wlxx_hal_driver/Inc/stm32wlxx_ll_bus.h ****   __IO uint32_t tmpreg;
 938:hardware/mcu/st/stm32wlxx_hal_driver/Inc/stm32wlxx_ll_bus.h ****   SET_BIT(RCC->APB1ENR2, Periphs);
 939:hardware/mcu/st/stm32wlxx_hal_driver/Inc/stm32wlxx_ll_bus.h ****   /* Delay after an RCC peripheral clock enabling */
 940:hardware/mcu/st/stm32wlxx_hal_driver/Inc/stm32wlxx_ll_bus.h ****   tmpreg = READ_BIT(RCC->APB1ENR2, Periphs);
 941:hardware/mcu/st/stm32wlxx_hal_driver/Inc/stm32wlxx_ll_bus.h ****   (void)tmpreg;
 942:hardware/mcu/st/stm32wlxx_hal_driver/Inc/stm32wlxx_ll_bus.h **** }
 943:hardware/mcu/st/stm32wlxx_hal_driver/Inc/stm32wlxx_ll_bus.h **** 
 944:hardware/mcu/st/stm32wlxx_hal_driver/Inc/stm32wlxx_ll_bus.h **** /**
 945:hardware/mcu/st/stm32wlxx_hal_driver/Inc/stm32wlxx_ll_bus.h ****   * @brief  Check if APB1 peripheral clock is enabled or not
 946:hardware/mcu/st/stm32wlxx_hal_driver/Inc/stm32wlxx_ll_bus.h ****   * @rmtoll APB1ENR1     TIM2EN        LL_APB1_GRP1_IsEnabledClock\n
 947:hardware/mcu/st/stm32wlxx_hal_driver/Inc/stm32wlxx_ll_bus.h ****   *         APB1ENR1     RTCAPBEN      LL_APB1_GRP1_IsEnabledClock\n
 948:hardware/mcu/st/stm32wlxx_hal_driver/Inc/stm32wlxx_ll_bus.h ****   *         APB1ENR1     WWDGEN        LL_APB1_GRP1_IsEnabledClock\n
 949:hardware/mcu/st/stm32wlxx_hal_driver/Inc/stm32wlxx_ll_bus.h ****   *         APB1ENR1     SPI2EN        LL_APB1_GRP1_IsEnabledClock\n
 950:hardware/mcu/st/stm32wlxx_hal_driver/Inc/stm32wlxx_ll_bus.h ****   *         APB1ENR1     USART2EN      LL_APB1_GRP1_IsEnabledClock\n
 951:hardware/mcu/st/stm32wlxx_hal_driver/Inc/stm32wlxx_ll_bus.h ****   *         APB1ENR1     I2C1EN        LL_APB1_GRP1_IsEnabledClock\n
ARM GAS  /var/folders/b4/k4jbz0ms4wg23jtq0w6p483m0000gn/T//cchh5TYj.s 			page 23


 952:hardware/mcu/st/stm32wlxx_hal_driver/Inc/stm32wlxx_ll_bus.h ****   *         APB1ENR1     I2C2EN        LL_APB1_GRP1_IsEnabledClock\n
 953:hardware/mcu/st/stm32wlxx_hal_driver/Inc/stm32wlxx_ll_bus.h ****   *         APB1ENR1     I2C3EN        LL_APB1_GRP1_IsEnabledClock\n
 954:hardware/mcu/st/stm32wlxx_hal_driver/Inc/stm32wlxx_ll_bus.h ****   *         APB1ENR1     DACEN         LL_APB1_GRP1_IsEnabledClock\n
 955:hardware/mcu/st/stm32wlxx_hal_driver/Inc/stm32wlxx_ll_bus.h ****   *         APB1ENR1     LPTIM1EN      LL_APB1_GRP1_IsEnabledClock
 956:hardware/mcu/st/stm32wlxx_hal_driver/Inc/stm32wlxx_ll_bus.h **** 
 957:hardware/mcu/st/stm32wlxx_hal_driver/Inc/stm32wlxx_ll_bus.h ****   * @param  Periphs This parameter can be a combination of the following values:
 958:hardware/mcu/st/stm32wlxx_hal_driver/Inc/stm32wlxx_ll_bus.h ****   *         @arg @ref LL_APB1_GRP1_PERIPH_TIM2
 959:hardware/mcu/st/stm32wlxx_hal_driver/Inc/stm32wlxx_ll_bus.h ****   *         @arg @ref LL_APB1_GRP1_PERIPH_RTCAPB
 960:hardware/mcu/st/stm32wlxx_hal_driver/Inc/stm32wlxx_ll_bus.h ****   *         @arg @ref LL_APB1_GRP1_PERIPH_WWDG
 961:hardware/mcu/st/stm32wlxx_hal_driver/Inc/stm32wlxx_ll_bus.h ****   *         @arg @ref LL_APB1_GRP1_PERIPH_SPI2
 962:hardware/mcu/st/stm32wlxx_hal_driver/Inc/stm32wlxx_ll_bus.h ****   *         @arg @ref LL_APB1_GRP1_PERIPH_USART2
 963:hardware/mcu/st/stm32wlxx_hal_driver/Inc/stm32wlxx_ll_bus.h ****   *         @arg @ref LL_APB1_GRP1_PERIPH_I2C1
 964:hardware/mcu/st/stm32wlxx_hal_driver/Inc/stm32wlxx_ll_bus.h ****   *         @arg @ref LL_APB1_GRP1_PERIPH_I2C2
 965:hardware/mcu/st/stm32wlxx_hal_driver/Inc/stm32wlxx_ll_bus.h ****   *         @arg @ref LL_APB1_GRP1_PERIPH_I2C3
 966:hardware/mcu/st/stm32wlxx_hal_driver/Inc/stm32wlxx_ll_bus.h ****   *         @arg @ref LL_APB1_GRP1_PERIPH_DAC
 967:hardware/mcu/st/stm32wlxx_hal_driver/Inc/stm32wlxx_ll_bus.h ****   *         @arg @ref LL_APB1_GRP1_PERIPH_LPTIM1
 968:hardware/mcu/st/stm32wlxx_hal_driver/Inc/stm32wlxx_ll_bus.h **** 
 969:hardware/mcu/st/stm32wlxx_hal_driver/Inc/stm32wlxx_ll_bus.h ****   * @retval uint32_t
 970:hardware/mcu/st/stm32wlxx_hal_driver/Inc/stm32wlxx_ll_bus.h ****   */
 971:hardware/mcu/st/stm32wlxx_hal_driver/Inc/stm32wlxx_ll_bus.h **** __STATIC_INLINE uint32_t LL_APB1_GRP1_IsEnabledClock(uint32_t Periphs)
 972:hardware/mcu/st/stm32wlxx_hal_driver/Inc/stm32wlxx_ll_bus.h **** {
 973:hardware/mcu/st/stm32wlxx_hal_driver/Inc/stm32wlxx_ll_bus.h ****   return ((READ_BIT(RCC->APB1ENR1, Periphs) == (Periphs)) ? 1UL : 0UL);
 974:hardware/mcu/st/stm32wlxx_hal_driver/Inc/stm32wlxx_ll_bus.h **** }
 975:hardware/mcu/st/stm32wlxx_hal_driver/Inc/stm32wlxx_ll_bus.h **** 
 976:hardware/mcu/st/stm32wlxx_hal_driver/Inc/stm32wlxx_ll_bus.h **** /**
 977:hardware/mcu/st/stm32wlxx_hal_driver/Inc/stm32wlxx_ll_bus.h ****   * @brief  Check if APB1 peripheral clock is enabled or not
 978:hardware/mcu/st/stm32wlxx_hal_driver/Inc/stm32wlxx_ll_bus.h ****   * @rmtoll APB1ENR2     LPUART1EN     LL_APB1_GRP2_IsEnabledClock\n
 979:hardware/mcu/st/stm32wlxx_hal_driver/Inc/stm32wlxx_ll_bus.h ****   *         APB1ENR2     LPTIM2EN      LL_APB1_GRP2_IsEnabledClock
 980:hardware/mcu/st/stm32wlxx_hal_driver/Inc/stm32wlxx_ll_bus.h ****   *         APB1ENR2     LPTIM3EN      LL_APB1_GRP2_IsEnabledClock
 981:hardware/mcu/st/stm32wlxx_hal_driver/Inc/stm32wlxx_ll_bus.h ****   * @param  Periphs This parameter can be a combination of the following values:
 982:hardware/mcu/st/stm32wlxx_hal_driver/Inc/stm32wlxx_ll_bus.h ****   *         @arg @ref LL_APB1_GRP2_PERIPH_LPUART1
 983:hardware/mcu/st/stm32wlxx_hal_driver/Inc/stm32wlxx_ll_bus.h ****   *         @arg @ref LL_APB1_GRP2_PERIPH_LPTIM2
 984:hardware/mcu/st/stm32wlxx_hal_driver/Inc/stm32wlxx_ll_bus.h ****   *         @arg @ref LL_APB1_GRP2_PERIPH_LPTIM3
 985:hardware/mcu/st/stm32wlxx_hal_driver/Inc/stm32wlxx_ll_bus.h ****   * @retval uint32_t
 986:hardware/mcu/st/stm32wlxx_hal_driver/Inc/stm32wlxx_ll_bus.h ****   */
 987:hardware/mcu/st/stm32wlxx_hal_driver/Inc/stm32wlxx_ll_bus.h **** __STATIC_INLINE uint32_t LL_APB1_GRP2_IsEnabledClock(uint32_t Periphs)
 988:hardware/mcu/st/stm32wlxx_hal_driver/Inc/stm32wlxx_ll_bus.h **** {
 989:hardware/mcu/st/stm32wlxx_hal_driver/Inc/stm32wlxx_ll_bus.h ****   return ((READ_BIT(RCC->APB1ENR2, Periphs) == (Periphs)) ? 1UL : 0UL);
 990:hardware/mcu/st/stm32wlxx_hal_driver/Inc/stm32wlxx_ll_bus.h **** }
 991:hardware/mcu/st/stm32wlxx_hal_driver/Inc/stm32wlxx_ll_bus.h **** 
 992:hardware/mcu/st/stm32wlxx_hal_driver/Inc/stm32wlxx_ll_bus.h **** /**
 993:hardware/mcu/st/stm32wlxx_hal_driver/Inc/stm32wlxx_ll_bus.h ****   * @brief  Disable APB1 peripherals clock.
 994:hardware/mcu/st/stm32wlxx_hal_driver/Inc/stm32wlxx_ll_bus.h ****   * @rmtoll APB1ENR1     TIM2EN        LL_APB1_GRP1_DisableClock\n
 995:hardware/mcu/st/stm32wlxx_hal_driver/Inc/stm32wlxx_ll_bus.h ****   *         APB1ENR1     RTCAPBEN      LL_APB1_GRP1_DisableClock\n
 996:hardware/mcu/st/stm32wlxx_hal_driver/Inc/stm32wlxx_ll_bus.h ****   *         APB1ENR1     SPI2EN        LL_APB1_GRP1_DisableClock\n
 997:hardware/mcu/st/stm32wlxx_hal_driver/Inc/stm32wlxx_ll_bus.h ****   *         APB1ENR1     USART2EN      LL_APB1_GRP1_DisableClock\n
 998:hardware/mcu/st/stm32wlxx_hal_driver/Inc/stm32wlxx_ll_bus.h ****   *         APB1ENR1     I2C1EN        LL_APB1_GRP1_DisableClock\n
 999:hardware/mcu/st/stm32wlxx_hal_driver/Inc/stm32wlxx_ll_bus.h ****   *         APB1ENR1     I2C2EN        LL_APB1_GRP1_DisableClock\n
1000:hardware/mcu/st/stm32wlxx_hal_driver/Inc/stm32wlxx_ll_bus.h ****   *         APB1ENR1     I2C3EN        LL_APB1_GRP1_DisableClock\n
1001:hardware/mcu/st/stm32wlxx_hal_driver/Inc/stm32wlxx_ll_bus.h ****   *         APB1ENR1     DACEN         LL_APB1_GRP1_DisableClock\n
1002:hardware/mcu/st/stm32wlxx_hal_driver/Inc/stm32wlxx_ll_bus.h ****   *         APB1ENR1     LPTIM1EN      LL_APB1_GRP1_DisableClock
1003:hardware/mcu/st/stm32wlxx_hal_driver/Inc/stm32wlxx_ll_bus.h **** 
1004:hardware/mcu/st/stm32wlxx_hal_driver/Inc/stm32wlxx_ll_bus.h ****   * @param  Periphs This parameter can be a combination of the following values:
1005:hardware/mcu/st/stm32wlxx_hal_driver/Inc/stm32wlxx_ll_bus.h ****   *         @arg @ref LL_APB1_GRP1_PERIPH_TIM2
1006:hardware/mcu/st/stm32wlxx_hal_driver/Inc/stm32wlxx_ll_bus.h ****   *         @arg @ref LL_APB1_GRP1_PERIPH_RTCAPB
1007:hardware/mcu/st/stm32wlxx_hal_driver/Inc/stm32wlxx_ll_bus.h ****   *         @arg @ref LL_APB1_GRP1_PERIPH_WWDG
1008:hardware/mcu/st/stm32wlxx_hal_driver/Inc/stm32wlxx_ll_bus.h ****   *         @arg @ref LL_APB1_GRP1_PERIPH_SPI2
ARM GAS  /var/folders/b4/k4jbz0ms4wg23jtq0w6p483m0000gn/T//cchh5TYj.s 			page 24


1009:hardware/mcu/st/stm32wlxx_hal_driver/Inc/stm32wlxx_ll_bus.h ****   *         @arg @ref LL_APB1_GRP1_PERIPH_USART2
1010:hardware/mcu/st/stm32wlxx_hal_driver/Inc/stm32wlxx_ll_bus.h ****   *         @arg @ref LL_APB1_GRP1_PERIPH_I2C1
1011:hardware/mcu/st/stm32wlxx_hal_driver/Inc/stm32wlxx_ll_bus.h ****   *         @arg @ref LL_APB1_GRP1_PERIPH_I2C2
1012:hardware/mcu/st/stm32wlxx_hal_driver/Inc/stm32wlxx_ll_bus.h ****   *         @arg @ref LL_APB1_GRP1_PERIPH_I2C3
1013:hardware/mcu/st/stm32wlxx_hal_driver/Inc/stm32wlxx_ll_bus.h ****   *         @arg @ref LL_APB1_GRP1_PERIPH_DAC
1014:hardware/mcu/st/stm32wlxx_hal_driver/Inc/stm32wlxx_ll_bus.h ****   *         @arg @ref LL_APB1_GRP1_PERIPH_LPTIM1
1015:hardware/mcu/st/stm32wlxx_hal_driver/Inc/stm32wlxx_ll_bus.h **** 
1016:hardware/mcu/st/stm32wlxx_hal_driver/Inc/stm32wlxx_ll_bus.h ****   * @retval None
1017:hardware/mcu/st/stm32wlxx_hal_driver/Inc/stm32wlxx_ll_bus.h ****   */
1018:hardware/mcu/st/stm32wlxx_hal_driver/Inc/stm32wlxx_ll_bus.h **** __STATIC_INLINE void LL_APB1_GRP1_DisableClock(uint32_t Periphs)
1019:hardware/mcu/st/stm32wlxx_hal_driver/Inc/stm32wlxx_ll_bus.h **** {
1020:hardware/mcu/st/stm32wlxx_hal_driver/Inc/stm32wlxx_ll_bus.h ****   CLEAR_BIT(RCC->APB1ENR1, Periphs);
1021:hardware/mcu/st/stm32wlxx_hal_driver/Inc/stm32wlxx_ll_bus.h **** }
1022:hardware/mcu/st/stm32wlxx_hal_driver/Inc/stm32wlxx_ll_bus.h **** 
1023:hardware/mcu/st/stm32wlxx_hal_driver/Inc/stm32wlxx_ll_bus.h **** /**
1024:hardware/mcu/st/stm32wlxx_hal_driver/Inc/stm32wlxx_ll_bus.h ****   * @brief  Disable APB1 peripherals clock.
1025:hardware/mcu/st/stm32wlxx_hal_driver/Inc/stm32wlxx_ll_bus.h ****   * @rmtoll APB1ENR2     LPUART1EN     LL_APB1_GRP2_DisableClock\n
1026:hardware/mcu/st/stm32wlxx_hal_driver/Inc/stm32wlxx_ll_bus.h ****   *         APB1ENR2     LPTIM2EN      LL_APB1_GRP2_DisableClock
1027:hardware/mcu/st/stm32wlxx_hal_driver/Inc/stm32wlxx_ll_bus.h ****   *         APB1ENR2     LPTIM3EN      LL_APB1_GRP2_DisableClock
1028:hardware/mcu/st/stm32wlxx_hal_driver/Inc/stm32wlxx_ll_bus.h ****   * @param  Periphs This parameter can be a combination of the following values:
1029:hardware/mcu/st/stm32wlxx_hal_driver/Inc/stm32wlxx_ll_bus.h ****   *         @arg @ref LL_APB1_GRP2_PERIPH_LPUART1
1030:hardware/mcu/st/stm32wlxx_hal_driver/Inc/stm32wlxx_ll_bus.h ****   *         @arg @ref LL_APB1_GRP2_PERIPH_LPTIM2
1031:hardware/mcu/st/stm32wlxx_hal_driver/Inc/stm32wlxx_ll_bus.h ****   *         @arg @ref LL_APB1_GRP2_PERIPH_LPTIM3
1032:hardware/mcu/st/stm32wlxx_hal_driver/Inc/stm32wlxx_ll_bus.h ****   * @retval None
1033:hardware/mcu/st/stm32wlxx_hal_driver/Inc/stm32wlxx_ll_bus.h ****   */
1034:hardware/mcu/st/stm32wlxx_hal_driver/Inc/stm32wlxx_ll_bus.h **** __STATIC_INLINE void LL_APB1_GRP2_DisableClock(uint32_t Periphs)
1035:hardware/mcu/st/stm32wlxx_hal_driver/Inc/stm32wlxx_ll_bus.h **** {
1036:hardware/mcu/st/stm32wlxx_hal_driver/Inc/stm32wlxx_ll_bus.h ****   CLEAR_BIT(RCC->APB1ENR2, Periphs);
1037:hardware/mcu/st/stm32wlxx_hal_driver/Inc/stm32wlxx_ll_bus.h **** }
1038:hardware/mcu/st/stm32wlxx_hal_driver/Inc/stm32wlxx_ll_bus.h **** 
1039:hardware/mcu/st/stm32wlxx_hal_driver/Inc/stm32wlxx_ll_bus.h **** /**
1040:hardware/mcu/st/stm32wlxx_hal_driver/Inc/stm32wlxx_ll_bus.h ****   * @brief  Force APB1 peripherals reset.
1041:hardware/mcu/st/stm32wlxx_hal_driver/Inc/stm32wlxx_ll_bus.h ****   * @rmtoll APB1RSTR1    TIM2RST       LL_APB1_GRP1_ForceReset\n
1042:hardware/mcu/st/stm32wlxx_hal_driver/Inc/stm32wlxx_ll_bus.h ****   *         APB1RSTR1    SPI2RST       LL_APB1_GRP1_ForceReset\n
1043:hardware/mcu/st/stm32wlxx_hal_driver/Inc/stm32wlxx_ll_bus.h ****   *         APB1RSTR1    USART2RST     LL_APB1_GRP1_ForceReset\n
1044:hardware/mcu/st/stm32wlxx_hal_driver/Inc/stm32wlxx_ll_bus.h ****   *         APB1RSTR1    I2C1RST       LL_APB1_GRP1_ForceReset\n
1045:hardware/mcu/st/stm32wlxx_hal_driver/Inc/stm32wlxx_ll_bus.h ****   *         APB1RSTR1    I2C2RST       LL_APB1_GRP1_ForceReset\n
1046:hardware/mcu/st/stm32wlxx_hal_driver/Inc/stm32wlxx_ll_bus.h ****   *         APB1RSTR1    I2C3RST       LL_APB1_GRP1_ForceReset\n
1047:hardware/mcu/st/stm32wlxx_hal_driver/Inc/stm32wlxx_ll_bus.h ****   *         APB1RSTR1    DACRST        LL_APB1_GRP1_ForceReset\n
1048:hardware/mcu/st/stm32wlxx_hal_driver/Inc/stm32wlxx_ll_bus.h ****   *         APB1RSTR1    LPTIM1RST     LL_APB1_GRP1_ForceReset
1049:hardware/mcu/st/stm32wlxx_hal_driver/Inc/stm32wlxx_ll_bus.h ****   * @param  Periphs This parameter can be a combination of the following values:
1050:hardware/mcu/st/stm32wlxx_hal_driver/Inc/stm32wlxx_ll_bus.h ****   *         @arg @ref LL_APB1_GRP1_PERIPH_ALL
1051:hardware/mcu/st/stm32wlxx_hal_driver/Inc/stm32wlxx_ll_bus.h ****   *         @arg @ref LL_APB1_GRP1_PERIPH_TIM2
1052:hardware/mcu/st/stm32wlxx_hal_driver/Inc/stm32wlxx_ll_bus.h ****   *         @arg @ref LL_APB1_GRP1_PERIPH_SPI2
1053:hardware/mcu/st/stm32wlxx_hal_driver/Inc/stm32wlxx_ll_bus.h ****   *         @arg @ref LL_APB1_GRP1_PERIPH_USART2
1054:hardware/mcu/st/stm32wlxx_hal_driver/Inc/stm32wlxx_ll_bus.h ****   *         @arg @ref LL_APB1_GRP1_PERIPH_I2C1
1055:hardware/mcu/st/stm32wlxx_hal_driver/Inc/stm32wlxx_ll_bus.h ****   *         @arg @ref LL_APB1_GRP1_PERIPH_I2C2
1056:hardware/mcu/st/stm32wlxx_hal_driver/Inc/stm32wlxx_ll_bus.h ****   *         @arg @ref LL_APB1_GRP1_PERIPH_I2C3
1057:hardware/mcu/st/stm32wlxx_hal_driver/Inc/stm32wlxx_ll_bus.h ****   *         @arg @ref LL_APB1_GRP1_PERIPH_DAC
1058:hardware/mcu/st/stm32wlxx_hal_driver/Inc/stm32wlxx_ll_bus.h ****   *         @arg @ref LL_APB1_GRP1_PERIPH_LPTIM1
1059:hardware/mcu/st/stm32wlxx_hal_driver/Inc/stm32wlxx_ll_bus.h **** 
1060:hardware/mcu/st/stm32wlxx_hal_driver/Inc/stm32wlxx_ll_bus.h ****   * @retval None
1061:hardware/mcu/st/stm32wlxx_hal_driver/Inc/stm32wlxx_ll_bus.h ****   */
1062:hardware/mcu/st/stm32wlxx_hal_driver/Inc/stm32wlxx_ll_bus.h **** __STATIC_INLINE void LL_APB1_GRP1_ForceReset(uint32_t Periphs)
  72              		.loc 2 1062 22 view .LVU5
  73              	.LVL0:
  74              	.LBB41:
ARM GAS  /var/folders/b4/k4jbz0ms4wg23jtq0w6p483m0000gn/T//cchh5TYj.s 			page 25


1063:hardware/mcu/st/stm32wlxx_hal_driver/Inc/stm32wlxx_ll_bus.h **** {
1064:hardware/mcu/st/stm32wlxx_hal_driver/Inc/stm32wlxx_ll_bus.h ****   SET_BIT(RCC->APB1RSTR1, Periphs);
  75              		.loc 2 1064 3 view .LVU6
  76 0000 4FF0B043 		mov	r3, #1476395008
  77              	.LBE41:
  78              	.LBE40:
 198:hardware/mcu/st/stm32wlxx_hal_driver/Src/stm32wlxx_hal.c ****   /* Reset of all peripherals */
  79              		.loc 1 198 1 is_stmt 0 view .LVU7
  80 0004 10B5     		push	{r4, lr}
  81              	.LCFI0:
  82              		.cfi_def_cfa_offset 8
  83              		.cfi_offset 4, -8
  84              		.cfi_offset 14, -4
  85              	.LBB43:
  86              	.LBB42:
  87              		.loc 2 1064 3 view .LVU8
  88 0006 9A6B     		ldr	r2, [r3, #56]
  89 0008 4FF0FF32 		mov	r2, #-1
  90 000c 9A63     		str	r2, [r3, #56]
  91              	.LVL1:
  92              		.loc 2 1064 3 view .LVU9
  93              	.LBE42:
  94              	.LBE43:
 200:hardware/mcu/st/stm32wlxx_hal_driver/Src/stm32wlxx_hal.c ****   __HAL_RCC_APB1_RELEASE_RESET();
  95              		.loc 1 200 3 is_stmt 1 view .LVU10
  96              	.LBB44:
  97              	.LBI44:
1065:hardware/mcu/st/stm32wlxx_hal_driver/Inc/stm32wlxx_ll_bus.h **** }
1066:hardware/mcu/st/stm32wlxx_hal_driver/Inc/stm32wlxx_ll_bus.h **** 
1067:hardware/mcu/st/stm32wlxx_hal_driver/Inc/stm32wlxx_ll_bus.h **** /**
1068:hardware/mcu/st/stm32wlxx_hal_driver/Inc/stm32wlxx_ll_bus.h ****   * @brief  Force APB1 peripherals reset.
1069:hardware/mcu/st/stm32wlxx_hal_driver/Inc/stm32wlxx_ll_bus.h ****   * @rmtoll APB1RSTR2    LPUART1RST    LL_APB1_GRP2_ForceReset\n
1070:hardware/mcu/st/stm32wlxx_hal_driver/Inc/stm32wlxx_ll_bus.h ****   *         APB1RSTR2    LPTIM2RST     LL_APB1_GRP2_ForceReset
1071:hardware/mcu/st/stm32wlxx_hal_driver/Inc/stm32wlxx_ll_bus.h ****   *         APB1RSTR2    LPTIM3RST     LL_APB1_GRP2_ForceReset
1072:hardware/mcu/st/stm32wlxx_hal_driver/Inc/stm32wlxx_ll_bus.h ****   * @param  Periphs This parameter can be a combination of the following values:
1073:hardware/mcu/st/stm32wlxx_hal_driver/Inc/stm32wlxx_ll_bus.h ****   *         @arg @ref LL_APB1_GRP2_PERIPH_ALL
1074:hardware/mcu/st/stm32wlxx_hal_driver/Inc/stm32wlxx_ll_bus.h ****   *         @arg @ref LL_APB1_GRP2_PERIPH_LPUART1
1075:hardware/mcu/st/stm32wlxx_hal_driver/Inc/stm32wlxx_ll_bus.h ****   *         @arg @ref LL_APB1_GRP2_PERIPH_LPTIM2
1076:hardware/mcu/st/stm32wlxx_hal_driver/Inc/stm32wlxx_ll_bus.h ****   *         @arg @ref LL_APB1_GRP2_PERIPH_LPTIM3
1077:hardware/mcu/st/stm32wlxx_hal_driver/Inc/stm32wlxx_ll_bus.h ****   * @retval None
1078:hardware/mcu/st/stm32wlxx_hal_driver/Inc/stm32wlxx_ll_bus.h ****   */
1079:hardware/mcu/st/stm32wlxx_hal_driver/Inc/stm32wlxx_ll_bus.h **** __STATIC_INLINE void LL_APB1_GRP2_ForceReset(uint32_t Periphs)
  98              		.loc 2 1079 22 view .LVU11
  99              	.LBB45:
1080:hardware/mcu/st/stm32wlxx_hal_driver/Inc/stm32wlxx_ll_bus.h **** {
1081:hardware/mcu/st/stm32wlxx_hal_driver/Inc/stm32wlxx_ll_bus.h ****   SET_BIT(RCC->APB1RSTR2, Periphs);
 100              		.loc 2 1081 3 view .LVU12
 101 000e D96B     		ldr	r1, [r3, #60]
 102 0010 DA63     		str	r2, [r3, #60]
 103              	.LVL2:
 104              		.loc 2 1081 3 is_stmt 0 view .LVU13
 105              	.LBE45:
 106              	.LBE44:
 200:hardware/mcu/st/stm32wlxx_hal_driver/Src/stm32wlxx_hal.c ****   __HAL_RCC_APB1_RELEASE_RESET();
 107              		.loc 1 200 3 is_stmt 1 view .LVU14
 201:hardware/mcu/st/stm32wlxx_hal_driver/Src/stm32wlxx_hal.c **** 
 108              		.loc 1 201 3 view .LVU15
ARM GAS  /var/folders/b4/k4jbz0ms4wg23jtq0w6p483m0000gn/T//cchh5TYj.s 			page 26


 201:hardware/mcu/st/stm32wlxx_hal_driver/Src/stm32wlxx_hal.c **** 
 109              		.loc 1 201 3 view .LVU16
 110              	.LBB46:
 111              	.LBI46:
1082:hardware/mcu/st/stm32wlxx_hal_driver/Inc/stm32wlxx_ll_bus.h **** }
1083:hardware/mcu/st/stm32wlxx_hal_driver/Inc/stm32wlxx_ll_bus.h **** 
1084:hardware/mcu/st/stm32wlxx_hal_driver/Inc/stm32wlxx_ll_bus.h **** /**
1085:hardware/mcu/st/stm32wlxx_hal_driver/Inc/stm32wlxx_ll_bus.h ****   * @brief  Release APB1 peripherals reset.
1086:hardware/mcu/st/stm32wlxx_hal_driver/Inc/stm32wlxx_ll_bus.h ****   * @rmtoll APB1RSTR1    TIM2RST       LL_APB1_GRP1_ReleaseReset\n
1087:hardware/mcu/st/stm32wlxx_hal_driver/Inc/stm32wlxx_ll_bus.h ****   *         APB1RSTR1    SPI2RST       LL_APB1_GRP1_ReleaseReset\n
1088:hardware/mcu/st/stm32wlxx_hal_driver/Inc/stm32wlxx_ll_bus.h ****   *         APB1RSTR1    DACRST        LL_APB1_GRP1_ReleaseReset\n
1089:hardware/mcu/st/stm32wlxx_hal_driver/Inc/stm32wlxx_ll_bus.h ****   *         APB1RSTR1    I2C1RST       LL_APB1_GRP1_ReleaseReset\n
1090:hardware/mcu/st/stm32wlxx_hal_driver/Inc/stm32wlxx_ll_bus.h ****   *         APB1RSTR1    I2C2RST       LL_APB1_GRP1_ReleaseReset\n
1091:hardware/mcu/st/stm32wlxx_hal_driver/Inc/stm32wlxx_ll_bus.h ****   *         APB1RSTR1    I2C3RST       LL_APB1_GRP1_ReleaseReset\n
1092:hardware/mcu/st/stm32wlxx_hal_driver/Inc/stm32wlxx_ll_bus.h ****   *         APB1RSTR1    DACRST        LL_APB1_GRP1_ReleaseReset\n
1093:hardware/mcu/st/stm32wlxx_hal_driver/Inc/stm32wlxx_ll_bus.h ****   *         APB1RSTR1    LPTIM1RST     LL_APB1_GRP1_ReleaseReset
1094:hardware/mcu/st/stm32wlxx_hal_driver/Inc/stm32wlxx_ll_bus.h ****   * @param  Periphs This parameter can be a combination of the following values:
1095:hardware/mcu/st/stm32wlxx_hal_driver/Inc/stm32wlxx_ll_bus.h ****   *         @arg @ref LL_APB1_GRP1_PERIPH_ALL
1096:hardware/mcu/st/stm32wlxx_hal_driver/Inc/stm32wlxx_ll_bus.h ****   *         @arg @ref LL_APB1_GRP1_PERIPH_TIM2
1097:hardware/mcu/st/stm32wlxx_hal_driver/Inc/stm32wlxx_ll_bus.h ****   *         @arg @ref LL_APB1_GRP1_PERIPH_SPI2
1098:hardware/mcu/st/stm32wlxx_hal_driver/Inc/stm32wlxx_ll_bus.h ****   *         @arg @ref LL_APB1_GRP1_PERIPH_USART2
1099:hardware/mcu/st/stm32wlxx_hal_driver/Inc/stm32wlxx_ll_bus.h ****   *         @arg @ref LL_APB1_GRP1_PERIPH_I2C1
1100:hardware/mcu/st/stm32wlxx_hal_driver/Inc/stm32wlxx_ll_bus.h ****   *         @arg @ref LL_APB1_GRP1_PERIPH_I2C2
1101:hardware/mcu/st/stm32wlxx_hal_driver/Inc/stm32wlxx_ll_bus.h ****   *         @arg @ref LL_APB1_GRP1_PERIPH_I2C3
1102:hardware/mcu/st/stm32wlxx_hal_driver/Inc/stm32wlxx_ll_bus.h ****   *         @arg @ref LL_APB1_GRP1_PERIPH_DAC
1103:hardware/mcu/st/stm32wlxx_hal_driver/Inc/stm32wlxx_ll_bus.h ****   *         @arg @ref LL_APB1_GRP1_PERIPH_LPTIM1
1104:hardware/mcu/st/stm32wlxx_hal_driver/Inc/stm32wlxx_ll_bus.h **** 
1105:hardware/mcu/st/stm32wlxx_hal_driver/Inc/stm32wlxx_ll_bus.h ****   * @retval None
1106:hardware/mcu/st/stm32wlxx_hal_driver/Inc/stm32wlxx_ll_bus.h ****   */
1107:hardware/mcu/st/stm32wlxx_hal_driver/Inc/stm32wlxx_ll_bus.h **** __STATIC_INLINE void LL_APB1_GRP1_ReleaseReset(uint32_t Periphs)
 112              		.loc 2 1107 22 view .LVU17
 113              	.LBB47:
1108:hardware/mcu/st/stm32wlxx_hal_driver/Inc/stm32wlxx_ll_bus.h **** {
1109:hardware/mcu/st/stm32wlxx_hal_driver/Inc/stm32wlxx_ll_bus.h ****   CLEAR_BIT(RCC->APB1RSTR1, Periphs);
 114              		.loc 2 1109 3 view .LVU18
 115 0012 0024     		movs	r4, #0
 116 0014 996B     		ldr	r1, [r3, #56]
 117 0016 9C63     		str	r4, [r3, #56]
 118              	.LVL3:
 119              		.loc 2 1109 3 is_stmt 0 view .LVU19
 120              	.LBE47:
 121              	.LBE46:
 201:hardware/mcu/st/stm32wlxx_hal_driver/Src/stm32wlxx_hal.c **** 
 122              		.loc 1 201 3 is_stmt 1 view .LVU20
 123              	.LBB48:
 124              	.LBI48:
1110:hardware/mcu/st/stm32wlxx_hal_driver/Inc/stm32wlxx_ll_bus.h **** }
1111:hardware/mcu/st/stm32wlxx_hal_driver/Inc/stm32wlxx_ll_bus.h **** 
1112:hardware/mcu/st/stm32wlxx_hal_driver/Inc/stm32wlxx_ll_bus.h **** /**
1113:hardware/mcu/st/stm32wlxx_hal_driver/Inc/stm32wlxx_ll_bus.h ****   * @brief  Release APB1 peripherals reset.
1114:hardware/mcu/st/stm32wlxx_hal_driver/Inc/stm32wlxx_ll_bus.h ****   * @rmtoll APB1RSTR2    LPUART1RST    LL_APB1_GRP2_ReleaseReset\n
1115:hardware/mcu/st/stm32wlxx_hal_driver/Inc/stm32wlxx_ll_bus.h ****   *         APB1RSTR2    LPTIM2RST     LL_APB1_GRP2_ReleaseReset
1116:hardware/mcu/st/stm32wlxx_hal_driver/Inc/stm32wlxx_ll_bus.h ****   *         APB1RSTR2    LPTIM3RST     LL_APB1_GRP2_ReleaseReset
1117:hardware/mcu/st/stm32wlxx_hal_driver/Inc/stm32wlxx_ll_bus.h ****   * @param  Periphs This parameter can be a combination of the following values:
1118:hardware/mcu/st/stm32wlxx_hal_driver/Inc/stm32wlxx_ll_bus.h ****   *         @arg @ref LL_APB1_GRP2_PERIPH_ALL
1119:hardware/mcu/st/stm32wlxx_hal_driver/Inc/stm32wlxx_ll_bus.h ****   *         @arg @ref LL_APB1_GRP2_PERIPH_LPUART1
1120:hardware/mcu/st/stm32wlxx_hal_driver/Inc/stm32wlxx_ll_bus.h ****   *         @arg @ref LL_APB1_GRP2_PERIPH_LPTIM2
ARM GAS  /var/folders/b4/k4jbz0ms4wg23jtq0w6p483m0000gn/T//cchh5TYj.s 			page 27


1121:hardware/mcu/st/stm32wlxx_hal_driver/Inc/stm32wlxx_ll_bus.h ****   *         @arg @ref LL_APB1_GRP2_PERIPH_LPTIM3
1122:hardware/mcu/st/stm32wlxx_hal_driver/Inc/stm32wlxx_ll_bus.h ****   * @retval None
1123:hardware/mcu/st/stm32wlxx_hal_driver/Inc/stm32wlxx_ll_bus.h ****   */
1124:hardware/mcu/st/stm32wlxx_hal_driver/Inc/stm32wlxx_ll_bus.h **** __STATIC_INLINE void LL_APB1_GRP2_ReleaseReset(uint32_t Periphs)
 125              		.loc 2 1124 22 view .LVU21
 126              	.LBB49:
1125:hardware/mcu/st/stm32wlxx_hal_driver/Inc/stm32wlxx_ll_bus.h **** {
1126:hardware/mcu/st/stm32wlxx_hal_driver/Inc/stm32wlxx_ll_bus.h ****   CLEAR_BIT(RCC->APB1RSTR2, Periphs);
 127              		.loc 2 1126 3 view .LVU22
 128 0018 D96B     		ldr	r1, [r3, #60]
 129 001a DC63     		str	r4, [r3, #60]
 130              	.LVL4:
 131              		.loc 2 1126 3 is_stmt 0 view .LVU23
 132              	.LBE49:
 133              	.LBE48:
 201:hardware/mcu/st/stm32wlxx_hal_driver/Src/stm32wlxx_hal.c **** 
 134              		.loc 1 201 3 is_stmt 1 view .LVU24
 203:hardware/mcu/st/stm32wlxx_hal_driver/Src/stm32wlxx_hal.c ****   __HAL_RCC_APB2_RELEASE_RESET();
 135              		.loc 1 203 3 view .LVU25
 136              	.LBB50:
 137              	.LBI50:
1127:hardware/mcu/st/stm32wlxx_hal_driver/Inc/stm32wlxx_ll_bus.h **** }
1128:hardware/mcu/st/stm32wlxx_hal_driver/Inc/stm32wlxx_ll_bus.h **** 
1129:hardware/mcu/st/stm32wlxx_hal_driver/Inc/stm32wlxx_ll_bus.h **** /**
1130:hardware/mcu/st/stm32wlxx_hal_driver/Inc/stm32wlxx_ll_bus.h ****   * @brief  Enable APB1 peripherals clock during Low Power (Sleep) mode.
1131:hardware/mcu/st/stm32wlxx_hal_driver/Inc/stm32wlxx_ll_bus.h ****   * @rmtoll APB1SMENR1   TIM2SMEN      LL_APB1_GRP1_EnableClockSleep\n
1132:hardware/mcu/st/stm32wlxx_hal_driver/Inc/stm32wlxx_ll_bus.h ****   *         APB1SMENR1   RTCAPBSMEN    LL_APB1_GRP1_EnableClockSleep\n
1133:hardware/mcu/st/stm32wlxx_hal_driver/Inc/stm32wlxx_ll_bus.h ****   *         APB1SMENR1   WWDGSMEN      LL_APB1_GRP1_EnableClockSleep\n
1134:hardware/mcu/st/stm32wlxx_hal_driver/Inc/stm32wlxx_ll_bus.h ****   *         APB1SMENR1   SPI2SMEN      LL_APB1_GRP1_EnableClockSleep\n
1135:hardware/mcu/st/stm32wlxx_hal_driver/Inc/stm32wlxx_ll_bus.h ****   *         APB1SMENR1   USART2SMEN    LL_APB1_GRP1_EnableClockSleep\n
1136:hardware/mcu/st/stm32wlxx_hal_driver/Inc/stm32wlxx_ll_bus.h ****   *         APB1SMENR1   I2C1SMEN      LL_APB1_GRP1_EnableClockSleep\n
1137:hardware/mcu/st/stm32wlxx_hal_driver/Inc/stm32wlxx_ll_bus.h ****   *         APB1SMENR1   I2C2SMEN      LL_APB1_GRP1_EnableClockSleep\n
1138:hardware/mcu/st/stm32wlxx_hal_driver/Inc/stm32wlxx_ll_bus.h ****   *         APB1SMENR1   I2C3SMEN      LL_APB1_GRP1_EnableClockSleep\n
1139:hardware/mcu/st/stm32wlxx_hal_driver/Inc/stm32wlxx_ll_bus.h ****   *         APB1SMENR1   DACSMEN       LL_APB1_GRP1_EnableClockSleep\n
1140:hardware/mcu/st/stm32wlxx_hal_driver/Inc/stm32wlxx_ll_bus.h ****   *         APB1SMENR1   LPTIM1SMEN    LL_APB1_GRP1_EnableClockSleep
1141:hardware/mcu/st/stm32wlxx_hal_driver/Inc/stm32wlxx_ll_bus.h ****   * @param  Periphs This parameter can be a combination of the following values:
1142:hardware/mcu/st/stm32wlxx_hal_driver/Inc/stm32wlxx_ll_bus.h ****   *         @arg @ref LL_APB1_GRP1_PERIPH_TIM2
1143:hardware/mcu/st/stm32wlxx_hal_driver/Inc/stm32wlxx_ll_bus.h ****   *         @arg @ref LL_APB1_GRP1_PERIPH_RTCAPB
1144:hardware/mcu/st/stm32wlxx_hal_driver/Inc/stm32wlxx_ll_bus.h ****   *         @arg @ref LL_APB1_GRP1_PERIPH_WWDG
1145:hardware/mcu/st/stm32wlxx_hal_driver/Inc/stm32wlxx_ll_bus.h ****   *         @arg @ref LL_APB1_GRP1_PERIPH_SPI2
1146:hardware/mcu/st/stm32wlxx_hal_driver/Inc/stm32wlxx_ll_bus.h ****   *         @arg @ref LL_APB1_GRP1_PERIPH_USART2
1147:hardware/mcu/st/stm32wlxx_hal_driver/Inc/stm32wlxx_ll_bus.h ****   *         @arg @ref LL_APB1_GRP1_PERIPH_I2C1
1148:hardware/mcu/st/stm32wlxx_hal_driver/Inc/stm32wlxx_ll_bus.h ****   *         @arg @ref LL_APB1_GRP1_PERIPH_I2C2
1149:hardware/mcu/st/stm32wlxx_hal_driver/Inc/stm32wlxx_ll_bus.h ****   *         @arg @ref LL_APB1_GRP1_PERIPH_I2C3
1150:hardware/mcu/st/stm32wlxx_hal_driver/Inc/stm32wlxx_ll_bus.h ****   *         @arg @ref LL_APB1_GRP1_PERIPH_DAC
1151:hardware/mcu/st/stm32wlxx_hal_driver/Inc/stm32wlxx_ll_bus.h ****   *         @arg @ref LL_APB1_GRP1_PERIPH_LPTIM1
1152:hardware/mcu/st/stm32wlxx_hal_driver/Inc/stm32wlxx_ll_bus.h **** 
1153:hardware/mcu/st/stm32wlxx_hal_driver/Inc/stm32wlxx_ll_bus.h ****   * @retval None
1154:hardware/mcu/st/stm32wlxx_hal_driver/Inc/stm32wlxx_ll_bus.h ****   */
1155:hardware/mcu/st/stm32wlxx_hal_driver/Inc/stm32wlxx_ll_bus.h **** __STATIC_INLINE void LL_APB1_GRP1_EnableClockSleep(uint32_t Periphs)
1156:hardware/mcu/st/stm32wlxx_hal_driver/Inc/stm32wlxx_ll_bus.h **** {
1157:hardware/mcu/st/stm32wlxx_hal_driver/Inc/stm32wlxx_ll_bus.h ****   __IO uint32_t tmpreg;
1158:hardware/mcu/st/stm32wlxx_hal_driver/Inc/stm32wlxx_ll_bus.h ****   SET_BIT(RCC->APB1SMENR1, Periphs);
1159:hardware/mcu/st/stm32wlxx_hal_driver/Inc/stm32wlxx_ll_bus.h ****   /* Delay after an RCC peripheral clock enabling */
1160:hardware/mcu/st/stm32wlxx_hal_driver/Inc/stm32wlxx_ll_bus.h ****   tmpreg = READ_BIT(RCC->APB1SMENR1, Periphs);
1161:hardware/mcu/st/stm32wlxx_hal_driver/Inc/stm32wlxx_ll_bus.h ****   (void)tmpreg;
1162:hardware/mcu/st/stm32wlxx_hal_driver/Inc/stm32wlxx_ll_bus.h **** }
ARM GAS  /var/folders/b4/k4jbz0ms4wg23jtq0w6p483m0000gn/T//cchh5TYj.s 			page 28


1163:hardware/mcu/st/stm32wlxx_hal_driver/Inc/stm32wlxx_ll_bus.h **** 
1164:hardware/mcu/st/stm32wlxx_hal_driver/Inc/stm32wlxx_ll_bus.h **** /**
1165:hardware/mcu/st/stm32wlxx_hal_driver/Inc/stm32wlxx_ll_bus.h ****   * @brief  Enable APB1 peripherals clock during Low Power (Sleep) mode.
1166:hardware/mcu/st/stm32wlxx_hal_driver/Inc/stm32wlxx_ll_bus.h ****   * @rmtoll APB1SMENR2   LPUART1SMEN   LL_APB1_GRP2_EnableClockSleep\n
1167:hardware/mcu/st/stm32wlxx_hal_driver/Inc/stm32wlxx_ll_bus.h ****   *         APB1SMENR2   LPTIM2SMEN    LL_APB1_GRP2_EnableClockSleep
1168:hardware/mcu/st/stm32wlxx_hal_driver/Inc/stm32wlxx_ll_bus.h ****   *         APB1SMENR2   LPTIM3SMEN    LL_APB1_GRP2_EnableClockSleep
1169:hardware/mcu/st/stm32wlxx_hal_driver/Inc/stm32wlxx_ll_bus.h ****   * @param  Periphs This parameter can be a combination of the following values:
1170:hardware/mcu/st/stm32wlxx_hal_driver/Inc/stm32wlxx_ll_bus.h ****   *         @arg @ref LL_APB1_GRP2_PERIPH_LPUART1
1171:hardware/mcu/st/stm32wlxx_hal_driver/Inc/stm32wlxx_ll_bus.h ****   *         @arg @ref LL_APB1_GRP2_PERIPH_LPTIM2
1172:hardware/mcu/st/stm32wlxx_hal_driver/Inc/stm32wlxx_ll_bus.h ****   *         @arg @ref LL_APB1_GRP2_PERIPH_LPTIM3
1173:hardware/mcu/st/stm32wlxx_hal_driver/Inc/stm32wlxx_ll_bus.h ****   * @retval None
1174:hardware/mcu/st/stm32wlxx_hal_driver/Inc/stm32wlxx_ll_bus.h ****   */
1175:hardware/mcu/st/stm32wlxx_hal_driver/Inc/stm32wlxx_ll_bus.h **** __STATIC_INLINE void LL_APB1_GRP2_EnableClockSleep(uint32_t Periphs)
1176:hardware/mcu/st/stm32wlxx_hal_driver/Inc/stm32wlxx_ll_bus.h **** {
1177:hardware/mcu/st/stm32wlxx_hal_driver/Inc/stm32wlxx_ll_bus.h ****   __IO uint32_t tmpreg;
1178:hardware/mcu/st/stm32wlxx_hal_driver/Inc/stm32wlxx_ll_bus.h ****   SET_BIT(RCC->APB1SMENR2, Periphs);
1179:hardware/mcu/st/stm32wlxx_hal_driver/Inc/stm32wlxx_ll_bus.h ****   /* Delay after an RCC peripheral clock enabling */
1180:hardware/mcu/st/stm32wlxx_hal_driver/Inc/stm32wlxx_ll_bus.h ****   tmpreg = READ_BIT(RCC->APB1SMENR2, Periphs);
1181:hardware/mcu/st/stm32wlxx_hal_driver/Inc/stm32wlxx_ll_bus.h ****   (void)tmpreg;
1182:hardware/mcu/st/stm32wlxx_hal_driver/Inc/stm32wlxx_ll_bus.h **** }
1183:hardware/mcu/st/stm32wlxx_hal_driver/Inc/stm32wlxx_ll_bus.h **** 
1184:hardware/mcu/st/stm32wlxx_hal_driver/Inc/stm32wlxx_ll_bus.h **** /**
1185:hardware/mcu/st/stm32wlxx_hal_driver/Inc/stm32wlxx_ll_bus.h ****   * @brief  Check if APB1 clock is enabled by the clock gating during CPU1 CSleep mode
1186:hardware/mcu/st/stm32wlxx_hal_driver/Inc/stm32wlxx_ll_bus.h ****   * @rmtoll APB1SMENR1   TIM2SMEN      LL_APB1_GRP1_IsEnabledClockSleep\n
1187:hardware/mcu/st/stm32wlxx_hal_driver/Inc/stm32wlxx_ll_bus.h ****   *         APB1SMENR1   RTCAPBSMEN    LL_APB1_GRP1_IsEnabledClockSleep\n
1188:hardware/mcu/st/stm32wlxx_hal_driver/Inc/stm32wlxx_ll_bus.h ****   *         APB1SMENR1   WWDGSMEN      LL_APB1_GRP1_IsEnabledClockSleep\n
1189:hardware/mcu/st/stm32wlxx_hal_driver/Inc/stm32wlxx_ll_bus.h ****   *         APB1SMENR1   SPI2SMEN      LL_APB1_GRP1_IsEnabledClockSleep\n
1190:hardware/mcu/st/stm32wlxx_hal_driver/Inc/stm32wlxx_ll_bus.h ****   *         APB1SMENR1   USART2SMEN    LL_APB1_GRP1_IsEnabledClockSleep\n
1191:hardware/mcu/st/stm32wlxx_hal_driver/Inc/stm32wlxx_ll_bus.h ****   *         APB1SMENR1   I2C1SMEN      LL_APB1_GRP1_IsEnabledClockSleep\n
1192:hardware/mcu/st/stm32wlxx_hal_driver/Inc/stm32wlxx_ll_bus.h ****   *         APB1SMENR1   I2C2SMEN      LL_APB1_GRP1_IsEnabledClockSleep\n
1193:hardware/mcu/st/stm32wlxx_hal_driver/Inc/stm32wlxx_ll_bus.h ****   *         APB1SMENR1   I2C3SMEN      LL_APB1_GRP1_IsEnabledClockSleep\n
1194:hardware/mcu/st/stm32wlxx_hal_driver/Inc/stm32wlxx_ll_bus.h ****   *         APB1SMENR1   DACSMEN       LL_APB1_GRP1_IsEnabledClockSleep\n
1195:hardware/mcu/st/stm32wlxx_hal_driver/Inc/stm32wlxx_ll_bus.h ****   *         APB1SMENR1   LPTIM1SMEN    LL_APB1_GRP1_IsEnabledClockSleep
1196:hardware/mcu/st/stm32wlxx_hal_driver/Inc/stm32wlxx_ll_bus.h ****   * @param  Periphs This parameter can be a combination of the following values:
1197:hardware/mcu/st/stm32wlxx_hal_driver/Inc/stm32wlxx_ll_bus.h ****   *         @arg @ref LL_APB1_GRP1_PERIPH_TIM2
1198:hardware/mcu/st/stm32wlxx_hal_driver/Inc/stm32wlxx_ll_bus.h ****   *         @arg @ref LL_APB1_GRP1_PERIPH_RTCAPB
1199:hardware/mcu/st/stm32wlxx_hal_driver/Inc/stm32wlxx_ll_bus.h ****   *         @arg @ref LL_APB1_GRP1_PERIPH_WWDG
1200:hardware/mcu/st/stm32wlxx_hal_driver/Inc/stm32wlxx_ll_bus.h ****   *         @arg @ref LL_APB1_GRP1_PERIPH_SPI2
1201:hardware/mcu/st/stm32wlxx_hal_driver/Inc/stm32wlxx_ll_bus.h ****   *         @arg @ref LL_APB1_GRP1_PERIPH_USART2
1202:hardware/mcu/st/stm32wlxx_hal_driver/Inc/stm32wlxx_ll_bus.h ****   *         @arg @ref LL_APB1_GRP1_PERIPH_I2C1
1203:hardware/mcu/st/stm32wlxx_hal_driver/Inc/stm32wlxx_ll_bus.h ****   *         @arg @ref LL_APB1_GRP1_PERIPH_I2C2
1204:hardware/mcu/st/stm32wlxx_hal_driver/Inc/stm32wlxx_ll_bus.h ****   *         @arg @ref LL_APB1_GRP1_PERIPH_I2C3
1205:hardware/mcu/st/stm32wlxx_hal_driver/Inc/stm32wlxx_ll_bus.h ****   *         @arg @ref LL_APB1_GRP1_PERIPH_DAC
1206:hardware/mcu/st/stm32wlxx_hal_driver/Inc/stm32wlxx_ll_bus.h ****   *         @arg @ref LL_APB1_GRP1_PERIPH_LPTIM1
1207:hardware/mcu/st/stm32wlxx_hal_driver/Inc/stm32wlxx_ll_bus.h **** 
1208:hardware/mcu/st/stm32wlxx_hal_driver/Inc/stm32wlxx_ll_bus.h ****   * @retval None
1209:hardware/mcu/st/stm32wlxx_hal_driver/Inc/stm32wlxx_ll_bus.h ****   */
1210:hardware/mcu/st/stm32wlxx_hal_driver/Inc/stm32wlxx_ll_bus.h **** __STATIC_INLINE uint32_t LL_APB1_GRP1_IsEnabledClockSleep(uint32_t Periphs)
1211:hardware/mcu/st/stm32wlxx_hal_driver/Inc/stm32wlxx_ll_bus.h **** {
1212:hardware/mcu/st/stm32wlxx_hal_driver/Inc/stm32wlxx_ll_bus.h ****   return ((READ_BIT(RCC->APB1SMENR1, Periphs) == (Periphs)) ? 1UL : 0UL);
1213:hardware/mcu/st/stm32wlxx_hal_driver/Inc/stm32wlxx_ll_bus.h **** }
1214:hardware/mcu/st/stm32wlxx_hal_driver/Inc/stm32wlxx_ll_bus.h **** 
1215:hardware/mcu/st/stm32wlxx_hal_driver/Inc/stm32wlxx_ll_bus.h **** /**
1216:hardware/mcu/st/stm32wlxx_hal_driver/Inc/stm32wlxx_ll_bus.h ****   * @brief  Check if APB1 clock is enabled by the clock gating during CPU1 CSleep mode
1217:hardware/mcu/st/stm32wlxx_hal_driver/Inc/stm32wlxx_ll_bus.h ****   * @rmtoll APB1SMENR2   LPUART1SMEN   LL_APB1_GRP2_IsEnabledClockSleep\n
1218:hardware/mcu/st/stm32wlxx_hal_driver/Inc/stm32wlxx_ll_bus.h ****   *         APB1SMENR2   LPTIM2SMEN    LL_APB1_GRP2_IsEnabledClockSleep\n
1219:hardware/mcu/st/stm32wlxx_hal_driver/Inc/stm32wlxx_ll_bus.h ****   *         APB1SMENR2   LPTIM3SMEN    LL_APB1_GRP2_IsEnabledClockSleep
ARM GAS  /var/folders/b4/k4jbz0ms4wg23jtq0w6p483m0000gn/T//cchh5TYj.s 			page 29


1220:hardware/mcu/st/stm32wlxx_hal_driver/Inc/stm32wlxx_ll_bus.h ****   * @param  Periphs This parameter can be a combination of the following values:
1221:hardware/mcu/st/stm32wlxx_hal_driver/Inc/stm32wlxx_ll_bus.h ****   *         @arg @ref LL_APB1_GRP2_PERIPH_LPUART1
1222:hardware/mcu/st/stm32wlxx_hal_driver/Inc/stm32wlxx_ll_bus.h ****   *         @arg @ref LL_APB1_GRP2_PERIPH_LPTIM2
1223:hardware/mcu/st/stm32wlxx_hal_driver/Inc/stm32wlxx_ll_bus.h ****   *         @arg @ref LL_APB1_GRP2_PERIPH_LPTIM3
1224:hardware/mcu/st/stm32wlxx_hal_driver/Inc/stm32wlxx_ll_bus.h ****   * @retval None
1225:hardware/mcu/st/stm32wlxx_hal_driver/Inc/stm32wlxx_ll_bus.h ****   */
1226:hardware/mcu/st/stm32wlxx_hal_driver/Inc/stm32wlxx_ll_bus.h **** __STATIC_INLINE uint32_t LL_APB1_GRP2_IsEnabledClockSleep(uint32_t Periphs)
1227:hardware/mcu/st/stm32wlxx_hal_driver/Inc/stm32wlxx_ll_bus.h **** {
1228:hardware/mcu/st/stm32wlxx_hal_driver/Inc/stm32wlxx_ll_bus.h ****   return ((READ_BIT(RCC->APB1SMENR2, Periphs) == (Periphs)) ? 1UL : 0UL);
1229:hardware/mcu/st/stm32wlxx_hal_driver/Inc/stm32wlxx_ll_bus.h **** }
1230:hardware/mcu/st/stm32wlxx_hal_driver/Inc/stm32wlxx_ll_bus.h **** 
1231:hardware/mcu/st/stm32wlxx_hal_driver/Inc/stm32wlxx_ll_bus.h **** /**
1232:hardware/mcu/st/stm32wlxx_hal_driver/Inc/stm32wlxx_ll_bus.h ****   * @brief  Disable APB1 peripherals clock during Low Power (Sleep) mode.
1233:hardware/mcu/st/stm32wlxx_hal_driver/Inc/stm32wlxx_ll_bus.h ****   * @rmtoll APB1SMENR1   TIM2SMEN      LL_APB1_GRP1_DisableClockSleep\n
1234:hardware/mcu/st/stm32wlxx_hal_driver/Inc/stm32wlxx_ll_bus.h ****   *         APB1SMENR1   RTCAPBSMEN    LL_APB1_GRP1_DisableClockSleep\n
1235:hardware/mcu/st/stm32wlxx_hal_driver/Inc/stm32wlxx_ll_bus.h ****   *         APB1SMENR1   WWDGSMEN      LL_APB1_GRP1_DisableClockSleep\n
1236:hardware/mcu/st/stm32wlxx_hal_driver/Inc/stm32wlxx_ll_bus.h ****   *         APB1SMENR1   SPI2SMEN      LL_APB1_GRP1_DisableClockSleep\n
1237:hardware/mcu/st/stm32wlxx_hal_driver/Inc/stm32wlxx_ll_bus.h ****   *         APB1SMENR1   USART2SMEN    LL_APB1_GRP1_DisableClockSleep\n
1238:hardware/mcu/st/stm32wlxx_hal_driver/Inc/stm32wlxx_ll_bus.h ****   *         APB1SMENR1   I2C1SMEN      LL_APB1_GRP1_DisableClockSleep\n
1239:hardware/mcu/st/stm32wlxx_hal_driver/Inc/stm32wlxx_ll_bus.h ****   *         APB1SMENR1   I2C2SMEN      LL_APB1_GRP1_DisableClockSleep\n
1240:hardware/mcu/st/stm32wlxx_hal_driver/Inc/stm32wlxx_ll_bus.h ****   *         APB1SMENR1   I2C3SMEN      LL_APB1_GRP1_DisableClockSleep\n
1241:hardware/mcu/st/stm32wlxx_hal_driver/Inc/stm32wlxx_ll_bus.h ****   *         APB1SMENR1   DACSMEN       LL_APB1_GRP1_DisableClockSleep\n
1242:hardware/mcu/st/stm32wlxx_hal_driver/Inc/stm32wlxx_ll_bus.h ****   *         APB1SMENR1   LPTIM1SMEN    LL_APB1_GRP1_DisableClockSleep
1243:hardware/mcu/st/stm32wlxx_hal_driver/Inc/stm32wlxx_ll_bus.h ****   * @param  Periphs This parameter can be a combination of the following values:
1244:hardware/mcu/st/stm32wlxx_hal_driver/Inc/stm32wlxx_ll_bus.h ****   *         @arg @ref LL_APB1_GRP1_PERIPH_TIM2
1245:hardware/mcu/st/stm32wlxx_hal_driver/Inc/stm32wlxx_ll_bus.h ****   *         @arg @ref LL_APB1_GRP1_PERIPH_RTCAPB
1246:hardware/mcu/st/stm32wlxx_hal_driver/Inc/stm32wlxx_ll_bus.h ****   *         @arg @ref LL_APB1_GRP1_PERIPH_WWDG
1247:hardware/mcu/st/stm32wlxx_hal_driver/Inc/stm32wlxx_ll_bus.h ****   *         @arg @ref LL_APB1_GRP1_PERIPH_SPI2
1248:hardware/mcu/st/stm32wlxx_hal_driver/Inc/stm32wlxx_ll_bus.h ****   *         @arg @ref LL_APB1_GRP1_PERIPH_USART2
1249:hardware/mcu/st/stm32wlxx_hal_driver/Inc/stm32wlxx_ll_bus.h ****   *         @arg @ref LL_APB1_GRP1_PERIPH_I2C1
1250:hardware/mcu/st/stm32wlxx_hal_driver/Inc/stm32wlxx_ll_bus.h ****   *         @arg @ref LL_APB1_GRP1_PERIPH_I2C2
1251:hardware/mcu/st/stm32wlxx_hal_driver/Inc/stm32wlxx_ll_bus.h ****   *         @arg @ref LL_APB1_GRP1_PERIPH_I2C3
1252:hardware/mcu/st/stm32wlxx_hal_driver/Inc/stm32wlxx_ll_bus.h ****   *         @arg @ref LL_APB1_GRP1_PERIPH_DAC
1253:hardware/mcu/st/stm32wlxx_hal_driver/Inc/stm32wlxx_ll_bus.h ****   *         @arg @ref LL_APB1_GRP1_PERIPH_LPTIM1
1254:hardware/mcu/st/stm32wlxx_hal_driver/Inc/stm32wlxx_ll_bus.h **** 
1255:hardware/mcu/st/stm32wlxx_hal_driver/Inc/stm32wlxx_ll_bus.h ****   * @retval None
1256:hardware/mcu/st/stm32wlxx_hal_driver/Inc/stm32wlxx_ll_bus.h ****   */
1257:hardware/mcu/st/stm32wlxx_hal_driver/Inc/stm32wlxx_ll_bus.h **** __STATIC_INLINE void LL_APB1_GRP1_DisableClockSleep(uint32_t Periphs)
1258:hardware/mcu/st/stm32wlxx_hal_driver/Inc/stm32wlxx_ll_bus.h **** {
1259:hardware/mcu/st/stm32wlxx_hal_driver/Inc/stm32wlxx_ll_bus.h ****   CLEAR_BIT(RCC->APB1SMENR1, Periphs);
1260:hardware/mcu/st/stm32wlxx_hal_driver/Inc/stm32wlxx_ll_bus.h **** }
1261:hardware/mcu/st/stm32wlxx_hal_driver/Inc/stm32wlxx_ll_bus.h **** 
1262:hardware/mcu/st/stm32wlxx_hal_driver/Inc/stm32wlxx_ll_bus.h **** /**
1263:hardware/mcu/st/stm32wlxx_hal_driver/Inc/stm32wlxx_ll_bus.h ****   * @brief  Disable APB1 peripherals clock during Low Power (Sleep) mode.
1264:hardware/mcu/st/stm32wlxx_hal_driver/Inc/stm32wlxx_ll_bus.h ****   * @rmtoll APB1SMENR2   LPUART1SMEN   LL_APB1_GRP2_DisableClockSleep\n
1265:hardware/mcu/st/stm32wlxx_hal_driver/Inc/stm32wlxx_ll_bus.h ****   *         APB1SMENR2   LPTIM2SMEN    LL_APB1_GRP2_DisableClockSleep
1266:hardware/mcu/st/stm32wlxx_hal_driver/Inc/stm32wlxx_ll_bus.h ****   *         APB1SMENR2   LPTIM3SMEN    LL_APB1_GRP2_DisableClockSleep
1267:hardware/mcu/st/stm32wlxx_hal_driver/Inc/stm32wlxx_ll_bus.h ****   * @param  Periphs This parameter can be a combination of the following values:
1268:hardware/mcu/st/stm32wlxx_hal_driver/Inc/stm32wlxx_ll_bus.h ****   *         @arg @ref LL_APB1_GRP2_PERIPH_LPUART1
1269:hardware/mcu/st/stm32wlxx_hal_driver/Inc/stm32wlxx_ll_bus.h ****   *         @arg @ref LL_APB1_GRP2_PERIPH_LPTIM2
1270:hardware/mcu/st/stm32wlxx_hal_driver/Inc/stm32wlxx_ll_bus.h ****   *         @arg @ref LL_APB1_GRP2_PERIPH_LPTIM3
1271:hardware/mcu/st/stm32wlxx_hal_driver/Inc/stm32wlxx_ll_bus.h ****   * @retval None
1272:hardware/mcu/st/stm32wlxx_hal_driver/Inc/stm32wlxx_ll_bus.h ****   */
1273:hardware/mcu/st/stm32wlxx_hal_driver/Inc/stm32wlxx_ll_bus.h **** __STATIC_INLINE void LL_APB1_GRP2_DisableClockSleep(uint32_t Periphs)
1274:hardware/mcu/st/stm32wlxx_hal_driver/Inc/stm32wlxx_ll_bus.h **** {
1275:hardware/mcu/st/stm32wlxx_hal_driver/Inc/stm32wlxx_ll_bus.h ****   CLEAR_BIT(RCC->APB1SMENR2, Periphs);
1276:hardware/mcu/st/stm32wlxx_hal_driver/Inc/stm32wlxx_ll_bus.h **** }
ARM GAS  /var/folders/b4/k4jbz0ms4wg23jtq0w6p483m0000gn/T//cchh5TYj.s 			page 30


1277:hardware/mcu/st/stm32wlxx_hal_driver/Inc/stm32wlxx_ll_bus.h **** 
1278:hardware/mcu/st/stm32wlxx_hal_driver/Inc/stm32wlxx_ll_bus.h **** /**
1279:hardware/mcu/st/stm32wlxx_hal_driver/Inc/stm32wlxx_ll_bus.h ****   * @}
1280:hardware/mcu/st/stm32wlxx_hal_driver/Inc/stm32wlxx_ll_bus.h ****   */
1281:hardware/mcu/st/stm32wlxx_hal_driver/Inc/stm32wlxx_ll_bus.h **** 
1282:hardware/mcu/st/stm32wlxx_hal_driver/Inc/stm32wlxx_ll_bus.h **** /** @defgroup BUS_LL_EF_APB2 APB2
1283:hardware/mcu/st/stm32wlxx_hal_driver/Inc/stm32wlxx_ll_bus.h ****   * @{
1284:hardware/mcu/st/stm32wlxx_hal_driver/Inc/stm32wlxx_ll_bus.h ****   */
1285:hardware/mcu/st/stm32wlxx_hal_driver/Inc/stm32wlxx_ll_bus.h **** 
1286:hardware/mcu/st/stm32wlxx_hal_driver/Inc/stm32wlxx_ll_bus.h **** /**
1287:hardware/mcu/st/stm32wlxx_hal_driver/Inc/stm32wlxx_ll_bus.h ****   * @brief  Enable APB2 peripherals clock.
1288:hardware/mcu/st/stm32wlxx_hal_driver/Inc/stm32wlxx_ll_bus.h ****   * @rmtoll APB2ENR      ADCEN         LL_APB2_GRP1_EnableClock\n
1289:hardware/mcu/st/stm32wlxx_hal_driver/Inc/stm32wlxx_ll_bus.h ****   *         APB2ENR      TIM1EN        LL_APB2_GRP1_EnableClock\n
1290:hardware/mcu/st/stm32wlxx_hal_driver/Inc/stm32wlxx_ll_bus.h ****   *         APB2ENR      SPI1EN        LL_APB2_GRP1_EnableClock\n
1291:hardware/mcu/st/stm32wlxx_hal_driver/Inc/stm32wlxx_ll_bus.h ****   *         APB2ENR      USART1EN      LL_APB2_GRP1_EnableClock\n
1292:hardware/mcu/st/stm32wlxx_hal_driver/Inc/stm32wlxx_ll_bus.h ****   *         APB2ENR      TIM16EN       LL_APB2_GRP1_EnableClock\n
1293:hardware/mcu/st/stm32wlxx_hal_driver/Inc/stm32wlxx_ll_bus.h ****   *         APB2ENR      TIM17EN       LL_APB2_GRP1_EnableClock\n
1294:hardware/mcu/st/stm32wlxx_hal_driver/Inc/stm32wlxx_ll_bus.h ****   * @param  Periphs This parameter can be a combination of the following values:
1295:hardware/mcu/st/stm32wlxx_hal_driver/Inc/stm32wlxx_ll_bus.h ****   *         @arg @ref LL_APB2_GRP1_PERIPH_ADC
1296:hardware/mcu/st/stm32wlxx_hal_driver/Inc/stm32wlxx_ll_bus.h ****   *         @arg @ref LL_APB2_GRP1_PERIPH_TIM1
1297:hardware/mcu/st/stm32wlxx_hal_driver/Inc/stm32wlxx_ll_bus.h ****   *         @arg @ref LL_APB2_GRP1_PERIPH_SPI1
1298:hardware/mcu/st/stm32wlxx_hal_driver/Inc/stm32wlxx_ll_bus.h ****   *         @arg @ref LL_APB2_GRP1_PERIPH_USART1
1299:hardware/mcu/st/stm32wlxx_hal_driver/Inc/stm32wlxx_ll_bus.h ****   *         @arg @ref LL_APB2_GRP1_PERIPH_TIM16
1300:hardware/mcu/st/stm32wlxx_hal_driver/Inc/stm32wlxx_ll_bus.h ****   *         @arg @ref LL_APB2_GRP1_PERIPH_TIM17
1301:hardware/mcu/st/stm32wlxx_hal_driver/Inc/stm32wlxx_ll_bus.h ****   * @retval None
1302:hardware/mcu/st/stm32wlxx_hal_driver/Inc/stm32wlxx_ll_bus.h ****   */
1303:hardware/mcu/st/stm32wlxx_hal_driver/Inc/stm32wlxx_ll_bus.h **** __STATIC_INLINE void LL_APB2_GRP1_EnableClock(uint32_t Periphs)
1304:hardware/mcu/st/stm32wlxx_hal_driver/Inc/stm32wlxx_ll_bus.h **** {
1305:hardware/mcu/st/stm32wlxx_hal_driver/Inc/stm32wlxx_ll_bus.h ****   __IO uint32_t tmpreg;
1306:hardware/mcu/st/stm32wlxx_hal_driver/Inc/stm32wlxx_ll_bus.h ****   SET_BIT(RCC->APB2ENR, Periphs);
1307:hardware/mcu/st/stm32wlxx_hal_driver/Inc/stm32wlxx_ll_bus.h ****   /* Delay after an RCC peripheral clock enabling */
1308:hardware/mcu/st/stm32wlxx_hal_driver/Inc/stm32wlxx_ll_bus.h ****   tmpreg = READ_BIT(RCC->APB2ENR, Periphs);
1309:hardware/mcu/st/stm32wlxx_hal_driver/Inc/stm32wlxx_ll_bus.h ****   (void)tmpreg;
1310:hardware/mcu/st/stm32wlxx_hal_driver/Inc/stm32wlxx_ll_bus.h **** }
1311:hardware/mcu/st/stm32wlxx_hal_driver/Inc/stm32wlxx_ll_bus.h **** 
1312:hardware/mcu/st/stm32wlxx_hal_driver/Inc/stm32wlxx_ll_bus.h **** /**
1313:hardware/mcu/st/stm32wlxx_hal_driver/Inc/stm32wlxx_ll_bus.h ****   * @brief  Check if APB2 peripheral clock is enabled or not
1314:hardware/mcu/st/stm32wlxx_hal_driver/Inc/stm32wlxx_ll_bus.h ****   * @rmtoll APB2ENR      ADCEN         LL_APB2_GRP1_IsEnabledClock\n
1315:hardware/mcu/st/stm32wlxx_hal_driver/Inc/stm32wlxx_ll_bus.h ****   *         APB2ENR      TIM1EN        LL_APB2_GRP1_IsEnabledClock\n
1316:hardware/mcu/st/stm32wlxx_hal_driver/Inc/stm32wlxx_ll_bus.h ****   *         APB2ENR      SPI1EN        LL_APB2_GRP1_IsEnabledClock\n
1317:hardware/mcu/st/stm32wlxx_hal_driver/Inc/stm32wlxx_ll_bus.h ****   *         APB2ENR      USART1EN      LL_APB2_GRP1_IsEnabledClock\n
1318:hardware/mcu/st/stm32wlxx_hal_driver/Inc/stm32wlxx_ll_bus.h ****   *         APB2ENR      TIM16EN       LL_APB2_GRP1_IsEnabledClock\n
1319:hardware/mcu/st/stm32wlxx_hal_driver/Inc/stm32wlxx_ll_bus.h ****   *         APB2ENR      TIM17EN       LL_APB2_GRP1_IsEnabledClock\n
1320:hardware/mcu/st/stm32wlxx_hal_driver/Inc/stm32wlxx_ll_bus.h ****   * @param  Periphs This parameter can be a combination of the following values:
1321:hardware/mcu/st/stm32wlxx_hal_driver/Inc/stm32wlxx_ll_bus.h ****   *         @arg @ref LL_APB2_GRP1_PERIPH_ADC
1322:hardware/mcu/st/stm32wlxx_hal_driver/Inc/stm32wlxx_ll_bus.h ****   *         @arg @ref LL_APB2_GRP1_PERIPH_TIM1
1323:hardware/mcu/st/stm32wlxx_hal_driver/Inc/stm32wlxx_ll_bus.h ****   *         @arg @ref LL_APB2_GRP1_PERIPH_SPI1
1324:hardware/mcu/st/stm32wlxx_hal_driver/Inc/stm32wlxx_ll_bus.h ****   *         @arg @ref LL_APB2_GRP1_PERIPH_USART1
1325:hardware/mcu/st/stm32wlxx_hal_driver/Inc/stm32wlxx_ll_bus.h ****   *         @arg @ref LL_APB2_GRP1_PERIPH_TIM16
1326:hardware/mcu/st/stm32wlxx_hal_driver/Inc/stm32wlxx_ll_bus.h ****   *         @arg @ref LL_APB2_GRP1_PERIPH_TIM17
1327:hardware/mcu/st/stm32wlxx_hal_driver/Inc/stm32wlxx_ll_bus.h ****   * @retval uint32_t
1328:hardware/mcu/st/stm32wlxx_hal_driver/Inc/stm32wlxx_ll_bus.h ****   */
1329:hardware/mcu/st/stm32wlxx_hal_driver/Inc/stm32wlxx_ll_bus.h **** __STATIC_INLINE uint32_t LL_APB2_GRP1_IsEnabledClock(uint32_t Periphs)
1330:hardware/mcu/st/stm32wlxx_hal_driver/Inc/stm32wlxx_ll_bus.h **** {
1331:hardware/mcu/st/stm32wlxx_hal_driver/Inc/stm32wlxx_ll_bus.h ****   return ((READ_BIT(RCC->APB2ENR, Periphs) == (Periphs)) ? 1UL : 0UL);
1332:hardware/mcu/st/stm32wlxx_hal_driver/Inc/stm32wlxx_ll_bus.h **** }
1333:hardware/mcu/st/stm32wlxx_hal_driver/Inc/stm32wlxx_ll_bus.h **** 
ARM GAS  /var/folders/b4/k4jbz0ms4wg23jtq0w6p483m0000gn/T//cchh5TYj.s 			page 31


1334:hardware/mcu/st/stm32wlxx_hal_driver/Inc/stm32wlxx_ll_bus.h **** /**
1335:hardware/mcu/st/stm32wlxx_hal_driver/Inc/stm32wlxx_ll_bus.h ****   * @brief  Disable APB2 peripherals clock.
1336:hardware/mcu/st/stm32wlxx_hal_driver/Inc/stm32wlxx_ll_bus.h ****   * @rmtoll APB2ENR      ADCEN         LL_APB2_GRP1_DisableClock\n
1337:hardware/mcu/st/stm32wlxx_hal_driver/Inc/stm32wlxx_ll_bus.h ****   *         APB2ENR      TIM1EN        LL_APB2_GRP1_DisableClock\n
1338:hardware/mcu/st/stm32wlxx_hal_driver/Inc/stm32wlxx_ll_bus.h ****   *         APB2ENR      SPI1EN        LL_APB2_GRP1_DisableClock\n
1339:hardware/mcu/st/stm32wlxx_hal_driver/Inc/stm32wlxx_ll_bus.h ****   *         APB2ENR      USART1EN      LL_APB2_GRP1_DisableClock\n
1340:hardware/mcu/st/stm32wlxx_hal_driver/Inc/stm32wlxx_ll_bus.h ****   *         APB2ENR      TIM16EN       LL_APB2_GRP1_DisableClock\n
1341:hardware/mcu/st/stm32wlxx_hal_driver/Inc/stm32wlxx_ll_bus.h ****   *         APB2ENR      TIM17EN       LL_APB2_GRP1_DisableClock\n
1342:hardware/mcu/st/stm32wlxx_hal_driver/Inc/stm32wlxx_ll_bus.h ****   * @param  Periphs This parameter can be a combination of the following values:
1343:hardware/mcu/st/stm32wlxx_hal_driver/Inc/stm32wlxx_ll_bus.h ****   *         @arg @ref LL_APB2_GRP1_PERIPH_ADC
1344:hardware/mcu/st/stm32wlxx_hal_driver/Inc/stm32wlxx_ll_bus.h ****   *         @arg @ref LL_APB2_GRP1_PERIPH_TIM1
1345:hardware/mcu/st/stm32wlxx_hal_driver/Inc/stm32wlxx_ll_bus.h ****   *         @arg @ref LL_APB2_GRP1_PERIPH_SPI1
1346:hardware/mcu/st/stm32wlxx_hal_driver/Inc/stm32wlxx_ll_bus.h ****   *         @arg @ref LL_APB2_GRP1_PERIPH_USART1
1347:hardware/mcu/st/stm32wlxx_hal_driver/Inc/stm32wlxx_ll_bus.h ****   *         @arg @ref LL_APB2_GRP1_PERIPH_TIM16
1348:hardware/mcu/st/stm32wlxx_hal_driver/Inc/stm32wlxx_ll_bus.h ****   *         @arg @ref LL_APB2_GRP1_PERIPH_TIM17
1349:hardware/mcu/st/stm32wlxx_hal_driver/Inc/stm32wlxx_ll_bus.h ****   * @retval None
1350:hardware/mcu/st/stm32wlxx_hal_driver/Inc/stm32wlxx_ll_bus.h ****   */
1351:hardware/mcu/st/stm32wlxx_hal_driver/Inc/stm32wlxx_ll_bus.h **** __STATIC_INLINE void LL_APB2_GRP1_DisableClock(uint32_t Periphs)
1352:hardware/mcu/st/stm32wlxx_hal_driver/Inc/stm32wlxx_ll_bus.h **** {
1353:hardware/mcu/st/stm32wlxx_hal_driver/Inc/stm32wlxx_ll_bus.h ****   CLEAR_BIT(RCC->APB2ENR, Periphs);
1354:hardware/mcu/st/stm32wlxx_hal_driver/Inc/stm32wlxx_ll_bus.h **** }
1355:hardware/mcu/st/stm32wlxx_hal_driver/Inc/stm32wlxx_ll_bus.h **** 
1356:hardware/mcu/st/stm32wlxx_hal_driver/Inc/stm32wlxx_ll_bus.h **** /**
1357:hardware/mcu/st/stm32wlxx_hal_driver/Inc/stm32wlxx_ll_bus.h ****   * @brief  Force APB2 peripherals reset.
1358:hardware/mcu/st/stm32wlxx_hal_driver/Inc/stm32wlxx_ll_bus.h ****   * @rmtoll APB2RSTR     ADCRST        LL_APB2_GRP1_ForceReset\n
1359:hardware/mcu/st/stm32wlxx_hal_driver/Inc/stm32wlxx_ll_bus.h ****   *         APB2RSTR     TIM1RST       LL_APB2_GRP1_ForceReset\n
1360:hardware/mcu/st/stm32wlxx_hal_driver/Inc/stm32wlxx_ll_bus.h ****   *         APB2RSTR     SPI1RST       LL_APB2_GRP1_ForceReset\n
1361:hardware/mcu/st/stm32wlxx_hal_driver/Inc/stm32wlxx_ll_bus.h ****   *         APB2RSTR     USART1RST     LL_APB2_GRP1_ForceReset\n
1362:hardware/mcu/st/stm32wlxx_hal_driver/Inc/stm32wlxx_ll_bus.h ****   *         APB2RSTR     TIM16RST      LL_APB2_GRP1_ForceReset\n
1363:hardware/mcu/st/stm32wlxx_hal_driver/Inc/stm32wlxx_ll_bus.h ****   *         APB2RSTR     TIM17RST      LL_APB2_GRP1_ForceReset\n
1364:hardware/mcu/st/stm32wlxx_hal_driver/Inc/stm32wlxx_ll_bus.h ****   * @param  Periphs This parameter can be a combination of the following values:
1365:hardware/mcu/st/stm32wlxx_hal_driver/Inc/stm32wlxx_ll_bus.h ****   *         @arg @ref LL_APB2_GRP1_PERIPH_ALL
1366:hardware/mcu/st/stm32wlxx_hal_driver/Inc/stm32wlxx_ll_bus.h ****   *         @arg @ref LL_APB2_GRP1_PERIPH_ADC
1367:hardware/mcu/st/stm32wlxx_hal_driver/Inc/stm32wlxx_ll_bus.h ****   *         @arg @ref LL_APB2_GRP1_PERIPH_TIM1
1368:hardware/mcu/st/stm32wlxx_hal_driver/Inc/stm32wlxx_ll_bus.h ****   *         @arg @ref LL_APB2_GRP1_PERIPH_SPI1
1369:hardware/mcu/st/stm32wlxx_hal_driver/Inc/stm32wlxx_ll_bus.h ****   *         @arg @ref LL_APB2_GRP1_PERIPH_USART1
1370:hardware/mcu/st/stm32wlxx_hal_driver/Inc/stm32wlxx_ll_bus.h ****   *         @arg @ref LL_APB2_GRP1_PERIPH_TIM16
1371:hardware/mcu/st/stm32wlxx_hal_driver/Inc/stm32wlxx_ll_bus.h ****   *         @arg @ref LL_APB2_GRP1_PERIPH_TIM17
1372:hardware/mcu/st/stm32wlxx_hal_driver/Inc/stm32wlxx_ll_bus.h ****   * @retval None
1373:hardware/mcu/st/stm32wlxx_hal_driver/Inc/stm32wlxx_ll_bus.h ****   */
1374:hardware/mcu/st/stm32wlxx_hal_driver/Inc/stm32wlxx_ll_bus.h **** __STATIC_INLINE void LL_APB2_GRP1_ForceReset(uint32_t Periphs)
 138              		.loc 2 1374 22 view .LVU26
 139              	.LBB51:
1375:hardware/mcu/st/stm32wlxx_hal_driver/Inc/stm32wlxx_ll_bus.h **** {
1376:hardware/mcu/st/stm32wlxx_hal_driver/Inc/stm32wlxx_ll_bus.h ****   SET_BIT(RCC->APB2RSTR, Periphs);
 140              		.loc 2 1376 3 view .LVU27
 141 001c 196C     		ldr	r1, [r3, #64]
 142 001e 1A64     		str	r2, [r3, #64]
 143              	.LVL5:
 144              		.loc 2 1376 3 is_stmt 0 view .LVU28
 145              	.LBE51:
 146              	.LBE50:
 204:hardware/mcu/st/stm32wlxx_hal_driver/Src/stm32wlxx_hal.c **** 
 147              		.loc 1 204 3 is_stmt 1 view .LVU29
 148              	.LBB52:
 149              	.LBI52:
1377:hardware/mcu/st/stm32wlxx_hal_driver/Inc/stm32wlxx_ll_bus.h **** }
ARM GAS  /var/folders/b4/k4jbz0ms4wg23jtq0w6p483m0000gn/T//cchh5TYj.s 			page 32


1378:hardware/mcu/st/stm32wlxx_hal_driver/Inc/stm32wlxx_ll_bus.h **** 
1379:hardware/mcu/st/stm32wlxx_hal_driver/Inc/stm32wlxx_ll_bus.h **** /**
1380:hardware/mcu/st/stm32wlxx_hal_driver/Inc/stm32wlxx_ll_bus.h ****   * @brief  Release APB2 peripherals reset.
1381:hardware/mcu/st/stm32wlxx_hal_driver/Inc/stm32wlxx_ll_bus.h ****   * @rmtoll APB2RSTR     ADCRST        LL_APB2_GRP1_ReleaseReset\n
1382:hardware/mcu/st/stm32wlxx_hal_driver/Inc/stm32wlxx_ll_bus.h ****   *         APB2RSTR     TIM1RST       LL_APB2_GRP1_ReleaseReset\n
1383:hardware/mcu/st/stm32wlxx_hal_driver/Inc/stm32wlxx_ll_bus.h ****   *         APB2RSTR     SPI1RST       LL_APB2_GRP1_ReleaseReset\n
1384:hardware/mcu/st/stm32wlxx_hal_driver/Inc/stm32wlxx_ll_bus.h ****   *         APB2RSTR     USART1RST     LL_APB2_GRP1_ReleaseReset\n
1385:hardware/mcu/st/stm32wlxx_hal_driver/Inc/stm32wlxx_ll_bus.h ****   *         APB2RSTR     TIM16RST      LL_APB2_GRP1_ReleaseReset\n
1386:hardware/mcu/st/stm32wlxx_hal_driver/Inc/stm32wlxx_ll_bus.h ****   *         APB2RSTR     TIM17RST      LL_APB2_GRP1_ReleaseReset\n
1387:hardware/mcu/st/stm32wlxx_hal_driver/Inc/stm32wlxx_ll_bus.h ****   * @param  Periphs This parameter can be a combination of the following values:
1388:hardware/mcu/st/stm32wlxx_hal_driver/Inc/stm32wlxx_ll_bus.h ****   *         @arg @ref LL_APB2_GRP1_PERIPH_ALL
1389:hardware/mcu/st/stm32wlxx_hal_driver/Inc/stm32wlxx_ll_bus.h ****   *         @arg @ref LL_APB2_GRP1_PERIPH_ADC
1390:hardware/mcu/st/stm32wlxx_hal_driver/Inc/stm32wlxx_ll_bus.h ****   *         @arg @ref LL_APB2_GRP1_PERIPH_TIM1
1391:hardware/mcu/st/stm32wlxx_hal_driver/Inc/stm32wlxx_ll_bus.h ****   *         @arg @ref LL_APB2_GRP1_PERIPH_SPI1
1392:hardware/mcu/st/stm32wlxx_hal_driver/Inc/stm32wlxx_ll_bus.h ****   *         @arg @ref LL_APB2_GRP1_PERIPH_USART1
1393:hardware/mcu/st/stm32wlxx_hal_driver/Inc/stm32wlxx_ll_bus.h ****   *         @arg @ref LL_APB2_GRP1_PERIPH_TIM16
1394:hardware/mcu/st/stm32wlxx_hal_driver/Inc/stm32wlxx_ll_bus.h ****   *         @arg @ref LL_APB2_GRP1_PERIPH_TIM17
1395:hardware/mcu/st/stm32wlxx_hal_driver/Inc/stm32wlxx_ll_bus.h ****   * @retval None
1396:hardware/mcu/st/stm32wlxx_hal_driver/Inc/stm32wlxx_ll_bus.h ****   */
1397:hardware/mcu/st/stm32wlxx_hal_driver/Inc/stm32wlxx_ll_bus.h **** __STATIC_INLINE void LL_APB2_GRP1_ReleaseReset(uint32_t Periphs)
 150              		.loc 2 1397 22 view .LVU30
 151              	.LBB53:
1398:hardware/mcu/st/stm32wlxx_hal_driver/Inc/stm32wlxx_ll_bus.h **** {
1399:hardware/mcu/st/stm32wlxx_hal_driver/Inc/stm32wlxx_ll_bus.h ****   CLEAR_BIT(RCC->APB2RSTR, Periphs);
 152              		.loc 2 1399 3 view .LVU31
 153 0020 196C     		ldr	r1, [r3, #64]
 154 0022 1C64     		str	r4, [r3, #64]
 155              	.LVL6:
 156              		.loc 2 1399 3 is_stmt 0 view .LVU32
 157              	.LBE53:
 158              	.LBE52:
 206:hardware/mcu/st/stm32wlxx_hal_driver/Src/stm32wlxx_hal.c ****   __HAL_RCC_APB3_RELEASE_RESET();
 159              		.loc 1 206 3 is_stmt 1 view .LVU33
 160              	.LBB54:
 161              	.LBI54:
1400:hardware/mcu/st/stm32wlxx_hal_driver/Inc/stm32wlxx_ll_bus.h **** }
1401:hardware/mcu/st/stm32wlxx_hal_driver/Inc/stm32wlxx_ll_bus.h **** 
1402:hardware/mcu/st/stm32wlxx_hal_driver/Inc/stm32wlxx_ll_bus.h **** /**
1403:hardware/mcu/st/stm32wlxx_hal_driver/Inc/stm32wlxx_ll_bus.h ****   * @brief  Enable APB2 peripherals clock during Low Power (Sleep) mode.
1404:hardware/mcu/st/stm32wlxx_hal_driver/Inc/stm32wlxx_ll_bus.h ****   * @rmtoll APB2SMENR    ADCSMEN       LL_APB2_GRP1_EnableClockSleep\n
1405:hardware/mcu/st/stm32wlxx_hal_driver/Inc/stm32wlxx_ll_bus.h ****   *         APB2SMENR    TIM1SMEN      LL_APB2_GRP1_EnableClockSleep\n
1406:hardware/mcu/st/stm32wlxx_hal_driver/Inc/stm32wlxx_ll_bus.h ****   *         APB2SMENR    SPI1SMEN      LL_APB2_GRP1_EnableClockSleep\n
1407:hardware/mcu/st/stm32wlxx_hal_driver/Inc/stm32wlxx_ll_bus.h ****   *         APB2SMENR    USART1SMEN    LL_APB2_GRP1_EnableClockSleep\n
1408:hardware/mcu/st/stm32wlxx_hal_driver/Inc/stm32wlxx_ll_bus.h ****   *         APB2SMENR    TIM16SMEN     LL_APB2_GRP1_EnableClockSleep\n
1409:hardware/mcu/st/stm32wlxx_hal_driver/Inc/stm32wlxx_ll_bus.h ****   *         APB2SMENR    TIM17SMEN     LL_APB2_GRP1_EnableClockSleep\n
1410:hardware/mcu/st/stm32wlxx_hal_driver/Inc/stm32wlxx_ll_bus.h ****   * @param  Periphs This parameter can be a combination of the following values:
1411:hardware/mcu/st/stm32wlxx_hal_driver/Inc/stm32wlxx_ll_bus.h ****   *         @arg @ref LL_APB2_GRP1_PERIPH_ADC
1412:hardware/mcu/st/stm32wlxx_hal_driver/Inc/stm32wlxx_ll_bus.h ****   *         @arg @ref LL_APB2_GRP1_PERIPH_TIM1
1413:hardware/mcu/st/stm32wlxx_hal_driver/Inc/stm32wlxx_ll_bus.h ****   *         @arg @ref LL_APB2_GRP1_PERIPH_SPI1
1414:hardware/mcu/st/stm32wlxx_hal_driver/Inc/stm32wlxx_ll_bus.h ****   *         @arg @ref LL_APB2_GRP1_PERIPH_USART1
1415:hardware/mcu/st/stm32wlxx_hal_driver/Inc/stm32wlxx_ll_bus.h ****   *         @arg @ref LL_APB2_GRP1_PERIPH_TIM16
1416:hardware/mcu/st/stm32wlxx_hal_driver/Inc/stm32wlxx_ll_bus.h ****   *         @arg @ref LL_APB2_GRP1_PERIPH_TIM17
1417:hardware/mcu/st/stm32wlxx_hal_driver/Inc/stm32wlxx_ll_bus.h ****   * @retval None
1418:hardware/mcu/st/stm32wlxx_hal_driver/Inc/stm32wlxx_ll_bus.h ****   */
1419:hardware/mcu/st/stm32wlxx_hal_driver/Inc/stm32wlxx_ll_bus.h **** __STATIC_INLINE void LL_APB2_GRP1_EnableClockSleep(uint32_t Periphs)
1420:hardware/mcu/st/stm32wlxx_hal_driver/Inc/stm32wlxx_ll_bus.h **** {
1421:hardware/mcu/st/stm32wlxx_hal_driver/Inc/stm32wlxx_ll_bus.h ****   __IO uint32_t tmpreg;
ARM GAS  /var/folders/b4/k4jbz0ms4wg23jtq0w6p483m0000gn/T//cchh5TYj.s 			page 33


1422:hardware/mcu/st/stm32wlxx_hal_driver/Inc/stm32wlxx_ll_bus.h ****   SET_BIT(RCC->APB2SMENR, Periphs);
1423:hardware/mcu/st/stm32wlxx_hal_driver/Inc/stm32wlxx_ll_bus.h ****   /* Delay after an RCC peripheral clock enabling */
1424:hardware/mcu/st/stm32wlxx_hal_driver/Inc/stm32wlxx_ll_bus.h ****   tmpreg = READ_BIT(RCC->APB2SMENR, Periphs);
1425:hardware/mcu/st/stm32wlxx_hal_driver/Inc/stm32wlxx_ll_bus.h ****   (void)tmpreg;
1426:hardware/mcu/st/stm32wlxx_hal_driver/Inc/stm32wlxx_ll_bus.h **** }
1427:hardware/mcu/st/stm32wlxx_hal_driver/Inc/stm32wlxx_ll_bus.h **** 
1428:hardware/mcu/st/stm32wlxx_hal_driver/Inc/stm32wlxx_ll_bus.h **** /**
1429:hardware/mcu/st/stm32wlxx_hal_driver/Inc/stm32wlxx_ll_bus.h ****   * @brief  Check if APB2 clock is enabled by the clock gating during CPU1 CSleep mode
1430:hardware/mcu/st/stm32wlxx_hal_driver/Inc/stm32wlxx_ll_bus.h ****   * @rmtoll APB2SMENR    ADCSMEN       LL_APB2_GRP1_IsEnabledClockSleep\n
1431:hardware/mcu/st/stm32wlxx_hal_driver/Inc/stm32wlxx_ll_bus.h ****   *         APB2SMENR    TIM1SMEN      LL_APB2_GRP1_IsEnabledClockSleep\n
1432:hardware/mcu/st/stm32wlxx_hal_driver/Inc/stm32wlxx_ll_bus.h ****   *         APB2SMENR    SPI1SMEN      LL_APB2_GRP1_IsEnabledClockSleep\n
1433:hardware/mcu/st/stm32wlxx_hal_driver/Inc/stm32wlxx_ll_bus.h ****   *         APB2SMENR    USART1SMEN    LL_APB2_GRP1_IsEnabledClockSleep\n
1434:hardware/mcu/st/stm32wlxx_hal_driver/Inc/stm32wlxx_ll_bus.h ****   *         APB2SMENR    TIM16SMEN     LL_APB2_GRP1_IsEnabledClockSleep\n
1435:hardware/mcu/st/stm32wlxx_hal_driver/Inc/stm32wlxx_ll_bus.h ****   *         APB2SMENR    TIM17SMEN     LL_APB2_GRP1_IsEnabledClockSleep
1436:hardware/mcu/st/stm32wlxx_hal_driver/Inc/stm32wlxx_ll_bus.h ****   * @param  Periphs This parameter can be a combination of the following values:
1437:hardware/mcu/st/stm32wlxx_hal_driver/Inc/stm32wlxx_ll_bus.h ****   * @param  Periphs This parameter can be a combination of the following values:
1438:hardware/mcu/st/stm32wlxx_hal_driver/Inc/stm32wlxx_ll_bus.h ****   *         @arg @ref LL_APB2_GRP1_PERIPH_ADC
1439:hardware/mcu/st/stm32wlxx_hal_driver/Inc/stm32wlxx_ll_bus.h ****   *         @arg @ref LL_APB2_GRP1_PERIPH_TIM1
1440:hardware/mcu/st/stm32wlxx_hal_driver/Inc/stm32wlxx_ll_bus.h ****   *         @arg @ref LL_APB2_GRP1_PERIPH_SPI1
1441:hardware/mcu/st/stm32wlxx_hal_driver/Inc/stm32wlxx_ll_bus.h ****   *         @arg @ref LL_APB2_GRP1_PERIPH_USART1
1442:hardware/mcu/st/stm32wlxx_hal_driver/Inc/stm32wlxx_ll_bus.h ****   *         @arg @ref LL_APB2_GRP1_PERIPH_TIM16
1443:hardware/mcu/st/stm32wlxx_hal_driver/Inc/stm32wlxx_ll_bus.h ****   *         @arg @ref LL_APB2_GRP1_PERIPH_TIM17
1444:hardware/mcu/st/stm32wlxx_hal_driver/Inc/stm32wlxx_ll_bus.h ****   * @retval None
1445:hardware/mcu/st/stm32wlxx_hal_driver/Inc/stm32wlxx_ll_bus.h ****   */
1446:hardware/mcu/st/stm32wlxx_hal_driver/Inc/stm32wlxx_ll_bus.h **** __STATIC_INLINE uint32_t LL_APB2_GRP1_IsEnabledClockSleep(uint32_t Periphs)
1447:hardware/mcu/st/stm32wlxx_hal_driver/Inc/stm32wlxx_ll_bus.h **** {
1448:hardware/mcu/st/stm32wlxx_hal_driver/Inc/stm32wlxx_ll_bus.h ****   return ((READ_BIT(RCC->APB2SMENR, Periphs) == (Periphs)) ? 1UL : 0UL);
1449:hardware/mcu/st/stm32wlxx_hal_driver/Inc/stm32wlxx_ll_bus.h **** }
1450:hardware/mcu/st/stm32wlxx_hal_driver/Inc/stm32wlxx_ll_bus.h **** 
1451:hardware/mcu/st/stm32wlxx_hal_driver/Inc/stm32wlxx_ll_bus.h **** /**
1452:hardware/mcu/st/stm32wlxx_hal_driver/Inc/stm32wlxx_ll_bus.h ****   * @brief  Disable APB2 peripherals clock during Low Power (Sleep) mode.
1453:hardware/mcu/st/stm32wlxx_hal_driver/Inc/stm32wlxx_ll_bus.h ****   * @rmtoll APB2SMENR    ADCSMEN       LL_APB2_GRP1_DisableClockSleep\n
1454:hardware/mcu/st/stm32wlxx_hal_driver/Inc/stm32wlxx_ll_bus.h ****   *         APB2SMENR    TIM1SMEN      LL_APB2_GRP1_DisableClockSleep\n
1455:hardware/mcu/st/stm32wlxx_hal_driver/Inc/stm32wlxx_ll_bus.h ****   *         APB2SMENR    SPI1SMEN      LL_APB2_GRP1_DisableClockSleep\n
1456:hardware/mcu/st/stm32wlxx_hal_driver/Inc/stm32wlxx_ll_bus.h ****   *         APB2SMENR    USART1SMEN    LL_APB2_GRP1_DisableClockSleep\n
1457:hardware/mcu/st/stm32wlxx_hal_driver/Inc/stm32wlxx_ll_bus.h ****   *         APB2SMENR    TIM16SMEN     LL_APB2_GRP1_DisableClockSleep\n
1458:hardware/mcu/st/stm32wlxx_hal_driver/Inc/stm32wlxx_ll_bus.h ****   *         APB2SMENR    TIM17SMEN     LL_APB2_GRP1_DisableClockSleep\n
1459:hardware/mcu/st/stm32wlxx_hal_driver/Inc/stm32wlxx_ll_bus.h ****   * @param  Periphs This parameter can be a combination of the following values:
1460:hardware/mcu/st/stm32wlxx_hal_driver/Inc/stm32wlxx_ll_bus.h ****   *         @arg @ref LL_APB2_GRP1_PERIPH_ADC
1461:hardware/mcu/st/stm32wlxx_hal_driver/Inc/stm32wlxx_ll_bus.h ****   *         @arg @ref LL_APB2_GRP1_PERIPH_TIM1
1462:hardware/mcu/st/stm32wlxx_hal_driver/Inc/stm32wlxx_ll_bus.h ****   *         @arg @ref LL_APB2_GRP1_PERIPH_SPI1
1463:hardware/mcu/st/stm32wlxx_hal_driver/Inc/stm32wlxx_ll_bus.h ****   *         @arg @ref LL_APB2_GRP1_PERIPH_USART1
1464:hardware/mcu/st/stm32wlxx_hal_driver/Inc/stm32wlxx_ll_bus.h ****   *         @arg @ref LL_APB2_GRP1_PERIPH_TIM16
1465:hardware/mcu/st/stm32wlxx_hal_driver/Inc/stm32wlxx_ll_bus.h ****   *         @arg @ref LL_APB2_GRP1_PERIPH_TIM17
1466:hardware/mcu/st/stm32wlxx_hal_driver/Inc/stm32wlxx_ll_bus.h ****   * @retval None
1467:hardware/mcu/st/stm32wlxx_hal_driver/Inc/stm32wlxx_ll_bus.h ****   */
1468:hardware/mcu/st/stm32wlxx_hal_driver/Inc/stm32wlxx_ll_bus.h **** __STATIC_INLINE void LL_APB2_GRP1_DisableClockSleep(uint32_t Periphs)
1469:hardware/mcu/st/stm32wlxx_hal_driver/Inc/stm32wlxx_ll_bus.h **** {
1470:hardware/mcu/st/stm32wlxx_hal_driver/Inc/stm32wlxx_ll_bus.h ****   CLEAR_BIT(RCC->APB2SMENR, Periphs);
1471:hardware/mcu/st/stm32wlxx_hal_driver/Inc/stm32wlxx_ll_bus.h **** }
1472:hardware/mcu/st/stm32wlxx_hal_driver/Inc/stm32wlxx_ll_bus.h **** 
1473:hardware/mcu/st/stm32wlxx_hal_driver/Inc/stm32wlxx_ll_bus.h **** /**
1474:hardware/mcu/st/stm32wlxx_hal_driver/Inc/stm32wlxx_ll_bus.h ****   * @}
1475:hardware/mcu/st/stm32wlxx_hal_driver/Inc/stm32wlxx_ll_bus.h ****   */
1476:hardware/mcu/st/stm32wlxx_hal_driver/Inc/stm32wlxx_ll_bus.h **** 
1477:hardware/mcu/st/stm32wlxx_hal_driver/Inc/stm32wlxx_ll_bus.h **** /** @defgroup BUS_LL_EF_APB3 APB3
1478:hardware/mcu/st/stm32wlxx_hal_driver/Inc/stm32wlxx_ll_bus.h ****   * @{
ARM GAS  /var/folders/b4/k4jbz0ms4wg23jtq0w6p483m0000gn/T//cchh5TYj.s 			page 34


1479:hardware/mcu/st/stm32wlxx_hal_driver/Inc/stm32wlxx_ll_bus.h ****   */
1480:hardware/mcu/st/stm32wlxx_hal_driver/Inc/stm32wlxx_ll_bus.h **** 
1481:hardware/mcu/st/stm32wlxx_hal_driver/Inc/stm32wlxx_ll_bus.h **** /**
1482:hardware/mcu/st/stm32wlxx_hal_driver/Inc/stm32wlxx_ll_bus.h ****   * @brief  Enable APB3 peripherals clock.
1483:hardware/mcu/st/stm32wlxx_hal_driver/Inc/stm32wlxx_ll_bus.h ****   * @rmtoll APB3ENR    SUBGHZSPIEN     LL_APB3_GRP1_EnableClock\n
1484:hardware/mcu/st/stm32wlxx_hal_driver/Inc/stm32wlxx_ll_bus.h ****   * @param  Periphs This parameter can be a combination of the following values:
1485:hardware/mcu/st/stm32wlxx_hal_driver/Inc/stm32wlxx_ll_bus.h ****   *         @arg @ref LL_APB3_GRP1_PERIPH_SUBGHZSPI
1486:hardware/mcu/st/stm32wlxx_hal_driver/Inc/stm32wlxx_ll_bus.h ****   * @retval None
1487:hardware/mcu/st/stm32wlxx_hal_driver/Inc/stm32wlxx_ll_bus.h ****   */
1488:hardware/mcu/st/stm32wlxx_hal_driver/Inc/stm32wlxx_ll_bus.h **** __STATIC_INLINE void LL_APB3_GRP1_EnableClock(uint32_t Periphs)
1489:hardware/mcu/st/stm32wlxx_hal_driver/Inc/stm32wlxx_ll_bus.h **** {
1490:hardware/mcu/st/stm32wlxx_hal_driver/Inc/stm32wlxx_ll_bus.h ****   __IO uint32_t tmpreg;
1491:hardware/mcu/st/stm32wlxx_hal_driver/Inc/stm32wlxx_ll_bus.h ****   SET_BIT(RCC->APB3ENR, Periphs);
1492:hardware/mcu/st/stm32wlxx_hal_driver/Inc/stm32wlxx_ll_bus.h ****   /* Delay after an RCC peripheral clock enabling */
1493:hardware/mcu/st/stm32wlxx_hal_driver/Inc/stm32wlxx_ll_bus.h ****   tmpreg = READ_BIT(RCC->APB3ENR, Periphs);
1494:hardware/mcu/st/stm32wlxx_hal_driver/Inc/stm32wlxx_ll_bus.h ****   (void)tmpreg;
1495:hardware/mcu/st/stm32wlxx_hal_driver/Inc/stm32wlxx_ll_bus.h **** }
1496:hardware/mcu/st/stm32wlxx_hal_driver/Inc/stm32wlxx_ll_bus.h **** 
1497:hardware/mcu/st/stm32wlxx_hal_driver/Inc/stm32wlxx_ll_bus.h **** /**
1498:hardware/mcu/st/stm32wlxx_hal_driver/Inc/stm32wlxx_ll_bus.h ****   * @brief  Check if APB3 peripheral clock is enabled or not
1499:hardware/mcu/st/stm32wlxx_hal_driver/Inc/stm32wlxx_ll_bus.h ****   * @rmtoll APB3ENR    SUBGHZSPIEN     LL_APB3_GRP1_IsEnabledClock\n
1500:hardware/mcu/st/stm32wlxx_hal_driver/Inc/stm32wlxx_ll_bus.h ****   * @param  Periphs This parameter can be a combination of the following values:
1501:hardware/mcu/st/stm32wlxx_hal_driver/Inc/stm32wlxx_ll_bus.h ****   *         @arg @ref LL_APB3_GRP1_PERIPH_SUBGHZSPI
1502:hardware/mcu/st/stm32wlxx_hal_driver/Inc/stm32wlxx_ll_bus.h ****   * @retval uint32_t
1503:hardware/mcu/st/stm32wlxx_hal_driver/Inc/stm32wlxx_ll_bus.h ****   */
1504:hardware/mcu/st/stm32wlxx_hal_driver/Inc/stm32wlxx_ll_bus.h **** __STATIC_INLINE uint32_t LL_APB3_GRP1_IsEnabledClock(uint32_t Periphs)
1505:hardware/mcu/st/stm32wlxx_hal_driver/Inc/stm32wlxx_ll_bus.h **** {
1506:hardware/mcu/st/stm32wlxx_hal_driver/Inc/stm32wlxx_ll_bus.h ****   return ((READ_BIT(RCC->APB3ENR, Periphs) == (Periphs)) ? 1UL : 0UL);
1507:hardware/mcu/st/stm32wlxx_hal_driver/Inc/stm32wlxx_ll_bus.h **** }
1508:hardware/mcu/st/stm32wlxx_hal_driver/Inc/stm32wlxx_ll_bus.h **** 
1509:hardware/mcu/st/stm32wlxx_hal_driver/Inc/stm32wlxx_ll_bus.h **** /**
1510:hardware/mcu/st/stm32wlxx_hal_driver/Inc/stm32wlxx_ll_bus.h ****   * @brief  Disable APB3 peripherals clock.
1511:hardware/mcu/st/stm32wlxx_hal_driver/Inc/stm32wlxx_ll_bus.h ****   * @rmtoll APB3ENR    SUBGHZSPIEN     LL_APB3_GRP1_DisableClock\n
1512:hardware/mcu/st/stm32wlxx_hal_driver/Inc/stm32wlxx_ll_bus.h ****   * @param  Periphs This parameter can be a combination of the following values:
1513:hardware/mcu/st/stm32wlxx_hal_driver/Inc/stm32wlxx_ll_bus.h ****   *         @arg @ref LL_APB3_GRP1_PERIPH_SUBGHZSPI
1514:hardware/mcu/st/stm32wlxx_hal_driver/Inc/stm32wlxx_ll_bus.h ****   * @retval None
1515:hardware/mcu/st/stm32wlxx_hal_driver/Inc/stm32wlxx_ll_bus.h ****   */
1516:hardware/mcu/st/stm32wlxx_hal_driver/Inc/stm32wlxx_ll_bus.h **** __STATIC_INLINE void LL_APB3_GRP1_DisableClock(uint32_t Periphs)
1517:hardware/mcu/st/stm32wlxx_hal_driver/Inc/stm32wlxx_ll_bus.h **** {
1518:hardware/mcu/st/stm32wlxx_hal_driver/Inc/stm32wlxx_ll_bus.h ****   CLEAR_BIT(RCC->APB3ENR, Periphs);
1519:hardware/mcu/st/stm32wlxx_hal_driver/Inc/stm32wlxx_ll_bus.h **** }
1520:hardware/mcu/st/stm32wlxx_hal_driver/Inc/stm32wlxx_ll_bus.h **** 
1521:hardware/mcu/st/stm32wlxx_hal_driver/Inc/stm32wlxx_ll_bus.h **** 
1522:hardware/mcu/st/stm32wlxx_hal_driver/Inc/stm32wlxx_ll_bus.h **** /**
1523:hardware/mcu/st/stm32wlxx_hal_driver/Inc/stm32wlxx_ll_bus.h ****   * @brief  Force APB3 peripherals reset.
1524:hardware/mcu/st/stm32wlxx_hal_driver/Inc/stm32wlxx_ll_bus.h ****   * @rmtoll APB3RSTR     SUBGHZSPIRST  LL_APB3_GRP1_ForceReset
1525:hardware/mcu/st/stm32wlxx_hal_driver/Inc/stm32wlxx_ll_bus.h ****   * @param  Periphs This parameter can be a combination of the following values:
1526:hardware/mcu/st/stm32wlxx_hal_driver/Inc/stm32wlxx_ll_bus.h ****   *         @arg @ref LL_APB3_GRP1_PERIPH_SUBGHZSPI
1527:hardware/mcu/st/stm32wlxx_hal_driver/Inc/stm32wlxx_ll_bus.h ****   * @retval None
1528:hardware/mcu/st/stm32wlxx_hal_driver/Inc/stm32wlxx_ll_bus.h ****   */
1529:hardware/mcu/st/stm32wlxx_hal_driver/Inc/stm32wlxx_ll_bus.h **** __STATIC_INLINE void LL_APB3_GRP1_ForceReset(uint32_t Periphs)
 162              		.loc 2 1529 22 view .LVU34
 163              	.LBB55:
1530:hardware/mcu/st/stm32wlxx_hal_driver/Inc/stm32wlxx_ll_bus.h **** {
1531:hardware/mcu/st/stm32wlxx_hal_driver/Inc/stm32wlxx_ll_bus.h ****   SET_BIT(RCC->APB3RSTR, Periphs);
 164              		.loc 2 1531 3 view .LVU35
 165 0024 596C     		ldr	r1, [r3, #68]
ARM GAS  /var/folders/b4/k4jbz0ms4wg23jtq0w6p483m0000gn/T//cchh5TYj.s 			page 35


 166 0026 5A64     		str	r2, [r3, #68]
 167              	.LVL7:
 168              		.loc 2 1531 3 is_stmt 0 view .LVU36
 169              	.LBE55:
 170              	.LBE54:
 207:hardware/mcu/st/stm32wlxx_hal_driver/Src/stm32wlxx_hal.c **** 
 171              		.loc 1 207 3 is_stmt 1 view .LVU37
 172              	.LBB56:
 173              	.LBI56:
1532:hardware/mcu/st/stm32wlxx_hal_driver/Inc/stm32wlxx_ll_bus.h **** }
1533:hardware/mcu/st/stm32wlxx_hal_driver/Inc/stm32wlxx_ll_bus.h **** 
1534:hardware/mcu/st/stm32wlxx_hal_driver/Inc/stm32wlxx_ll_bus.h **** /**
1535:hardware/mcu/st/stm32wlxx_hal_driver/Inc/stm32wlxx_ll_bus.h ****   * @brief  Release APB3 peripherals reset.
1536:hardware/mcu/st/stm32wlxx_hal_driver/Inc/stm32wlxx_ll_bus.h ****   * @rmtoll APB3RSTR     SUBGHZSPIRST  LL_APB3_GRP1_ReleaseReset
1537:hardware/mcu/st/stm32wlxx_hal_driver/Inc/stm32wlxx_ll_bus.h ****   * @param  Periphs This parameter can be a combination of the following values:
1538:hardware/mcu/st/stm32wlxx_hal_driver/Inc/stm32wlxx_ll_bus.h ****   *         @arg @ref LL_APB3_GRP1_PERIPH_SUBGHZSPI
1539:hardware/mcu/st/stm32wlxx_hal_driver/Inc/stm32wlxx_ll_bus.h ****   * @retval None
1540:hardware/mcu/st/stm32wlxx_hal_driver/Inc/stm32wlxx_ll_bus.h ****   */
1541:hardware/mcu/st/stm32wlxx_hal_driver/Inc/stm32wlxx_ll_bus.h **** __STATIC_INLINE void LL_APB3_GRP1_ReleaseReset(uint32_t Periphs)
 174              		.loc 2 1541 22 view .LVU38
 175              	.LBB57:
1542:hardware/mcu/st/stm32wlxx_hal_driver/Inc/stm32wlxx_ll_bus.h **** {
1543:hardware/mcu/st/stm32wlxx_hal_driver/Inc/stm32wlxx_ll_bus.h ****   CLEAR_BIT(RCC->APB3RSTR, Periphs);
 176              		.loc 2 1543 3 view .LVU39
 177 0028 596C     		ldr	r1, [r3, #68]
 178 002a 5C64     		str	r4, [r3, #68]
 179              	.LVL8:
 180              		.loc 2 1543 3 is_stmt 0 view .LVU40
 181              	.LBE57:
 182              	.LBE56:
 209:hardware/mcu/st/stm32wlxx_hal_driver/Src/stm32wlxx_hal.c ****   __HAL_RCC_AHB1_RELEASE_RESET();
 183              		.loc 1 209 3 is_stmt 1 view .LVU41
 184              	.LBB58:
 185              	.LBI58:
 346:hardware/mcu/st/stm32wlxx_hal_driver/Inc/stm32wlxx_ll_bus.h **** {
 186              		.loc 2 346 22 view .LVU42
 187              	.LBB59:
 348:hardware/mcu/st/stm32wlxx_hal_driver/Inc/stm32wlxx_ll_bus.h **** }
 188              		.loc 2 348 3 view .LVU43
 189 002c 996A     		ldr	r1, [r3, #40]
 190 002e 9A62     		str	r2, [r3, #40]
 191              	.LVL9:
 348:hardware/mcu/st/stm32wlxx_hal_driver/Inc/stm32wlxx_ll_bus.h **** }
 192              		.loc 2 348 3 is_stmt 0 view .LVU44
 193              	.LBE59:
 194              	.LBE58:
 210:hardware/mcu/st/stm32wlxx_hal_driver/Src/stm32wlxx_hal.c **** 
 195              		.loc 1 210 3 is_stmt 1 view .LVU45
 196              	.LBB60:
 197              	.LBI60:
 365:hardware/mcu/st/stm32wlxx_hal_driver/Inc/stm32wlxx_ll_bus.h **** {
 198              		.loc 2 365 22 view .LVU46
 199              	.LBB61:
 367:hardware/mcu/st/stm32wlxx_hal_driver/Inc/stm32wlxx_ll_bus.h **** }
 200              		.loc 2 367 3 view .LVU47
 201 0030 996A     		ldr	r1, [r3, #40]
 202 0032 9C62     		str	r4, [r3, #40]
ARM GAS  /var/folders/b4/k4jbz0ms4wg23jtq0w6p483m0000gn/T//cchh5TYj.s 			page 36


 203              	.LVL10:
 367:hardware/mcu/st/stm32wlxx_hal_driver/Inc/stm32wlxx_ll_bus.h **** }
 204              		.loc 2 367 3 is_stmt 0 view .LVU48
 205              	.LBE61:
 206              	.LBE60:
 212:hardware/mcu/st/stm32wlxx_hal_driver/Src/stm32wlxx_hal.c ****   __HAL_RCC_AHB2_RELEASE_RESET();
 207              		.loc 1 212 3 is_stmt 1 view .LVU49
 208              	.LBB62:
 209              	.LBI62:
 508:hardware/mcu/st/stm32wlxx_hal_driver/Inc/stm32wlxx_ll_bus.h **** {
 210              		.loc 2 508 22 view .LVU50
 211              	.LBB63:
 510:hardware/mcu/st/stm32wlxx_hal_driver/Inc/stm32wlxx_ll_bus.h **** }
 212              		.loc 2 510 3 view .LVU51
 213 0034 D96A     		ldr	r1, [r3, #44]
 214 0036 DA62     		str	r2, [r3, #44]
 215              	.LVL11:
 510:hardware/mcu/st/stm32wlxx_hal_driver/Inc/stm32wlxx_ll_bus.h **** }
 216              		.loc 2 510 3 is_stmt 0 view .LVU52
 217              	.LBE63:
 218              	.LBE62:
 213:hardware/mcu/st/stm32wlxx_hal_driver/Src/stm32wlxx_hal.c **** 
 219              		.loc 1 213 3 is_stmt 1 view .LVU53
 220              	.LBB64:
 221              	.LBI64:
 527:hardware/mcu/st/stm32wlxx_hal_driver/Inc/stm32wlxx_ll_bus.h **** {
 222              		.loc 2 527 22 view .LVU54
 223              	.LBB65:
 529:hardware/mcu/st/stm32wlxx_hal_driver/Inc/stm32wlxx_ll_bus.h **** }
 224              		.loc 2 529 3 view .LVU55
 225 0038 D96A     		ldr	r1, [r3, #44]
 226 003a DC62     		str	r4, [r3, #44]
 227              	.LVL12:
 529:hardware/mcu/st/stm32wlxx_hal_driver/Inc/stm32wlxx_ll_bus.h **** }
 228              		.loc 2 529 3 is_stmt 0 view .LVU56
 229              	.LBE65:
 230              	.LBE64:
 215:hardware/mcu/st/stm32wlxx_hal_driver/Src/stm32wlxx_hal.c ****   __HAL_RCC_AHB3_RELEASE_RESET();
 231              		.loc 1 215 3 is_stmt 1 view .LVU57
 232              	.LBB66:
 233              	.LBI66:
 763:hardware/mcu/st/stm32wlxx_hal_driver/Inc/stm32wlxx_ll_bus.h **** {
 234              		.loc 2 763 22 view .LVU58
 235              	.LBB67:
 765:hardware/mcu/st/stm32wlxx_hal_driver/Inc/stm32wlxx_ll_bus.h **** }
 236              		.loc 2 765 3 view .LVU59
 237 003c 196B     		ldr	r1, [r3, #48]
 238 003e 1A63     		str	r2, [r3, #48]
 239              	.LVL13:
 765:hardware/mcu/st/stm32wlxx_hal_driver/Inc/stm32wlxx_ll_bus.h **** }
 240              		.loc 2 765 3 is_stmt 0 view .LVU60
 241              	.LBE67:
 242              	.LBE66:
 216:hardware/mcu/st/stm32wlxx_hal_driver/Src/stm32wlxx_hal.c **** 
 243              		.loc 1 216 3 is_stmt 1 view .LVU61
 244              	.LBB68:
 245              	.LBI68:
ARM GAS  /var/folders/b4/k4jbz0ms4wg23jtq0w6p483m0000gn/T//cchh5TYj.s 			page 37


 806:hardware/mcu/st/stm32wlxx_hal_driver/Inc/stm32wlxx_ll_bus.h **** {
 246              		.loc 2 806 22 view .LVU62
 247              	.LBB69:
 808:hardware/mcu/st/stm32wlxx_hal_driver/Inc/stm32wlxx_ll_bus.h **** }
 248              		.loc 2 808 3 view .LVU63
 249 0040 1A6B     		ldr	r2, [r3, #48]
 250 0042 1C63     		str	r4, [r3, #48]
 251              	.LVL14:
 808:hardware/mcu/st/stm32wlxx_hal_driver/Inc/stm32wlxx_ll_bus.h **** }
 252              		.loc 2 808 3 is_stmt 0 view .LVU64
 253              	.LBE69:
 254              	.LBE68:
 219:hardware/mcu/st/stm32wlxx_hal_driver/Src/stm32wlxx_hal.c **** 
 255              		.loc 1 219 3 is_stmt 1 view .LVU65
 256 0044 FFF7FEFF 		bl	HAL_MspDeInit
 257              	.LVL15:
 222:hardware/mcu/st/stm32wlxx_hal_driver/Src/stm32wlxx_hal.c **** }
 258              		.loc 1 222 3 view .LVU66
 223:hardware/mcu/st/stm32wlxx_hal_driver/Src/stm32wlxx_hal.c **** 
 259              		.loc 1 223 1 is_stmt 0 view .LVU67
 260 0048 2046     		mov	r0, r4
 261 004a 10BD     		pop	{r4, pc}
 262              		.cfi_endproc
 263              	.LFE722:
 265              		.section	.text.HAL_InitTick,"ax",%progbits
 266              		.align	1
 267              		.weak	HAL_InitTick
 268              		.syntax unified
 269              		.thumb
 270              		.thumb_func
 272              	HAL_InitTick:
 273              	.LVL16:
 274              	.LFB725:
 235:hardware/mcu/st/stm32wlxx_hal_driver/Src/stm32wlxx_hal.c **** 
 236:hardware/mcu/st/stm32wlxx_hal_driver/Src/stm32wlxx_hal.c **** /**
 237:hardware/mcu/st/stm32wlxx_hal_driver/Src/stm32wlxx_hal.c ****   * @brief  DeInitializes the MSP.
 238:hardware/mcu/st/stm32wlxx_hal_driver/Src/stm32wlxx_hal.c ****   * @retval None
 239:hardware/mcu/st/stm32wlxx_hal_driver/Src/stm32wlxx_hal.c ****   */
 240:hardware/mcu/st/stm32wlxx_hal_driver/Src/stm32wlxx_hal.c **** __weak void HAL_MspDeInit(void)
 241:hardware/mcu/st/stm32wlxx_hal_driver/Src/stm32wlxx_hal.c **** {
 242:hardware/mcu/st/stm32wlxx_hal_driver/Src/stm32wlxx_hal.c ****   /* NOTE : This function should not be modified, when the callback is needed,
 243:hardware/mcu/st/stm32wlxx_hal_driver/Src/stm32wlxx_hal.c ****             the HAL_MspDeInit could be implemented in the user file
 244:hardware/mcu/st/stm32wlxx_hal_driver/Src/stm32wlxx_hal.c ****    */
 245:hardware/mcu/st/stm32wlxx_hal_driver/Src/stm32wlxx_hal.c **** }
 246:hardware/mcu/st/stm32wlxx_hal_driver/Src/stm32wlxx_hal.c **** 
 247:hardware/mcu/st/stm32wlxx_hal_driver/Src/stm32wlxx_hal.c **** /**
 248:hardware/mcu/st/stm32wlxx_hal_driver/Src/stm32wlxx_hal.c ****   * @brief This function configures the source of the time base:
 249:hardware/mcu/st/stm32wlxx_hal_driver/Src/stm32wlxx_hal.c ****   *        The time source is configured  to have 1ms time base with a dedicated
 250:hardware/mcu/st/stm32wlxx_hal_driver/Src/stm32wlxx_hal.c ****   *        Tick interrupt priority.
 251:hardware/mcu/st/stm32wlxx_hal_driver/Src/stm32wlxx_hal.c ****   * @note This function is called  automatically at the beginning of program after
 252:hardware/mcu/st/stm32wlxx_hal_driver/Src/stm32wlxx_hal.c ****   *       reset by HAL_Init() or at any time when clock is reconfigured  by HAL_RCC_ClockConfig().
 253:hardware/mcu/st/stm32wlxx_hal_driver/Src/stm32wlxx_hal.c ****   * @note In the default implementation, SysTick timer is the source of time base.
 254:hardware/mcu/st/stm32wlxx_hal_driver/Src/stm32wlxx_hal.c ****   *       It is used to generate interrupts at regular time intervals.
 255:hardware/mcu/st/stm32wlxx_hal_driver/Src/stm32wlxx_hal.c ****   *       Care must be taken if HAL_Delay() is called from a peripheral ISR process,
 256:hardware/mcu/st/stm32wlxx_hal_driver/Src/stm32wlxx_hal.c ****   *       The SysTick interrupt must have higher priority (numerically lower)
 257:hardware/mcu/st/stm32wlxx_hal_driver/Src/stm32wlxx_hal.c ****   *       than the peripheral interrupt. Otherwise the caller ISR process will be blocked.
 258:hardware/mcu/st/stm32wlxx_hal_driver/Src/stm32wlxx_hal.c ****   *       The function is declared as __weak  to be overwritten  in case of other
ARM GAS  /var/folders/b4/k4jbz0ms4wg23jtq0w6p483m0000gn/T//cchh5TYj.s 			page 38


 259:hardware/mcu/st/stm32wlxx_hal_driver/Src/stm32wlxx_hal.c ****   *       implementation  in user file.
 260:hardware/mcu/st/stm32wlxx_hal_driver/Src/stm32wlxx_hal.c ****   * @param TickPriority Tick interrupt priority.
 261:hardware/mcu/st/stm32wlxx_hal_driver/Src/stm32wlxx_hal.c ****   * @retval HAL status
 262:hardware/mcu/st/stm32wlxx_hal_driver/Src/stm32wlxx_hal.c ****   */
 263:hardware/mcu/st/stm32wlxx_hal_driver/Src/stm32wlxx_hal.c **** __weak HAL_StatusTypeDef HAL_InitTick(uint32_t TickPriority)
 264:hardware/mcu/st/stm32wlxx_hal_driver/Src/stm32wlxx_hal.c **** {
 275              		.loc 1 264 1 is_stmt 1 view -0
 276              		.cfi_startproc
 277              		@ args = 0, pretend = 0, frame = 0
 278              		@ frame_needed = 0, uses_anonymous_args = 0
 265:hardware/mcu/st/stm32wlxx_hal_driver/Src/stm32wlxx_hal.c ****   HAL_StatusTypeDef  status = HAL_OK;
 279              		.loc 1 265 3 view .LVU69
 266:hardware/mcu/st/stm32wlxx_hal_driver/Src/stm32wlxx_hal.c **** 
 267:hardware/mcu/st/stm32wlxx_hal_driver/Src/stm32wlxx_hal.c ****   /* Check uwTickFreq for MisraC 2012 (even if uwTickFreq is a enum type that don't take the value 
 268:hardware/mcu/st/stm32wlxx_hal_driver/Src/stm32wlxx_hal.c ****   if ((uint32_t)uwTickFreq != 0U)
 280              		.loc 1 268 3 view .LVU70
 264:hardware/mcu/st/stm32wlxx_hal_driver/Src/stm32wlxx_hal.c ****   HAL_StatusTypeDef  status = HAL_OK;
 281              		.loc 1 264 1 is_stmt 0 view .LVU71
 282 0000 38B5     		push	{r3, r4, r5, lr}
 283              	.LCFI1:
 284              		.cfi_def_cfa_offset 16
 285              		.cfi_offset 3, -16
 286              		.cfi_offset 4, -12
 287              		.cfi_offset 5, -8
 288              		.cfi_offset 14, -4
 289              		.loc 1 268 28 view .LVU72
 290 0002 104C     		ldr	r4, .L8
 291              		.loc 1 268 6 view .LVU73
 292 0004 2378     		ldrb	r3, [r4]	@ zero_extendqisi2
 264:hardware/mcu/st/stm32wlxx_hal_driver/Src/stm32wlxx_hal.c ****   HAL_StatusTypeDef  status = HAL_OK;
 293              		.loc 1 264 1 view .LVU74
 294 0006 0546     		mov	r5, r0
 295              		.loc 1 268 6 view .LVU75
 296 0008 0BB9     		cbnz	r3, .L5
 297              	.LVL17:
 298              	.L7:
 269:hardware/mcu/st/stm32wlxx_hal_driver/Src/stm32wlxx_hal.c ****   {
 270:hardware/mcu/st/stm32wlxx_hal_driver/Src/stm32wlxx_hal.c ****     /*Configure the SysTick to have interrupt in 1ms time basis*/
 271:hardware/mcu/st/stm32wlxx_hal_driver/Src/stm32wlxx_hal.c **** #ifdef CORE_CM0PLUS
 272:hardware/mcu/st/stm32wlxx_hal_driver/Src/stm32wlxx_hal.c ****     if (HAL_SYSTICK_Config(HAL_RCC_GetHCLK2Freq() / (1000U / (uint32_t)uwTickFreq)) == 0U)
 273:hardware/mcu/st/stm32wlxx_hal_driver/Src/stm32wlxx_hal.c **** #else
 274:hardware/mcu/st/stm32wlxx_hal_driver/Src/stm32wlxx_hal.c ****     if (HAL_SYSTICK_Config(HAL_RCC_GetHCLKFreq() / (1000U / (uint32_t)uwTickFreq)) == 0U)
 275:hardware/mcu/st/stm32wlxx_hal_driver/Src/stm32wlxx_hal.c **** #endif
 276:hardware/mcu/st/stm32wlxx_hal_driver/Src/stm32wlxx_hal.c ****     {
 277:hardware/mcu/st/stm32wlxx_hal_driver/Src/stm32wlxx_hal.c ****       /* Configure the SysTick IRQ priority */
 278:hardware/mcu/st/stm32wlxx_hal_driver/Src/stm32wlxx_hal.c ****       if (TickPriority < (1UL << __NVIC_PRIO_BITS))
 279:hardware/mcu/st/stm32wlxx_hal_driver/Src/stm32wlxx_hal.c ****       {
 280:hardware/mcu/st/stm32wlxx_hal_driver/Src/stm32wlxx_hal.c ****         HAL_NVIC_SetPriority(SysTick_IRQn, TickPriority, 0U);
 281:hardware/mcu/st/stm32wlxx_hal_driver/Src/stm32wlxx_hal.c ****         uwTickPrio = TickPriority;
 282:hardware/mcu/st/stm32wlxx_hal_driver/Src/stm32wlxx_hal.c ****       }
 283:hardware/mcu/st/stm32wlxx_hal_driver/Src/stm32wlxx_hal.c ****       else
 284:hardware/mcu/st/stm32wlxx_hal_driver/Src/stm32wlxx_hal.c ****       {
 285:hardware/mcu/st/stm32wlxx_hal_driver/Src/stm32wlxx_hal.c ****         status = HAL_ERROR;
 286:hardware/mcu/st/stm32wlxx_hal_driver/Src/stm32wlxx_hal.c ****       }
 287:hardware/mcu/st/stm32wlxx_hal_driver/Src/stm32wlxx_hal.c ****     }
 288:hardware/mcu/st/stm32wlxx_hal_driver/Src/stm32wlxx_hal.c ****     else
 289:hardware/mcu/st/stm32wlxx_hal_driver/Src/stm32wlxx_hal.c ****     {
ARM GAS  /var/folders/b4/k4jbz0ms4wg23jtq0w6p483m0000gn/T//cchh5TYj.s 			page 39


 290:hardware/mcu/st/stm32wlxx_hal_driver/Src/stm32wlxx_hal.c ****       status = HAL_ERROR;
 291:hardware/mcu/st/stm32wlxx_hal_driver/Src/stm32wlxx_hal.c ****     }
 292:hardware/mcu/st/stm32wlxx_hal_driver/Src/stm32wlxx_hal.c ****   }
 293:hardware/mcu/st/stm32wlxx_hal_driver/Src/stm32wlxx_hal.c ****   else
 294:hardware/mcu/st/stm32wlxx_hal_driver/Src/stm32wlxx_hal.c ****   {
 295:hardware/mcu/st/stm32wlxx_hal_driver/Src/stm32wlxx_hal.c ****     status = HAL_ERROR;
 299              		.loc 1 295 12 view .LVU76
 300 000a 0120     		movs	r0, #1
 301              	.L6:
 302              	.LVL18:
 296:hardware/mcu/st/stm32wlxx_hal_driver/Src/stm32wlxx_hal.c ****   }
 297:hardware/mcu/st/stm32wlxx_hal_driver/Src/stm32wlxx_hal.c **** 
 298:hardware/mcu/st/stm32wlxx_hal_driver/Src/stm32wlxx_hal.c ****   /* Return function status */
 299:hardware/mcu/st/stm32wlxx_hal_driver/Src/stm32wlxx_hal.c ****   return status;
 303              		.loc 1 299 3 is_stmt 1 view .LVU77
 300:hardware/mcu/st/stm32wlxx_hal_driver/Src/stm32wlxx_hal.c **** }
 304              		.loc 1 300 1 is_stmt 0 view .LVU78
 305 000c 38BD     		pop	{r3, r4, r5, pc}
 306              	.LVL19:
 307              	.L5:
 274:hardware/mcu/st/stm32wlxx_hal_driver/Src/stm32wlxx_hal.c **** #endif
 308              		.loc 1 274 5 is_stmt 1 view .LVU79
 274:hardware/mcu/st/stm32wlxx_hal_driver/Src/stm32wlxx_hal.c **** #endif
 309              		.loc 1 274 28 is_stmt 0 view .LVU80
 310 000e FFF7FEFF 		bl	HAL_RCC_GetHCLKFreq
 311              	.LVL20:
 274:hardware/mcu/st/stm32wlxx_hal_driver/Src/stm32wlxx_hal.c **** #endif
 312              		.loc 1 274 61 view .LVU81
 313 0012 2278     		ldrb	r2, [r4]	@ zero_extendqisi2
 274:hardware/mcu/st/stm32wlxx_hal_driver/Src/stm32wlxx_hal.c **** #endif
 314              		.loc 1 274 59 view .LVU82
 315 0014 4FF47A73 		mov	r3, #1000
 316 0018 B3FBF2F3 		udiv	r3, r3, r2
 274:hardware/mcu/st/stm32wlxx_hal_driver/Src/stm32wlxx_hal.c **** #endif
 317              		.loc 1 274 9 view .LVU83
 318 001c B0FBF3F0 		udiv	r0, r0, r3
 319 0020 FFF7FEFF 		bl	HAL_SYSTICK_Config
 320              	.LVL21:
 274:hardware/mcu/st/stm32wlxx_hal_driver/Src/stm32wlxx_hal.c **** #endif
 321              		.loc 1 274 8 view .LVU84
 322 0024 0446     		mov	r4, r0
 323 0026 0028     		cmp	r0, #0
 324 0028 EFD1     		bne	.L7
 278:hardware/mcu/st/stm32wlxx_hal_driver/Src/stm32wlxx_hal.c ****       {
 325              		.loc 1 278 7 is_stmt 1 view .LVU85
 278:hardware/mcu/st/stm32wlxx_hal_driver/Src/stm32wlxx_hal.c ****       {
 326              		.loc 1 278 10 is_stmt 0 view .LVU86
 327 002a 0F2D     		cmp	r5, #15
 328 002c EDD8     		bhi	.L7
 329              	.LVL22:
 330              	.LBB72:
 331              	.LBI72:
 263:hardware/mcu/st/stm32wlxx_hal_driver/Src/stm32wlxx_hal.c **** {
 332              		.loc 1 263 26 is_stmt 1 view .LVU87
 333              	.LBB73:
 280:hardware/mcu/st/stm32wlxx_hal_driver/Src/stm32wlxx_hal.c ****         uwTickPrio = TickPriority;
 334              		.loc 1 280 9 view .LVU88
ARM GAS  /var/folders/b4/k4jbz0ms4wg23jtq0w6p483m0000gn/T//cchh5TYj.s 			page 40


 335 002e 0246     		mov	r2, r0
 336 0030 2946     		mov	r1, r5
 337 0032 4FF0FF30 		mov	r0, #-1
 338 0036 FFF7FEFF 		bl	HAL_NVIC_SetPriority
 339              	.LVL23:
 281:hardware/mcu/st/stm32wlxx_hal_driver/Src/stm32wlxx_hal.c ****       }
 340              		.loc 1 281 9 view .LVU89
 281:hardware/mcu/st/stm32wlxx_hal_driver/Src/stm32wlxx_hal.c ****       }
 341              		.loc 1 281 20 is_stmt 0 view .LVU90
 342 003a 034B     		ldr	r3, .L8+4
 343 003c 2046     		mov	r0, r4
 344 003e 1D60     		str	r5, [r3]
 345              	.LVL24:
 299:hardware/mcu/st/stm32wlxx_hal_driver/Src/stm32wlxx_hal.c **** }
 346              		.loc 1 299 3 is_stmt 1 view .LVU91
 299:hardware/mcu/st/stm32wlxx_hal_driver/Src/stm32wlxx_hal.c **** }
 347              		.loc 1 299 3 is_stmt 0 view .LVU92
 348 0040 E4E7     		b	.L6
 349              	.L9:
 350 0042 00BF     		.align	2
 351              	.L8:
 352 0044 00000000 		.word	.LANCHOR0
 353 0048 00000000 		.word	.LANCHOR1
 354              	.LBE73:
 355              	.LBE72:
 356              		.cfi_endproc
 357              	.LFE725:
 359              		.section	.text.HAL_Init,"ax",%progbits
 360              		.align	1
 361              		.global	HAL_Init
 362              		.syntax unified
 363              		.thumb
 364              		.thumb_func
 366              	HAL_Init:
 367              	.LFB721:
 142:hardware/mcu/st/stm32wlxx_hal_driver/Src/stm32wlxx_hal.c ****   HAL_StatusTypeDef  status = HAL_OK;
 368              		.loc 1 142 1 is_stmt 1 view -0
 369              		.cfi_startproc
 370              		@ args = 0, pretend = 0, frame = 0
 371              		@ frame_needed = 0, uses_anonymous_args = 0
 143:hardware/mcu/st/stm32wlxx_hal_driver/Src/stm32wlxx_hal.c ****   /* Configure Flash prefetch, Instruction cache, Data cache */
 372              		.loc 1 143 3 view .LVU94
 373              	.LVL25:
 167:hardware/mcu/st/stm32wlxx_hal_driver/Src/stm32wlxx_hal.c **** #endif
 374              		.loc 1 167 3 view .LVU95
 142:hardware/mcu/st/stm32wlxx_hal_driver/Src/stm32wlxx_hal.c ****   HAL_StatusTypeDef  status = HAL_OK;
 375              		.loc 1 142 1 is_stmt 0 view .LVU96
 376 0000 10B5     		push	{r4, lr}
 377              	.LCFI2:
 378              		.cfi_def_cfa_offset 8
 379              		.cfi_offset 4, -8
 380              		.cfi_offset 14, -4
 167:hardware/mcu/st/stm32wlxx_hal_driver/Src/stm32wlxx_hal.c **** #endif
 381              		.loc 1 167 3 view .LVU97
 382 0002 0320     		movs	r0, #3
 383 0004 FFF7FEFF 		bl	HAL_NVIC_SetPriorityGrouping
 384              	.LVL26:
ARM GAS  /var/folders/b4/k4jbz0ms4wg23jtq0w6p483m0000gn/T//cchh5TYj.s 			page 41


 174:hardware/mcu/st/stm32wlxx_hal_driver/Src/stm32wlxx_hal.c **** #endif
 385              		.loc 1 174 3 is_stmt 1 view .LVU98
 174:hardware/mcu/st/stm32wlxx_hal_driver/Src/stm32wlxx_hal.c **** #endif
 386              		.loc 1 174 21 is_stmt 0 view .LVU99
 387 0008 FFF7FEFF 		bl	HAL_RCC_GetHCLKFreq
 388              	.LVL27:
 174:hardware/mcu/st/stm32wlxx_hal_driver/Src/stm32wlxx_hal.c **** #endif
 389              		.loc 1 174 19 view .LVU100
 390 000c 064B     		ldr	r3, .L13
 391 000e 1860     		str	r0, [r3]
 178:hardware/mcu/st/stm32wlxx_hal_driver/Src/stm32wlxx_hal.c ****   {
 392              		.loc 1 178 3 is_stmt 1 view .LVU101
 178:hardware/mcu/st/stm32wlxx_hal_driver/Src/stm32wlxx_hal.c ****   {
 393              		.loc 1 178 7 is_stmt 0 view .LVU102
 394 0010 0F20     		movs	r0, #15
 395 0012 FFF7FEFF 		bl	HAL_InitTick
 396              	.LVL28:
 178:hardware/mcu/st/stm32wlxx_hal_driver/Src/stm32wlxx_hal.c ****   {
 397              		.loc 1 178 6 view .LVU103
 398 0016 0446     		mov	r4, r0
 399 0018 18B9     		cbnz	r0, .L12
 185:hardware/mcu/st/stm32wlxx_hal_driver/Src/stm32wlxx_hal.c ****   }
 400              		.loc 1 185 5 is_stmt 1 view .LVU104
 401 001a FFF7FEFF 		bl	HAL_MspInit
 402              	.LVL29:
 403              	.L11:
 189:hardware/mcu/st/stm32wlxx_hal_driver/Src/stm32wlxx_hal.c **** }
 404              		.loc 1 189 3 view .LVU105
 190:hardware/mcu/st/stm32wlxx_hal_driver/Src/stm32wlxx_hal.c **** 
 405              		.loc 1 190 1 is_stmt 0 view .LVU106
 406 001e 2046     		mov	r0, r4
 407 0020 10BD     		pop	{r4, pc}
 408              	.LVL30:
 409              	.L12:
 180:hardware/mcu/st/stm32wlxx_hal_driver/Src/stm32wlxx_hal.c ****   }
 410              		.loc 1 180 12 view .LVU107
 411 0022 0124     		movs	r4, #1
 412 0024 FBE7     		b	.L11
 413              	.L14:
 414 0026 00BF     		.align	2
 415              	.L13:
 416 0028 00000000 		.word	SystemCoreClock
 417              		.cfi_endproc
 418              	.LFE721:
 420              		.section	.text.HAL_IncTick,"ax",%progbits
 421              		.align	1
 422              		.weak	HAL_IncTick
 423              		.syntax unified
 424              		.thumb
 425              		.thumb_func
 427              	HAL_IncTick:
 428              	.LFB726:
 301:hardware/mcu/st/stm32wlxx_hal_driver/Src/stm32wlxx_hal.c **** 
 302:hardware/mcu/st/stm32wlxx_hal_driver/Src/stm32wlxx_hal.c **** /**
 303:hardware/mcu/st/stm32wlxx_hal_driver/Src/stm32wlxx_hal.c ****   * @}
 304:hardware/mcu/st/stm32wlxx_hal_driver/Src/stm32wlxx_hal.c ****   */
 305:hardware/mcu/st/stm32wlxx_hal_driver/Src/stm32wlxx_hal.c **** 
ARM GAS  /var/folders/b4/k4jbz0ms4wg23jtq0w6p483m0000gn/T//cchh5TYj.s 			page 42


 306:hardware/mcu/st/stm32wlxx_hal_driver/Src/stm32wlxx_hal.c **** /** @addtogroup HAL_Exported_Functions_Group2
 307:hardware/mcu/st/stm32wlxx_hal_driver/Src/stm32wlxx_hal.c ****  *  @brief    HAL Control functions
 308:hardware/mcu/st/stm32wlxx_hal_driver/Src/stm32wlxx_hal.c ****  *
 309:hardware/mcu/st/stm32wlxx_hal_driver/Src/stm32wlxx_hal.c **** @verbatim
 310:hardware/mcu/st/stm32wlxx_hal_driver/Src/stm32wlxx_hal.c ****  ===============================================================================
 311:hardware/mcu/st/stm32wlxx_hal_driver/Src/stm32wlxx_hal.c ****                       ##### HAL Control functions #####
 312:hardware/mcu/st/stm32wlxx_hal_driver/Src/stm32wlxx_hal.c ****  ===============================================================================
 313:hardware/mcu/st/stm32wlxx_hal_driver/Src/stm32wlxx_hal.c ****     [..]  This section provides functions allowing to:
 314:hardware/mcu/st/stm32wlxx_hal_driver/Src/stm32wlxx_hal.c ****       (+) Provide a tick value in millisecond
 315:hardware/mcu/st/stm32wlxx_hal_driver/Src/stm32wlxx_hal.c ****       (+) Provide a blocking delay in millisecond
 316:hardware/mcu/st/stm32wlxx_hal_driver/Src/stm32wlxx_hal.c ****       (+) Suspend the time base source interrupt
 317:hardware/mcu/st/stm32wlxx_hal_driver/Src/stm32wlxx_hal.c ****       (+) Resume the time base source interrupt
 318:hardware/mcu/st/stm32wlxx_hal_driver/Src/stm32wlxx_hal.c ****       (+) Get the HAL API driver version
 319:hardware/mcu/st/stm32wlxx_hal_driver/Src/stm32wlxx_hal.c ****       (+) Get the device revision identifier
 320:hardware/mcu/st/stm32wlxx_hal_driver/Src/stm32wlxx_hal.c ****       (+) Get the device identifier
 321:hardware/mcu/st/stm32wlxx_hal_driver/Src/stm32wlxx_hal.c ****       (+) Get the unique device identifier
 322:hardware/mcu/st/stm32wlxx_hal_driver/Src/stm32wlxx_hal.c **** 
 323:hardware/mcu/st/stm32wlxx_hal_driver/Src/stm32wlxx_hal.c **** @endverbatim
 324:hardware/mcu/st/stm32wlxx_hal_driver/Src/stm32wlxx_hal.c ****   * @{
 325:hardware/mcu/st/stm32wlxx_hal_driver/Src/stm32wlxx_hal.c ****   */
 326:hardware/mcu/st/stm32wlxx_hal_driver/Src/stm32wlxx_hal.c **** 
 327:hardware/mcu/st/stm32wlxx_hal_driver/Src/stm32wlxx_hal.c **** /**
 328:hardware/mcu/st/stm32wlxx_hal_driver/Src/stm32wlxx_hal.c ****   * @brief This function is called to increment  a global variable "uwTick"
 329:hardware/mcu/st/stm32wlxx_hal_driver/Src/stm32wlxx_hal.c ****   *        used as application time base.
 330:hardware/mcu/st/stm32wlxx_hal_driver/Src/stm32wlxx_hal.c ****   * @note In the default implementation, this variable is incremented each 1ms
 331:hardware/mcu/st/stm32wlxx_hal_driver/Src/stm32wlxx_hal.c ****   *       in SysTick ISR.
 332:hardware/mcu/st/stm32wlxx_hal_driver/Src/stm32wlxx_hal.c ****  * @note This function is declared as __weak to be overwritten in case of other
 333:hardware/mcu/st/stm32wlxx_hal_driver/Src/stm32wlxx_hal.c ****   *      implementations in user file.
 334:hardware/mcu/st/stm32wlxx_hal_driver/Src/stm32wlxx_hal.c ****   * @retval None
 335:hardware/mcu/st/stm32wlxx_hal_driver/Src/stm32wlxx_hal.c ****   */
 336:hardware/mcu/st/stm32wlxx_hal_driver/Src/stm32wlxx_hal.c **** __weak void HAL_IncTick(void)
 337:hardware/mcu/st/stm32wlxx_hal_driver/Src/stm32wlxx_hal.c **** {
 429              		.loc 1 337 1 is_stmt 1 view -0
 430              		.cfi_startproc
 431              		@ args = 0, pretend = 0, frame = 0
 432              		@ frame_needed = 0, uses_anonymous_args = 0
 433              		@ link register save eliminated.
 338:hardware/mcu/st/stm32wlxx_hal_driver/Src/stm32wlxx_hal.c ****   uwTick += (uint32_t)uwTickFreq;
 434              		.loc 1 338 3 view .LVU109
 435              		.loc 1 338 10 is_stmt 0 view .LVU110
 436 0000 034A     		ldr	r2, .L16
 437              		.loc 1 338 13 view .LVU111
 438 0002 044B     		ldr	r3, .L16+4
 439              		.loc 1 338 10 view .LVU112
 440 0004 1168     		ldr	r1, [r2]
 441              		.loc 1 338 13 view .LVU113
 442 0006 1B78     		ldrb	r3, [r3]	@ zero_extendqisi2
 443              		.loc 1 338 10 view .LVU114
 444 0008 0B44     		add	r3, r3, r1
 445 000a 1360     		str	r3, [r2]
 339:hardware/mcu/st/stm32wlxx_hal_driver/Src/stm32wlxx_hal.c **** }
 446              		.loc 1 339 1 view .LVU115
 447 000c 7047     		bx	lr
 448              	.L17:
 449 000e 00BF     		.align	2
 450              	.L16:
 451 0010 00000000 		.word	.LANCHOR2
ARM GAS  /var/folders/b4/k4jbz0ms4wg23jtq0w6p483m0000gn/T//cchh5TYj.s 			page 43


 452 0014 00000000 		.word	.LANCHOR0
 453              		.cfi_endproc
 454              	.LFE726:
 456              		.section	.text.HAL_GetTick,"ax",%progbits
 457              		.align	1
 458              		.weak	HAL_GetTick
 459              		.syntax unified
 460              		.thumb
 461              		.thumb_func
 463              	HAL_GetTick:
 464              	.LFB727:
 340:hardware/mcu/st/stm32wlxx_hal_driver/Src/stm32wlxx_hal.c **** 
 341:hardware/mcu/st/stm32wlxx_hal_driver/Src/stm32wlxx_hal.c **** /**
 342:hardware/mcu/st/stm32wlxx_hal_driver/Src/stm32wlxx_hal.c ****   * @brief Provides a tick value in millisecond.
 343:hardware/mcu/st/stm32wlxx_hal_driver/Src/stm32wlxx_hal.c ****   * @note This function is declared as __weak to be overwritten in case of other
 344:hardware/mcu/st/stm32wlxx_hal_driver/Src/stm32wlxx_hal.c ****   *       implementations in user file.
 345:hardware/mcu/st/stm32wlxx_hal_driver/Src/stm32wlxx_hal.c ****   * @retval tick value
 346:hardware/mcu/st/stm32wlxx_hal_driver/Src/stm32wlxx_hal.c ****   */
 347:hardware/mcu/st/stm32wlxx_hal_driver/Src/stm32wlxx_hal.c **** __weak uint32_t HAL_GetTick(void)
 348:hardware/mcu/st/stm32wlxx_hal_driver/Src/stm32wlxx_hal.c **** {
 465              		.loc 1 348 1 is_stmt 1 view -0
 466              		.cfi_startproc
 467              		@ args = 0, pretend = 0, frame = 0
 468              		@ frame_needed = 0, uses_anonymous_args = 0
 469              		@ link register save eliminated.
 349:hardware/mcu/st/stm32wlxx_hal_driver/Src/stm32wlxx_hal.c ****   return uwTick;
 470              		.loc 1 349 3 view .LVU117
 471              		.loc 1 349 10 is_stmt 0 view .LVU118
 472 0000 014B     		ldr	r3, .L19
 473 0002 1868     		ldr	r0, [r3]
 350:hardware/mcu/st/stm32wlxx_hal_driver/Src/stm32wlxx_hal.c **** }
 474              		.loc 1 350 1 view .LVU119
 475 0004 7047     		bx	lr
 476              	.L20:
 477 0006 00BF     		.align	2
 478              	.L19:
 479 0008 00000000 		.word	.LANCHOR2
 480              		.cfi_endproc
 481              	.LFE727:
 483              		.section	.text.HAL_GetTickPrio,"ax",%progbits
 484              		.align	1
 485              		.global	HAL_GetTickPrio
 486              		.syntax unified
 487              		.thumb
 488              		.thumb_func
 490              	HAL_GetTickPrio:
 491              	.LFB728:
 351:hardware/mcu/st/stm32wlxx_hal_driver/Src/stm32wlxx_hal.c **** 
 352:hardware/mcu/st/stm32wlxx_hal_driver/Src/stm32wlxx_hal.c **** /**
 353:hardware/mcu/st/stm32wlxx_hal_driver/Src/stm32wlxx_hal.c ****   * @brief This function returns a tick priority.
 354:hardware/mcu/st/stm32wlxx_hal_driver/Src/stm32wlxx_hal.c ****   * @retval tick priority
 355:hardware/mcu/st/stm32wlxx_hal_driver/Src/stm32wlxx_hal.c ****   */
 356:hardware/mcu/st/stm32wlxx_hal_driver/Src/stm32wlxx_hal.c **** uint32_t HAL_GetTickPrio(void)
 357:hardware/mcu/st/stm32wlxx_hal_driver/Src/stm32wlxx_hal.c **** {
 492              		.loc 1 357 1 is_stmt 1 view -0
 493              		.cfi_startproc
 494              		@ args = 0, pretend = 0, frame = 0
ARM GAS  /var/folders/b4/k4jbz0ms4wg23jtq0w6p483m0000gn/T//cchh5TYj.s 			page 44


 495              		@ frame_needed = 0, uses_anonymous_args = 0
 496              		@ link register save eliminated.
 358:hardware/mcu/st/stm32wlxx_hal_driver/Src/stm32wlxx_hal.c ****   return uwTickPrio;
 497              		.loc 1 358 3 view .LVU121
 359:hardware/mcu/st/stm32wlxx_hal_driver/Src/stm32wlxx_hal.c **** }
 498              		.loc 1 359 1 is_stmt 0 view .LVU122
 499 0000 014B     		ldr	r3, .L22
 500 0002 1868     		ldr	r0, [r3]
 501 0004 7047     		bx	lr
 502              	.L23:
 503 0006 00BF     		.align	2
 504              	.L22:
 505 0008 00000000 		.word	.LANCHOR1
 506              		.cfi_endproc
 507              	.LFE728:
 509              		.section	.text.HAL_SetTickFreq,"ax",%progbits
 510              		.align	1
 511              		.global	HAL_SetTickFreq
 512              		.syntax unified
 513              		.thumb
 514              		.thumb_func
 516              	HAL_SetTickFreq:
 517              	.LVL31:
 518              	.LFB729:
 360:hardware/mcu/st/stm32wlxx_hal_driver/Src/stm32wlxx_hal.c **** 
 361:hardware/mcu/st/stm32wlxx_hal_driver/Src/stm32wlxx_hal.c **** /**
 362:hardware/mcu/st/stm32wlxx_hal_driver/Src/stm32wlxx_hal.c ****   * @brief Set new tick Freq.
 363:hardware/mcu/st/stm32wlxx_hal_driver/Src/stm32wlxx_hal.c ****   * @retval Status
 364:hardware/mcu/st/stm32wlxx_hal_driver/Src/stm32wlxx_hal.c ****   */
 365:hardware/mcu/st/stm32wlxx_hal_driver/Src/stm32wlxx_hal.c **** HAL_StatusTypeDef HAL_SetTickFreq(HAL_TickFreqTypeDef Freq)
 366:hardware/mcu/st/stm32wlxx_hal_driver/Src/stm32wlxx_hal.c **** {
 519              		.loc 1 366 1 is_stmt 1 view -0
 520              		.cfi_startproc
 521              		@ args = 0, pretend = 0, frame = 0
 522              		@ frame_needed = 0, uses_anonymous_args = 0
 367:hardware/mcu/st/stm32wlxx_hal_driver/Src/stm32wlxx_hal.c ****   HAL_StatusTypeDef status  = HAL_OK;
 523              		.loc 1 367 3 view .LVU124
 368:hardware/mcu/st/stm32wlxx_hal_driver/Src/stm32wlxx_hal.c ****   HAL_TickFreqTypeDef prevTickFreq;
 524              		.loc 1 368 3 view .LVU125
 369:hardware/mcu/st/stm32wlxx_hal_driver/Src/stm32wlxx_hal.c ****   assert_param(IS_TICKFREQ(Freq));
 525              		.loc 1 369 3 view .LVU126
 370:hardware/mcu/st/stm32wlxx_hal_driver/Src/stm32wlxx_hal.c **** 
 371:hardware/mcu/st/stm32wlxx_hal_driver/Src/stm32wlxx_hal.c ****   if (uwTickFreq != Freq)
 526              		.loc 1 371 3 view .LVU127
 366:hardware/mcu/st/stm32wlxx_hal_driver/Src/stm32wlxx_hal.c ****   HAL_StatusTypeDef status  = HAL_OK;
 527              		.loc 1 366 1 is_stmt 0 view .LVU128
 528 0000 38B5     		push	{r3, r4, r5, lr}
 529              	.LCFI3:
 530              		.cfi_def_cfa_offset 16
 531              		.cfi_offset 3, -16
 532              		.cfi_offset 4, -12
 533              		.cfi_offset 5, -8
 534              		.cfi_offset 14, -4
 535              		.loc 1 371 18 view .LVU129
 536 0002 074C     		ldr	r4, .L30
 537 0004 2578     		ldrb	r5, [r4]	@ zero_extendqisi2
 538              		.loc 1 371 6 view .LVU130
ARM GAS  /var/folders/b4/k4jbz0ms4wg23jtq0w6p483m0000gn/T//cchh5TYj.s 			page 45


 539 0006 8542     		cmp	r5, r0
 540 0008 07D0     		beq	.L26
 372:hardware/mcu/st/stm32wlxx_hal_driver/Src/stm32wlxx_hal.c ****   {
 373:hardware/mcu/st/stm32wlxx_hal_driver/Src/stm32wlxx_hal.c ****     /* Back up uwTickFreq frequency */
 374:hardware/mcu/st/stm32wlxx_hal_driver/Src/stm32wlxx_hal.c ****     prevTickFreq = uwTickFreq;
 541              		.loc 1 374 5 is_stmt 1 view .LVU131
 542              	.LVL32:
 375:hardware/mcu/st/stm32wlxx_hal_driver/Src/stm32wlxx_hal.c **** 
 376:hardware/mcu/st/stm32wlxx_hal_driver/Src/stm32wlxx_hal.c ****     /* Update uwTickFreq global variable used by HAL_InitTick() */
 377:hardware/mcu/st/stm32wlxx_hal_driver/Src/stm32wlxx_hal.c ****     uwTickFreq = Freq;
 543              		.loc 1 377 5 view .LVU132
 378:hardware/mcu/st/stm32wlxx_hal_driver/Src/stm32wlxx_hal.c **** 
 379:hardware/mcu/st/stm32wlxx_hal_driver/Src/stm32wlxx_hal.c ****     /* Apply the new tick Freq */
 380:hardware/mcu/st/stm32wlxx_hal_driver/Src/stm32wlxx_hal.c ****     status = HAL_InitTick(uwTickPrio);
 544              		.loc 1 380 14 is_stmt 0 view .LVU133
 545 000a 064B     		ldr	r3, .L30+4
 377:hardware/mcu/st/stm32wlxx_hal_driver/Src/stm32wlxx_hal.c **** 
 546              		.loc 1 377 16 view .LVU134
 547 000c 2070     		strb	r0, [r4]
 548              		.loc 1 380 5 is_stmt 1 view .LVU135
 549              		.loc 1 380 14 is_stmt 0 view .LVU136
 550 000e 1868     		ldr	r0, [r3]
 551              	.LVL33:
 552              		.loc 1 380 14 view .LVU137
 553 0010 FFF7FEFF 		bl	HAL_InitTick
 554              	.LVL34:
 381:hardware/mcu/st/stm32wlxx_hal_driver/Src/stm32wlxx_hal.c **** 
 382:hardware/mcu/st/stm32wlxx_hal_driver/Src/stm32wlxx_hal.c ****     if (status != HAL_OK)
 555              		.loc 1 382 5 is_stmt 1 view .LVU138
 556              		.loc 1 382 8 is_stmt 0 view .LVU139
 557 0014 00B1     		cbz	r0, .L25
 383:hardware/mcu/st/stm32wlxx_hal_driver/Src/stm32wlxx_hal.c ****     {
 384:hardware/mcu/st/stm32wlxx_hal_driver/Src/stm32wlxx_hal.c ****       /* Restore previous tick frequency */
 385:hardware/mcu/st/stm32wlxx_hal_driver/Src/stm32wlxx_hal.c ****       uwTickFreq = prevTickFreq;
 558              		.loc 1 385 7 is_stmt 1 view .LVU140
 559              		.loc 1 385 18 is_stmt 0 view .LVU141
 560 0016 2570     		strb	r5, [r4]
 561              	.LVL35:
 562              	.L25:
 386:hardware/mcu/st/stm32wlxx_hal_driver/Src/stm32wlxx_hal.c ****     }
 387:hardware/mcu/st/stm32wlxx_hal_driver/Src/stm32wlxx_hal.c ****   }
 388:hardware/mcu/st/stm32wlxx_hal_driver/Src/stm32wlxx_hal.c **** 
 389:hardware/mcu/st/stm32wlxx_hal_driver/Src/stm32wlxx_hal.c ****   return status;
 563              		.loc 1 389 3 is_stmt 1 view .LVU142
 390:hardware/mcu/st/stm32wlxx_hal_driver/Src/stm32wlxx_hal.c **** }
 564              		.loc 1 390 1 is_stmt 0 view .LVU143
 565 0018 38BD     		pop	{r3, r4, r5, pc}
 566              	.LVL36:
 567              	.L26:
 367:hardware/mcu/st/stm32wlxx_hal_driver/Src/stm32wlxx_hal.c ****   HAL_TickFreqTypeDef prevTickFreq;
 568              		.loc 1 367 21 view .LVU144
 569 001a 0020     		movs	r0, #0
 570              	.LVL37:
 367:hardware/mcu/st/stm32wlxx_hal_driver/Src/stm32wlxx_hal.c ****   HAL_TickFreqTypeDef prevTickFreq;
 571              		.loc 1 367 21 view .LVU145
 572 001c FCE7     		b	.L25
 573              	.L31:
ARM GAS  /var/folders/b4/k4jbz0ms4wg23jtq0w6p483m0000gn/T//cchh5TYj.s 			page 46


 574 001e 00BF     		.align	2
 575              	.L30:
 576 0020 00000000 		.word	.LANCHOR0
 577 0024 00000000 		.word	.LANCHOR1
 578              		.cfi_endproc
 579              	.LFE729:
 581              		.section	.text.HAL_GetTickFreq,"ax",%progbits
 582              		.align	1
 583              		.global	HAL_GetTickFreq
 584              		.syntax unified
 585              		.thumb
 586              		.thumb_func
 588              	HAL_GetTickFreq:
 589              	.LFB730:
 391:hardware/mcu/st/stm32wlxx_hal_driver/Src/stm32wlxx_hal.c **** 
 392:hardware/mcu/st/stm32wlxx_hal_driver/Src/stm32wlxx_hal.c **** /**
 393:hardware/mcu/st/stm32wlxx_hal_driver/Src/stm32wlxx_hal.c ****   * @brief Return tick frequency.
 394:hardware/mcu/st/stm32wlxx_hal_driver/Src/stm32wlxx_hal.c ****   * @retval tick period in Hz
 395:hardware/mcu/st/stm32wlxx_hal_driver/Src/stm32wlxx_hal.c ****   */
 396:hardware/mcu/st/stm32wlxx_hal_driver/Src/stm32wlxx_hal.c **** HAL_TickFreqTypeDef HAL_GetTickFreq(void)
 397:hardware/mcu/st/stm32wlxx_hal_driver/Src/stm32wlxx_hal.c **** {
 590              		.loc 1 397 1 is_stmt 1 view -0
 591              		.cfi_startproc
 592              		@ args = 0, pretend = 0, frame = 0
 593              		@ frame_needed = 0, uses_anonymous_args = 0
 594              		@ link register save eliminated.
 398:hardware/mcu/st/stm32wlxx_hal_driver/Src/stm32wlxx_hal.c ****   return uwTickFreq;
 595              		.loc 1 398 3 view .LVU147
 399:hardware/mcu/st/stm32wlxx_hal_driver/Src/stm32wlxx_hal.c **** }
 596              		.loc 1 399 1 is_stmt 0 view .LVU148
 597 0000 014B     		ldr	r3, .L33
 598 0002 1878     		ldrb	r0, [r3]	@ zero_extendqisi2
 599 0004 7047     		bx	lr
 600              	.L34:
 601 0006 00BF     		.align	2
 602              	.L33:
 603 0008 00000000 		.word	.LANCHOR0
 604              		.cfi_endproc
 605              	.LFE730:
 607              		.section	.text.HAL_Delay,"ax",%progbits
 608              		.align	1
 609              		.weak	HAL_Delay
 610              		.syntax unified
 611              		.thumb
 612              		.thumb_func
 614              	HAL_Delay:
 615              	.LVL38:
 616              	.LFB731:
 400:hardware/mcu/st/stm32wlxx_hal_driver/Src/stm32wlxx_hal.c **** 
 401:hardware/mcu/st/stm32wlxx_hal_driver/Src/stm32wlxx_hal.c **** /**
 402:hardware/mcu/st/stm32wlxx_hal_driver/Src/stm32wlxx_hal.c ****   * @brief This function provides minimum delay (in milliseconds) based
 403:hardware/mcu/st/stm32wlxx_hal_driver/Src/stm32wlxx_hal.c ****   *        on variable incremented.
 404:hardware/mcu/st/stm32wlxx_hal_driver/Src/stm32wlxx_hal.c ****   * @note In the default implementation , SysTick timer is the source of time base.
 405:hardware/mcu/st/stm32wlxx_hal_driver/Src/stm32wlxx_hal.c ****   *       It is used to generate interrupts at regular time intervals where uwTick
 406:hardware/mcu/st/stm32wlxx_hal_driver/Src/stm32wlxx_hal.c ****   *       is incremented.
 407:hardware/mcu/st/stm32wlxx_hal_driver/Src/stm32wlxx_hal.c ****   * @note This function is declared as __weak to be overwritten in case of other
 408:hardware/mcu/st/stm32wlxx_hal_driver/Src/stm32wlxx_hal.c ****   *       implementations in user file.
ARM GAS  /var/folders/b4/k4jbz0ms4wg23jtq0w6p483m0000gn/T//cchh5TYj.s 			page 47


 409:hardware/mcu/st/stm32wlxx_hal_driver/Src/stm32wlxx_hal.c ****   * @param Delay  specifies the delay time length, in milliseconds.
 410:hardware/mcu/st/stm32wlxx_hal_driver/Src/stm32wlxx_hal.c ****   * @retval None
 411:hardware/mcu/st/stm32wlxx_hal_driver/Src/stm32wlxx_hal.c ****   */
 412:hardware/mcu/st/stm32wlxx_hal_driver/Src/stm32wlxx_hal.c **** __weak void HAL_Delay(uint32_t Delay)
 413:hardware/mcu/st/stm32wlxx_hal_driver/Src/stm32wlxx_hal.c **** {
 617              		.loc 1 413 1 is_stmt 1 view -0
 618              		.cfi_startproc
 619              		@ args = 0, pretend = 0, frame = 0
 620              		@ frame_needed = 0, uses_anonymous_args = 0
 414:hardware/mcu/st/stm32wlxx_hal_driver/Src/stm32wlxx_hal.c ****   uint32_t tickstart = HAL_GetTick();
 621              		.loc 1 414 3 view .LVU150
 413:hardware/mcu/st/stm32wlxx_hal_driver/Src/stm32wlxx_hal.c ****   uint32_t tickstart = HAL_GetTick();
 622              		.loc 1 413 1 is_stmt 0 view .LVU151
 623 0000 38B5     		push	{r3, r4, r5, lr}
 624              	.LCFI4:
 625              		.cfi_def_cfa_offset 16
 626              		.cfi_offset 3, -16
 627              		.cfi_offset 4, -12
 628              		.cfi_offset 5, -8
 629              		.cfi_offset 14, -4
 413:hardware/mcu/st/stm32wlxx_hal_driver/Src/stm32wlxx_hal.c ****   uint32_t tickstart = HAL_GetTick();
 630              		.loc 1 413 1 view .LVU152
 631 0002 0446     		mov	r4, r0
 632              		.loc 1 414 24 view .LVU153
 633 0004 FFF7FEFF 		bl	HAL_GetTick
 634              	.LVL39:
 415:hardware/mcu/st/stm32wlxx_hal_driver/Src/stm32wlxx_hal.c ****   uint32_t wait = Delay;
 416:hardware/mcu/st/stm32wlxx_hal_driver/Src/stm32wlxx_hal.c **** 
 417:hardware/mcu/st/stm32wlxx_hal_driver/Src/stm32wlxx_hal.c ****   /* Add a freq to guarantee minimum wait */
 418:hardware/mcu/st/stm32wlxx_hal_driver/Src/stm32wlxx_hal.c ****   if (wait < HAL_MAX_DELAY)
 635              		.loc 1 418 6 view .LVU154
 636 0008 631C     		adds	r3, r4, #1
 419:hardware/mcu/st/stm32wlxx_hal_driver/Src/stm32wlxx_hal.c ****   {
 420:hardware/mcu/st/stm32wlxx_hal_driver/Src/stm32wlxx_hal.c ****     wait += (uint32_t)(uwTickFreq);
 637              		.loc 1 420 13 view .LVU155
 638 000a 1CBF     		itt	ne
 639 000c 054B     		ldrne	r3, .L42
 640 000e 1B78     		ldrbne	r3, [r3]	@ zero_extendqisi2
 414:hardware/mcu/st/stm32wlxx_hal_driver/Src/stm32wlxx_hal.c ****   uint32_t wait = Delay;
 641              		.loc 1 414 24 view .LVU156
 642 0010 0546     		mov	r5, r0
 643              	.LVL40:
 415:hardware/mcu/st/stm32wlxx_hal_driver/Src/stm32wlxx_hal.c ****   uint32_t wait = Delay;
 644              		.loc 1 415 3 is_stmt 1 view .LVU157
 418:hardware/mcu/st/stm32wlxx_hal_driver/Src/stm32wlxx_hal.c ****   {
 645              		.loc 1 418 3 view .LVU158
 646              		.loc 1 420 5 view .LVU159
 647              		.loc 1 420 10 is_stmt 0 view .LVU160
 648 0012 18BF     		it	ne
 649 0014 E418     		addne	r4, r4, r3
 650              	.LVL41:
 651              	.L37:
 421:hardware/mcu/st/stm32wlxx_hal_driver/Src/stm32wlxx_hal.c ****   }
 422:hardware/mcu/st/stm32wlxx_hal_driver/Src/stm32wlxx_hal.c **** 
 423:hardware/mcu/st/stm32wlxx_hal_driver/Src/stm32wlxx_hal.c ****   while ((HAL_GetTick() - tickstart) < wait)
 424:hardware/mcu/st/stm32wlxx_hal_driver/Src/stm32wlxx_hal.c ****   {
 425:hardware/mcu/st/stm32wlxx_hal_driver/Src/stm32wlxx_hal.c ****   }
ARM GAS  /var/folders/b4/k4jbz0ms4wg23jtq0w6p483m0000gn/T//cchh5TYj.s 			page 48


 652              		.loc 1 425 3 is_stmt 1 discriminator 1 view .LVU161
 423:hardware/mcu/st/stm32wlxx_hal_driver/Src/stm32wlxx_hal.c ****   {
 653              		.loc 1 423 9 discriminator 1 view .LVU162
 423:hardware/mcu/st/stm32wlxx_hal_driver/Src/stm32wlxx_hal.c ****   {
 654              		.loc 1 423 11 is_stmt 0 discriminator 1 view .LVU163
 655 0016 FFF7FEFF 		bl	HAL_GetTick
 656              	.LVL42:
 423:hardware/mcu/st/stm32wlxx_hal_driver/Src/stm32wlxx_hal.c ****   {
 657              		.loc 1 423 25 discriminator 1 view .LVU164
 658 001a 431B     		subs	r3, r0, r5
 423:hardware/mcu/st/stm32wlxx_hal_driver/Src/stm32wlxx_hal.c ****   {
 659              		.loc 1 423 9 discriminator 1 view .LVU165
 660 001c A342     		cmp	r3, r4
 661 001e FAD3     		bcc	.L37
 426:hardware/mcu/st/stm32wlxx_hal_driver/Src/stm32wlxx_hal.c **** }
 662              		.loc 1 426 1 view .LVU166
 663 0020 38BD     		pop	{r3, r4, r5, pc}
 664              	.LVL43:
 665              	.L43:
 666              		.loc 1 426 1 view .LVU167
 667 0022 00BF     		.align	2
 668              	.L42:
 669 0024 00000000 		.word	.LANCHOR0
 670              		.cfi_endproc
 671              	.LFE731:
 673              		.section	.text.HAL_SuspendTick,"ax",%progbits
 674              		.align	1
 675              		.weak	HAL_SuspendTick
 676              		.syntax unified
 677              		.thumb
 678              		.thumb_func
 680              	HAL_SuspendTick:
 681              	.LFB732:
 427:hardware/mcu/st/stm32wlxx_hal_driver/Src/stm32wlxx_hal.c **** 
 428:hardware/mcu/st/stm32wlxx_hal_driver/Src/stm32wlxx_hal.c **** 
 429:hardware/mcu/st/stm32wlxx_hal_driver/Src/stm32wlxx_hal.c **** /**
 430:hardware/mcu/st/stm32wlxx_hal_driver/Src/stm32wlxx_hal.c ****   * @brief Suspend Tick increment.
 431:hardware/mcu/st/stm32wlxx_hal_driver/Src/stm32wlxx_hal.c ****   * @note In the default implementation , SysTick timer is the source of time base. It is
 432:hardware/mcu/st/stm32wlxx_hal_driver/Src/stm32wlxx_hal.c ****   *       used to generate interrupts at regular time intervals. Once HAL_SuspendTick()
 433:hardware/mcu/st/stm32wlxx_hal_driver/Src/stm32wlxx_hal.c ****   *       is called, the SysTick interrupt will be disabled and so Tick increment
 434:hardware/mcu/st/stm32wlxx_hal_driver/Src/stm32wlxx_hal.c ****   *       is suspended.
 435:hardware/mcu/st/stm32wlxx_hal_driver/Src/stm32wlxx_hal.c ****   * @note This function is declared as __weak to be overwritten in case of other
 436:hardware/mcu/st/stm32wlxx_hal_driver/Src/stm32wlxx_hal.c ****   *       implementations in user file.
 437:hardware/mcu/st/stm32wlxx_hal_driver/Src/stm32wlxx_hal.c ****   * @retval None
 438:hardware/mcu/st/stm32wlxx_hal_driver/Src/stm32wlxx_hal.c ****   */
 439:hardware/mcu/st/stm32wlxx_hal_driver/Src/stm32wlxx_hal.c **** __weak void HAL_SuspendTick(void)
 440:hardware/mcu/st/stm32wlxx_hal_driver/Src/stm32wlxx_hal.c **** {
 682              		.loc 1 440 1 is_stmt 1 view -0
