ARM GAS  /var/folders/b4/k4jbz0ms4wg23jtq0w6p483m0000gn/T//cc2bvfXO.s 			page 1


   1              		.cpu cortex-m4
   2              		.arch armv7e-m
   3              		.fpu softvfp
   4              		.eabi_attribute 20, 1
   5              		.eabi_attribute 21, 1
   6              		.eabi_attribute 23, 3
   7              		.eabi_attribute 24, 1
   8              		.eabi_attribute 25, 1
   9              		.eabi_attribute 26, 1
  10              		.eabi_attribute 30, 4
  11              		.eabi_attribute 34, 1
  12              		.eabi_attribute 18, 4
  13              		.file	"stm32wlxx_hal_flash_ex.c"
  14              		.text
  15              	.Ltext0:
  16              		.cfi_sections	.debug_frame
  17              		.section	.text.HAL_FLASHEx_OBProgram,"ax",%progbits
  18              		.align	1
  19              		.global	HAL_FLASHEx_OBProgram
  20              		.syntax unified
  21              		.thumb
  22              		.thumb_func
  24              	HAL_FLASHEx_OBProgram:
  25              	.LVL0:
  26              	.LFB723:
  27              		.file 1 "hardware/mcu/st/stm32wlxx_hal_driver/Src/stm32wlxx_hal_flash_ex.c"
   1:hardware/mcu/st/stm32wlxx_hal_driver/Src/stm32wlxx_hal_flash_ex.c **** /**
   2:hardware/mcu/st/stm32wlxx_hal_driver/Src/stm32wlxx_hal_flash_ex.c ****   ******************************************************************************
   3:hardware/mcu/st/stm32wlxx_hal_driver/Src/stm32wlxx_hal_flash_ex.c ****   * @file    stm32wlxx_hal_flash_ex.c
   4:hardware/mcu/st/stm32wlxx_hal_driver/Src/stm32wlxx_hal_flash_ex.c ****   * @author  MCD Application Team
   5:hardware/mcu/st/stm32wlxx_hal_driver/Src/stm32wlxx_hal_flash_ex.c ****   * @brief   Extended FLASH HAL module driver.
   6:hardware/mcu/st/stm32wlxx_hal_driver/Src/stm32wlxx_hal_flash_ex.c ****   *          This file provides firmware functions to manage the following
   7:hardware/mcu/st/stm32wlxx_hal_driver/Src/stm32wlxx_hal_flash_ex.c ****   *          functionalities of the FLASH extended peripheral:
   8:hardware/mcu/st/stm32wlxx_hal_driver/Src/stm32wlxx_hal_flash_ex.c ****   *           + Extended programming operations functions
   9:hardware/mcu/st/stm32wlxx_hal_driver/Src/stm32wlxx_hal_flash_ex.c ****   *
  10:hardware/mcu/st/stm32wlxx_hal_driver/Src/stm32wlxx_hal_flash_ex.c ****  @verbatim
  11:hardware/mcu/st/stm32wlxx_hal_driver/Src/stm32wlxx_hal_flash_ex.c ****  ==============================================================================
  12:hardware/mcu/st/stm32wlxx_hal_driver/Src/stm32wlxx_hal_flash_ex.c ****                    ##### Flash Extended features #####
  13:hardware/mcu/st/stm32wlxx_hal_driver/Src/stm32wlxx_hal_flash_ex.c ****   ==============================================================================
  14:hardware/mcu/st/stm32wlxx_hal_driver/Src/stm32wlxx_hal_flash_ex.c **** 
  15:hardware/mcu/st/stm32wlxx_hal_driver/Src/stm32wlxx_hal_flash_ex.c ****   [..] Comparing to other previous devices, the FLASH interface for STM32WLxx
  16:hardware/mcu/st/stm32wlxx_hal_driver/Src/stm32wlxx_hal_flash_ex.c ****        devices contains the following additional features
  17:hardware/mcu/st/stm32wlxx_hal_driver/Src/stm32wlxx_hal_flash_ex.c **** 
  18:hardware/mcu/st/stm32wlxx_hal_driver/Src/stm32wlxx_hal_flash_ex.c ****        (+) Capacity up to 256kB with single bank architecture supporting read-while-write
  19:hardware/mcu/st/stm32wlxx_hal_driver/Src/stm32wlxx_hal_flash_ex.c ****            capability (RWW)
  20:hardware/mcu/st/stm32wlxx_hal_driver/Src/stm32wlxx_hal_flash_ex.c ****        (+) Single bank memory organization
  21:hardware/mcu/st/stm32wlxx_hal_driver/Src/stm32wlxx_hal_flash_ex.c ****        (+) PCROP protection
  22:hardware/mcu/st/stm32wlxx_hal_driver/Src/stm32wlxx_hal_flash_ex.c ****        (+) WRP protection
  23:hardware/mcu/st/stm32wlxx_hal_driver/Src/stm32wlxx_hal_flash_ex.c ****        (+) CPU2 Security area
  24:hardware/mcu/st/stm32wlxx_hal_driver/Src/stm32wlxx_hal_flash_ex.c ****        (+) Program Erase Suspend feature
  25:hardware/mcu/st/stm32wlxx_hal_driver/Src/stm32wlxx_hal_flash_ex.c **** 
  26:hardware/mcu/st/stm32wlxx_hal_driver/Src/stm32wlxx_hal_flash_ex.c ****                         ##### How to use this driver #####
  27:hardware/mcu/st/stm32wlxx_hal_driver/Src/stm32wlxx_hal_flash_ex.c ****  ==============================================================================
  28:hardware/mcu/st/stm32wlxx_hal_driver/Src/stm32wlxx_hal_flash_ex.c ****   [..] This driver provides functions to configure and program the FLASH memory
  29:hardware/mcu/st/stm32wlxx_hal_driver/Src/stm32wlxx_hal_flash_ex.c ****        of all STM32WLxx devices. It includes
  30:hardware/mcu/st/stm32wlxx_hal_driver/Src/stm32wlxx_hal_flash_ex.c ****       (#) Flash Memory Erase functions:
  31:hardware/mcu/st/stm32wlxx_hal_driver/Src/stm32wlxx_hal_flash_ex.c ****            (++) Lock and Unlock the FLASH interface using HAL_FLASH_Unlock() and
ARM GAS  /var/folders/b4/k4jbz0ms4wg23jtq0w6p483m0000gn/T//cc2bvfXO.s 			page 2


  32:hardware/mcu/st/stm32wlxx_hal_driver/Src/stm32wlxx_hal_flash_ex.c ****                 HAL_FLASH_Lock() functions
  33:hardware/mcu/st/stm32wlxx_hal_driver/Src/stm32wlxx_hal_flash_ex.c ****            (++) Erase function: Erase page, erase all sectors
  34:hardware/mcu/st/stm32wlxx_hal_driver/Src/stm32wlxx_hal_flash_ex.c ****            (++) There are two modes of erase :
  35:hardware/mcu/st/stm32wlxx_hal_driver/Src/stm32wlxx_hal_flash_ex.c ****              (+++) Polling Mode using HAL_FLASHEx_Erase()
  36:hardware/mcu/st/stm32wlxx_hal_driver/Src/stm32wlxx_hal_flash_ex.c ****              (+++) Interrupt Mode using HAL_FLASHEx_Erase_IT()
  37:hardware/mcu/st/stm32wlxx_hal_driver/Src/stm32wlxx_hal_flash_ex.c **** 
  38:hardware/mcu/st/stm32wlxx_hal_driver/Src/stm32wlxx_hal_flash_ex.c ****       (#) Option Bytes Programming function: Use HAL_FLASHEx_OBProgram() to :
  39:hardware/mcu/st/stm32wlxx_hal_driver/Src/stm32wlxx_hal_flash_ex.c ****         (++) Set/Reset the write protection (per 4 KByte)
  40:hardware/mcu/st/stm32wlxx_hal_driver/Src/stm32wlxx_hal_flash_ex.c ****         (++) Set the Read protection Level
  41:hardware/mcu/st/stm32wlxx_hal_driver/Src/stm32wlxx_hal_flash_ex.c ****         (++) Program the user Option Bytes
  42:hardware/mcu/st/stm32wlxx_hal_driver/Src/stm32wlxx_hal_flash_ex.c ****         (++) Configure the PCROP protection (per 2 KByte)
  43:hardware/mcu/st/stm32wlxx_hal_driver/Src/stm32wlxx_hal_flash_ex.c ****         (++) Configure the IPCC Buffer start Address
  44:hardware/mcu/st/stm32wlxx_hal_driver/Src/stm32wlxx_hal_flash_ex.c ****         (++) Configure the CPU2 boot region and reset vector start Address
  45:hardware/mcu/st/stm32wlxx_hal_driver/Src/stm32wlxx_hal_flash_ex.c ****         (++) Configure the Flash and SRAM2 secure area
  46:hardware/mcu/st/stm32wlxx_hal_driver/Src/stm32wlxx_hal_flash_ex.c **** 
  47:hardware/mcu/st/stm32wlxx_hal_driver/Src/stm32wlxx_hal_flash_ex.c ****       (#) Get Option Bytes Configuration function: Use HAL_FLASHEx_OBGetConfig() to :
  48:hardware/mcu/st/stm32wlxx_hal_driver/Src/stm32wlxx_hal_flash_ex.c ****         (++) Get the value of a write protection area
  49:hardware/mcu/st/stm32wlxx_hal_driver/Src/stm32wlxx_hal_flash_ex.c ****         (++) Know if the read protection is activated
  50:hardware/mcu/st/stm32wlxx_hal_driver/Src/stm32wlxx_hal_flash_ex.c ****         (++) Get the value of the user Option Bytes
  51:hardware/mcu/st/stm32wlxx_hal_driver/Src/stm32wlxx_hal_flash_ex.c ****         (++) Get the value of a PCROP area
  52:hardware/mcu/st/stm32wlxx_hal_driver/Src/stm32wlxx_hal_flash_ex.c ****         (++) Get the IPCC Buffer start Address
  53:hardware/mcu/st/stm32wlxx_hal_driver/Src/stm32wlxx_hal_flash_ex.c ****         (++) Get the CPU2 boot region and reset vector start Address
  54:hardware/mcu/st/stm32wlxx_hal_driver/Src/stm32wlxx_hal_flash_ex.c ****         (++) Get the Flash and SRAM2 secure area
  55:hardware/mcu/st/stm32wlxx_hal_driver/Src/stm32wlxx_hal_flash_ex.c **** 
  56:hardware/mcu/st/stm32wlxx_hal_driver/Src/stm32wlxx_hal_flash_ex.c ****       (#) Flash Suspend, Allow functions:
  57:hardware/mcu/st/stm32wlxx_hal_driver/Src/stm32wlxx_hal_flash_ex.c ****            (++) Suspend or Allow new program or erase operation request using HAL_FLASHEx_SuspendOp
  58:hardware/mcu/st/stm32wlxx_hal_driver/Src/stm32wlxx_hal_flash_ex.c ****                 HAL_FLASHEx_AllowOperation() functions
  59:hardware/mcu/st/stm32wlxx_hal_driver/Src/stm32wlxx_hal_flash_ex.c **** 
  60:hardware/mcu/st/stm32wlxx_hal_driver/Src/stm32wlxx_hal_flash_ex.c ****       (#) Check is flash content is empty or not using HAL_FLASHEx_FlashEmptyCheck().
  61:hardware/mcu/st/stm32wlxx_hal_driver/Src/stm32wlxx_hal_flash_ex.c ****           and modify this setting (for flash loader purpose e.g.) using
  62:hardware/mcu/st/stm32wlxx_hal_driver/Src/stm32wlxx_hal_flash_ex.c ****           HAL_FLASHEx_ForceFlashEmpty().
  63:hardware/mcu/st/stm32wlxx_hal_driver/Src/stm32wlxx_hal_flash_ex.c **** 
  64:hardware/mcu/st/stm32wlxx_hal_driver/Src/stm32wlxx_hal_flash_ex.c ****       (#) Enable, Disable CPU2 debug access using HAL_FLASHEx_EnableC2Debug() or
  65:hardware/mcu/st/stm32wlxx_hal_driver/Src/stm32wlxx_hal_flash_ex.c ****           HAL_FLASHEx_DisableC2Debug()
  66:hardware/mcu/st/stm32wlxx_hal_driver/Src/stm32wlxx_hal_flash_ex.c **** 
  67:hardware/mcu/st/stm32wlxx_hal_driver/Src/stm32wlxx_hal_flash_ex.c ****       (#) Enable Secure Hide Protection area access using HAL_FLASHEx_EnableSecHideProtection()
  68:hardware/mcu/st/stm32wlxx_hal_driver/Src/stm32wlxx_hal_flash_ex.c ****          (++) Enable Secure Hide Protection area access done by hardware on a system reset
  69:hardware/mcu/st/stm32wlxx_hal_driver/Src/stm32wlxx_hal_flash_ex.c **** 
  70:hardware/mcu/st/stm32wlxx_hal_driver/Src/stm32wlxx_hal_flash_ex.c ****       (#) Privilege mode configuration function: Use HAL_FLASHEx_ConfigPrivMode()
  71:hardware/mcu/st/stm32wlxx_hal_driver/Src/stm32wlxx_hal_flash_ex.c ****         (++) FLASH register can be protected against non-privilege accesses
  72:hardware/mcu/st/stm32wlxx_hal_driver/Src/stm32wlxx_hal_flash_ex.c **** 
  73:hardware/mcu/st/stm32wlxx_hal_driver/Src/stm32wlxx_hal_flash_ex.c ****       (#) Get the privilege mode configuration function: Use HAL_FLASHEx_GetPrivMode()
  74:hardware/mcu/st/stm32wlxx_hal_driver/Src/stm32wlxx_hal_flash_ex.c ****         (++) Returns if the FLASH registers are protected against non-privilege accesses
  75:hardware/mcu/st/stm32wlxx_hal_driver/Src/stm32wlxx_hal_flash_ex.c **** 
  76:hardware/mcu/st/stm32wlxx_hal_driver/Src/stm32wlxx_hal_flash_ex.c ****  @endverbatim
  77:hardware/mcu/st/stm32wlxx_hal_driver/Src/stm32wlxx_hal_flash_ex.c ****   ******************************************************************************
  78:hardware/mcu/st/stm32wlxx_hal_driver/Src/stm32wlxx_hal_flash_ex.c ****   * @attention
  79:hardware/mcu/st/stm32wlxx_hal_driver/Src/stm32wlxx_hal_flash_ex.c ****   *
  80:hardware/mcu/st/stm32wlxx_hal_driver/Src/stm32wlxx_hal_flash_ex.c ****   * <h2><center>&copy; Copyright (c) 2020 STMicroelectronics.
  81:hardware/mcu/st/stm32wlxx_hal_driver/Src/stm32wlxx_hal_flash_ex.c ****   * All rights reserved.</center></h2>
  82:hardware/mcu/st/stm32wlxx_hal_driver/Src/stm32wlxx_hal_flash_ex.c ****   *
  83:hardware/mcu/st/stm32wlxx_hal_driver/Src/stm32wlxx_hal_flash_ex.c ****   * This software component is licensed by ST under BSD 3-Clause license,
  84:hardware/mcu/st/stm32wlxx_hal_driver/Src/stm32wlxx_hal_flash_ex.c ****   * the "License"; You may not use this file except in compliance with the
  85:hardware/mcu/st/stm32wlxx_hal_driver/Src/stm32wlxx_hal_flash_ex.c ****   * License. You may obtain a copy of the License at:
  86:hardware/mcu/st/stm32wlxx_hal_driver/Src/stm32wlxx_hal_flash_ex.c ****   *                       opensource.org/licenses/BSD-3-Clause
  87:hardware/mcu/st/stm32wlxx_hal_driver/Src/stm32wlxx_hal_flash_ex.c ****   *
  88:hardware/mcu/st/stm32wlxx_hal_driver/Src/stm32wlxx_hal_flash_ex.c ****   ******************************************************************************
ARM GAS  /var/folders/b4/k4jbz0ms4wg23jtq0w6p483m0000gn/T//cc2bvfXO.s 			page 3


  89:hardware/mcu/st/stm32wlxx_hal_driver/Src/stm32wlxx_hal_flash_ex.c ****   */
  90:hardware/mcu/st/stm32wlxx_hal_driver/Src/stm32wlxx_hal_flash_ex.c **** 
  91:hardware/mcu/st/stm32wlxx_hal_driver/Src/stm32wlxx_hal_flash_ex.c **** /* Includes ------------------------------------------------------------------*/
  92:hardware/mcu/st/stm32wlxx_hal_driver/Src/stm32wlxx_hal_flash_ex.c **** #include "stm32wlxx_hal.h"
  93:hardware/mcu/st/stm32wlxx_hal_driver/Src/stm32wlxx_hal_flash_ex.c **** 
  94:hardware/mcu/st/stm32wlxx_hal_driver/Src/stm32wlxx_hal_flash_ex.c **** /** @addtogroup STM32WLxx_HAL_Driver
  95:hardware/mcu/st/stm32wlxx_hal_driver/Src/stm32wlxx_hal_flash_ex.c ****   * @{
  96:hardware/mcu/st/stm32wlxx_hal_driver/Src/stm32wlxx_hal_flash_ex.c ****   */
  97:hardware/mcu/st/stm32wlxx_hal_driver/Src/stm32wlxx_hal_flash_ex.c **** 
  98:hardware/mcu/st/stm32wlxx_hal_driver/Src/stm32wlxx_hal_flash_ex.c **** /** @defgroup FLASHEx FLASHEx
  99:hardware/mcu/st/stm32wlxx_hal_driver/Src/stm32wlxx_hal_flash_ex.c ****   * @brief FLASH Extended HAL module driver
 100:hardware/mcu/st/stm32wlxx_hal_driver/Src/stm32wlxx_hal_flash_ex.c ****   * @{
 101:hardware/mcu/st/stm32wlxx_hal_driver/Src/stm32wlxx_hal_flash_ex.c ****   */
 102:hardware/mcu/st/stm32wlxx_hal_driver/Src/stm32wlxx_hal_flash_ex.c **** 
 103:hardware/mcu/st/stm32wlxx_hal_driver/Src/stm32wlxx_hal_flash_ex.c **** #ifdef HAL_FLASH_MODULE_ENABLED
 104:hardware/mcu/st/stm32wlxx_hal_driver/Src/stm32wlxx_hal_flash_ex.c **** 
 105:hardware/mcu/st/stm32wlxx_hal_driver/Src/stm32wlxx_hal_flash_ex.c **** /* Private typedef -----------------------------------------------------------*/
 106:hardware/mcu/st/stm32wlxx_hal_driver/Src/stm32wlxx_hal_flash_ex.c **** /* Private define ------------------------------------------------------------*/
 107:hardware/mcu/st/stm32wlxx_hal_driver/Src/stm32wlxx_hal_flash_ex.c **** /* Private macro -------------------------------------------------------------*/
 108:hardware/mcu/st/stm32wlxx_hal_driver/Src/stm32wlxx_hal_flash_ex.c **** /* Private variables ---------------------------------------------------------*/
 109:hardware/mcu/st/stm32wlxx_hal_driver/Src/stm32wlxx_hal_flash_ex.c **** /* Private function prototypes -----------------------------------------------*/
 110:hardware/mcu/st/stm32wlxx_hal_driver/Src/stm32wlxx_hal_flash_ex.c **** /** @defgroup FLASHEx_Private_Functions FLASHEx Private Functions
 111:hardware/mcu/st/stm32wlxx_hal_driver/Src/stm32wlxx_hal_flash_ex.c ****  * @{
 112:hardware/mcu/st/stm32wlxx_hal_driver/Src/stm32wlxx_hal_flash_ex.c ****  */
 113:hardware/mcu/st/stm32wlxx_hal_driver/Src/stm32wlxx_hal_flash_ex.c **** static void              FLASH_MassErase(void);
 114:hardware/mcu/st/stm32wlxx_hal_driver/Src/stm32wlxx_hal_flash_ex.c **** static void              FLASH_AcknowledgePageErase(void);
 115:hardware/mcu/st/stm32wlxx_hal_driver/Src/stm32wlxx_hal_flash_ex.c **** static void              FLASH_FlushCaches(void);
 116:hardware/mcu/st/stm32wlxx_hal_driver/Src/stm32wlxx_hal_flash_ex.c **** static void              FLASH_OB_WRPConfig(uint32_t WRPArea, uint32_t WRPStartOffset, uint32_t WRD
 117:hardware/mcu/st/stm32wlxx_hal_driver/Src/stm32wlxx_hal_flash_ex.c **** static void              FLASH_OB_OptrConfig(uint32_t UserType, uint32_t UserConfig, uint32_t RDPLe
 118:hardware/mcu/st/stm32wlxx_hal_driver/Src/stm32wlxx_hal_flash_ex.c **** static void              FLASH_OB_PCROP1AConfig(uint32_t PCROPConfig, uint32_t PCROP1AStartAddr, ui
 119:hardware/mcu/st/stm32wlxx_hal_driver/Src/stm32wlxx_hal_flash_ex.c **** static void              FLASH_OB_PCROP1BConfig(uint32_t PCROP1BStartAddr, uint32_t PCROP1BEndAddr)
 120:hardware/mcu/st/stm32wlxx_hal_driver/Src/stm32wlxx_hal_flash_ex.c **** #if defined(DUAL_CORE)
 121:hardware/mcu/st/stm32wlxx_hal_driver/Src/stm32wlxx_hal_flash_ex.c **** static void              FLASH_OB_IPCCBufferAddrConfig(uint32_t IPCCDataBufAddr);
 122:hardware/mcu/st/stm32wlxx_hal_driver/Src/stm32wlxx_hal_flash_ex.c **** static void              FLASH_OB_SecureConfig(FLASH_OBProgramInitTypeDef *pOBParam);
 123:hardware/mcu/st/stm32wlxx_hal_driver/Src/stm32wlxx_hal_flash_ex.c **** #endif /* DUAL_CORE */
 124:hardware/mcu/st/stm32wlxx_hal_driver/Src/stm32wlxx_hal_flash_ex.c **** static void              FLASH_OB_GetWRP(uint32_t WRPArea, uint32_t *WRPStartOffset, uint32_t *WRDP
 125:hardware/mcu/st/stm32wlxx_hal_driver/Src/stm32wlxx_hal_flash_ex.c **** static uint32_t          FLASH_OB_GetRDP(void);
 126:hardware/mcu/st/stm32wlxx_hal_driver/Src/stm32wlxx_hal_flash_ex.c **** static uint32_t          FLASH_OB_GetUser(void);
 127:hardware/mcu/st/stm32wlxx_hal_driver/Src/stm32wlxx_hal_flash_ex.c **** static void              FLASH_OB_GetPCROP(uint32_t *PCROPConfig, uint32_t *PCROP1AStartAddr, uint3
 128:hardware/mcu/st/stm32wlxx_hal_driver/Src/stm32wlxx_hal_flash_ex.c **** #if defined(DUAL_CORE)
 129:hardware/mcu/st/stm32wlxx_hal_driver/Src/stm32wlxx_hal_flash_ex.c **** static uint32_t          FLASH_OB_GetIPCCBufferAddr(void);
 130:hardware/mcu/st/stm32wlxx_hal_driver/Src/stm32wlxx_hal_flash_ex.c **** static void              FLASH_OB_GetSecureMemoryConfig(uint32_t *SecureFlashStartAddr, uint32_t *H
 131:hardware/mcu/st/stm32wlxx_hal_driver/Src/stm32wlxx_hal_flash_ex.c **** static void              FLASH_OB_GetC2BootResetConfig(uint32_t *C2BootResetVectAddr, uint32_t *C2B
 132:hardware/mcu/st/stm32wlxx_hal_driver/Src/stm32wlxx_hal_flash_ex.c **** #endif /* DUAL_CORE */
 133:hardware/mcu/st/stm32wlxx_hal_driver/Src/stm32wlxx_hal_flash_ex.c **** static HAL_StatusTypeDef FLASH_OB_ProceedWriteOperation(void);
 134:hardware/mcu/st/stm32wlxx_hal_driver/Src/stm32wlxx_hal_flash_ex.c **** #if defined(DUAL_CORE)
 135:hardware/mcu/st/stm32wlxx_hal_driver/Src/stm32wlxx_hal_flash_ex.c **** static uint32_t          FLASH_OB_GetSUBGHZSPISecureAccess(void);
 136:hardware/mcu/st/stm32wlxx_hal_driver/Src/stm32wlxx_hal_flash_ex.c **** static uint32_t          FLASH_OB_GetC2DebugAccessMode(void);
 137:hardware/mcu/st/stm32wlxx_hal_driver/Src/stm32wlxx_hal_flash_ex.c **** static void              FLASH_OB_ConfigSecureMode(uint32_t SecureMode, uint32_t *Reg, uint32_t Bit
 138:hardware/mcu/st/stm32wlxx_hal_driver/Src/stm32wlxx_hal_flash_ex.c **** static uint32_t          FLASH_OB_GetSecureMode(uint32_t Reg, uint32_t Bit, uint32_t ValueEnable, u
 139:hardware/mcu/st/stm32wlxx_hal_driver/Src/stm32wlxx_hal_flash_ex.c **** #endif /* DUAL_CORE */
 140:hardware/mcu/st/stm32wlxx_hal_driver/Src/stm32wlxx_hal_flash_ex.c **** /**
 141:hardware/mcu/st/stm32wlxx_hal_driver/Src/stm32wlxx_hal_flash_ex.c ****   * @}
 142:hardware/mcu/st/stm32wlxx_hal_driver/Src/stm32wlxx_hal_flash_ex.c ****   */
 143:hardware/mcu/st/stm32wlxx_hal_driver/Src/stm32wlxx_hal_flash_ex.c **** 
 144:hardware/mcu/st/stm32wlxx_hal_driver/Src/stm32wlxx_hal_flash_ex.c **** /* Exported functions -------------------------------------------------------*/
 145:hardware/mcu/st/stm32wlxx_hal_driver/Src/stm32wlxx_hal_flash_ex.c **** /** @defgroup FLASHEx_Exported_Functions FLASH Extended Exported Functions
ARM GAS  /var/folders/b4/k4jbz0ms4wg23jtq0w6p483m0000gn/T//cc2bvfXO.s 			page 4


 146:hardware/mcu/st/stm32wlxx_hal_driver/Src/stm32wlxx_hal_flash_ex.c ****   * @{
 147:hardware/mcu/st/stm32wlxx_hal_driver/Src/stm32wlxx_hal_flash_ex.c ****   */
 148:hardware/mcu/st/stm32wlxx_hal_driver/Src/stm32wlxx_hal_flash_ex.c **** 
 149:hardware/mcu/st/stm32wlxx_hal_driver/Src/stm32wlxx_hal_flash_ex.c **** /** @defgroup FLASHEx_Exported_Functions_Group1 Extended IO operation functions
 150:hardware/mcu/st/stm32wlxx_hal_driver/Src/stm32wlxx_hal_flash_ex.c ****  *  @brief   Extended IO operation functions
 151:hardware/mcu/st/stm32wlxx_hal_driver/Src/stm32wlxx_hal_flash_ex.c ****  *
 152:hardware/mcu/st/stm32wlxx_hal_driver/Src/stm32wlxx_hal_flash_ex.c **** @verbatim
 153:hardware/mcu/st/stm32wlxx_hal_driver/Src/stm32wlxx_hal_flash_ex.c ****  ===============================================================================
 154:hardware/mcu/st/stm32wlxx_hal_driver/Src/stm32wlxx_hal_flash_ex.c ****                 ##### Extended programming operation functions #####
 155:hardware/mcu/st/stm32wlxx_hal_driver/Src/stm32wlxx_hal_flash_ex.c ****  ===============================================================================
 156:hardware/mcu/st/stm32wlxx_hal_driver/Src/stm32wlxx_hal_flash_ex.c ****     [..]
 157:hardware/mcu/st/stm32wlxx_hal_driver/Src/stm32wlxx_hal_flash_ex.c ****     This subsection provides a set of functions allowing to manage the Extended FLASH
 158:hardware/mcu/st/stm32wlxx_hal_driver/Src/stm32wlxx_hal_flash_ex.c ****     programming operations Operations.
 159:hardware/mcu/st/stm32wlxx_hal_driver/Src/stm32wlxx_hal_flash_ex.c **** 
 160:hardware/mcu/st/stm32wlxx_hal_driver/Src/stm32wlxx_hal_flash_ex.c **** @endverbatim
 161:hardware/mcu/st/stm32wlxx_hal_driver/Src/stm32wlxx_hal_flash_ex.c ****   * @{
 162:hardware/mcu/st/stm32wlxx_hal_driver/Src/stm32wlxx_hal_flash_ex.c ****   */
 163:hardware/mcu/st/stm32wlxx_hal_driver/Src/stm32wlxx_hal_flash_ex.c **** /**
 164:hardware/mcu/st/stm32wlxx_hal_driver/Src/stm32wlxx_hal_flash_ex.c ****   * @brief  Perform a mass erase or erase the specified FLASH memory pages.
 165:hardware/mcu/st/stm32wlxx_hal_driver/Src/stm32wlxx_hal_flash_ex.c ****   * @note   Before any operation, it is possible to check there is no operation suspended
 166:hardware/mcu/st/stm32wlxx_hal_driver/Src/stm32wlxx_hal_flash_ex.c ****   *         by call HAL_FLASHEx_IsOperationSuspended()
 167:hardware/mcu/st/stm32wlxx_hal_driver/Src/stm32wlxx_hal_flash_ex.c ****   * @param[in]  pEraseInit Pointer to an @ref FLASH_EraseInitTypeDef structure that
 168:hardware/mcu/st/stm32wlxx_hal_driver/Src/stm32wlxx_hal_flash_ex.c ****   *         contains the configuration information for the erasing.
 169:hardware/mcu/st/stm32wlxx_hal_driver/Src/stm32wlxx_hal_flash_ex.c ****   * @param[out]  PageError Pointer to variable that contains the configuration
 170:hardware/mcu/st/stm32wlxx_hal_driver/Src/stm32wlxx_hal_flash_ex.c ****   *         information on faulty page in case of error (0xFFFFFFFF means that all
 171:hardware/mcu/st/stm32wlxx_hal_driver/Src/stm32wlxx_hal_flash_ex.c ****   *         the pages have been correctly erased)
 172:hardware/mcu/st/stm32wlxx_hal_driver/Src/stm32wlxx_hal_flash_ex.c ****   * @retval HAL Status
 173:hardware/mcu/st/stm32wlxx_hal_driver/Src/stm32wlxx_hal_flash_ex.c ****   */
 174:hardware/mcu/st/stm32wlxx_hal_driver/Src/stm32wlxx_hal_flash_ex.c **** HAL_StatusTypeDef HAL_FLASHEx_Erase(FLASH_EraseInitTypeDef *pEraseInit, uint32_t *PageError)
 175:hardware/mcu/st/stm32wlxx_hal_driver/Src/stm32wlxx_hal_flash_ex.c **** {
 176:hardware/mcu/st/stm32wlxx_hal_driver/Src/stm32wlxx_hal_flash_ex.c ****   HAL_StatusTypeDef status;
 177:hardware/mcu/st/stm32wlxx_hal_driver/Src/stm32wlxx_hal_flash_ex.c ****   uint32_t index;
 178:hardware/mcu/st/stm32wlxx_hal_driver/Src/stm32wlxx_hal_flash_ex.c **** 
 179:hardware/mcu/st/stm32wlxx_hal_driver/Src/stm32wlxx_hal_flash_ex.c ****   /* Check the parameters */
 180:hardware/mcu/st/stm32wlxx_hal_driver/Src/stm32wlxx_hal_flash_ex.c ****   assert_param(IS_FLASH_TYPEERASE(pEraseInit->TypeErase));
 181:hardware/mcu/st/stm32wlxx_hal_driver/Src/stm32wlxx_hal_flash_ex.c **** 
 182:hardware/mcu/st/stm32wlxx_hal_driver/Src/stm32wlxx_hal_flash_ex.c ****   /* Process Locked */
 183:hardware/mcu/st/stm32wlxx_hal_driver/Src/stm32wlxx_hal_flash_ex.c ****   __HAL_LOCK(&pFlash);
 184:hardware/mcu/st/stm32wlxx_hal_driver/Src/stm32wlxx_hal_flash_ex.c **** 
 185:hardware/mcu/st/stm32wlxx_hal_driver/Src/stm32wlxx_hal_flash_ex.c ****   /* Reset error code */
 186:hardware/mcu/st/stm32wlxx_hal_driver/Src/stm32wlxx_hal_flash_ex.c ****   pFlash.ErrorCode = HAL_FLASH_ERROR_NONE;
 187:hardware/mcu/st/stm32wlxx_hal_driver/Src/stm32wlxx_hal_flash_ex.c **** 
 188:hardware/mcu/st/stm32wlxx_hal_driver/Src/stm32wlxx_hal_flash_ex.c ****   /* Verify that next operation can be proceed */
 189:hardware/mcu/st/stm32wlxx_hal_driver/Src/stm32wlxx_hal_flash_ex.c ****   status = FLASH_WaitForLastOperation(FLASH_TIMEOUT_VALUE);
 190:hardware/mcu/st/stm32wlxx_hal_driver/Src/stm32wlxx_hal_flash_ex.c **** 
 191:hardware/mcu/st/stm32wlxx_hal_driver/Src/stm32wlxx_hal_flash_ex.c ****   if (status == HAL_OK)
 192:hardware/mcu/st/stm32wlxx_hal_driver/Src/stm32wlxx_hal_flash_ex.c ****   {
 193:hardware/mcu/st/stm32wlxx_hal_driver/Src/stm32wlxx_hal_flash_ex.c ****     if (pEraseInit->TypeErase == FLASH_TYPEERASE_MASSERASE)
 194:hardware/mcu/st/stm32wlxx_hal_driver/Src/stm32wlxx_hal_flash_ex.c ****     {
 195:hardware/mcu/st/stm32wlxx_hal_driver/Src/stm32wlxx_hal_flash_ex.c ****       /* Mass erase to be done */
 196:hardware/mcu/st/stm32wlxx_hal_driver/Src/stm32wlxx_hal_flash_ex.c ****       FLASH_MassErase();
 197:hardware/mcu/st/stm32wlxx_hal_driver/Src/stm32wlxx_hal_flash_ex.c **** 
 198:hardware/mcu/st/stm32wlxx_hal_driver/Src/stm32wlxx_hal_flash_ex.c ****       /* Wait for last operation to be completed */
 199:hardware/mcu/st/stm32wlxx_hal_driver/Src/stm32wlxx_hal_flash_ex.c ****       status = FLASH_WaitForLastOperation(FLASH_TIMEOUT_VALUE);
 200:hardware/mcu/st/stm32wlxx_hal_driver/Src/stm32wlxx_hal_flash_ex.c **** 
 201:hardware/mcu/st/stm32wlxx_hal_driver/Src/stm32wlxx_hal_flash_ex.c ****       /* If operation is completed or interrupted, no need to clear the Mass Erase Bit */
 202:hardware/mcu/st/stm32wlxx_hal_driver/Src/stm32wlxx_hal_flash_ex.c ****     }
ARM GAS  /var/folders/b4/k4jbz0ms4wg23jtq0w6p483m0000gn/T//cc2bvfXO.s 			page 5


 203:hardware/mcu/st/stm32wlxx_hal_driver/Src/stm32wlxx_hal_flash_ex.c ****     else
 204:hardware/mcu/st/stm32wlxx_hal_driver/Src/stm32wlxx_hal_flash_ex.c ****     {
 205:hardware/mcu/st/stm32wlxx_hal_driver/Src/stm32wlxx_hal_flash_ex.c ****       /*Initialization of PageError variable*/
 206:hardware/mcu/st/stm32wlxx_hal_driver/Src/stm32wlxx_hal_flash_ex.c ****       *PageError = 0xFFFFFFFFU;
 207:hardware/mcu/st/stm32wlxx_hal_driver/Src/stm32wlxx_hal_flash_ex.c **** 
 208:hardware/mcu/st/stm32wlxx_hal_driver/Src/stm32wlxx_hal_flash_ex.c ****       for (index = pEraseInit->Page; index < (pEraseInit->Page + pEraseInit->NbPages); index++)
 209:hardware/mcu/st/stm32wlxx_hal_driver/Src/stm32wlxx_hal_flash_ex.c ****       {
 210:hardware/mcu/st/stm32wlxx_hal_driver/Src/stm32wlxx_hal_flash_ex.c ****         /* Start erase page */
 211:hardware/mcu/st/stm32wlxx_hal_driver/Src/stm32wlxx_hal_flash_ex.c ****         FLASH_PageErase(index);
 212:hardware/mcu/st/stm32wlxx_hal_driver/Src/stm32wlxx_hal_flash_ex.c **** 
 213:hardware/mcu/st/stm32wlxx_hal_driver/Src/stm32wlxx_hal_flash_ex.c ****         /* Wait for last operation to be completed */
 214:hardware/mcu/st/stm32wlxx_hal_driver/Src/stm32wlxx_hal_flash_ex.c ****         status = FLASH_WaitForLastOperation(FLASH_TIMEOUT_VALUE);
 215:hardware/mcu/st/stm32wlxx_hal_driver/Src/stm32wlxx_hal_flash_ex.c **** 
 216:hardware/mcu/st/stm32wlxx_hal_driver/Src/stm32wlxx_hal_flash_ex.c ****         if (status != HAL_OK)
 217:hardware/mcu/st/stm32wlxx_hal_driver/Src/stm32wlxx_hal_flash_ex.c ****         {
 218:hardware/mcu/st/stm32wlxx_hal_driver/Src/stm32wlxx_hal_flash_ex.c ****           /* In case of error, stop erase procedure and return the faulty address */
 219:hardware/mcu/st/stm32wlxx_hal_driver/Src/stm32wlxx_hal_flash_ex.c ****           *PageError = index;
 220:hardware/mcu/st/stm32wlxx_hal_driver/Src/stm32wlxx_hal_flash_ex.c ****           break;
 221:hardware/mcu/st/stm32wlxx_hal_driver/Src/stm32wlxx_hal_flash_ex.c ****         }
 222:hardware/mcu/st/stm32wlxx_hal_driver/Src/stm32wlxx_hal_flash_ex.c ****       }
 223:hardware/mcu/st/stm32wlxx_hal_driver/Src/stm32wlxx_hal_flash_ex.c **** 
 224:hardware/mcu/st/stm32wlxx_hal_driver/Src/stm32wlxx_hal_flash_ex.c ****       /* If operation is completed or interrupted, disable the Page Erase Bit */
 225:hardware/mcu/st/stm32wlxx_hal_driver/Src/stm32wlxx_hal_flash_ex.c ****       FLASH_AcknowledgePageErase();
 226:hardware/mcu/st/stm32wlxx_hal_driver/Src/stm32wlxx_hal_flash_ex.c ****     }
 227:hardware/mcu/st/stm32wlxx_hal_driver/Src/stm32wlxx_hal_flash_ex.c **** 
 228:hardware/mcu/st/stm32wlxx_hal_driver/Src/stm32wlxx_hal_flash_ex.c ****     /* Flush the caches to be sure of the data consistency */
 229:hardware/mcu/st/stm32wlxx_hal_driver/Src/stm32wlxx_hal_flash_ex.c ****     FLASH_FlushCaches();
 230:hardware/mcu/st/stm32wlxx_hal_driver/Src/stm32wlxx_hal_flash_ex.c ****   }
 231:hardware/mcu/st/stm32wlxx_hal_driver/Src/stm32wlxx_hal_flash_ex.c **** 
 232:hardware/mcu/st/stm32wlxx_hal_driver/Src/stm32wlxx_hal_flash_ex.c ****   /* Process Unlocked */
 233:hardware/mcu/st/stm32wlxx_hal_driver/Src/stm32wlxx_hal_flash_ex.c ****   __HAL_UNLOCK(&pFlash);
 234:hardware/mcu/st/stm32wlxx_hal_driver/Src/stm32wlxx_hal_flash_ex.c **** 
 235:hardware/mcu/st/stm32wlxx_hal_driver/Src/stm32wlxx_hal_flash_ex.c ****   return status;
 236:hardware/mcu/st/stm32wlxx_hal_driver/Src/stm32wlxx_hal_flash_ex.c **** }
 237:hardware/mcu/st/stm32wlxx_hal_driver/Src/stm32wlxx_hal_flash_ex.c **** 
 238:hardware/mcu/st/stm32wlxx_hal_driver/Src/stm32wlxx_hal_flash_ex.c **** /**
 239:hardware/mcu/st/stm32wlxx_hal_driver/Src/stm32wlxx_hal_flash_ex.c ****   * @brief  Perform a mass erase or erase the specified FLASH memory pages with interrupt enabled.
 240:hardware/mcu/st/stm32wlxx_hal_driver/Src/stm32wlxx_hal_flash_ex.c ****   * @note   Before any operation, it is possible to check there is no operation suspended
 241:hardware/mcu/st/stm32wlxx_hal_driver/Src/stm32wlxx_hal_flash_ex.c ****   *         by call HAL_FLASHEx_IsOperationSuspended()
 242:hardware/mcu/st/stm32wlxx_hal_driver/Src/stm32wlxx_hal_flash_ex.c ****   * @param  pEraseInit Pointer to an @ref FLASH_EraseInitTypeDef structure that
 243:hardware/mcu/st/stm32wlxx_hal_driver/Src/stm32wlxx_hal_flash_ex.c ****   *         contains the configuration information for the erasing.
 244:hardware/mcu/st/stm32wlxx_hal_driver/Src/stm32wlxx_hal_flash_ex.c ****   * @retval HAL Status
 245:hardware/mcu/st/stm32wlxx_hal_driver/Src/stm32wlxx_hal_flash_ex.c ****   */
 246:hardware/mcu/st/stm32wlxx_hal_driver/Src/stm32wlxx_hal_flash_ex.c **** HAL_StatusTypeDef HAL_FLASHEx_Erase_IT(FLASH_EraseInitTypeDef *pEraseInit)
 247:hardware/mcu/st/stm32wlxx_hal_driver/Src/stm32wlxx_hal_flash_ex.c **** {
 248:hardware/mcu/st/stm32wlxx_hal_driver/Src/stm32wlxx_hal_flash_ex.c ****   HAL_StatusTypeDef status;
 249:hardware/mcu/st/stm32wlxx_hal_driver/Src/stm32wlxx_hal_flash_ex.c **** 
 250:hardware/mcu/st/stm32wlxx_hal_driver/Src/stm32wlxx_hal_flash_ex.c ****   /* Check the parameters */
 251:hardware/mcu/st/stm32wlxx_hal_driver/Src/stm32wlxx_hal_flash_ex.c ****   assert_param(IS_FLASH_TYPEERASE(pEraseInit->TypeErase));
 252:hardware/mcu/st/stm32wlxx_hal_driver/Src/stm32wlxx_hal_flash_ex.c **** 
 253:hardware/mcu/st/stm32wlxx_hal_driver/Src/stm32wlxx_hal_flash_ex.c ****   /* Process Locked */
 254:hardware/mcu/st/stm32wlxx_hal_driver/Src/stm32wlxx_hal_flash_ex.c ****   __HAL_LOCK(&pFlash);
 255:hardware/mcu/st/stm32wlxx_hal_driver/Src/stm32wlxx_hal_flash_ex.c **** 
 256:hardware/mcu/st/stm32wlxx_hal_driver/Src/stm32wlxx_hal_flash_ex.c ****   /* Reset error code */
 257:hardware/mcu/st/stm32wlxx_hal_driver/Src/stm32wlxx_hal_flash_ex.c ****   pFlash.ErrorCode = HAL_FLASH_ERROR_NONE;
 258:hardware/mcu/st/stm32wlxx_hal_driver/Src/stm32wlxx_hal_flash_ex.c **** 
 259:hardware/mcu/st/stm32wlxx_hal_driver/Src/stm32wlxx_hal_flash_ex.c ****   /* save procedure for interrupt treatment */
ARM GAS  /var/folders/b4/k4jbz0ms4wg23jtq0w6p483m0000gn/T//cc2bvfXO.s 			page 6


 260:hardware/mcu/st/stm32wlxx_hal_driver/Src/stm32wlxx_hal_flash_ex.c ****   pFlash.ProcedureOnGoing = pEraseInit->TypeErase;
 261:hardware/mcu/st/stm32wlxx_hal_driver/Src/stm32wlxx_hal_flash_ex.c **** 
 262:hardware/mcu/st/stm32wlxx_hal_driver/Src/stm32wlxx_hal_flash_ex.c ****   /* Verify that next operation can be proceed */
 263:hardware/mcu/st/stm32wlxx_hal_driver/Src/stm32wlxx_hal_flash_ex.c ****   status = FLASH_WaitForLastOperation(FLASH_TIMEOUT_VALUE);
 264:hardware/mcu/st/stm32wlxx_hal_driver/Src/stm32wlxx_hal_flash_ex.c **** 
 265:hardware/mcu/st/stm32wlxx_hal_driver/Src/stm32wlxx_hal_flash_ex.c ****   if (status != HAL_OK)
 266:hardware/mcu/st/stm32wlxx_hal_driver/Src/stm32wlxx_hal_flash_ex.c ****   {
 267:hardware/mcu/st/stm32wlxx_hal_driver/Src/stm32wlxx_hal_flash_ex.c ****     /* Process Unlocked */
 268:hardware/mcu/st/stm32wlxx_hal_driver/Src/stm32wlxx_hal_flash_ex.c ****     __HAL_UNLOCK(&pFlash);
 269:hardware/mcu/st/stm32wlxx_hal_driver/Src/stm32wlxx_hal_flash_ex.c ****   }
 270:hardware/mcu/st/stm32wlxx_hal_driver/Src/stm32wlxx_hal_flash_ex.c ****   else
 271:hardware/mcu/st/stm32wlxx_hal_driver/Src/stm32wlxx_hal_flash_ex.c ****   {
 272:hardware/mcu/st/stm32wlxx_hal_driver/Src/stm32wlxx_hal_flash_ex.c ****     /* Enable End of Operation and Error interrupts */
 273:hardware/mcu/st/stm32wlxx_hal_driver/Src/stm32wlxx_hal_flash_ex.c ****     __HAL_FLASH_ENABLE_IT(FLASH_IT_EOP | FLASH_IT_OPERR);
 274:hardware/mcu/st/stm32wlxx_hal_driver/Src/stm32wlxx_hal_flash_ex.c **** 
 275:hardware/mcu/st/stm32wlxx_hal_driver/Src/stm32wlxx_hal_flash_ex.c ****     if (pEraseInit->TypeErase == FLASH_TYPEERASE_MASSERASE)
 276:hardware/mcu/st/stm32wlxx_hal_driver/Src/stm32wlxx_hal_flash_ex.c ****     {
 277:hardware/mcu/st/stm32wlxx_hal_driver/Src/stm32wlxx_hal_flash_ex.c ****       /* Set Page to 0 for Interrupt callback management */
 278:hardware/mcu/st/stm32wlxx_hal_driver/Src/stm32wlxx_hal_flash_ex.c ****       pFlash.Page = 0;
 279:hardware/mcu/st/stm32wlxx_hal_driver/Src/stm32wlxx_hal_flash_ex.c **** 
 280:hardware/mcu/st/stm32wlxx_hal_driver/Src/stm32wlxx_hal_flash_ex.c ****       /* Proceed to Mass Erase */
 281:hardware/mcu/st/stm32wlxx_hal_driver/Src/stm32wlxx_hal_flash_ex.c ****       FLASH_MassErase();
 282:hardware/mcu/st/stm32wlxx_hal_driver/Src/stm32wlxx_hal_flash_ex.c ****     }
 283:hardware/mcu/st/stm32wlxx_hal_driver/Src/stm32wlxx_hal_flash_ex.c ****     else
 284:hardware/mcu/st/stm32wlxx_hal_driver/Src/stm32wlxx_hal_flash_ex.c ****     {
 285:hardware/mcu/st/stm32wlxx_hal_driver/Src/stm32wlxx_hal_flash_ex.c ****       /* Erase by page to be done */
 286:hardware/mcu/st/stm32wlxx_hal_driver/Src/stm32wlxx_hal_flash_ex.c ****       pFlash.NbPagesToErase = pEraseInit->NbPages;
 287:hardware/mcu/st/stm32wlxx_hal_driver/Src/stm32wlxx_hal_flash_ex.c ****       pFlash.Page = pEraseInit->Page;
 288:hardware/mcu/st/stm32wlxx_hal_driver/Src/stm32wlxx_hal_flash_ex.c **** 
 289:hardware/mcu/st/stm32wlxx_hal_driver/Src/stm32wlxx_hal_flash_ex.c ****       /*Erase 1st page and wait for IT */
 290:hardware/mcu/st/stm32wlxx_hal_driver/Src/stm32wlxx_hal_flash_ex.c ****       FLASH_PageErase(pEraseInit->Page);
 291:hardware/mcu/st/stm32wlxx_hal_driver/Src/stm32wlxx_hal_flash_ex.c ****     }
 292:hardware/mcu/st/stm32wlxx_hal_driver/Src/stm32wlxx_hal_flash_ex.c ****   }
 293:hardware/mcu/st/stm32wlxx_hal_driver/Src/stm32wlxx_hal_flash_ex.c **** 
 294:hardware/mcu/st/stm32wlxx_hal_driver/Src/stm32wlxx_hal_flash_ex.c ****   /* return status */
 295:hardware/mcu/st/stm32wlxx_hal_driver/Src/stm32wlxx_hal_flash_ex.c ****   return status;
 296:hardware/mcu/st/stm32wlxx_hal_driver/Src/stm32wlxx_hal_flash_ex.c **** }
 297:hardware/mcu/st/stm32wlxx_hal_driver/Src/stm32wlxx_hal_flash_ex.c **** 
 298:hardware/mcu/st/stm32wlxx_hal_driver/Src/stm32wlxx_hal_flash_ex.c **** /**
 299:hardware/mcu/st/stm32wlxx_hal_driver/Src/stm32wlxx_hal_flash_ex.c ****   * @brief  Program Option bytes.
 300:hardware/mcu/st/stm32wlxx_hal_driver/Src/stm32wlxx_hal_flash_ex.c ****   * @param  pOBInit Pointer to an @ref FLASH_OBProgramInitTypeDef structure that
 301:hardware/mcu/st/stm32wlxx_hal_driver/Src/stm32wlxx_hal_flash_ex.c ****   *         contains the configuration information for the programming.
 302:hardware/mcu/st/stm32wlxx_hal_driver/Src/stm32wlxx_hal_flash_ex.c ****   * @note   To configure any option bytes, the option lock bit OPTLOCK must be
 303:hardware/mcu/st/stm32wlxx_hal_driver/Src/stm32wlxx_hal_flash_ex.c ****   *         cleared with the call of @ref HAL_FLASH_OB_Unlock() function.
 304:hardware/mcu/st/stm32wlxx_hal_driver/Src/stm32wlxx_hal_flash_ex.c ****   * @note   New option bytes configuration will be taken into account only
 305:hardware/mcu/st/stm32wlxx_hal_driver/Src/stm32wlxx_hal_flash_ex.c ****   *         - after an option bytes launch through the call of @ref HAL_FLASH_OB_Launch()
 306:hardware/mcu/st/stm32wlxx_hal_driver/Src/stm32wlxx_hal_flash_ex.c ****   *         - a Power On Reset
 307:hardware/mcu/st/stm32wlxx_hal_driver/Src/stm32wlxx_hal_flash_ex.c ****   *         - an exit from Standby or Shutdown mode.
 308:hardware/mcu/st/stm32wlxx_hal_driver/Src/stm32wlxx_hal_flash_ex.c ****   * @retval HAL Status
 309:hardware/mcu/st/stm32wlxx_hal_driver/Src/stm32wlxx_hal_flash_ex.c ****   */
 310:hardware/mcu/st/stm32wlxx_hal_driver/Src/stm32wlxx_hal_flash_ex.c **** HAL_StatusTypeDef HAL_FLASHEx_OBProgram(FLASH_OBProgramInitTypeDef *pOBInit)
 311:hardware/mcu/st/stm32wlxx_hal_driver/Src/stm32wlxx_hal_flash_ex.c **** {
  28              		.loc 1 311 1 view -0
  29              		.cfi_startproc
  30              		@ args = 0, pretend = 0, frame = 0
  31              		@ frame_needed = 0, uses_anonymous_args = 0
 312:hardware/mcu/st/stm32wlxx_hal_driver/Src/stm32wlxx_hal_flash_ex.c ****   uint32_t optr;
ARM GAS  /var/folders/b4/k4jbz0ms4wg23jtq0w6p483m0000gn/T//cc2bvfXO.s 			page 7


  32              		.loc 1 312 3 view .LVU1
 313:hardware/mcu/st/stm32wlxx_hal_driver/Src/stm32wlxx_hal_flash_ex.c ****   HAL_StatusTypeDef status;
  33              		.loc 1 313 3 view .LVU2
 314:hardware/mcu/st/stm32wlxx_hal_driver/Src/stm32wlxx_hal_flash_ex.c **** 
 315:hardware/mcu/st/stm32wlxx_hal_driver/Src/stm32wlxx_hal_flash_ex.c ****   /* Check the parameters */
 316:hardware/mcu/st/stm32wlxx_hal_driver/Src/stm32wlxx_hal_flash_ex.c ****   assert_param(IS_OPTIONBYTE(pOBInit->OptionType));
  34              		.loc 1 316 3 view .LVU3
 317:hardware/mcu/st/stm32wlxx_hal_driver/Src/stm32wlxx_hal_flash_ex.c **** 
 318:hardware/mcu/st/stm32wlxx_hal_driver/Src/stm32wlxx_hal_flash_ex.c ****   /* Process Locked */
 319:hardware/mcu/st/stm32wlxx_hal_driver/Src/stm32wlxx_hal_flash_ex.c ****   __HAL_LOCK(&pFlash);
  35              		.loc 1 319 3 view .LVU4
  36              		.loc 1 319 3 view .LVU5
 311:hardware/mcu/st/stm32wlxx_hal_driver/Src/stm32wlxx_hal_flash_ex.c ****   uint32_t optr;
  37              		.loc 1 311 1 is_stmt 0 view .LVU6
  38 0000 70B5     		push	{r4, r5, r6, lr}
  39              	.LCFI0:
  40              		.cfi_def_cfa_offset 16
  41              		.cfi_offset 4, -16
  42              		.cfi_offset 5, -12
  43              		.cfi_offset 6, -8
  44              		.cfi_offset 14, -4
  45              		.loc 1 319 3 view .LVU7
  46 0002 494C     		ldr	r4, .L38
  47 0004 2378     		ldrb	r3, [r4]	@ zero_extendqisi2
  48 0006 012B     		cmp	r3, #1
  49 0008 00F08B80 		beq	.L16
  50              		.loc 1 319 3 is_stmt 1 discriminator 2 view .LVU8
  51 000c 0123     		movs	r3, #1
  52 000e 2370     		strb	r3, [r4]
  53              		.loc 1 319 3 discriminator 2 view .LVU9
 320:hardware/mcu/st/stm32wlxx_hal_driver/Src/stm32wlxx_hal_flash_ex.c **** 
 321:hardware/mcu/st/stm32wlxx_hal_driver/Src/stm32wlxx_hal_flash_ex.c ****   pFlash.ErrorCode = HAL_FLASH_ERROR_NONE;
  54              		.loc 1 321 3 discriminator 2 view .LVU10
 322:hardware/mcu/st/stm32wlxx_hal_driver/Src/stm32wlxx_hal_flash_ex.c **** 
 323:hardware/mcu/st/stm32wlxx_hal_driver/Src/stm32wlxx_hal_flash_ex.c ****   /* Write protection configuration */
 324:hardware/mcu/st/stm32wlxx_hal_driver/Src/stm32wlxx_hal_flash_ex.c ****   if ((pOBInit->OptionType & OPTIONBYTE_WRP) != 0U)
  55              		.loc 1 324 15 is_stmt 0 discriminator 2 view .LVU11
  56 0010 0168     		ldr	r1, [r0]
 321:hardware/mcu/st/stm32wlxx_hal_driver/Src/stm32wlxx_hal_flash_ex.c **** 
  57              		.loc 1 321 20 discriminator 2 view .LVU12
  58 0012 0023     		movs	r3, #0
  59 0014 6360     		str	r3, [r4, #4]
  60              		.loc 1 324 3 is_stmt 1 discriminator 2 view .LVU13
  61              		.loc 1 324 6 is_stmt 0 discriminator 2 view .LVU14
  62 0016 CB07     		lsls	r3, r1, #31
  63 0018 0CD5     		bpl	.L3
 325:hardware/mcu/st/stm32wlxx_hal_driver/Src/stm32wlxx_hal_flash_ex.c ****   {
 326:hardware/mcu/st/stm32wlxx_hal_driver/Src/stm32wlxx_hal_flash_ex.c ****     /* Configure of Write protection on the selected area */
 327:hardware/mcu/st/stm32wlxx_hal_driver/Src/stm32wlxx_hal_flash_ex.c ****     FLASH_OB_WRPConfig(pOBInit->WRPArea, pOBInit->WRPStartOffset, pOBInit->WRPEndOffset);
  64              		.loc 1 327 5 is_stmt 1 view .LVU15
  65              	.LBB24:
  66              	.LBB25:
 328:hardware/mcu/st/stm32wlxx_hal_driver/Src/stm32wlxx_hal_flash_ex.c ****   }
 329:hardware/mcu/st/stm32wlxx_hal_driver/Src/stm32wlxx_hal_flash_ex.c **** 
 330:hardware/mcu/st/stm32wlxx_hal_driver/Src/stm32wlxx_hal_flash_ex.c ****   /* Option register */
 331:hardware/mcu/st/stm32wlxx_hal_driver/Src/stm32wlxx_hal_flash_ex.c ****   if ((pOBInit->OptionType & (OPTIONBYTE_RDP | OPTIONBYTE_USER)) == (OPTIONBYTE_RDP | OPTIONBYTE_US
 332:hardware/mcu/st/stm32wlxx_hal_driver/Src/stm32wlxx_hal_flash_ex.c ****   {
ARM GAS  /var/folders/b4/k4jbz0ms4wg23jtq0w6p483m0000gn/T//cc2bvfXO.s 			page 8


 333:hardware/mcu/st/stm32wlxx_hal_driver/Src/stm32wlxx_hal_flash_ex.c ****     /* Fully modify OPTR register with RDP & user data */
 334:hardware/mcu/st/stm32wlxx_hal_driver/Src/stm32wlxx_hal_flash_ex.c ****     FLASH_OB_OptrConfig(pOBInit->UserType, pOBInit->UserConfig, pOBInit->RDPLevel);
 335:hardware/mcu/st/stm32wlxx_hal_driver/Src/stm32wlxx_hal_flash_ex.c ****   }
 336:hardware/mcu/st/stm32wlxx_hal_driver/Src/stm32wlxx_hal_flash_ex.c ****   else if ((pOBInit->OptionType & OPTIONBYTE_RDP) != 0U)
 337:hardware/mcu/st/stm32wlxx_hal_driver/Src/stm32wlxx_hal_flash_ex.c ****   {
 338:hardware/mcu/st/stm32wlxx_hal_driver/Src/stm32wlxx_hal_flash_ex.c ****     /* Only modify RDP so get current user data */
 339:hardware/mcu/st/stm32wlxx_hal_driver/Src/stm32wlxx_hal_flash_ex.c ****     optr = FLASH_OB_GetUser();
 340:hardware/mcu/st/stm32wlxx_hal_driver/Src/stm32wlxx_hal_flash_ex.c **** 
 341:hardware/mcu/st/stm32wlxx_hal_driver/Src/stm32wlxx_hal_flash_ex.c ****     /* Remove BOR LEVEL User Type*/
 342:hardware/mcu/st/stm32wlxx_hal_driver/Src/stm32wlxx_hal_flash_ex.c ****     optr &= ~OB_USER_BOR_LEV;
 343:hardware/mcu/st/stm32wlxx_hal_driver/Src/stm32wlxx_hal_flash_ex.c **** 
 344:hardware/mcu/st/stm32wlxx_hal_driver/Src/stm32wlxx_hal_flash_ex.c ****     FLASH_OB_OptrConfig(optr, optr, pOBInit->RDPLevel);
 345:hardware/mcu/st/stm32wlxx_hal_driver/Src/stm32wlxx_hal_flash_ex.c ****   }
 346:hardware/mcu/st/stm32wlxx_hal_driver/Src/stm32wlxx_hal_flash_ex.c ****   else if ((pOBInit->OptionType & OPTIONBYTE_USER) != 0U)
 347:hardware/mcu/st/stm32wlxx_hal_driver/Src/stm32wlxx_hal_flash_ex.c ****   {
 348:hardware/mcu/st/stm32wlxx_hal_driver/Src/stm32wlxx_hal_flash_ex.c ****     /* Only modify user so get current RDP level */
 349:hardware/mcu/st/stm32wlxx_hal_driver/Src/stm32wlxx_hal_flash_ex.c ****     optr = FLASH_OB_GetRDP();
 350:hardware/mcu/st/stm32wlxx_hal_driver/Src/stm32wlxx_hal_flash_ex.c ****     FLASH_OB_OptrConfig(pOBInit->UserType, pOBInit->UserConfig, optr);
 351:hardware/mcu/st/stm32wlxx_hal_driver/Src/stm32wlxx_hal_flash_ex.c ****   }
 352:hardware/mcu/st/stm32wlxx_hal_driver/Src/stm32wlxx_hal_flash_ex.c ****   else
 353:hardware/mcu/st/stm32wlxx_hal_driver/Src/stm32wlxx_hal_flash_ex.c ****   {
 354:hardware/mcu/st/stm32wlxx_hal_driver/Src/stm32wlxx_hal_flash_ex.c ****     /* Do Nothing */
 355:hardware/mcu/st/stm32wlxx_hal_driver/Src/stm32wlxx_hal_flash_ex.c ****   }
 356:hardware/mcu/st/stm32wlxx_hal_driver/Src/stm32wlxx_hal_flash_ex.c **** 
 357:hardware/mcu/st/stm32wlxx_hal_driver/Src/stm32wlxx_hal_flash_ex.c ****   /* PCROP Configuration */
 358:hardware/mcu/st/stm32wlxx_hal_driver/Src/stm32wlxx_hal_flash_ex.c ****   if ((pOBInit->OptionType & OPTIONBYTE_PCROP) != 0U)
 359:hardware/mcu/st/stm32wlxx_hal_driver/Src/stm32wlxx_hal_flash_ex.c ****   {
 360:hardware/mcu/st/stm32wlxx_hal_driver/Src/stm32wlxx_hal_flash_ex.c ****     /* Check the parameters */
 361:hardware/mcu/st/stm32wlxx_hal_driver/Src/stm32wlxx_hal_flash_ex.c ****     assert_param(IS_OB_PCROP_CONFIG(pOBInit->PCROPConfig));
 362:hardware/mcu/st/stm32wlxx_hal_driver/Src/stm32wlxx_hal_flash_ex.c **** 
 363:hardware/mcu/st/stm32wlxx_hal_driver/Src/stm32wlxx_hal_flash_ex.c ****     if ((pOBInit->PCROPConfig & (OB_PCROP_ZONE_A | OB_PCROP_RDP_ERASE)) != 0U)
 364:hardware/mcu/st/stm32wlxx_hal_driver/Src/stm32wlxx_hal_flash_ex.c ****     {
 365:hardware/mcu/st/stm32wlxx_hal_driver/Src/stm32wlxx_hal_flash_ex.c ****       /* Configure the Zone 1A Proprietary code readout protection */
 366:hardware/mcu/st/stm32wlxx_hal_driver/Src/stm32wlxx_hal_flash_ex.c ****       FLASH_OB_PCROP1AConfig(pOBInit->PCROPConfig, pOBInit->PCROP1AStartAddr, pOBInit->PCROP1AEndAd
 367:hardware/mcu/st/stm32wlxx_hal_driver/Src/stm32wlxx_hal_flash_ex.c ****     }
 368:hardware/mcu/st/stm32wlxx_hal_driver/Src/stm32wlxx_hal_flash_ex.c **** 
 369:hardware/mcu/st/stm32wlxx_hal_driver/Src/stm32wlxx_hal_flash_ex.c ****     if ((pOBInit->PCROPConfig & OB_PCROP_ZONE_B) != 0U)
 370:hardware/mcu/st/stm32wlxx_hal_driver/Src/stm32wlxx_hal_flash_ex.c ****     {
 371:hardware/mcu/st/stm32wlxx_hal_driver/Src/stm32wlxx_hal_flash_ex.c ****       /* Configure the Zone 1B Proprietary code readout protection */
 372:hardware/mcu/st/stm32wlxx_hal_driver/Src/stm32wlxx_hal_flash_ex.c ****       FLASH_OB_PCROP1BConfig(pOBInit->PCROP1BStartAddr, pOBInit->PCROP1BEndAddr);
 373:hardware/mcu/st/stm32wlxx_hal_driver/Src/stm32wlxx_hal_flash_ex.c ****     }
 374:hardware/mcu/st/stm32wlxx_hal_driver/Src/stm32wlxx_hal_flash_ex.c ****   }
 375:hardware/mcu/st/stm32wlxx_hal_driver/Src/stm32wlxx_hal_flash_ex.c **** 
 376:hardware/mcu/st/stm32wlxx_hal_driver/Src/stm32wlxx_hal_flash_ex.c **** #if defined(DUAL_CORE)
 377:hardware/mcu/st/stm32wlxx_hal_driver/Src/stm32wlxx_hal_flash_ex.c ****   /*  Secure mode and CPU2 Boot Vector */
 378:hardware/mcu/st/stm32wlxx_hal_driver/Src/stm32wlxx_hal_flash_ex.c ****   if ((pOBInit->OptionType & (OPTIONBYTE_SECURE_MODE | OPTIONBYTE_C2_BOOT_VECT | OPTIONBYTE_C2_DEBU
 379:hardware/mcu/st/stm32wlxx_hal_driver/Src/stm32wlxx_hal_flash_ex.c ****   {
 380:hardware/mcu/st/stm32wlxx_hal_driver/Src/stm32wlxx_hal_flash_ex.c ****     /* Set the secure flash, SRAM memory start address, CPU2 boot reset vector or CPU2 debug access
 381:hardware/mcu/st/stm32wlxx_hal_driver/Src/stm32wlxx_hal_flash_ex.c ****     FLASH_OB_SecureConfig(pOBInit);
 382:hardware/mcu/st/stm32wlxx_hal_driver/Src/stm32wlxx_hal_flash_ex.c ****   }
 383:hardware/mcu/st/stm32wlxx_hal_driver/Src/stm32wlxx_hal_flash_ex.c **** 
 384:hardware/mcu/st/stm32wlxx_hal_driver/Src/stm32wlxx_hal_flash_ex.c ****   /* IPCC mailbox data buffer address */
 385:hardware/mcu/st/stm32wlxx_hal_driver/Src/stm32wlxx_hal_flash_ex.c ****   if ((pOBInit->OptionType & OPTIONBYTE_IPCC_BUF_ADDR) != 0U)
 386:hardware/mcu/st/stm32wlxx_hal_driver/Src/stm32wlxx_hal_flash_ex.c ****   {
 387:hardware/mcu/st/stm32wlxx_hal_driver/Src/stm32wlxx_hal_flash_ex.c ****     /* Configure the IPCC data buffer address */
 388:hardware/mcu/st/stm32wlxx_hal_driver/Src/stm32wlxx_hal_flash_ex.c ****     FLASH_OB_IPCCBufferAddrConfig(pOBInit->IPCCdataBufAddr);
 389:hardware/mcu/st/stm32wlxx_hal_driver/Src/stm32wlxx_hal_flash_ex.c ****   }
ARM GAS  /var/folders/b4/k4jbz0ms4wg23jtq0w6p483m0000gn/T//cc2bvfXO.s 			page 9


 390:hardware/mcu/st/stm32wlxx_hal_driver/Src/stm32wlxx_hal_flash_ex.c **** #endif /* DUAL_CORE */
 391:hardware/mcu/st/stm32wlxx_hal_driver/Src/stm32wlxx_hal_flash_ex.c **** 
 392:hardware/mcu/st/stm32wlxx_hal_driver/Src/stm32wlxx_hal_flash_ex.c ****   /* Proceed the OB Write Operation */
 393:hardware/mcu/st/stm32wlxx_hal_driver/Src/stm32wlxx_hal_flash_ex.c ****   status = FLASH_OB_ProceedWriteOperation();
 394:hardware/mcu/st/stm32wlxx_hal_driver/Src/stm32wlxx_hal_flash_ex.c **** 
 395:hardware/mcu/st/stm32wlxx_hal_driver/Src/stm32wlxx_hal_flash_ex.c ****   /* Process Unlocked */
 396:hardware/mcu/st/stm32wlxx_hal_driver/Src/stm32wlxx_hal_flash_ex.c ****   __HAL_UNLOCK(&pFlash);
 397:hardware/mcu/st/stm32wlxx_hal_driver/Src/stm32wlxx_hal_flash_ex.c **** 
 398:hardware/mcu/st/stm32wlxx_hal_driver/Src/stm32wlxx_hal_flash_ex.c ****   /* return status */
 399:hardware/mcu/st/stm32wlxx_hal_driver/Src/stm32wlxx_hal_flash_ex.c ****   return status;
 400:hardware/mcu/st/stm32wlxx_hal_driver/Src/stm32wlxx_hal_flash_ex.c **** }
 401:hardware/mcu/st/stm32wlxx_hal_driver/Src/stm32wlxx_hal_flash_ex.c **** 
 402:hardware/mcu/st/stm32wlxx_hal_driver/Src/stm32wlxx_hal_flash_ex.c **** /**
 403:hardware/mcu/st/stm32wlxx_hal_driver/Src/stm32wlxx_hal_flash_ex.c ****   * @brief  Get the Option bytes configuration.
 404:hardware/mcu/st/stm32wlxx_hal_driver/Src/stm32wlxx_hal_flash_ex.c ****   * @note   warning: this API only read flash register, it does not reflect any
 405:hardware/mcu/st/stm32wlxx_hal_driver/Src/stm32wlxx_hal_flash_ex.c ****   *         change that would have been programmed between previous Option byte
 406:hardware/mcu/st/stm32wlxx_hal_driver/Src/stm32wlxx_hal_flash_ex.c ****   *         loading and current call.
 407:hardware/mcu/st/stm32wlxx_hal_driver/Src/stm32wlxx_hal_flash_ex.c ****   * @param  pOBInit Pointer to an @ref FLASH_OBProgramInitTypeDef structure that contains the
 408:hardware/mcu/st/stm32wlxx_hal_driver/Src/stm32wlxx_hal_flash_ex.c ****   *                  configuration information. The fields pOBInit->WRPArea and
 409:hardware/mcu/st/stm32wlxx_hal_driver/Src/stm32wlxx_hal_flash_ex.c ****   *                  pOBInit->PCROPConfig should indicate which area is requested
 410:hardware/mcu/st/stm32wlxx_hal_driver/Src/stm32wlxx_hal_flash_ex.c ****   *                  for the WRP and PCROP.
 411:hardware/mcu/st/stm32wlxx_hal_driver/Src/stm32wlxx_hal_flash_ex.c ****   * @retval None
 412:hardware/mcu/st/stm32wlxx_hal_driver/Src/stm32wlxx_hal_flash_ex.c ****   */
 413:hardware/mcu/st/stm32wlxx_hal_driver/Src/stm32wlxx_hal_flash_ex.c **** void HAL_FLASHEx_OBGetConfig(FLASH_OBProgramInitTypeDef *pOBInit)
 414:hardware/mcu/st/stm32wlxx_hal_driver/Src/stm32wlxx_hal_flash_ex.c **** {
 415:hardware/mcu/st/stm32wlxx_hal_driver/Src/stm32wlxx_hal_flash_ex.c ****   pOBInit->OptionType = OPTIONBYTE_ALL;
 416:hardware/mcu/st/stm32wlxx_hal_driver/Src/stm32wlxx_hal_flash_ex.c **** 
 417:hardware/mcu/st/stm32wlxx_hal_driver/Src/stm32wlxx_hal_flash_ex.c ****   if ((pOBInit->WRPArea == OB_WRPAREA_BANK1_AREAA) || (pOBInit->WRPArea == OB_WRPAREA_BANK1_AREAB))
 418:hardware/mcu/st/stm32wlxx_hal_driver/Src/stm32wlxx_hal_flash_ex.c ****   {
 419:hardware/mcu/st/stm32wlxx_hal_driver/Src/stm32wlxx_hal_flash_ex.c ****     /* Get write protection on the selected area */
 420:hardware/mcu/st/stm32wlxx_hal_driver/Src/stm32wlxx_hal_flash_ex.c ****     FLASH_OB_GetWRP(pOBInit->WRPArea, &(pOBInit->WRPStartOffset), &(pOBInit->WRPEndOffset));
 421:hardware/mcu/st/stm32wlxx_hal_driver/Src/stm32wlxx_hal_flash_ex.c ****   }
 422:hardware/mcu/st/stm32wlxx_hal_driver/Src/stm32wlxx_hal_flash_ex.c **** 
 423:hardware/mcu/st/stm32wlxx_hal_driver/Src/stm32wlxx_hal_flash_ex.c ****   /* Get Read protection level */
 424:hardware/mcu/st/stm32wlxx_hal_driver/Src/stm32wlxx_hal_flash_ex.c ****   pOBInit->RDPLevel = FLASH_OB_GetRDP();
 425:hardware/mcu/st/stm32wlxx_hal_driver/Src/stm32wlxx_hal_flash_ex.c **** 
 426:hardware/mcu/st/stm32wlxx_hal_driver/Src/stm32wlxx_hal_flash_ex.c ****   /* Get the user option bytes */
 427:hardware/mcu/st/stm32wlxx_hal_driver/Src/stm32wlxx_hal_flash_ex.c ****   pOBInit->UserConfig = FLASH_OB_GetUser();
 428:hardware/mcu/st/stm32wlxx_hal_driver/Src/stm32wlxx_hal_flash_ex.c ****   pOBInit->UserType = OB_USER_ALL;
 429:hardware/mcu/st/stm32wlxx_hal_driver/Src/stm32wlxx_hal_flash_ex.c **** 
 430:hardware/mcu/st/stm32wlxx_hal_driver/Src/stm32wlxx_hal_flash_ex.c ****   /* Get the Zone 1A and 1B Proprietary code readout protection */
 431:hardware/mcu/st/stm32wlxx_hal_driver/Src/stm32wlxx_hal_flash_ex.c ****   FLASH_OB_GetPCROP(&(pOBInit->PCROPConfig), &(pOBInit->PCROP1AStartAddr), &(pOBInit->PCROP1AEndAdd
 432:hardware/mcu/st/stm32wlxx_hal_driver/Src/stm32wlxx_hal_flash_ex.c ****   pOBInit->PCROPConfig |= (OB_PCROP_ZONE_A | OB_PCROP_ZONE_B);
 433:hardware/mcu/st/stm32wlxx_hal_driver/Src/stm32wlxx_hal_flash_ex.c **** 
 434:hardware/mcu/st/stm32wlxx_hal_driver/Src/stm32wlxx_hal_flash_ex.c **** #if defined(DUAL_CORE)
 435:hardware/mcu/st/stm32wlxx_hal_driver/Src/stm32wlxx_hal_flash_ex.c ****   /* Get the IPCC start Address */
 436:hardware/mcu/st/stm32wlxx_hal_driver/Src/stm32wlxx_hal_flash_ex.c ****   pOBInit->IPCCdataBufAddr = FLASH_OB_GetIPCCBufferAddr();
 437:hardware/mcu/st/stm32wlxx_hal_driver/Src/stm32wlxx_hal_flash_ex.c **** 
 438:hardware/mcu/st/stm32wlxx_hal_driver/Src/stm32wlxx_hal_flash_ex.c ****   /* Get the Secure Flash start address, Secure Hide Protection start address Secure Backup SRAM2 s
 439:hardware/mcu/st/stm32wlxx_hal_driver/Src/stm32wlxx_hal_flash_ex.c ****   FLASH_OB_GetSecureMemoryConfig(&(pOBInit->SecureFlashStartAddr), &(pOBInit->HideProtectionStartAd
 440:hardware/mcu/st/stm32wlxx_hal_driver/Src/stm32wlxx_hal_flash_ex.c **** 
 441:hardware/mcu/st/stm32wlxx_hal_driver/Src/stm32wlxx_hal_flash_ex.c ****   /* Get the M0+ Secure Boot reset vector address and Secure Boot memory selection */
 442:hardware/mcu/st/stm32wlxx_hal_driver/Src/stm32wlxx_hal_flash_ex.c ****   FLASH_OB_GetC2BootResetConfig(&(pOBInit->C2SecureBootVectAddr), &(pOBInit->C2BootRegion));
 443:hardware/mcu/st/stm32wlxx_hal_driver/Src/stm32wlxx_hal_flash_ex.c **** 
 444:hardware/mcu/st/stm32wlxx_hal_driver/Src/stm32wlxx_hal_flash_ex.c ****   /* Get the Sub-GHz radio SPI Secure Access */
 445:hardware/mcu/st/stm32wlxx_hal_driver/Src/stm32wlxx_hal_flash_ex.c ****   pOBInit->SUBGHZSPISecureAccess = FLASH_OB_GetSUBGHZSPISecureAccess();
 446:hardware/mcu/st/stm32wlxx_hal_driver/Src/stm32wlxx_hal_flash_ex.c **** 
ARM GAS  /var/folders/b4/k4jbz0ms4wg23jtq0w6p483m0000gn/T//cc2bvfXO.s 			page 10


 447:hardware/mcu/st/stm32wlxx_hal_driver/Src/stm32wlxx_hal_flash_ex.c ****   /* Get the CPU2 Debug Access Mode */
 448:hardware/mcu/st/stm32wlxx_hal_driver/Src/stm32wlxx_hal_flash_ex.c ****   pOBInit->C2DebugAccessMode = FLASH_OB_GetC2DebugAccessMode();
 449:hardware/mcu/st/stm32wlxx_hal_driver/Src/stm32wlxx_hal_flash_ex.c **** #endif /* DUAL_CORE */
 450:hardware/mcu/st/stm32wlxx_hal_driver/Src/stm32wlxx_hal_flash_ex.c **** }
 451:hardware/mcu/st/stm32wlxx_hal_driver/Src/stm32wlxx_hal_flash_ex.c **** 
 452:hardware/mcu/st/stm32wlxx_hal_driver/Src/stm32wlxx_hal_flash_ex.c **** /**
 453:hardware/mcu/st/stm32wlxx_hal_driver/Src/stm32wlxx_hal_flash_ex.c ****   * @brief  Flash Empty check
 454:hardware/mcu/st/stm32wlxx_hal_driver/Src/stm32wlxx_hal_flash_ex.c ****   * @note   This API checks if first location in Flash is programmed or not.
 455:hardware/mcu/st/stm32wlxx_hal_driver/Src/stm32wlxx_hal_flash_ex.c ****   *         This check is done once by Option Byte Loader.
 456:hardware/mcu/st/stm32wlxx_hal_driver/Src/stm32wlxx_hal_flash_ex.c ****   * @retval Returned value can be one of the following values:
 457:hardware/mcu/st/stm32wlxx_hal_driver/Src/stm32wlxx_hal_flash_ex.c ****   *         @arg @ref FLASH_PROG_NOT_EMPTY 1st location in Flash is programmed
 458:hardware/mcu/st/stm32wlxx_hal_driver/Src/stm32wlxx_hal_flash_ex.c ****   *         @arg @ref FLASH_PROG_EMPTY 1st location in Flash is empty
 459:hardware/mcu/st/stm32wlxx_hal_driver/Src/stm32wlxx_hal_flash_ex.c ****   */
 460:hardware/mcu/st/stm32wlxx_hal_driver/Src/stm32wlxx_hal_flash_ex.c **** uint32_t HAL_FLASHEx_FlashEmptyCheck(void)
 461:hardware/mcu/st/stm32wlxx_hal_driver/Src/stm32wlxx_hal_flash_ex.c **** {
 462:hardware/mcu/st/stm32wlxx_hal_driver/Src/stm32wlxx_hal_flash_ex.c ****   return (READ_BIT(FLASH->ACR, FLASH_ACR_EMPTY));
 463:hardware/mcu/st/stm32wlxx_hal_driver/Src/stm32wlxx_hal_flash_ex.c **** }
 464:hardware/mcu/st/stm32wlxx_hal_driver/Src/stm32wlxx_hal_flash_ex.c **** 
 465:hardware/mcu/st/stm32wlxx_hal_driver/Src/stm32wlxx_hal_flash_ex.c **** 
 466:hardware/mcu/st/stm32wlxx_hal_driver/Src/stm32wlxx_hal_flash_ex.c **** /**
 467:hardware/mcu/st/stm32wlxx_hal_driver/Src/stm32wlxx_hal_flash_ex.c ****   * @brief  Force Empty check value.
 468:hardware/mcu/st/stm32wlxx_hal_driver/Src/stm32wlxx_hal_flash_ex.c ****   * @note   Allows to modify program empty check value in order to force this
 469:hardware/mcu/st/stm32wlxx_hal_driver/Src/stm32wlxx_hal_flash_ex.c ****   *         information in Flash Interface, for all next reset that do not launch
 470:hardware/mcu/st/stm32wlxx_hal_driver/Src/stm32wlxx_hal_flash_ex.c ****   *         Option Byte Loader.
 471:hardware/mcu/st/stm32wlxx_hal_driver/Src/stm32wlxx_hal_flash_ex.c ****   * @param  FlashEmpty Specifies the empty check value
 472:hardware/mcu/st/stm32wlxx_hal_driver/Src/stm32wlxx_hal_flash_ex.c ****   *          This parameter can be one of the following values:
 473:hardware/mcu/st/stm32wlxx_hal_driver/Src/stm32wlxx_hal_flash_ex.c ****   *            @arg @ref FLASH_PROG_NOT_EMPTY 1st location in Flash is programmed
 474:hardware/mcu/st/stm32wlxx_hal_driver/Src/stm32wlxx_hal_flash_ex.c ****   *            @arg @ref FLASH_PROG_EMPTY 1st location in Flash is empty
 475:hardware/mcu/st/stm32wlxx_hal_driver/Src/stm32wlxx_hal_flash_ex.c ****   * @retval None
 476:hardware/mcu/st/stm32wlxx_hal_driver/Src/stm32wlxx_hal_flash_ex.c ****   */
 477:hardware/mcu/st/stm32wlxx_hal_driver/Src/stm32wlxx_hal_flash_ex.c **** void HAL_FLASHEx_ForceFlashEmpty(uint32_t FlashEmpty)
 478:hardware/mcu/st/stm32wlxx_hal_driver/Src/stm32wlxx_hal_flash_ex.c **** {
 479:hardware/mcu/st/stm32wlxx_hal_driver/Src/stm32wlxx_hal_flash_ex.c ****   assert_param(IS_FLASH_EMPTY_CHECK(FlashEmpty));
 480:hardware/mcu/st/stm32wlxx_hal_driver/Src/stm32wlxx_hal_flash_ex.c **** 
 481:hardware/mcu/st/stm32wlxx_hal_driver/Src/stm32wlxx_hal_flash_ex.c ****   MODIFY_REG(FLASH->ACR, FLASH_ACR_EMPTY, FlashEmpty);
 482:hardware/mcu/st/stm32wlxx_hal_driver/Src/stm32wlxx_hal_flash_ex.c **** }
 483:hardware/mcu/st/stm32wlxx_hal_driver/Src/stm32wlxx_hal_flash_ex.c **** 
 484:hardware/mcu/st/stm32wlxx_hal_driver/Src/stm32wlxx_hal_flash_ex.c **** /**
 485:hardware/mcu/st/stm32wlxx_hal_driver/Src/stm32wlxx_hal_flash_ex.c ****   * @brief  Suspend new program or erase operation request.
 486:hardware/mcu/st/stm32wlxx_hal_driver/Src/stm32wlxx_hal_flash_ex.c ****   * @note   Any new Flash program and erase operation on both CPU side will be suspended
 487:hardware/mcu/st/stm32wlxx_hal_driver/Src/stm32wlxx_hal_flash_ex.c ****   *         until this bit and the same bit in Flash CPU2 access control register (FLASH_C2ACR) are
 488:hardware/mcu/st/stm32wlxx_hal_driver/Src/stm32wlxx_hal_flash_ex.c ****   *         cleared. The PESD bit in both the Flash status register (FLASH_SR) and Flash
 489:hardware/mcu/st/stm32wlxx_hal_driver/Src/stm32wlxx_hal_flash_ex.c ****   *         CPU2 status register (FLASH_C2SR) register will be set when at least one PES
 490:hardware/mcu/st/stm32wlxx_hal_driver/Src/stm32wlxx_hal_flash_ex.c ****   *         bit in FLASH_ACR or FLASH_C2ACR is set.
 491:hardware/mcu/st/stm32wlxx_hal_driver/Src/stm32wlxx_hal_flash_ex.c ****   * @retval None
 492:hardware/mcu/st/stm32wlxx_hal_driver/Src/stm32wlxx_hal_flash_ex.c ****   */
 493:hardware/mcu/st/stm32wlxx_hal_driver/Src/stm32wlxx_hal_flash_ex.c **** void HAL_FLASHEx_SuspendOperation(void)
 494:hardware/mcu/st/stm32wlxx_hal_driver/Src/stm32wlxx_hal_flash_ex.c **** {
 495:hardware/mcu/st/stm32wlxx_hal_driver/Src/stm32wlxx_hal_flash_ex.c **** #if defined(CORE_CM0PLUS)
 496:hardware/mcu/st/stm32wlxx_hal_driver/Src/stm32wlxx_hal_flash_ex.c ****   SET_BIT(FLASH->C2ACR, FLASH_C2ACR_PES);
 497:hardware/mcu/st/stm32wlxx_hal_driver/Src/stm32wlxx_hal_flash_ex.c **** #else
 498:hardware/mcu/st/stm32wlxx_hal_driver/Src/stm32wlxx_hal_flash_ex.c ****   SET_BIT(FLASH->ACR, FLASH_ACR_PES);
 499:hardware/mcu/st/stm32wlxx_hal_driver/Src/stm32wlxx_hal_flash_ex.c **** #endif
 500:hardware/mcu/st/stm32wlxx_hal_driver/Src/stm32wlxx_hal_flash_ex.c **** }
 501:hardware/mcu/st/stm32wlxx_hal_driver/Src/stm32wlxx_hal_flash_ex.c **** 
 502:hardware/mcu/st/stm32wlxx_hal_driver/Src/stm32wlxx_hal_flash_ex.c **** /**
 503:hardware/mcu/st/stm32wlxx_hal_driver/Src/stm32wlxx_hal_flash_ex.c ****   * @brief  Allow new program or erase operation request.
ARM GAS  /var/folders/b4/k4jbz0ms4wg23jtq0w6p483m0000gn/T//cc2bvfXO.s 			page 11


 504:hardware/mcu/st/stm32wlxx_hal_driver/Src/stm32wlxx_hal_flash_ex.c ****   * @note   Any new Flash program and erase operation on both CPU side will be allowed
 505:hardware/mcu/st/stm32wlxx_hal_driver/Src/stm32wlxx_hal_flash_ex.c ****   *         until one of this bit or the same bit in Flash CPU2 access control register (FLASH_C2AC
 506:hardware/mcu/st/stm32wlxx_hal_driver/Src/stm32wlxx_hal_flash_ex.c ****   *         set. The PESD bit in both the Flash status register (FLASH_SR) and Flash
 507:hardware/mcu/st/stm32wlxx_hal_driver/Src/stm32wlxx_hal_flash_ex.c ****   *         CPU2 status register (FLASH_C2SR) register will be clear when both PES
 508:hardware/mcu/st/stm32wlxx_hal_driver/Src/stm32wlxx_hal_flash_ex.c ****   *         bit in FLASH_ACR or FLASH_C2ACR is cleared.
 509:hardware/mcu/st/stm32wlxx_hal_driver/Src/stm32wlxx_hal_flash_ex.c ****   * @retval None
 510:hardware/mcu/st/stm32wlxx_hal_driver/Src/stm32wlxx_hal_flash_ex.c ****   */
 511:hardware/mcu/st/stm32wlxx_hal_driver/Src/stm32wlxx_hal_flash_ex.c **** void HAL_FLASHEx_AllowOperation(void)
 512:hardware/mcu/st/stm32wlxx_hal_driver/Src/stm32wlxx_hal_flash_ex.c **** {
 513:hardware/mcu/st/stm32wlxx_hal_driver/Src/stm32wlxx_hal_flash_ex.c **** #if defined(CORE_CM0PLUS)
 514:hardware/mcu/st/stm32wlxx_hal_driver/Src/stm32wlxx_hal_flash_ex.c ****   CLEAR_BIT(FLASH->C2ACR, FLASH_C2ACR_PES);
 515:hardware/mcu/st/stm32wlxx_hal_driver/Src/stm32wlxx_hal_flash_ex.c **** #else
 516:hardware/mcu/st/stm32wlxx_hal_driver/Src/stm32wlxx_hal_flash_ex.c ****   CLEAR_BIT(FLASH->ACR, FLASH_ACR_PES);
 517:hardware/mcu/st/stm32wlxx_hal_driver/Src/stm32wlxx_hal_flash_ex.c **** #endif
 518:hardware/mcu/st/stm32wlxx_hal_driver/Src/stm32wlxx_hal_flash_ex.c **** }
 519:hardware/mcu/st/stm32wlxx_hal_driver/Src/stm32wlxx_hal_flash_ex.c **** 
 520:hardware/mcu/st/stm32wlxx_hal_driver/Src/stm32wlxx_hal_flash_ex.c **** /**
 521:hardware/mcu/st/stm32wlxx_hal_driver/Src/stm32wlxx_hal_flash_ex.c ****   * @brief  Check if new program or erase operation request from CPU1 or CPU2 is suspended
 522:hardware/mcu/st/stm32wlxx_hal_driver/Src/stm32wlxx_hal_flash_ex.c ****   * @note   Any new Flash program and erase operation on both CPU side will be allowed
 523:hardware/mcu/st/stm32wlxx_hal_driver/Src/stm32wlxx_hal_flash_ex.c ****   *         until one of this bit or the same bit in Flash CPU2 access control register (FLASH_C2AC
 524:hardware/mcu/st/stm32wlxx_hal_driver/Src/stm32wlxx_hal_flash_ex.c ****   *         set. The PESD bit in both the Flash status register (FLASH_SR) and Flash
 525:hardware/mcu/st/stm32wlxx_hal_driver/Src/stm32wlxx_hal_flash_ex.c ****   *         CPU2 status register (FLASH_C2SR) register will be cleared when both PES
 526:hardware/mcu/st/stm32wlxx_hal_driver/Src/stm32wlxx_hal_flash_ex.c ****   *         bit in FLASH_ACR and FLASH_C2ACR are cleared.
 527:hardware/mcu/st/stm32wlxx_hal_driver/Src/stm32wlxx_hal_flash_ex.c ****   * @retval Status
 528:hardware/mcu/st/stm32wlxx_hal_driver/Src/stm32wlxx_hal_flash_ex.c ****   *          - 0 : No suspended flash operation
 529:hardware/mcu/st/stm32wlxx_hal_driver/Src/stm32wlxx_hal_flash_ex.c ****   *          - 1 : Flash operation is suspended
 530:hardware/mcu/st/stm32wlxx_hal_driver/Src/stm32wlxx_hal_flash_ex.c ****   */
 531:hardware/mcu/st/stm32wlxx_hal_driver/Src/stm32wlxx_hal_flash_ex.c **** uint32_t HAL_FLASHEx_IsOperationSuspended(void)
 532:hardware/mcu/st/stm32wlxx_hal_driver/Src/stm32wlxx_hal_flash_ex.c **** {
 533:hardware/mcu/st/stm32wlxx_hal_driver/Src/stm32wlxx_hal_flash_ex.c ****   uint32_t status = 0U;
 534:hardware/mcu/st/stm32wlxx_hal_driver/Src/stm32wlxx_hal_flash_ex.c **** 
 535:hardware/mcu/st/stm32wlxx_hal_driver/Src/stm32wlxx_hal_flash_ex.c **** #if defined(CORE_CM0PLUS)
 536:hardware/mcu/st/stm32wlxx_hal_driver/Src/stm32wlxx_hal_flash_ex.c ****   if (READ_BIT(FLASH->C2SR, FLASH_C2SR_PESD) == FLASH_C2SR_PESD)
 537:hardware/mcu/st/stm32wlxx_hal_driver/Src/stm32wlxx_hal_flash_ex.c **** #else
 538:hardware/mcu/st/stm32wlxx_hal_driver/Src/stm32wlxx_hal_flash_ex.c ****   if (READ_BIT(FLASH->SR, FLASH_SR_PESD) == FLASH_SR_PESD)
 539:hardware/mcu/st/stm32wlxx_hal_driver/Src/stm32wlxx_hal_flash_ex.c **** #endif
 540:hardware/mcu/st/stm32wlxx_hal_driver/Src/stm32wlxx_hal_flash_ex.c ****   {
 541:hardware/mcu/st/stm32wlxx_hal_driver/Src/stm32wlxx_hal_flash_ex.c ****     status = 1U;
 542:hardware/mcu/st/stm32wlxx_hal_driver/Src/stm32wlxx_hal_flash_ex.c ****   }
 543:hardware/mcu/st/stm32wlxx_hal_driver/Src/stm32wlxx_hal_flash_ex.c **** 
 544:hardware/mcu/st/stm32wlxx_hal_driver/Src/stm32wlxx_hal_flash_ex.c ****   return status;
 545:hardware/mcu/st/stm32wlxx_hal_driver/Src/stm32wlxx_hal_flash_ex.c **** }
 546:hardware/mcu/st/stm32wlxx_hal_driver/Src/stm32wlxx_hal_flash_ex.c **** 
 547:hardware/mcu/st/stm32wlxx_hal_driver/Src/stm32wlxx_hal_flash_ex.c **** #if defined(DUAL_CORE)
 548:hardware/mcu/st/stm32wlxx_hal_driver/Src/stm32wlxx_hal_flash_ex.c **** /**
 549:hardware/mcu/st/stm32wlxx_hal_driver/Src/stm32wlxx_hal_flash_ex.c ****   * @brief  Disable CPU2 debug access.
 550:hardware/mcu/st/stm32wlxx_hal_driver/Src/stm32wlxx_hal_flash_ex.c ****   * @note   This feature can only be accessed by a secure privileged CPU2
 551:hardware/mcu/st/stm32wlxx_hal_driver/Src/stm32wlxx_hal_flash_ex.c ****   *         When FLASH_SFR_HDPAD = 0 (Secure Hide Protection area enabled) the CPU2 software debug 
 552:hardware/mcu/st/stm32wlxx_hal_driver/Src/stm32wlxx_hal_flash_ex.c ****   *         When FLASH_SFR_HDPAD = 1 (Secure Hide Protection area disabled) the CPU2 software debug
 553:hardware/mcu/st/stm32wlxx_hal_driver/Src/stm32wlxx_hal_flash_ex.c ****   * @retval None
 554:hardware/mcu/st/stm32wlxx_hal_driver/Src/stm32wlxx_hal_flash_ex.c ****   */
 555:hardware/mcu/st/stm32wlxx_hal_driver/Src/stm32wlxx_hal_flash_ex.c **** void HAL_FLASHEx_DisableC2Debug(void)
 556:hardware/mcu/st/stm32wlxx_hal_driver/Src/stm32wlxx_hal_flash_ex.c **** {
 557:hardware/mcu/st/stm32wlxx_hal_driver/Src/stm32wlxx_hal_flash_ex.c ****   CLEAR_BIT(FLASH->ACR2, FLASH_ACR2_C2SWDBGEN);
 558:hardware/mcu/st/stm32wlxx_hal_driver/Src/stm32wlxx_hal_flash_ex.c **** }
 559:hardware/mcu/st/stm32wlxx_hal_driver/Src/stm32wlxx_hal_flash_ex.c **** 
 560:hardware/mcu/st/stm32wlxx_hal_driver/Src/stm32wlxx_hal_flash_ex.c **** /**
ARM GAS  /var/folders/b4/k4jbz0ms4wg23jtq0w6p483m0000gn/T//cc2bvfXO.s 			page 12


 561:hardware/mcu/st/stm32wlxx_hal_driver/Src/stm32wlxx_hal_flash_ex.c ****   * @brief  Enable CPU2 debug access (When also enabled in FLASH_SFR_DDS).
 562:hardware/mcu/st/stm32wlxx_hal_driver/Src/stm32wlxx_hal_flash_ex.c ****   * @note   This feature can only be accessed by a secure privileged CPU2
 563:hardware/mcu/st/stm32wlxx_hal_driver/Src/stm32wlxx_hal_flash_ex.c ****   *         When FLASH_SFR_HDPAD = 0 (Secure Hide Protection area enabled) the CPU2 software debug 
 564:hardware/mcu/st/stm32wlxx_hal_driver/Src/stm32wlxx_hal_flash_ex.c ****   *         When FLASH_SFR_HDPAD = 1 (Secure Hide Protection area disabled) the CPU2 software debug
 565:hardware/mcu/st/stm32wlxx_hal_driver/Src/stm32wlxx_hal_flash_ex.c ****   * @retval None
 566:hardware/mcu/st/stm32wlxx_hal_driver/Src/stm32wlxx_hal_flash_ex.c ****   */
 567:hardware/mcu/st/stm32wlxx_hal_driver/Src/stm32wlxx_hal_flash_ex.c **** void HAL_FLASHEx_EnableC2Debug(void)
 568:hardware/mcu/st/stm32wlxx_hal_driver/Src/stm32wlxx_hal_flash_ex.c **** {
 569:hardware/mcu/st/stm32wlxx_hal_driver/Src/stm32wlxx_hal_flash_ex.c ****   SET_BIT(FLASH->ACR2, FLASH_ACR2_C2SWDBGEN);
 570:hardware/mcu/st/stm32wlxx_hal_driver/Src/stm32wlxx_hal_flash_ex.c **** }
 571:hardware/mcu/st/stm32wlxx_hal_driver/Src/stm32wlxx_hal_flash_ex.c **** 
 572:hardware/mcu/st/stm32wlxx_hal_driver/Src/stm32wlxx_hal_flash_ex.c **** /**
 573:hardware/mcu/st/stm32wlxx_hal_driver/Src/stm32wlxx_hal_flash_ex.c ****   * @brief  Enable Secure Hide Protection Area access.
 574:hardware/mcu/st/stm32wlxx_hal_driver/Src/stm32wlxx_hal_flash_ex.c ****   * @note   This feature can only be accessed by a secure privileged CPU2
 575:hardware/mcu/st/stm32wlxx_hal_driver/Src/stm32wlxx_hal_flash_ex.c ****   *         This bit is set by software and will only be reset by hardware on a system reset.
 576:hardware/mcu/st/stm32wlxx_hal_driver/Src/stm32wlxx_hal_flash_ex.c ****   * @retval None
 577:hardware/mcu/st/stm32wlxx_hal_driver/Src/stm32wlxx_hal_flash_ex.c ****   */
 578:hardware/mcu/st/stm32wlxx_hal_driver/Src/stm32wlxx_hal_flash_ex.c **** void HAL_FLASHEx_EnableSecHideProtection(void)
 579:hardware/mcu/st/stm32wlxx_hal_driver/Src/stm32wlxx_hal_flash_ex.c **** {
 580:hardware/mcu/st/stm32wlxx_hal_driver/Src/stm32wlxx_hal_flash_ex.c ****   SET_BIT(FLASH->ACR2, FLASH_ACR2_HDPADIS);
 581:hardware/mcu/st/stm32wlxx_hal_driver/Src/stm32wlxx_hal_flash_ex.c **** }
 582:hardware/mcu/st/stm32wlxx_hal_driver/Src/stm32wlxx_hal_flash_ex.c **** 
 583:hardware/mcu/st/stm32wlxx_hal_driver/Src/stm32wlxx_hal_flash_ex.c **** /**
 584:hardware/mcu/st/stm32wlxx_hal_driver/Src/stm32wlxx_hal_flash_ex.c ****   * @brief  Configuration of the privilege attribute.
 585:hardware/mcu/st/stm32wlxx_hal_driver/Src/stm32wlxx_hal_flash_ex.c ****   * @note   This feature can only be accessed by a secure privileged CPU2
 586:hardware/mcu/st/stm32wlxx_hal_driver/Src/stm32wlxx_hal_flash_ex.c ****   * @param  PrivMode indicate privilege mode configuration
 587:hardware/mcu/st/stm32wlxx_hal_driver/Src/stm32wlxx_hal_flash_ex.c ****   *          This parameter can be one of the following values:
 588:hardware/mcu/st/stm32wlxx_hal_driver/Src/stm32wlxx_hal_flash_ex.c ****   *            @arg @ref FLASH_PRIV_GRANTED Access to Flash registers is granted
 589:hardware/mcu/st/stm32wlxx_hal_driver/Src/stm32wlxx_hal_flash_ex.c ****   *            @arg @ref FLASH_PRIV_DENIED Access to Flash registers is denied to non-privilege acc
 590:hardware/mcu/st/stm32wlxx_hal_driver/Src/stm32wlxx_hal_flash_ex.c ****   * @retval None
 591:hardware/mcu/st/stm32wlxx_hal_driver/Src/stm32wlxx_hal_flash_ex.c ****   */
 592:hardware/mcu/st/stm32wlxx_hal_driver/Src/stm32wlxx_hal_flash_ex.c **** void HAL_FLASHEx_ConfigPrivMode(uint32_t PrivMode)
 593:hardware/mcu/st/stm32wlxx_hal_driver/Src/stm32wlxx_hal_flash_ex.c **** {
 594:hardware/mcu/st/stm32wlxx_hal_driver/Src/stm32wlxx_hal_flash_ex.c ****   /* Check the parameters */
 595:hardware/mcu/st/stm32wlxx_hal_driver/Src/stm32wlxx_hal_flash_ex.c ****   assert_param(IS_FLASH_CFGPRIVMODE(PrivMode));
 596:hardware/mcu/st/stm32wlxx_hal_driver/Src/stm32wlxx_hal_flash_ex.c **** 
 597:hardware/mcu/st/stm32wlxx_hal_driver/Src/stm32wlxx_hal_flash_ex.c ****   MODIFY_REG(FLASH->ACR2, FLASH_ACR2_PRIVMODE, PrivMode);
 598:hardware/mcu/st/stm32wlxx_hal_driver/Src/stm32wlxx_hal_flash_ex.c **** }
 599:hardware/mcu/st/stm32wlxx_hal_driver/Src/stm32wlxx_hal_flash_ex.c **** 
 600:hardware/mcu/st/stm32wlxx_hal_driver/Src/stm32wlxx_hal_flash_ex.c **** /**
 601:hardware/mcu/st/stm32wlxx_hal_driver/Src/stm32wlxx_hal_flash_ex.c ****   * @brief  Return the value of the privilege attribute.
 602:hardware/mcu/st/stm32wlxx_hal_driver/Src/stm32wlxx_hal_flash_ex.c ****   * @note   This feature can only be accessed by a secure privileged CPU2
 603:hardware/mcu/st/stm32wlxx_hal_driver/Src/stm32wlxx_hal_flash_ex.c ****   * @retval It indicates privilege mode configuration.
 604:hardware/mcu/st/stm32wlxx_hal_driver/Src/stm32wlxx_hal_flash_ex.c ****   *          This return value can be one of the following values:
 605:hardware/mcu/st/stm32wlxx_hal_driver/Src/stm32wlxx_hal_flash_ex.c ****   *            @arg @ref FLASH_PRIV_GRANTED Access to Flash registers is granted
 606:hardware/mcu/st/stm32wlxx_hal_driver/Src/stm32wlxx_hal_flash_ex.c ****   *            @arg @ref FLASH_PRIV_DENIED Access to Flash registers is denied to non-privilege acc
 607:hardware/mcu/st/stm32wlxx_hal_driver/Src/stm32wlxx_hal_flash_ex.c ****   */
 608:hardware/mcu/st/stm32wlxx_hal_driver/Src/stm32wlxx_hal_flash_ex.c **** uint32_t HAL_FLASHEx_GetPrivMode(void)
 609:hardware/mcu/st/stm32wlxx_hal_driver/Src/stm32wlxx_hal_flash_ex.c **** {
 610:hardware/mcu/st/stm32wlxx_hal_driver/Src/stm32wlxx_hal_flash_ex.c ****   return (FLASH->ACR2 & FLASH_ACR2_PRIVMODE);
 611:hardware/mcu/st/stm32wlxx_hal_driver/Src/stm32wlxx_hal_flash_ex.c **** }
 612:hardware/mcu/st/stm32wlxx_hal_driver/Src/stm32wlxx_hal_flash_ex.c **** #endif /* DUAL_CORE */
 613:hardware/mcu/st/stm32wlxx_hal_driver/Src/stm32wlxx_hal_flash_ex.c **** 
 614:hardware/mcu/st/stm32wlxx_hal_driver/Src/stm32wlxx_hal_flash_ex.c **** /**
 615:hardware/mcu/st/stm32wlxx_hal_driver/Src/stm32wlxx_hal_flash_ex.c ****   * @}
 616:hardware/mcu/st/stm32wlxx_hal_driver/Src/stm32wlxx_hal_flash_ex.c ****   */
 617:hardware/mcu/st/stm32wlxx_hal_driver/Src/stm32wlxx_hal_flash_ex.c **** 
ARM GAS  /var/folders/b4/k4jbz0ms4wg23jtq0w6p483m0000gn/T//cc2bvfXO.s 			page 13


 618:hardware/mcu/st/stm32wlxx_hal_driver/Src/stm32wlxx_hal_flash_ex.c **** /**
 619:hardware/mcu/st/stm32wlxx_hal_driver/Src/stm32wlxx_hal_flash_ex.c ****   * @}
 620:hardware/mcu/st/stm32wlxx_hal_driver/Src/stm32wlxx_hal_flash_ex.c ****   */
 621:hardware/mcu/st/stm32wlxx_hal_driver/Src/stm32wlxx_hal_flash_ex.c **** 
 622:hardware/mcu/st/stm32wlxx_hal_driver/Src/stm32wlxx_hal_flash_ex.c **** /* Private functions ---------------------------------------------------------*/
 623:hardware/mcu/st/stm32wlxx_hal_driver/Src/stm32wlxx_hal_flash_ex.c **** /** @addtogroup FLASHEx_Private_Functions
 624:hardware/mcu/st/stm32wlxx_hal_driver/Src/stm32wlxx_hal_flash_ex.c ****   * @{
 625:hardware/mcu/st/stm32wlxx_hal_driver/Src/stm32wlxx_hal_flash_ex.c ****   */
 626:hardware/mcu/st/stm32wlxx_hal_driver/Src/stm32wlxx_hal_flash_ex.c **** 
 627:hardware/mcu/st/stm32wlxx_hal_driver/Src/stm32wlxx_hal_flash_ex.c **** /**
 628:hardware/mcu/st/stm32wlxx_hal_driver/Src/stm32wlxx_hal_flash_ex.c ****   * @brief  Mass erase of FLASH memory.
 629:hardware/mcu/st/stm32wlxx_hal_driver/Src/stm32wlxx_hal_flash_ex.c ****   * @retval None
 630:hardware/mcu/st/stm32wlxx_hal_driver/Src/stm32wlxx_hal_flash_ex.c ****   */
 631:hardware/mcu/st/stm32wlxx_hal_driver/Src/stm32wlxx_hal_flash_ex.c **** static void FLASH_MassErase(void)
 632:hardware/mcu/st/stm32wlxx_hal_driver/Src/stm32wlxx_hal_flash_ex.c **** {
 633:hardware/mcu/st/stm32wlxx_hal_driver/Src/stm32wlxx_hal_flash_ex.c ****   /* Set the Mass Erase Bit and start bit */
 634:hardware/mcu/st/stm32wlxx_hal_driver/Src/stm32wlxx_hal_flash_ex.c **** #ifdef CORE_CM0PLUS
 635:hardware/mcu/st/stm32wlxx_hal_driver/Src/stm32wlxx_hal_flash_ex.c ****   SET_BIT(FLASH->C2CR, (FLASH_CR_MER | FLASH_CR_STRT));
 636:hardware/mcu/st/stm32wlxx_hal_driver/Src/stm32wlxx_hal_flash_ex.c **** #else
 637:hardware/mcu/st/stm32wlxx_hal_driver/Src/stm32wlxx_hal_flash_ex.c ****   SET_BIT(FLASH->CR, (FLASH_CR_MER | FLASH_CR_STRT));
 638:hardware/mcu/st/stm32wlxx_hal_driver/Src/stm32wlxx_hal_flash_ex.c **** #endif
 639:hardware/mcu/st/stm32wlxx_hal_driver/Src/stm32wlxx_hal_flash_ex.c **** }
 640:hardware/mcu/st/stm32wlxx_hal_driver/Src/stm32wlxx_hal_flash_ex.c **** 
 641:hardware/mcu/st/stm32wlxx_hal_driver/Src/stm32wlxx_hal_flash_ex.c **** /**
 642:hardware/mcu/st/stm32wlxx_hal_driver/Src/stm32wlxx_hal_flash_ex.c ****   * @brief  Erase the specified FLASH memory page.
 643:hardware/mcu/st/stm32wlxx_hal_driver/Src/stm32wlxx_hal_flash_ex.c ****   * @param  Page FLASH page to erase
 644:hardware/mcu/st/stm32wlxx_hal_driver/Src/stm32wlxx_hal_flash_ex.c ****   *         This parameter must be a value between 0 and (max number of pages in Flash - 1)
 645:hardware/mcu/st/stm32wlxx_hal_driver/Src/stm32wlxx_hal_flash_ex.c ****   * @retval None
 646:hardware/mcu/st/stm32wlxx_hal_driver/Src/stm32wlxx_hal_flash_ex.c ****   */
 647:hardware/mcu/st/stm32wlxx_hal_driver/Src/stm32wlxx_hal_flash_ex.c **** void FLASH_PageErase(uint32_t Page)
 648:hardware/mcu/st/stm32wlxx_hal_driver/Src/stm32wlxx_hal_flash_ex.c **** {
 649:hardware/mcu/st/stm32wlxx_hal_driver/Src/stm32wlxx_hal_flash_ex.c ****   /* Check the parameters */
 650:hardware/mcu/st/stm32wlxx_hal_driver/Src/stm32wlxx_hal_flash_ex.c ****   assert_param(IS_FLASH_PAGE(Page));
 651:hardware/mcu/st/stm32wlxx_hal_driver/Src/stm32wlxx_hal_flash_ex.c **** 
 652:hardware/mcu/st/stm32wlxx_hal_driver/Src/stm32wlxx_hal_flash_ex.c ****   /* Proceed to erase the page */
 653:hardware/mcu/st/stm32wlxx_hal_driver/Src/stm32wlxx_hal_flash_ex.c **** #ifdef CORE_CM0PLUS
 654:hardware/mcu/st/stm32wlxx_hal_driver/Src/stm32wlxx_hal_flash_ex.c ****   MODIFY_REG(FLASH->C2CR, FLASH_CR_PNB, ((Page << FLASH_CR_PNB_Pos) | FLASH_CR_PER | FLASH_CR_STRT)
 655:hardware/mcu/st/stm32wlxx_hal_driver/Src/stm32wlxx_hal_flash_ex.c **** #else
 656:hardware/mcu/st/stm32wlxx_hal_driver/Src/stm32wlxx_hal_flash_ex.c ****   MODIFY_REG(FLASH->CR, FLASH_CR_PNB, ((Page << FLASH_CR_PNB_Pos) | FLASH_CR_PER | FLASH_CR_STRT));
 657:hardware/mcu/st/stm32wlxx_hal_driver/Src/stm32wlxx_hal_flash_ex.c **** #endif
 658:hardware/mcu/st/stm32wlxx_hal_driver/Src/stm32wlxx_hal_flash_ex.c **** }
 659:hardware/mcu/st/stm32wlxx_hal_driver/Src/stm32wlxx_hal_flash_ex.c **** 
 660:hardware/mcu/st/stm32wlxx_hal_driver/Src/stm32wlxx_hal_flash_ex.c **** /**
 661:hardware/mcu/st/stm32wlxx_hal_driver/Src/stm32wlxx_hal_flash_ex.c ****   * @brief  Flush the instruction and data caches.
 662:hardware/mcu/st/stm32wlxx_hal_driver/Src/stm32wlxx_hal_flash_ex.c ****   * @retval None
 663:hardware/mcu/st/stm32wlxx_hal_driver/Src/stm32wlxx_hal_flash_ex.c ****   */
 664:hardware/mcu/st/stm32wlxx_hal_driver/Src/stm32wlxx_hal_flash_ex.c **** void FLASH_FlushCaches(void)
 665:hardware/mcu/st/stm32wlxx_hal_driver/Src/stm32wlxx_hal_flash_ex.c **** {
 666:hardware/mcu/st/stm32wlxx_hal_driver/Src/stm32wlxx_hal_flash_ex.c ****   /* Flush instruction cache  */
 667:hardware/mcu/st/stm32wlxx_hal_driver/Src/stm32wlxx_hal_flash_ex.c ****   if (READ_BIT(FLASH->ACR, FLASH_ACR_ICEN) == 1U)
 668:hardware/mcu/st/stm32wlxx_hal_driver/Src/stm32wlxx_hal_flash_ex.c ****   {
 669:hardware/mcu/st/stm32wlxx_hal_driver/Src/stm32wlxx_hal_flash_ex.c ****     /* Disable instruction cache  */
 670:hardware/mcu/st/stm32wlxx_hal_driver/Src/stm32wlxx_hal_flash_ex.c ****     __HAL_FLASH_INSTRUCTION_CACHE_DISABLE();
 671:hardware/mcu/st/stm32wlxx_hal_driver/Src/stm32wlxx_hal_flash_ex.c ****     /* Reset instruction cache */
 672:hardware/mcu/st/stm32wlxx_hal_driver/Src/stm32wlxx_hal_flash_ex.c ****     __HAL_FLASH_INSTRUCTION_CACHE_RESET();
 673:hardware/mcu/st/stm32wlxx_hal_driver/Src/stm32wlxx_hal_flash_ex.c ****     /* Enable instruction cache */
 674:hardware/mcu/st/stm32wlxx_hal_driver/Src/stm32wlxx_hal_flash_ex.c ****     __HAL_FLASH_INSTRUCTION_CACHE_ENABLE();
ARM GAS  /var/folders/b4/k4jbz0ms4wg23jtq0w6p483m0000gn/T//cc2bvfXO.s 			page 14


 675:hardware/mcu/st/stm32wlxx_hal_driver/Src/stm32wlxx_hal_flash_ex.c ****   }
 676:hardware/mcu/st/stm32wlxx_hal_driver/Src/stm32wlxx_hal_flash_ex.c **** 
 677:hardware/mcu/st/stm32wlxx_hal_driver/Src/stm32wlxx_hal_flash_ex.c **** #ifdef CORE_CM0PLUS
 678:hardware/mcu/st/stm32wlxx_hal_driver/Src/stm32wlxx_hal_flash_ex.c **** #else
 679:hardware/mcu/st/stm32wlxx_hal_driver/Src/stm32wlxx_hal_flash_ex.c ****   /* Flush data cache */
 680:hardware/mcu/st/stm32wlxx_hal_driver/Src/stm32wlxx_hal_flash_ex.c ****   if (READ_BIT(FLASH->ACR, FLASH_ACR_DCEN) == 1U)
 681:hardware/mcu/st/stm32wlxx_hal_driver/Src/stm32wlxx_hal_flash_ex.c ****   {
 682:hardware/mcu/st/stm32wlxx_hal_driver/Src/stm32wlxx_hal_flash_ex.c ****     /* Disable data cache  */
 683:hardware/mcu/st/stm32wlxx_hal_driver/Src/stm32wlxx_hal_flash_ex.c ****     __HAL_FLASH_DATA_CACHE_DISABLE();
 684:hardware/mcu/st/stm32wlxx_hal_driver/Src/stm32wlxx_hal_flash_ex.c ****     /* Reset data cache */
 685:hardware/mcu/st/stm32wlxx_hal_driver/Src/stm32wlxx_hal_flash_ex.c ****     __HAL_FLASH_DATA_CACHE_RESET();
 686:hardware/mcu/st/stm32wlxx_hal_driver/Src/stm32wlxx_hal_flash_ex.c ****     /* Enable data cache */
 687:hardware/mcu/st/stm32wlxx_hal_driver/Src/stm32wlxx_hal_flash_ex.c ****     __HAL_FLASH_DATA_CACHE_ENABLE();
 688:hardware/mcu/st/stm32wlxx_hal_driver/Src/stm32wlxx_hal_flash_ex.c ****   }
 689:hardware/mcu/st/stm32wlxx_hal_driver/Src/stm32wlxx_hal_flash_ex.c **** #endif
 690:hardware/mcu/st/stm32wlxx_hal_driver/Src/stm32wlxx_hal_flash_ex.c **** }
 691:hardware/mcu/st/stm32wlxx_hal_driver/Src/stm32wlxx_hal_flash_ex.c **** 
 692:hardware/mcu/st/stm32wlxx_hal_driver/Src/stm32wlxx_hal_flash_ex.c **** /**
 693:hardware/mcu/st/stm32wlxx_hal_driver/Src/stm32wlxx_hal_flash_ex.c ****   * @brief  Acknlowldge the page erase operation.
 694:hardware/mcu/st/stm32wlxx_hal_driver/Src/stm32wlxx_hal_flash_ex.c ****   * @retval None
 695:hardware/mcu/st/stm32wlxx_hal_driver/Src/stm32wlxx_hal_flash_ex.c ****   */
 696:hardware/mcu/st/stm32wlxx_hal_driver/Src/stm32wlxx_hal_flash_ex.c **** static void FLASH_AcknowledgePageErase(void)
 697:hardware/mcu/st/stm32wlxx_hal_driver/Src/stm32wlxx_hal_flash_ex.c **** {
 698:hardware/mcu/st/stm32wlxx_hal_driver/Src/stm32wlxx_hal_flash_ex.c **** #ifdef CORE_CM0PLUS
 699:hardware/mcu/st/stm32wlxx_hal_driver/Src/stm32wlxx_hal_flash_ex.c ****   CLEAR_BIT(FLASH->C2CR, (FLASH_CR_PER | FLASH_CR_PNB));
 700:hardware/mcu/st/stm32wlxx_hal_driver/Src/stm32wlxx_hal_flash_ex.c **** #else
 701:hardware/mcu/st/stm32wlxx_hal_driver/Src/stm32wlxx_hal_flash_ex.c ****   CLEAR_BIT(FLASH->CR, (FLASH_CR_PER | FLASH_CR_PNB));
 702:hardware/mcu/st/stm32wlxx_hal_driver/Src/stm32wlxx_hal_flash_ex.c **** #endif
 703:hardware/mcu/st/stm32wlxx_hal_driver/Src/stm32wlxx_hal_flash_ex.c **** }
 704:hardware/mcu/st/stm32wlxx_hal_driver/Src/stm32wlxx_hal_flash_ex.c **** 
 705:hardware/mcu/st/stm32wlxx_hal_driver/Src/stm32wlxx_hal_flash_ex.c **** /**
 706:hardware/mcu/st/stm32wlxx_hal_driver/Src/stm32wlxx_hal_flash_ex.c ****   * @brief  Configure the write protection of the desired pages.
 707:hardware/mcu/st/stm32wlxx_hal_driver/Src/stm32wlxx_hal_flash_ex.c ****   * @note   When WRP is active in a zone, it cannot be erased or programmed.
 708:hardware/mcu/st/stm32wlxx_hal_driver/Src/stm32wlxx_hal_flash_ex.c ****   *         Consequently, a software mass erase cannot be performed if one zone
 709:hardware/mcu/st/stm32wlxx_hal_driver/Src/stm32wlxx_hal_flash_ex.c ****   *         is write-protected.
 710:hardware/mcu/st/stm32wlxx_hal_driver/Src/stm32wlxx_hal_flash_ex.c ****   * @note   When the memory read protection level is selected (RDP level = 1),
 711:hardware/mcu/st/stm32wlxx_hal_driver/Src/stm32wlxx_hal_flash_ex.c ****   *         it is not possible to program or erase Flash memory if the CPU debug
 712:hardware/mcu/st/stm32wlxx_hal_driver/Src/stm32wlxx_hal_flash_ex.c ****   *         features are connected (JTAG or single wire) or boot code is being
 713:hardware/mcu/st/stm32wlxx_hal_driver/Src/stm32wlxx_hal_flash_ex.c ****   *         executed from RAM or System flash, even if WRP is not activated.
 714:hardware/mcu/st/stm32wlxx_hal_driver/Src/stm32wlxx_hal_flash_ex.c ****   * @note   To configure the WRP options, the option lock bit OPTLOCK must be
 715:hardware/mcu/st/stm32wlxx_hal_driver/Src/stm32wlxx_hal_flash_ex.c ****   *         cleared with the call of the @ref HAL_FLASH_OB_Unlock() function.
 716:hardware/mcu/st/stm32wlxx_hal_driver/Src/stm32wlxx_hal_flash_ex.c ****   * @note   To validate the WRP options, the option bytes must be reloaded
 717:hardware/mcu/st/stm32wlxx_hal_driver/Src/stm32wlxx_hal_flash_ex.c ****   *         through the call of the @ref HAL_FLASH_OB_Launch() function.
 718:hardware/mcu/st/stm32wlxx_hal_driver/Src/stm32wlxx_hal_flash_ex.c ****   * @param  WRPArea Specifies the area to be configured.
 719:hardware/mcu/st/stm32wlxx_hal_driver/Src/stm32wlxx_hal_flash_ex.c ****   *          This parameter can be one of the following values:
 720:hardware/mcu/st/stm32wlxx_hal_driver/Src/stm32wlxx_hal_flash_ex.c ****   *            @arg @ref OB_WRPAREA_BANK1_AREAA Flash Bank 1 Area A
 721:hardware/mcu/st/stm32wlxx_hal_driver/Src/stm32wlxx_hal_flash_ex.c ****   *            @arg @ref OB_WRPAREA_BANK1_AREAB Flash Bank 1 Area B
 722:hardware/mcu/st/stm32wlxx_hal_driver/Src/stm32wlxx_hal_flash_ex.c ****   * @param  WRPStartOffset Specifies the start page of the write protected area
 723:hardware/mcu/st/stm32wlxx_hal_driver/Src/stm32wlxx_hal_flash_ex.c ****   *          This parameter can be page number between 0 and (max number of pages in the Flash - 1)
 724:hardware/mcu/st/stm32wlxx_hal_driver/Src/stm32wlxx_hal_flash_ex.c ****   * @param  WRDPEndOffset Specifies the end page of the write protected area
 725:hardware/mcu/st/stm32wlxx_hal_driver/Src/stm32wlxx_hal_flash_ex.c ****   *          This parameter can be page number between WRPStartOffset and (max number of pages in t
 726:hardware/mcu/st/stm32wlxx_hal_driver/Src/stm32wlxx_hal_flash_ex.c ****   * @retval None
 727:hardware/mcu/st/stm32wlxx_hal_driver/Src/stm32wlxx_hal_flash_ex.c ****   */
 728:hardware/mcu/st/stm32wlxx_hal_driver/Src/stm32wlxx_hal_flash_ex.c **** static void FLASH_OB_WRPConfig(uint32_t WRPArea, uint32_t WRPStartOffset, uint32_t WRDPEndOffset)
 729:hardware/mcu/st/stm32wlxx_hal_driver/Src/stm32wlxx_hal_flash_ex.c **** {
 730:hardware/mcu/st/stm32wlxx_hal_driver/Src/stm32wlxx_hal_flash_ex.c ****   /* Check the parameters */
 731:hardware/mcu/st/stm32wlxx_hal_driver/Src/stm32wlxx_hal_flash_ex.c ****   assert_param(IS_OB_WRPAREA(WRPArea));
ARM GAS  /var/folders/b4/k4jbz0ms4wg23jtq0w6p483m0000gn/T//cc2bvfXO.s 			page 15


 732:hardware/mcu/st/stm32wlxx_hal_driver/Src/stm32wlxx_hal_flash_ex.c ****   assert_param(IS_FLASH_PAGE(WRPStartOffset));
 733:hardware/mcu/st/stm32wlxx_hal_driver/Src/stm32wlxx_hal_flash_ex.c ****   assert_param(IS_FLASH_PAGE(WRDPEndOffset));
 734:hardware/mcu/st/stm32wlxx_hal_driver/Src/stm32wlxx_hal_flash_ex.c **** 
 735:hardware/mcu/st/stm32wlxx_hal_driver/Src/stm32wlxx_hal_flash_ex.c ****   /* Configure the write protected area */
 736:hardware/mcu/st/stm32wlxx_hal_driver/Src/stm32wlxx_hal_flash_ex.c ****   if (WRPArea == OB_WRPAREA_BANK1_AREAA)
 737:hardware/mcu/st/stm32wlxx_hal_driver/Src/stm32wlxx_hal_flash_ex.c ****   {
 738:hardware/mcu/st/stm32wlxx_hal_driver/Src/stm32wlxx_hal_flash_ex.c ****     MODIFY_REG(FLASH->WRP1AR, (FLASH_WRP1AR_WRP1A_STRT | FLASH_WRP1AR_WRP1A_END),
  67              		.loc 1 738 5 is_stmt 0 view .LVU16
  68 001a D0E90263 		ldrd	r6, r3, [r0, #8]
  69 001e 1D04     		lsls	r5, r3, #16
 736:hardware/mcu/st/stm32wlxx_hal_driver/Src/stm32wlxx_hal_flash_ex.c ****   {
  70              		.loc 1 736 6 view .LVU17
  71 0020 4368     		ldr	r3, [r0, #4]
  72 0022 424A     		ldr	r2, .L38+4
  73 0024 002B     		cmp	r3, #0
  74 0026 4FD1     		bne	.L4
  75              		.loc 1 738 5 is_stmt 1 view .LVU18
  76 0028 D36A     		ldr	r3, [r2, #44]
  77 002a 23F07F13 		bic	r3, r3, #8323199
  78 002e 3343     		orrs	r3, r3, r6
  79 0030 2B43     		orrs	r3, r3, r5
  80 0032 D362     		str	r3, [r2, #44]
  81              	.L3:
  82              	.LBE25:
  83              	.LBE24:
 331:hardware/mcu/st/stm32wlxx_hal_driver/Src/stm32wlxx_hal_flash_ex.c ****   {
  84              		.loc 1 331 3 view .LVU19
 331:hardware/mcu/st/stm32wlxx_hal_driver/Src/stm32wlxx_hal_flash_ex.c ****   {
  85              		.loc 1 331 28 is_stmt 0 view .LVU20
  86 0034 01F00603 		and	r3, r1, #6
 331:hardware/mcu/st/stm32wlxx_hal_driver/Src/stm32wlxx_hal_flash_ex.c ****   {
  87              		.loc 1 331 6 view .LVU21
  88 0038 062B     		cmp	r3, #6
  89 003a 4CD1     		bne	.L5
 334:hardware/mcu/st/stm32wlxx_hal_driver/Src/stm32wlxx_hal_flash_ex.c ****   }
  90              		.loc 1 334 5 is_stmt 1 view .LVU22
  91              	.LVL1:
  92              	.LBB27:
  93              	.LBI27:
 739:hardware/mcu/st/stm32wlxx_hal_driver/Src/stm32wlxx_hal_flash_ex.c ****                (WRPStartOffset | (WRDPEndOffset << FLASH_WRP1AR_WRP1A_END_Pos)));
 740:hardware/mcu/st/stm32wlxx_hal_driver/Src/stm32wlxx_hal_flash_ex.c ****   }
 741:hardware/mcu/st/stm32wlxx_hal_driver/Src/stm32wlxx_hal_flash_ex.c ****   else /* OB_WRPAREA_BANK1_AREAB */
 742:hardware/mcu/st/stm32wlxx_hal_driver/Src/stm32wlxx_hal_flash_ex.c ****   {
 743:hardware/mcu/st/stm32wlxx_hal_driver/Src/stm32wlxx_hal_flash_ex.c ****     MODIFY_REG(FLASH->WRP1BR, (FLASH_WRP1BR_WRP1B_STRT | FLASH_WRP1BR_WRP1B_END),
 744:hardware/mcu/st/stm32wlxx_hal_driver/Src/stm32wlxx_hal_flash_ex.c ****                (WRPStartOffset | (WRDPEndOffset << FLASH_WRP1AR_WRP1A_END_Pos)));
 745:hardware/mcu/st/stm32wlxx_hal_driver/Src/stm32wlxx_hal_flash_ex.c ****   }
 746:hardware/mcu/st/stm32wlxx_hal_driver/Src/stm32wlxx_hal_flash_ex.c **** }
 747:hardware/mcu/st/stm32wlxx_hal_driver/Src/stm32wlxx_hal_flash_ex.c **** 
 748:hardware/mcu/st/stm32wlxx_hal_driver/Src/stm32wlxx_hal_flash_ex.c **** #if defined(DUAL_CORE) /* Comment duplicated for Document generation */
 749:hardware/mcu/st/stm32wlxx_hal_driver/Src/stm32wlxx_hal_flash_ex.c **** /**
 750:hardware/mcu/st/stm32wlxx_hal_driver/Src/stm32wlxx_hal_flash_ex.c ****   * @brief  Set user & RDP configuration
 751:hardware/mcu/st/stm32wlxx_hal_driver/Src/stm32wlxx_hal_flash_ex.c ****   * @note   !!! Warning : When enabling OB_RDP level 2 it's no more possible
 752:hardware/mcu/st/stm32wlxx_hal_driver/Src/stm32wlxx_hal_flash_ex.c ****   *         to go back to level 1 or 0 !!!
 753:hardware/mcu/st/stm32wlxx_hal_driver/Src/stm32wlxx_hal_flash_ex.c ****   * @param  UserType The FLASH User Option Bytes to be modified
 754:hardware/mcu/st/stm32wlxx_hal_driver/Src/stm32wlxx_hal_flash_ex.c ****   *         This parameter can be a combination of all the following values:
 755:hardware/mcu/st/stm32wlxx_hal_driver/Src/stm32wlxx_hal_flash_ex.c ****   *         @arg @ref OB_USER_BOR_LEV or @ref OB_USER_nRST_STOP or @ref OB_USER_nRST_STDBY or
 756:hardware/mcu/st/stm32wlxx_hal_driver/Src/stm32wlxx_hal_flash_ex.c ****   *         @arg @ref OB_USER_nRST_SHDW or @ref OB_USER_IWDG_SW or @ref OB_USER_IWDG_STOP or
ARM GAS  /var/folders/b4/k4jbz0ms4wg23jtq0w6p483m0000gn/T//cc2bvfXO.s 			page 16


 757:hardware/mcu/st/stm32wlxx_hal_driver/Src/stm32wlxx_hal_flash_ex.c ****   *         @arg @ref OB_USER_IWDG_STDBY or @ref OB_USER_WWDG_SW or @ref OB_USER_nBOOT1 or
 758:hardware/mcu/st/stm32wlxx_hal_driver/Src/stm32wlxx_hal_flash_ex.c ****   *         @arg @ref OB_USER_SRAM2_PE or @ref OB_USER_SRAM_RST or @ref OB_USER_nSWBOOT0 or
 759:hardware/mcu/st/stm32wlxx_hal_driver/Src/stm32wlxx_hal_flash_ex.c ****   *         @arg @ref OB_USER_nBOOT0 or @ref OB_USER_BOOT_LOCK or @ref OB_USER_BOOT_LOCK or @ref OB
 760:hardware/mcu/st/stm32wlxx_hal_driver/Src/stm32wlxx_hal_flash_ex.c ****   * @param  UserConfig The FLASH User Option Bytes values.
 761:hardware/mcu/st/stm32wlxx_hal_driver/Src/stm32wlxx_hal_flash_ex.c ****   *         This parameter can be a combination of all the following values:
 762:hardware/mcu/st/stm32wlxx_hal_driver/Src/stm32wlxx_hal_flash_ex.c ****   *         @arg @ref OB_BOR_LEVEL_0 or @ref OB_BOR_LEVEL_1 or ... or @ref OB_BOR_LEVEL_4
 763:hardware/mcu/st/stm32wlxx_hal_driver/Src/stm32wlxx_hal_flash_ex.c ****   *         @arg @ref OB_STOP_RST or @ref OB_STOP_NORST
 764:hardware/mcu/st/stm32wlxx_hal_driver/Src/stm32wlxx_hal_flash_ex.c ****   *         @arg @ref OB_STANDBY_RST or @ref OB_STANDBY_NORST
 765:hardware/mcu/st/stm32wlxx_hal_driver/Src/stm32wlxx_hal_flash_ex.c ****   *         @arg @ref OB_SHUTDOWN_RST or @ref OB_SHUTDOWN_NORST
 766:hardware/mcu/st/stm32wlxx_hal_driver/Src/stm32wlxx_hal_flash_ex.c ****   *         @arg @ref OB_IWDG_SW or @ref OB_IWDG_HW
 767:hardware/mcu/st/stm32wlxx_hal_driver/Src/stm32wlxx_hal_flash_ex.c ****   *         @arg @ref OB_IWDG_STOP_FREEZE or @ref OB_IWDG_STOP_RUN
 768:hardware/mcu/st/stm32wlxx_hal_driver/Src/stm32wlxx_hal_flash_ex.c ****   *         @arg @ref OB_IWDG_STDBY_FREEZE or @ref OB_IWDG_STDBY_RUN
 769:hardware/mcu/st/stm32wlxx_hal_driver/Src/stm32wlxx_hal_flash_ex.c ****   *         @arg @ref OB_WWDG_SW or @ref OB_WWDG_HW
 770:hardware/mcu/st/stm32wlxx_hal_driver/Src/stm32wlxx_hal_flash_ex.c ****   *         @arg @ref OB_BOOT1_RESET or @ref OB_BOOT1_SET
 771:hardware/mcu/st/stm32wlxx_hal_driver/Src/stm32wlxx_hal_flash_ex.c ****   *         @arg @ref OB_SRAM2_PARITY_ENABLE or @ref OB_SRAM2_PARITY_DISABLE
 772:hardware/mcu/st/stm32wlxx_hal_driver/Src/stm32wlxx_hal_flash_ex.c ****   *         @arg @ref OB_SRAM_RST_ERASE or @ref OB_SRAM_RST_NOT_ERASE
 773:hardware/mcu/st/stm32wlxx_hal_driver/Src/stm32wlxx_hal_flash_ex.c ****   *         @arg @ref OB_BOOT0_FROM_OB or @ref OB_BOOT0_FROM_PIN
 774:hardware/mcu/st/stm32wlxx_hal_driver/Src/stm32wlxx_hal_flash_ex.c ****   *         @arg @ref OB_BOOT0_RESET or @ref OB_BOOT0_SET
 775:hardware/mcu/st/stm32wlxx_hal_driver/Src/stm32wlxx_hal_flash_ex.c ****   *         @arg @ref OB_BOOT_LOCK_DISABLE or @ref OB_BOOT_LOCK_ENABLE
 776:hardware/mcu/st/stm32wlxx_hal_driver/Src/stm32wlxx_hal_flash_ex.c ****   *         @arg @ref OB_C2BOOT_LOCK_DISABLE or @ref OB_C2BOOT_LOCK_ENABLE
 777:hardware/mcu/st/stm32wlxx_hal_driver/Src/stm32wlxx_hal_flash_ex.c ****   * @param  RDPLevel: specifies the read protection level.
 778:hardware/mcu/st/stm32wlxx_hal_driver/Src/stm32wlxx_hal_flash_ex.c ****   *         This parameter can be one of the following values:
 779:hardware/mcu/st/stm32wlxx_hal_driver/Src/stm32wlxx_hal_flash_ex.c ****   *            @arg @ref OB_RDP_LEVEL_0 No protection
 780:hardware/mcu/st/stm32wlxx_hal_driver/Src/stm32wlxx_hal_flash_ex.c ****   *            @arg @ref OB_RDP_LEVEL_1 Read protection of the memory
 781:hardware/mcu/st/stm32wlxx_hal_driver/Src/stm32wlxx_hal_flash_ex.c ****   *            @arg @ref OB_RDP_LEVEL_2 Full chip protection
 782:hardware/mcu/st/stm32wlxx_hal_driver/Src/stm32wlxx_hal_flash_ex.c ****   * @retval None
 783:hardware/mcu/st/stm32wlxx_hal_driver/Src/stm32wlxx_hal_flash_ex.c ****   */
 784:hardware/mcu/st/stm32wlxx_hal_driver/Src/stm32wlxx_hal_flash_ex.c **** #else
 785:hardware/mcu/st/stm32wlxx_hal_driver/Src/stm32wlxx_hal_flash_ex.c **** /**
 786:hardware/mcu/st/stm32wlxx_hal_driver/Src/stm32wlxx_hal_flash_ex.c ****   * @brief  Set user & RDP configuration
 787:hardware/mcu/st/stm32wlxx_hal_driver/Src/stm32wlxx_hal_flash_ex.c ****   * @note   !!! Warning : When enabling OB_RDP level 2 it's no more possible
 788:hardware/mcu/st/stm32wlxx_hal_driver/Src/stm32wlxx_hal_flash_ex.c ****   *         to go back to level 1 or 0 !!!
 789:hardware/mcu/st/stm32wlxx_hal_driver/Src/stm32wlxx_hal_flash_ex.c ****   * @param  UserType The FLASH User Option Bytes to be modified
 790:hardware/mcu/st/stm32wlxx_hal_driver/Src/stm32wlxx_hal_flash_ex.c ****   *         This parameter can be a combination of all the following values:
 791:hardware/mcu/st/stm32wlxx_hal_driver/Src/stm32wlxx_hal_flash_ex.c ****   *         @arg @ref OB_USER_BOR_LEV or @ref OB_USER_nRST_STOP or @ref OB_USER_nRST_STDBY or
 792:hardware/mcu/st/stm32wlxx_hal_driver/Src/stm32wlxx_hal_flash_ex.c ****   *         @arg @ref OB_USER_nRST_SHDW or @ref OB_USER_IWDG_SW or @ref OB_USER_IWDG_STOP or
 793:hardware/mcu/st/stm32wlxx_hal_driver/Src/stm32wlxx_hal_flash_ex.c ****   *         @arg @ref OB_USER_IWDG_STDBY or @ref OB_USER_WWDG_SW or @ref OB_USER_nBOOT1 or
 794:hardware/mcu/st/stm32wlxx_hal_driver/Src/stm32wlxx_hal_flash_ex.c ****   *         @arg @ref OB_USER_SRAM2_PE or @ref OB_USER_SRAM_RST or @ref OB_USER_nSWBOOT0 or
 795:hardware/mcu/st/stm32wlxx_hal_driver/Src/stm32wlxx_hal_flash_ex.c ****   *         @arg @ref OB_USER_nBOOT0 or @ref OB_USER_BOOT_LOCK or @ref OB_USER_BOOT_LOCK or @ref OB
 796:hardware/mcu/st/stm32wlxx_hal_driver/Src/stm32wlxx_hal_flash_ex.c ****   * @param  UserConfig The FLASH User Option Bytes values.
 797:hardware/mcu/st/stm32wlxx_hal_driver/Src/stm32wlxx_hal_flash_ex.c ****   *         This parameter can be a combination of all the following values:
 798:hardware/mcu/st/stm32wlxx_hal_driver/Src/stm32wlxx_hal_flash_ex.c ****   *         @arg @ref OB_BOR_LEVEL_0 or @ref OB_BOR_LEVEL_1 or ... or @ref OB_BOR_LEVEL_4
 799:hardware/mcu/st/stm32wlxx_hal_driver/Src/stm32wlxx_hal_flash_ex.c ****   *         @arg @ref OB_STOP_RST or @ref OB_STOP_NORST
 800:hardware/mcu/st/stm32wlxx_hal_driver/Src/stm32wlxx_hal_flash_ex.c ****   *         @arg @ref OB_STANDBY_RST or @ref OB_STANDBY_NORST
 801:hardware/mcu/st/stm32wlxx_hal_driver/Src/stm32wlxx_hal_flash_ex.c ****   *         @arg @ref OB_SHUTDOWN_RST or @ref OB_SHUTDOWN_NORST
 802:hardware/mcu/st/stm32wlxx_hal_driver/Src/stm32wlxx_hal_flash_ex.c ****   *         @arg @ref OB_IWDG_SW or @ref OB_IWDG_HW
 803:hardware/mcu/st/stm32wlxx_hal_driver/Src/stm32wlxx_hal_flash_ex.c ****   *         @arg @ref OB_IWDG_STOP_FREEZE or @ref OB_IWDG_STOP_RUN
 804:hardware/mcu/st/stm32wlxx_hal_driver/Src/stm32wlxx_hal_flash_ex.c ****   *         @arg @ref OB_IWDG_STDBY_FREEZE or @ref OB_IWDG_STDBY_RUN
 805:hardware/mcu/st/stm32wlxx_hal_driver/Src/stm32wlxx_hal_flash_ex.c ****   *         @arg @ref OB_WWDG_SW or @ref OB_WWDG_HW
 806:hardware/mcu/st/stm32wlxx_hal_driver/Src/stm32wlxx_hal_flash_ex.c ****   *         @arg @ref OB_BOOT1_RESET or @ref OB_BOOT1_SET
 807:hardware/mcu/st/stm32wlxx_hal_driver/Src/stm32wlxx_hal_flash_ex.c ****   *         @arg @ref OB_SRAM2_PARITY_ENABLE or @ref OB_SRAM2_PARITY_DISABLE
 808:hardware/mcu/st/stm32wlxx_hal_driver/Src/stm32wlxx_hal_flash_ex.c ****   *         @arg @ref OB_SRAM_RST_ERASE or @ref OB_SRAM_RST_NOT_ERASE
 809:hardware/mcu/st/stm32wlxx_hal_driver/Src/stm32wlxx_hal_flash_ex.c ****   *         @arg @ref OB_BOOT0_FROM_OB or @ref OB_BOOT0_FROM_PIN
 810:hardware/mcu/st/stm32wlxx_hal_driver/Src/stm32wlxx_hal_flash_ex.c ****   *         @arg @ref OB_BOOT0_RESET or @ref OB_BOOT0_SET
 811:hardware/mcu/st/stm32wlxx_hal_driver/Src/stm32wlxx_hal_flash_ex.c ****   *         @arg @ref OB_BOOT_LOCK_DISABLE or @ref OB_BOOT_LOCK_ENABLE
 812:hardware/mcu/st/stm32wlxx_hal_driver/Src/stm32wlxx_hal_flash_ex.c ****   * @param  RDPLevel: specifies the read protection level.
 813:hardware/mcu/st/stm32wlxx_hal_driver/Src/stm32wlxx_hal_flash_ex.c ****   *         This parameter can be one of the following values:
ARM GAS  /var/folders/b4/k4jbz0ms4wg23jtq0w6p483m0000gn/T//cc2bvfXO.s 			page 17


 814:hardware/mcu/st/stm32wlxx_hal_driver/Src/stm32wlxx_hal_flash_ex.c ****   *            @arg @ref OB_RDP_LEVEL_0 No protection
 815:hardware/mcu/st/stm32wlxx_hal_driver/Src/stm32wlxx_hal_flash_ex.c ****   *            @arg @ref OB_RDP_LEVEL_1 Read protection of the memory
 816:hardware/mcu/st/stm32wlxx_hal_driver/Src/stm32wlxx_hal_flash_ex.c ****   *            @arg @ref OB_RDP_LEVEL_2 Full chip protection
 817:hardware/mcu/st/stm32wlxx_hal_driver/Src/stm32wlxx_hal_flash_ex.c ****   * @retval None
 818:hardware/mcu/st/stm32wlxx_hal_driver/Src/stm32wlxx_hal_flash_ex.c ****   */
 819:hardware/mcu/st/stm32wlxx_hal_driver/Src/stm32wlxx_hal_flash_ex.c **** #endif
 820:hardware/mcu/st/stm32wlxx_hal_driver/Src/stm32wlxx_hal_flash_ex.c **** static void FLASH_OB_OptrConfig(uint32_t UserType, uint32_t UserConfig, uint32_t RDPLevel)
  94              		.loc 1 820 13 view .LVU23
  95              	.LBB28:
 821:hardware/mcu/st/stm32wlxx_hal_driver/Src/stm32wlxx_hal_flash_ex.c **** {
 822:hardware/mcu/st/stm32wlxx_hal_driver/Src/stm32wlxx_hal_flash_ex.c ****   uint32_t optr;
  96              		.loc 1 822 3 view .LVU24
 823:hardware/mcu/st/stm32wlxx_hal_driver/Src/stm32wlxx_hal_flash_ex.c **** 
 824:hardware/mcu/st/stm32wlxx_hal_driver/Src/stm32wlxx_hal_flash_ex.c ****   /* Check the parameters */
 825:hardware/mcu/st/stm32wlxx_hal_driver/Src/stm32wlxx_hal_flash_ex.c ****   assert_param(IS_OB_USER_TYPE(UserType));
  97              		.loc 1 825 3 view .LVU25
 826:hardware/mcu/st/stm32wlxx_hal_driver/Src/stm32wlxx_hal_flash_ex.c ****   assert_param(IS_OB_USER_CONFIG(UserType, UserConfig));
  98              		.loc 1 826 3 view .LVU26
 827:hardware/mcu/st/stm32wlxx_hal_driver/Src/stm32wlxx_hal_flash_ex.c ****   assert_param(IS_OB_RDP_LEVEL(RDPLevel));
  99              		.loc 1 827 3 view .LVU27
 828:hardware/mcu/st/stm32wlxx_hal_driver/Src/stm32wlxx_hal_flash_ex.c **** 
 829:hardware/mcu/st/stm32wlxx_hal_driver/Src/stm32wlxx_hal_flash_ex.c ****   /* Configure the RDP level in the option bytes register */
 830:hardware/mcu/st/stm32wlxx_hal_driver/Src/stm32wlxx_hal_flash_ex.c ****   optr = FLASH->OPTR;
 100              		.loc 1 830 3 view .LVU28
 101              		.loc 1 830 8 is_stmt 0 view .LVU29
 102 003c 3B4D     		ldr	r5, .L38+4
 831:hardware/mcu/st/stm32wlxx_hal_driver/Src/stm32wlxx_hal_flash_ex.c ****   optr &= ~(UserType | FLASH_OPTR_RDP);
 103              		.loc 1 831 22 view .LVU30
 104 003e 4269     		ldr	r2, [r0, #20]
 830:hardware/mcu/st/stm32wlxx_hal_driver/Src/stm32wlxx_hal_flash_ex.c ****   optr &= ~(UserType | FLASH_OPTR_RDP);
 105              		.loc 1 830 8 view .LVU31
 106 0040 2B6A     		ldr	r3, [r5, #32]
 107              	.LVL2:
 108              		.loc 1 831 3 is_stmt 1 view .LVU32
 832:hardware/mcu/st/stm32wlxx_hal_driver/Src/stm32wlxx_hal_flash_ex.c ****   FLASH->OPTR = (optr | UserConfig | RDPLevel);
 109              		.loc 1 832 3 view .LVU33
 110              		.loc 1 832 36 is_stmt 0 view .LVU34
 111 0042 0669     		ldr	r6, [r0, #16]
 831:hardware/mcu/st/stm32wlxx_hal_driver/Src/stm32wlxx_hal_flash_ex.c ****   optr &= ~(UserType | FLASH_OPTR_RDP);
 112              		.loc 1 831 22 view .LVU35
 113 0044 42F0FF02 		orr	r2, r2, #255
 831:hardware/mcu/st/stm32wlxx_hal_driver/Src/stm32wlxx_hal_flash_ex.c ****   optr &= ~(UserType | FLASH_OPTR_RDP);
 114              		.loc 1 831 8 view .LVU36
 115 0048 23EA0203 		bic	r3, r3, r2
 116              	.LVL3:
 117              		.loc 1 832 36 view .LVU37
 118 004c 8269     		ldr	r2, [r0, #24]
 119 004e 3243     		orrs	r2, r2, r6
 120              	.LVL4:
 121              	.L36:
 122              		.loc 1 832 36 view .LVU38
 123              	.LBE28:
 124              	.LBE27:
 125              	.LBB29:
 126              	.LBB30:
 127 0050 1343     		orrs	r3, r3, r2
 128              		.loc 1 832 15 view .LVU39
ARM GAS  /var/folders/b4/k4jbz0ms4wg23jtq0w6p483m0000gn/T//cc2bvfXO.s 			page 18


 129 0052 2B62     		str	r3, [r5, #32]
 130              	.L6:
 131              	.LBE30:
 132              	.LBE29:
 355:hardware/mcu/st/stm32wlxx_hal_driver/Src/stm32wlxx_hal_flash_ex.c **** 
 133              		.loc 1 355 3 is_stmt 1 view .LVU40
 358:hardware/mcu/st/stm32wlxx_hal_driver/Src/stm32wlxx_hal_flash_ex.c ****   {
 134              		.loc 1 358 3 view .LVU41
 358:hardware/mcu/st/stm32wlxx_hal_driver/Src/stm32wlxx_hal_flash_ex.c ****   {
 135              		.loc 1 358 6 is_stmt 0 view .LVU42
 136 0054 0907     		lsls	r1, r1, #28
 137 0056 26D5     		bpl	.L10
 361:hardware/mcu/st/stm32wlxx_hal_driver/Src/stm32wlxx_hal_flash_ex.c **** 
 138              		.loc 1 361 5 is_stmt 1 view .LVU43
 363:hardware/mcu/st/stm32wlxx_hal_driver/Src/stm32wlxx_hal_flash_ex.c ****     {
 139              		.loc 1 363 5 view .LVU44
 363:hardware/mcu/st/stm32wlxx_hal_driver/Src/stm32wlxx_hal_flash_ex.c ****     {
 140              		.loc 1 363 17 is_stmt 0 view .LVU45
 141 0058 C169     		ldr	r1, [r0, #28]
 363:hardware/mcu/st/stm32wlxx_hal_driver/Src/stm32wlxx_hal_flash_ex.c ****     {
 142              		.loc 1 363 8 view .LVU46
 143 005a 354B     		ldr	r3, .L38+8
 144 005c 1942     		tst	r1, r3
 145 005e 15D0     		beq	.L11
 366:hardware/mcu/st/stm32wlxx_hal_driver/Src/stm32wlxx_hal_flash_ex.c ****     }
 146              		.loc 1 366 7 is_stmt 1 view .LVU47
 147              	.LVL5:
 148              	.LBB33:
 149              	.LBI33:
 833:hardware/mcu/st/stm32wlxx_hal_driver/Src/stm32wlxx_hal_flash_ex.c **** }
 834:hardware/mcu/st/stm32wlxx_hal_driver/Src/stm32wlxx_hal_flash_ex.c **** 
 835:hardware/mcu/st/stm32wlxx_hal_driver/Src/stm32wlxx_hal_flash_ex.c **** /**
 836:hardware/mcu/st/stm32wlxx_hal_driver/Src/stm32wlxx_hal_flash_ex.c ****   * @brief  Configure the Zone 1A Proprietary code readout protection of the desired addresses,
 837:hardware/mcu/st/stm32wlxx_hal_driver/Src/stm32wlxx_hal_flash_ex.c ****   *         and erase configuration on RDP regression.
 838:hardware/mcu/st/stm32wlxx_hal_driver/Src/stm32wlxx_hal_flash_ex.c ****   * @note   To configure the PCROP options, the option lock bit OPTLOCK must be
 839:hardware/mcu/st/stm32wlxx_hal_driver/Src/stm32wlxx_hal_flash_ex.c ****   *         cleared with the call of the @ref HAL_FLASH_OB_Unlock() function.
 840:hardware/mcu/st/stm32wlxx_hal_driver/Src/stm32wlxx_hal_flash_ex.c ****   * @note   To validate the PCROP options, the option bytes must be reloaded
 841:hardware/mcu/st/stm32wlxx_hal_driver/Src/stm32wlxx_hal_flash_ex.c ****   *         through the call of the @ref HAL_FLASH_OB_Launch() function.
 842:hardware/mcu/st/stm32wlxx_hal_driver/Src/stm32wlxx_hal_flash_ex.c ****   * @param  PCROPConfig: specifies the erase configuration (OB_PCROP_RDP_NOT_ERASE or OB_PCROP_RDP_
 843:hardware/mcu/st/stm32wlxx_hal_driver/Src/stm32wlxx_hal_flash_ex.c ****   *         on RDP level 1 regression.
 844:hardware/mcu/st/stm32wlxx_hal_driver/Src/stm32wlxx_hal_flash_ex.c ****   * @param  PCROP1AStartAddr Specifies the Zone 1A Start address of the Proprietary code readout pr
 845:hardware/mcu/st/stm32wlxx_hal_driver/Src/stm32wlxx_hal_flash_ex.c ****   *         This parameter can be an address between begin and end of the flash
 846:hardware/mcu/st/stm32wlxx_hal_driver/Src/stm32wlxx_hal_flash_ex.c ****   * @param  PCROP1AEndAddr Specifies the Zone 1A end address of the Proprietary code readout protec
 847:hardware/mcu/st/stm32wlxx_hal_driver/Src/stm32wlxx_hal_flash_ex.c ****   *         This parameter can be an address between PCROP1AStartAddr and end of the flash
 848:hardware/mcu/st/stm32wlxx_hal_driver/Src/stm32wlxx_hal_flash_ex.c ****   * @retval None
 849:hardware/mcu/st/stm32wlxx_hal_driver/Src/stm32wlxx_hal_flash_ex.c ****   */
 850:hardware/mcu/st/stm32wlxx_hal_driver/Src/stm32wlxx_hal_flash_ex.c **** static void FLASH_OB_PCROP1AConfig(uint32_t PCROPConfig, uint32_t PCROP1AStartAddr, uint32_t PCROP1
 150              		.loc 1 850 13 view .LVU48
 151              	.LBB34:
 851:hardware/mcu/st/stm32wlxx_hal_driver/Src/stm32wlxx_hal_flash_ex.c **** {
 852:hardware/mcu/st/stm32wlxx_hal_driver/Src/stm32wlxx_hal_flash_ex.c ****   uint32_t startoffset;
 152              		.loc 1 852 3 view .LVU49
 853:hardware/mcu/st/stm32wlxx_hal_driver/Src/stm32wlxx_hal_flash_ex.c ****   uint32_t endoffset;
 153              		.loc 1 853 3 view .LVU50
 854:hardware/mcu/st/stm32wlxx_hal_driver/Src/stm32wlxx_hal_flash_ex.c ****   uint32_t pcrop1aend;
 154              		.loc 1 854 3 view .LVU51
 855:hardware/mcu/st/stm32wlxx_hal_driver/Src/stm32wlxx_hal_flash_ex.c **** 
ARM GAS  /var/folders/b4/k4jbz0ms4wg23jtq0w6p483m0000gn/T//cc2bvfXO.s 			page 19


 856:hardware/mcu/st/stm32wlxx_hal_driver/Src/stm32wlxx_hal_flash_ex.c ****   /* Check the parameters */
 857:hardware/mcu/st/stm32wlxx_hal_driver/Src/stm32wlxx_hal_flash_ex.c ****   assert_param(IS_OB_PCROP_CONFIG(PCROPConfig));
 155              		.loc 1 857 3 view .LVU52
 858:hardware/mcu/st/stm32wlxx_hal_driver/Src/stm32wlxx_hal_flash_ex.c ****   assert_param(IS_FLASH_MAIN_MEM_ADDRESS(PCROP1AStartAddr));
 156              		.loc 1 858 3 view .LVU53
 859:hardware/mcu/st/stm32wlxx_hal_driver/Src/stm32wlxx_hal_flash_ex.c ****   assert_param(IS_FLASH_MAIN_MEM_ADDRESS(PCROP1AEndAddr));
 157              		.loc 1 859 3 view .LVU54
 860:hardware/mcu/st/stm32wlxx_hal_driver/Src/stm32wlxx_hal_flash_ex.c **** 
 861:hardware/mcu/st/stm32wlxx_hal_driver/Src/stm32wlxx_hal_flash_ex.c ****   /* get pcrop 1A end register */
 862:hardware/mcu/st/stm32wlxx_hal_driver/Src/stm32wlxx_hal_flash_ex.c ****   pcrop1aend = FLASH->PCROP1AER;
 158              		.loc 1 862 3 view .LVU55
 159              		.loc 1 862 14 is_stmt 0 view .LVU56
 160 0060 324E     		ldr	r6, .L38+4
 863:hardware/mcu/st/stm32wlxx_hal_driver/Src/stm32wlxx_hal_flash_ex.c **** 
 864:hardware/mcu/st/stm32wlxx_hal_driver/Src/stm32wlxx_hal_flash_ex.c ****   /* Configure the Proprietary code readout protection offset */
 865:hardware/mcu/st/stm32wlxx_hal_driver/Src/stm32wlxx_hal_flash_ex.c ****   if ((PCROPConfig & OB_PCROP_ZONE_A) != 0U)
 161              		.loc 1 865 6 view .LVU57
 162 0062 CA07     		lsls	r2, r1, #31
 862:hardware/mcu/st/stm32wlxx_hal_driver/Src/stm32wlxx_hal_flash_ex.c **** 
 163              		.loc 1 862 14 view .LVU58
 164 0064 B36A     		ldr	r3, [r6, #40]
 165              	.LVL6:
 166              		.loc 1 865 3 is_stmt 1 view .LVU59
 167              		.loc 1 865 6 is_stmt 0 view .LVU60
 168 0066 0BD5     		bpl	.L12
 866:hardware/mcu/st/stm32wlxx_hal_driver/Src/stm32wlxx_hal_flash_ex.c ****   {
 867:hardware/mcu/st/stm32wlxx_hal_driver/Src/stm32wlxx_hal_flash_ex.c ****     /* Compute offset depending on pcrop granularity */
 868:hardware/mcu/st/stm32wlxx_hal_driver/Src/stm32wlxx_hal_flash_ex.c ****     startoffset = ((PCROP1AStartAddr - FLASH_BASE) >> FLASH_PCROP_GRANULARITY_OFFSET); /* 2K pages 
 169              		.loc 1 868 5 is_stmt 1 view .LVU61
 170              		.loc 1 868 38 is_stmt 0 view .LVU62
 171 0068 026A     		ldr	r2, [r0, #32]
 869:hardware/mcu/st/stm32wlxx_hal_driver/Src/stm32wlxx_hal_flash_ex.c ****     endoffset = ((PCROP1AEndAddr - FLASH_BASE) >> FLASH_PCROP_GRANULARITY_OFFSET); /* 2K pages */
 172              		.loc 1 869 34 view .LVU63
 173 006a 456A     		ldr	r5, [r0, #36]
 868:hardware/mcu/st/stm32wlxx_hal_driver/Src/stm32wlxx_hal_flash_ex.c ****     endoffset = ((PCROP1AEndAddr - FLASH_BASE) >> FLASH_PCROP_GRANULARITY_OFFSET); /* 2K pages */
 174              		.loc 1 868 38 view .LVU64
 175 006c 02F17842 		add	r2, r2, #-134217728
 868:hardware/mcu/st/stm32wlxx_hal_driver/Src/stm32wlxx_hal_flash_ex.c ****     endoffset = ((PCROP1AEndAddr - FLASH_BASE) >> FLASH_PCROP_GRANULARITY_OFFSET); /* 2K pages */
 176              		.loc 1 868 17 view .LVU65
 177 0070 920A     		lsrs	r2, r2, #10
 178              	.LVL7:
 179              		.loc 1 869 5 is_stmt 1 view .LVU66
 180              		.loc 1 869 34 is_stmt 0 view .LVU67
 181 0072 05F17845 		add	r5, r5, #-134217728
 182              	.LVL8:
 870:hardware/mcu/st/stm32wlxx_hal_driver/Src/stm32wlxx_hal_flash_ex.c **** 
 871:hardware/mcu/st/stm32wlxx_hal_driver/Src/stm32wlxx_hal_flash_ex.c ****     /* Set Zone A start offset */
 872:hardware/mcu/st/stm32wlxx_hal_driver/Src/stm32wlxx_hal_flash_ex.c ****     WRITE_REG(FLASH->PCROP1ASR, startoffset);
 183              		.loc 1 872 5 is_stmt 1 view .LVU68
 873:hardware/mcu/st/stm32wlxx_hal_driver/Src/stm32wlxx_hal_flash_ex.c **** 
 874:hardware/mcu/st/stm32wlxx_hal_driver/Src/stm32wlxx_hal_flash_ex.c ****     /* Set Zone A end offset */
 875:hardware/mcu/st/stm32wlxx_hal_driver/Src/stm32wlxx_hal_flash_ex.c ****     pcrop1aend &= ~FLASH_PCROP1AER_PCROP1A_END;
 184              		.loc 1 875 16 is_stmt 0 view .LVU69
 185 0076 23F0FF03 		bic	r3, r3, #255
 186              	.LVL9:
 872:hardware/mcu/st/stm32wlxx_hal_driver/Src/stm32wlxx_hal_flash_ex.c **** 
 187              		.loc 1 872 5 view .LVU70
ARM GAS  /var/folders/b4/k4jbz0ms4wg23jtq0w6p483m0000gn/T//cc2bvfXO.s 			page 20


 188 007a 7262     		str	r2, [r6, #36]
 189              	.LVL10:
 190              		.loc 1 875 5 is_stmt 1 view .LVU71
 876:hardware/mcu/st/stm32wlxx_hal_driver/Src/stm32wlxx_hal_flash_ex.c ****     pcrop1aend |= endoffset;
 191              		.loc 1 876 5 view .LVU72
 192              		.loc 1 876 16 is_stmt 0 view .LVU73
 193 007c 43EA9523 		orr	r3, r3, r5, lsr #10
 194              	.LVL11:
 195              	.L12:
 877:hardware/mcu/st/stm32wlxx_hal_driver/Src/stm32wlxx_hal_flash_ex.c ****   }
 878:hardware/mcu/st/stm32wlxx_hal_driver/Src/stm32wlxx_hal_flash_ex.c **** 
 879:hardware/mcu/st/stm32wlxx_hal_driver/Src/stm32wlxx_hal_flash_ex.c ****   /* Set RDP erase protection if needed. This bit is only set & will be reset by mass erase */
 880:hardware/mcu/st/stm32wlxx_hal_driver/Src/stm32wlxx_hal_flash_ex.c ****   if ((PCROPConfig & OB_PCROP_RDP_ERASE) != 0U)
 196              		.loc 1 880 3 is_stmt 1 view .LVU74
 881:hardware/mcu/st/stm32wlxx_hal_driver/Src/stm32wlxx_hal_flash_ex.c ****   {
 882:hardware/mcu/st/stm32wlxx_hal_driver/Src/stm32wlxx_hal_flash_ex.c ****     pcrop1aend |= FLASH_PCROP1AER_PCROP_RDP;
 883:hardware/mcu/st/stm32wlxx_hal_driver/Src/stm32wlxx_hal_flash_ex.c ****   }
 884:hardware/mcu/st/stm32wlxx_hal_driver/Src/stm32wlxx_hal_flash_ex.c **** 
 885:hardware/mcu/st/stm32wlxx_hal_driver/Src/stm32wlxx_hal_flash_ex.c ****   /* set 1A End register */
 886:hardware/mcu/st/stm32wlxx_hal_driver/Src/stm32wlxx_hal_flash_ex.c ****   WRITE_REG(FLASH->PCROP1AER, pcrop1aend);
 197              		.loc 1 886 3 is_stmt 0 view .LVU75
 198 0080 2A4A     		ldr	r2, .L38+4
 880:hardware/mcu/st/stm32wlxx_hal_driver/Src/stm32wlxx_hal_flash_ex.c ****   {
 199              		.loc 1 880 6 view .LVU76
 200 0082 0029     		cmp	r1, #0
 882:hardware/mcu/st/stm32wlxx_hal_driver/Src/stm32wlxx_hal_flash_ex.c ****   }
 201              		.loc 1 882 5 is_stmt 1 view .LVU77
 882:hardware/mcu/st/stm32wlxx_hal_driver/Src/stm32wlxx_hal_flash_ex.c ****   }
 202              		.loc 1 882 16 is_stmt 0 view .LVU78
 203 0084 B8BF     		it	lt
 204 0086 43F00043 		orrlt	r3, r3, #-2147483648
 205              	.LVL12:
 206              		.loc 1 886 3 is_stmt 1 view .LVU79
 207 008a 9362     		str	r3, [r2, #40]
 208              	.LVL13:
 209              	.L11:
 210              		.loc 1 886 3 is_stmt 0 view .LVU80
 211              	.LBE34:
 212              	.LBE33:
 369:hardware/mcu/st/stm32wlxx_hal_driver/Src/stm32wlxx_hal_flash_ex.c ****     {
 213              		.loc 1 369 5 is_stmt 1 view .LVU81
 369:hardware/mcu/st/stm32wlxx_hal_driver/Src/stm32wlxx_hal_flash_ex.c ****     {
 214              		.loc 1 369 8 is_stmt 0 view .LVU82
 215 008c 8B07     		lsls	r3, r1, #30
 216 008e 0AD5     		bpl	.L10
 372:hardware/mcu/st/stm32wlxx_hal_driver/Src/stm32wlxx_hal_flash_ex.c ****     }
 217              		.loc 1 372 7 is_stmt 1 view .LVU83
 218              	.LVL14:
 219              	.LBB35:
 220              	.LBI35:
 887:hardware/mcu/st/stm32wlxx_hal_driver/Src/stm32wlxx_hal_flash_ex.c **** }
 888:hardware/mcu/st/stm32wlxx_hal_driver/Src/stm32wlxx_hal_flash_ex.c **** 
 889:hardware/mcu/st/stm32wlxx_hal_driver/Src/stm32wlxx_hal_flash_ex.c **** /**
 890:hardware/mcu/st/stm32wlxx_hal_driver/Src/stm32wlxx_hal_flash_ex.c ****   * @brief  Configure the Zone 1B Proprietary code readout protection of the desired addresses.
 891:hardware/mcu/st/stm32wlxx_hal_driver/Src/stm32wlxx_hal_flash_ex.c ****   * @note   To configure the PCROP options, the option lock bit OPTLOCK must be
 892:hardware/mcu/st/stm32wlxx_hal_driver/Src/stm32wlxx_hal_flash_ex.c ****   *         cleared with the call of the @ref HAL_FLASH_OB_Unlock() function.
 893:hardware/mcu/st/stm32wlxx_hal_driver/Src/stm32wlxx_hal_flash_ex.c ****   * @note   To validate the PCROP options, the option bytes must be reloaded
ARM GAS  /var/folders/b4/k4jbz0ms4wg23jtq0w6p483m0000gn/T//cc2bvfXO.s 			page 21


 894:hardware/mcu/st/stm32wlxx_hal_driver/Src/stm32wlxx_hal_flash_ex.c ****   *         through the call of the @ref HAL_FLASH_OB_Launch() function.
 895:hardware/mcu/st/stm32wlxx_hal_driver/Src/stm32wlxx_hal_flash_ex.c ****   * @param  PCROP1BStartAddr Specifies the Zone 1B Start address of the Proprietary code readout pr
 896:hardware/mcu/st/stm32wlxx_hal_driver/Src/stm32wlxx_hal_flash_ex.c ****   *         This parameter can be an address between begin and end of the flash
 897:hardware/mcu/st/stm32wlxx_hal_driver/Src/stm32wlxx_hal_flash_ex.c ****   * @param  PCROP1BEndAddr Specifies the Zone 1B end address of the Proprietary code readout protec
 898:hardware/mcu/st/stm32wlxx_hal_driver/Src/stm32wlxx_hal_flash_ex.c ****   *         This parameter can be an address between PCROP1BStartAddr and end of the flash
 899:hardware/mcu/st/stm32wlxx_hal_driver/Src/stm32wlxx_hal_flash_ex.c ****   * @retval None
 900:hardware/mcu/st/stm32wlxx_hal_driver/Src/stm32wlxx_hal_flash_ex.c ****   */
 901:hardware/mcu/st/stm32wlxx_hal_driver/Src/stm32wlxx_hal_flash_ex.c **** static void FLASH_OB_PCROP1BConfig(uint32_t PCROP1BStartAddr, uint32_t PCROP1BEndAddr)
 221              		.loc 1 901 13 view .LVU84
 222              	.LBB36:
 902:hardware/mcu/st/stm32wlxx_hal_driver/Src/stm32wlxx_hal_flash_ex.c **** {
 903:hardware/mcu/st/stm32wlxx_hal_driver/Src/stm32wlxx_hal_flash_ex.c ****   uint32_t startoffset;
 223              		.loc 1 903 3 view .LVU85
 904:hardware/mcu/st/stm32wlxx_hal_driver/Src/stm32wlxx_hal_flash_ex.c ****   uint32_t endoffset;
 224              		.loc 1 904 3 view .LVU86
 905:hardware/mcu/st/stm32wlxx_hal_driver/Src/stm32wlxx_hal_flash_ex.c **** 
 906:hardware/mcu/st/stm32wlxx_hal_driver/Src/stm32wlxx_hal_flash_ex.c ****   /* Check the parameters */
 907:hardware/mcu/st/stm32wlxx_hal_driver/Src/stm32wlxx_hal_flash_ex.c ****   assert_param(IS_FLASH_MAIN_MEM_ADDRESS(PCROP1BStartAddr));
 225              		.loc 1 907 3 view .LVU87
 908:hardware/mcu/st/stm32wlxx_hal_driver/Src/stm32wlxx_hal_flash_ex.c ****   assert_param(IS_FLASH_MAIN_MEM_ADDRESS(PCROP1BEndAddr));
 226              		.loc 1 908 3 view .LVU88
 909:hardware/mcu/st/stm32wlxx_hal_driver/Src/stm32wlxx_hal_flash_ex.c **** 
 910:hardware/mcu/st/stm32wlxx_hal_driver/Src/stm32wlxx_hal_flash_ex.c ****   /* Compute offset depending on pcrop granularity */
 911:hardware/mcu/st/stm32wlxx_hal_driver/Src/stm32wlxx_hal_flash_ex.c ****   startoffset = ((PCROP1BStartAddr - FLASH_BASE) >> FLASH_PCROP_GRANULARITY_OFFSET); /* 2K pages */
 227              		.loc 1 911 3 view .LVU89
 228              		.loc 1 911 36 is_stmt 0 view .LVU90
 229 0090 836A     		ldr	r3, [r0, #40]
 912:hardware/mcu/st/stm32wlxx_hal_driver/Src/stm32wlxx_hal_flash_ex.c ****   endoffset = ((PCROP1BEndAddr - FLASH_BASE) >> FLASH_PCROP_GRANULARITY_OFFSET); /* 2K pages */
 913:hardware/mcu/st/stm32wlxx_hal_driver/Src/stm32wlxx_hal_flash_ex.c **** 
 914:hardware/mcu/st/stm32wlxx_hal_driver/Src/stm32wlxx_hal_flash_ex.c ****   /* Configure the Proprietary code readout protection start address */
 915:hardware/mcu/st/stm32wlxx_hal_driver/Src/stm32wlxx_hal_flash_ex.c ****   WRITE_REG(FLASH->PCROP1BSR, startoffset);
 230              		.loc 1 915 3 view .LVU91
 231 0092 2649     		ldr	r1, .L38+4
 911:hardware/mcu/st/stm32wlxx_hal_driver/Src/stm32wlxx_hal_flash_ex.c ****   endoffset = ((PCROP1BEndAddr - FLASH_BASE) >> FLASH_PCROP_GRANULARITY_OFFSET); /* 2K pages */
 232              		.loc 1 911 36 view .LVU92
 233 0094 03F17843 		add	r3, r3, #-134217728
 911:hardware/mcu/st/stm32wlxx_hal_driver/Src/stm32wlxx_hal_flash_ex.c ****   endoffset = ((PCROP1BEndAddr - FLASH_BASE) >> FLASH_PCROP_GRANULARITY_OFFSET); /* 2K pages */
 234              		.loc 1 911 15 view .LVU93
 235 0098 9A0A     		lsrs	r2, r3, #10
 236              	.LVL15:
 912:hardware/mcu/st/stm32wlxx_hal_driver/Src/stm32wlxx_hal_flash_ex.c ****   endoffset = ((PCROP1BEndAddr - FLASH_BASE) >> FLASH_PCROP_GRANULARITY_OFFSET); /* 2K pages */
 237              		.loc 1 912 3 is_stmt 1 view .LVU94
 912:hardware/mcu/st/stm32wlxx_hal_driver/Src/stm32wlxx_hal_flash_ex.c ****   endoffset = ((PCROP1BEndAddr - FLASH_BASE) >> FLASH_PCROP_GRANULARITY_OFFSET); /* 2K pages */
 238              		.loc 1 912 32 is_stmt 0 view .LVU95
 239 009a C36A     		ldr	r3, [r0, #44]
 240              		.loc 1 915 3 view .LVU96
 241 009c 4A63     		str	r2, [r1, #52]
 242              	.LVL16:
 912:hardware/mcu/st/stm32wlxx_hal_driver/Src/stm32wlxx_hal_flash_ex.c ****   endoffset = ((PCROP1BEndAddr - FLASH_BASE) >> FLASH_PCROP_GRANULARITY_OFFSET); /* 2K pages */
 243              		.loc 1 912 32 view .LVU97
 244 009e 03F17843 		add	r3, r3, #-134217728
 245              	.LVL17:
 912:hardware/mcu/st/stm32wlxx_hal_driver/Src/stm32wlxx_hal_flash_ex.c ****   endoffset = ((PCROP1BEndAddr - FLASH_BASE) >> FLASH_PCROP_GRANULARITY_OFFSET); /* 2K pages */
 246              		.loc 1 912 13 view .LVU98
 247 00a2 9B0A     		lsrs	r3, r3, #10
 248              	.LVL18:
 249              		.loc 1 915 3 is_stmt 1 view .LVU99
ARM GAS  /var/folders/b4/k4jbz0ms4wg23jtq0w6p483m0000gn/T//cc2bvfXO.s 			page 22


 916:hardware/mcu/st/stm32wlxx_hal_driver/Src/stm32wlxx_hal_flash_ex.c **** 
 917:hardware/mcu/st/stm32wlxx_hal_driver/Src/stm32wlxx_hal_flash_ex.c ****   /* Configure the Proprietary code readout protection end address */
 918:hardware/mcu/st/stm32wlxx_hal_driver/Src/stm32wlxx_hal_flash_ex.c ****   WRITE_REG(FLASH->PCROP1BER, endoffset);
 250              		.loc 1 918 3 view .LVU100
 251 00a4 8B63     		str	r3, [r1, #56]
 252              	.LVL19:
 253              	.L10:
 254              		.loc 1 918 3 is_stmt 0 view .LVU101
 255              	.LBE36:
 256              	.LBE35:
 393:hardware/mcu/st/stm32wlxx_hal_driver/Src/stm32wlxx_hal_flash_ex.c **** 
 257              		.loc 1 393 3 is_stmt 1 view .LVU102
 258              	.LBB37:
 259              	.LBI37:
 919:hardware/mcu/st/stm32wlxx_hal_driver/Src/stm32wlxx_hal_flash_ex.c **** }
 920:hardware/mcu/st/stm32wlxx_hal_driver/Src/stm32wlxx_hal_flash_ex.c **** 
 921:hardware/mcu/st/stm32wlxx_hal_driver/Src/stm32wlxx_hal_flash_ex.c **** #if defined(DUAL_CORE)
 922:hardware/mcu/st/stm32wlxx_hal_driver/Src/stm32wlxx_hal_flash_ex.c **** /**
 923:hardware/mcu/st/stm32wlxx_hal_driver/Src/stm32wlxx_hal_flash_ex.c ****   * @brief  Program the FLASH IPCC data buffer address.
 924:hardware/mcu/st/stm32wlxx_hal_driver/Src/stm32wlxx_hal_flash_ex.c ****   * @note   To configure the extra user option bytes, the option lock bit OPTLOCK must
 925:hardware/mcu/st/stm32wlxx_hal_driver/Src/stm32wlxx_hal_flash_ex.c ****   *         be cleared with the call of the @ref HAL_FLASH_OB_Unlock() function.
 926:hardware/mcu/st/stm32wlxx_hal_driver/Src/stm32wlxx_hal_flash_ex.c ****   * @note   To validate the extra user option bytes, the option bytes must be reloaded
 927:hardware/mcu/st/stm32wlxx_hal_driver/Src/stm32wlxx_hal_flash_ex.c ****   *         through the call of the @ref HAL_FLASH_OB_Launch() function.
 928:hardware/mcu/st/stm32wlxx_hal_driver/Src/stm32wlxx_hal_flash_ex.c ****   * @param  IPCCDataBufAddr IPCC data buffer start address area in SRAM1 or SRAM2
 929:hardware/mcu/st/stm32wlxx_hal_driver/Src/stm32wlxx_hal_flash_ex.c ****   *         This parameter must be the double-word aligned
 930:hardware/mcu/st/stm32wlxx_hal_driver/Src/stm32wlxx_hal_flash_ex.c ****   * @retval None
 931:hardware/mcu/st/stm32wlxx_hal_driver/Src/stm32wlxx_hal_flash_ex.c ****   */
 932:hardware/mcu/st/stm32wlxx_hal_driver/Src/stm32wlxx_hal_flash_ex.c **** static void FLASH_OB_IPCCBufferAddrConfig(uint32_t IPCCDataBufAddr)
 933:hardware/mcu/st/stm32wlxx_hal_driver/Src/stm32wlxx_hal_flash_ex.c **** {
 934:hardware/mcu/st/stm32wlxx_hal_driver/Src/stm32wlxx_hal_flash_ex.c ****   assert_param(IS_OB_IPCC_BUF_ADDR(IPCCDataBufAddr));
 935:hardware/mcu/st/stm32wlxx_hal_driver/Src/stm32wlxx_hal_flash_ex.c **** 
 936:hardware/mcu/st/stm32wlxx_hal_driver/Src/stm32wlxx_hal_flash_ex.c ****   /* Configure the option bytes register */
 937:hardware/mcu/st/stm32wlxx_hal_driver/Src/stm32wlxx_hal_flash_ex.c ****   WRITE_REG(FLASH->IPCCBR, (uint32_t)((IPCCDataBufAddr - SRAM1_BASE) >> 4));
 938:hardware/mcu/st/stm32wlxx_hal_driver/Src/stm32wlxx_hal_flash_ex.c **** }
 939:hardware/mcu/st/stm32wlxx_hal_driver/Src/stm32wlxx_hal_flash_ex.c **** 
 940:hardware/mcu/st/stm32wlxx_hal_driver/Src/stm32wlxx_hal_flash_ex.c **** /**
 941:hardware/mcu/st/stm32wlxx_hal_driver/Src/stm32wlxx_hal_flash_ex.c ****   * @brief  Configure the secure start address of the different memories,
 942:hardware/mcu/st/stm32wlxx_hal_driver/Src/stm32wlxx_hal_flash_ex.c ****   *         the secure mode, the CPU2 Secure Boot reset vector and the CPU2 debug access
 943:hardware/mcu/st/stm32wlxx_hal_driver/Src/stm32wlxx_hal_flash_ex.c ****   * @note   To configure the PCROP options, the option lock bit OPTLOCK must be
 944:hardware/mcu/st/stm32wlxx_hal_driver/Src/stm32wlxx_hal_flash_ex.c ****   *         cleared with the call of the @ref HAL_FLASH_OB_Unlock() function.
 945:hardware/mcu/st/stm32wlxx_hal_driver/Src/stm32wlxx_hal_flash_ex.c ****   * @param  pOBParam Pointer to an @ref FLASH_OBProgramInitTypeDef structure that
 946:hardware/mcu/st/stm32wlxx_hal_driver/Src/stm32wlxx_hal_flash_ex.c ****   *         contains the configuration information for the programming
 947:hardware/mcu/st/stm32wlxx_hal_driver/Src/stm32wlxx_hal_flash_ex.c ****   * @retval void
 948:hardware/mcu/st/stm32wlxx_hal_driver/Src/stm32wlxx_hal_flash_ex.c ****   */
 949:hardware/mcu/st/stm32wlxx_hal_driver/Src/stm32wlxx_hal_flash_ex.c **** static void FLASH_OB_SecureConfig(FLASH_OBProgramInitTypeDef *pOBParam)
 950:hardware/mcu/st/stm32wlxx_hal_driver/Src/stm32wlxx_hal_flash_ex.c **** {
 951:hardware/mcu/st/stm32wlxx_hal_driver/Src/stm32wlxx_hal_flash_ex.c ****   uint32_t sfr_reg_val = READ_REG(FLASH->SFR);
 952:hardware/mcu/st/stm32wlxx_hal_driver/Src/stm32wlxx_hal_flash_ex.c ****   uint32_t srrvr_reg_val = READ_REG(FLASH->SRRVR);
 953:hardware/mcu/st/stm32wlxx_hal_driver/Src/stm32wlxx_hal_flash_ex.c **** 
 954:hardware/mcu/st/stm32wlxx_hal_driver/Src/stm32wlxx_hal_flash_ex.c ****   if ((pOBParam->OptionType & OPTIONBYTE_SECURE_MODE) != 0U)
 955:hardware/mcu/st/stm32wlxx_hal_driver/Src/stm32wlxx_hal_flash_ex.c ****   {
 956:hardware/mcu/st/stm32wlxx_hal_driver/Src/stm32wlxx_hal_flash_ex.c ****     assert_param(IS_OB_SFSA_START_ADDR(pOBParam->SecureFlashStartAddr));
 957:hardware/mcu/st/stm32wlxx_hal_driver/Src/stm32wlxx_hal_flash_ex.c ****     assert_param(IS_OB_SBRSA_START_ADDR(pOBParam->SecureSRAM2StartAddr));
 958:hardware/mcu/st/stm32wlxx_hal_driver/Src/stm32wlxx_hal_flash_ex.c ****     assert_param(IS_OB_SNBRSA_START_ADDR(pOBParam->SecureSRAM1StartAddr));
 959:hardware/mcu/st/stm32wlxx_hal_driver/Src/stm32wlxx_hal_flash_ex.c ****     assert_param(IS_OB_HDPSA_START_ADDR(pOBParam->HideProtectionStartAddr));
 960:hardware/mcu/st/stm32wlxx_hal_driver/Src/stm32wlxx_hal_flash_ex.c ****     assert_param(IS_OB_SECURE_MODE(pOBParam->SecureMode));
 961:hardware/mcu/st/stm32wlxx_hal_driver/Src/stm32wlxx_hal_flash_ex.c **** 
ARM GAS  /var/folders/b4/k4jbz0ms4wg23jtq0w6p483m0000gn/T//cc2bvfXO.s 			page 23


 962:hardware/mcu/st/stm32wlxx_hal_driver/Src/stm32wlxx_hal_flash_ex.c ****     /* Configure SFR register content with start FLASH PAGE index to secure and start FLASH PAGE in
 963:hardware/mcu/st/stm32wlxx_hal_driver/Src/stm32wlxx_hal_flash_ex.c ****     MODIFY_REG(sfr_reg_val, (FLASH_SFR_SFSA | FLASH_SFR_HDPSA), \
 964:hardware/mcu/st/stm32wlxx_hal_driver/Src/stm32wlxx_hal_flash_ex.c ****                ((((pOBParam->SecureFlashStartAddr - FLASH_BASE) / FLASH_PAGE_SIZE) << FLASH_SFR_SFS
 965:hardware/mcu/st/stm32wlxx_hal_driver/Src/stm32wlxx_hal_flash_ex.c ****                 (((pOBParam->HideProtectionStartAddr - FLASH_BASE) / FLASH_PAGE_SIZE) << FLASH_SFR_
 966:hardware/mcu/st/stm32wlxx_hal_driver/Src/stm32wlxx_hal_flash_ex.c **** 
 967:hardware/mcu/st/stm32wlxx_hal_driver/Src/stm32wlxx_hal_flash_ex.c ****     /* Configure SRRVR register */
 968:hardware/mcu/st/stm32wlxx_hal_driver/Src/stm32wlxx_hal_flash_ex.c ****     MODIFY_REG(srrvr_reg_val, (FLASH_SRRVR_SBRSA | FLASH_SRRVR_SNBRSA), \
 969:hardware/mcu/st/stm32wlxx_hal_driver/Src/stm32wlxx_hal_flash_ex.c ****                (((((pOBParam->SecureSRAM2StartAddr - SRAM2_BASE) >> SRAM_SECURE_PAGE_GRANULARITY_OF
 970:hardware/mcu/st/stm32wlxx_hal_driver/Src/stm32wlxx_hal_flash_ex.c ****                 ((((pOBParam->SecureSRAM1StartAddr - SRAM1_BASE) >> SRAM_SECURE_PAGE_GRANULARITY_OF
 971:hardware/mcu/st/stm32wlxx_hal_driver/Src/stm32wlxx_hal_flash_ex.c **** 
 972:hardware/mcu/st/stm32wlxx_hal_driver/Src/stm32wlxx_hal_flash_ex.c ****     /* If Full System Secure mode is requested, clear all the corresponding bit */
 973:hardware/mcu/st/stm32wlxx_hal_driver/Src/stm32wlxx_hal_flash_ex.c ****     /* Else set the corresponding bit */
 974:hardware/mcu/st/stm32wlxx_hal_driver/Src/stm32wlxx_hal_flash_ex.c ****     if (pOBParam->SecureMode == OB_SECURE_SYSTEM_AND_ALL_AREAS_ENABLE)
 975:hardware/mcu/st/stm32wlxx_hal_driver/Src/stm32wlxx_hal_flash_ex.c ****     {
 976:hardware/mcu/st/stm32wlxx_hal_driver/Src/stm32wlxx_hal_flash_ex.c ****       CLEAR_BIT(sfr_reg_val, (FLASH_SFR_FSD | FLASH_SFR_HDPAD));
 977:hardware/mcu/st/stm32wlxx_hal_driver/Src/stm32wlxx_hal_flash_ex.c ****       CLEAR_BIT(srrvr_reg_val, (FLASH_SRRVR_BRSD | FLASH_SRRVR_NBRSD));
 978:hardware/mcu/st/stm32wlxx_hal_driver/Src/stm32wlxx_hal_flash_ex.c ****     }
 979:hardware/mcu/st/stm32wlxx_hal_driver/Src/stm32wlxx_hal_flash_ex.c ****     else if (pOBParam->SecureMode == OB_SECURE_SYSTEM_AND_ALL_AREAS_DISABLE)
 980:hardware/mcu/st/stm32wlxx_hal_driver/Src/stm32wlxx_hal_flash_ex.c ****     {
 981:hardware/mcu/st/stm32wlxx_hal_driver/Src/stm32wlxx_hal_flash_ex.c ****       SET_BIT(sfr_reg_val, (FLASH_SFR_FSD | FLASH_SFR_HDPAD));
 982:hardware/mcu/st/stm32wlxx_hal_driver/Src/stm32wlxx_hal_flash_ex.c ****       SET_BIT(srrvr_reg_val, (FLASH_SRRVR_BRSD | FLASH_SRRVR_NBRSD));
 983:hardware/mcu/st/stm32wlxx_hal_driver/Src/stm32wlxx_hal_flash_ex.c ****     }
 984:hardware/mcu/st/stm32wlxx_hal_driver/Src/stm32wlxx_hal_flash_ex.c ****     else /* Enable Secure Area bit per bit */
 985:hardware/mcu/st/stm32wlxx_hal_driver/Src/stm32wlxx_hal_flash_ex.c ****     {
 986:hardware/mcu/st/stm32wlxx_hal_driver/Src/stm32wlxx_hal_flash_ex.c ****       /* Set Flash Area in secure if requested */
 987:hardware/mcu/st/stm32wlxx_hal_driver/Src/stm32wlxx_hal_flash_ex.c ****       FLASH_OB_ConfigSecureMode(pOBParam->SecureMode, &sfr_reg_val, FLASH_SFR_FSD, OB_SECURE_SYSTEM
 988:hardware/mcu/st/stm32wlxx_hal_driver/Src/stm32wlxx_hal_flash_ex.c **** 
 989:hardware/mcu/st/stm32wlxx_hal_driver/Src/stm32wlxx_hal_flash_ex.c ****       /* Set Hide Protection Area in secure if requested */
 990:hardware/mcu/st/stm32wlxx_hal_driver/Src/stm32wlxx_hal_flash_ex.c ****       FLASH_OB_ConfigSecureMode(pOBParam->SecureMode, &sfr_reg_val, FLASH_SFR_HDPAD, OB_SECURE_HIDE
 991:hardware/mcu/st/stm32wlxx_hal_driver/Src/stm32wlxx_hal_flash_ex.c **** 
 992:hardware/mcu/st/stm32wlxx_hal_driver/Src/stm32wlxx_hal_flash_ex.c ****       /* Set SRAM1 Area in secure if requested */
 993:hardware/mcu/st/stm32wlxx_hal_driver/Src/stm32wlxx_hal_flash_ex.c ****       FLASH_OB_ConfigSecureMode(pOBParam->SecureMode, &srrvr_reg_val, FLASH_SRRVR_NBRSD, OB_SECURE_
 994:hardware/mcu/st/stm32wlxx_hal_driver/Src/stm32wlxx_hal_flash_ex.c **** 
 995:hardware/mcu/st/stm32wlxx_hal_driver/Src/stm32wlxx_hal_flash_ex.c ****       /* Set SRAM2 Area in secure if requested */
 996:hardware/mcu/st/stm32wlxx_hal_driver/Src/stm32wlxx_hal_flash_ex.c ****       FLASH_OB_ConfigSecureMode(pOBParam->SecureMode, &srrvr_reg_val, FLASH_SRRVR_BRSD, OB_SECURE_S
 997:hardware/mcu/st/stm32wlxx_hal_driver/Src/stm32wlxx_hal_flash_ex.c ****     }
 998:hardware/mcu/st/stm32wlxx_hal_driver/Src/stm32wlxx_hal_flash_ex.c ****   }
 999:hardware/mcu/st/stm32wlxx_hal_driver/Src/stm32wlxx_hal_flash_ex.c **** 
1000:hardware/mcu/st/stm32wlxx_hal_driver/Src/stm32wlxx_hal_flash_ex.c ****   /* Boot vector */
1001:hardware/mcu/st/stm32wlxx_hal_driver/Src/stm32wlxx_hal_flash_ex.c ****   if ((pOBParam->OptionType & OPTIONBYTE_C2_BOOT_VECT) != 0U)
1002:hardware/mcu/st/stm32wlxx_hal_driver/Src/stm32wlxx_hal_flash_ex.c ****   {
1003:hardware/mcu/st/stm32wlxx_hal_driver/Src/stm32wlxx_hal_flash_ex.c ****     /* Check the parameters */
1004:hardware/mcu/st/stm32wlxx_hal_driver/Src/stm32wlxx_hal_flash_ex.c ****     assert_param(IS_OB_BOOT_VECTOR_ADDR(pOBParam->C2SecureBootVectAddr));
1005:hardware/mcu/st/stm32wlxx_hal_driver/Src/stm32wlxx_hal_flash_ex.c ****     assert_param(IS_OB_BOOT_REGION(pOBParam->C2BootRegion));
1006:hardware/mcu/st/stm32wlxx_hal_driver/Src/stm32wlxx_hal_flash_ex.c **** 
1007:hardware/mcu/st/stm32wlxx_hal_driver/Src/stm32wlxx_hal_flash_ex.c ****     /* Set the boot vector */
1008:hardware/mcu/st/stm32wlxx_hal_driver/Src/stm32wlxx_hal_flash_ex.c ****     if (pOBParam->C2BootRegion == OB_C2_BOOT_FROM_FLASH)
1009:hardware/mcu/st/stm32wlxx_hal_driver/Src/stm32wlxx_hal_flash_ex.c ****     {
1010:hardware/mcu/st/stm32wlxx_hal_driver/Src/stm32wlxx_hal_flash_ex.c ****       MODIFY_REG(srrvr_reg_val, (FLASH_SRRVR_SBRV | FLASH_SRRVR_C2OPT), (((pOBParam->C2SecureBootVe
1011:hardware/mcu/st/stm32wlxx_hal_driver/Src/stm32wlxx_hal_flash_ex.c ****     }
1012:hardware/mcu/st/stm32wlxx_hal_driver/Src/stm32wlxx_hal_flash_ex.c ****     else
1013:hardware/mcu/st/stm32wlxx_hal_driver/Src/stm32wlxx_hal_flash_ex.c ****     {
1014:hardware/mcu/st/stm32wlxx_hal_driver/Src/stm32wlxx_hal_flash_ex.c ****       MODIFY_REG(srrvr_reg_val, (FLASH_SRRVR_SBRV | FLASH_SRRVR_C2OPT), (((pOBParam->C2SecureBootVe
1015:hardware/mcu/st/stm32wlxx_hal_driver/Src/stm32wlxx_hal_flash_ex.c ****     }
1016:hardware/mcu/st/stm32wlxx_hal_driver/Src/stm32wlxx_hal_flash_ex.c ****   }
1017:hardware/mcu/st/stm32wlxx_hal_driver/Src/stm32wlxx_hal_flash_ex.c **** 
1018:hardware/mcu/st/stm32wlxx_hal_driver/Src/stm32wlxx_hal_flash_ex.c ****   /* CPU2 Debug Access */
ARM GAS  /var/folders/b4/k4jbz0ms4wg23jtq0w6p483m0000gn/T//cc2bvfXO.s 			page 24


1019:hardware/mcu/st/stm32wlxx_hal_driver/Src/stm32wlxx_hal_flash_ex.c ****   if ((pOBParam->OptionType & OPTIONBYTE_C2_DEBUG_ACCESS) != 0U)
1020:hardware/mcu/st/stm32wlxx_hal_driver/Src/stm32wlxx_hal_flash_ex.c ****   {
1021:hardware/mcu/st/stm32wlxx_hal_driver/Src/stm32wlxx_hal_flash_ex.c ****     /* Check the parameters */
1022:hardware/mcu/st/stm32wlxx_hal_driver/Src/stm32wlxx_hal_flash_ex.c ****     assert_param(IS_OB_C2_DEBUG_MODE(pOBParam->C2DebugAccessMode));
1023:hardware/mcu/st/stm32wlxx_hal_driver/Src/stm32wlxx_hal_flash_ex.c **** 
1024:hardware/mcu/st/stm32wlxx_hal_driver/Src/stm32wlxx_hal_flash_ex.c ****     /* Set the CPU2 Debug Access */
1025:hardware/mcu/st/stm32wlxx_hal_driver/Src/stm32wlxx_hal_flash_ex.c ****     MODIFY_REG(sfr_reg_val, FLASH_SFR_DDS, (uint32_t)pOBParam->C2DebugAccessMode);
1026:hardware/mcu/st/stm32wlxx_hal_driver/Src/stm32wlxx_hal_flash_ex.c ****   }
1027:hardware/mcu/st/stm32wlxx_hal_driver/Src/stm32wlxx_hal_flash_ex.c **** 
1028:hardware/mcu/st/stm32wlxx_hal_driver/Src/stm32wlxx_hal_flash_ex.c ****   /* Sub-GHz radio SPI Access */
1029:hardware/mcu/st/stm32wlxx_hal_driver/Src/stm32wlxx_hal_flash_ex.c ****   if ((pOBParam->OptionType & OPTIONBYTE_SUBGHZSPI_SECURE_ACCESS) != 0U)
1030:hardware/mcu/st/stm32wlxx_hal_driver/Src/stm32wlxx_hal_flash_ex.c ****   {
1031:hardware/mcu/st/stm32wlxx_hal_driver/Src/stm32wlxx_hal_flash_ex.c ****     /* Check the parameters */
1032:hardware/mcu/st/stm32wlxx_hal_driver/Src/stm32wlxx_hal_flash_ex.c ****     assert_param(IS_OB_SUBGHZSPI_SECURE_ACCESS(pOBParam->SUBGHZSPISecureAccess));
1033:hardware/mcu/st/stm32wlxx_hal_driver/Src/stm32wlxx_hal_flash_ex.c **** 
1034:hardware/mcu/st/stm32wlxx_hal_driver/Src/stm32wlxx_hal_flash_ex.c ****     /* Set the Sub-GHz radio SPI Secure Access */
1035:hardware/mcu/st/stm32wlxx_hal_driver/Src/stm32wlxx_hal_flash_ex.c ****     MODIFY_REG(sfr_reg_val, FLASH_SFR_SUBGHZSPISD, (uint32_t)pOBParam->SUBGHZSPISecureAccess);
1036:hardware/mcu/st/stm32wlxx_hal_driver/Src/stm32wlxx_hal_flash_ex.c ****   }
1037:hardware/mcu/st/stm32wlxx_hal_driver/Src/stm32wlxx_hal_flash_ex.c **** 
1038:hardware/mcu/st/stm32wlxx_hal_driver/Src/stm32wlxx_hal_flash_ex.c ****   /* Update Flash registers */
1039:hardware/mcu/st/stm32wlxx_hal_driver/Src/stm32wlxx_hal_flash_ex.c ****   WRITE_REG(FLASH->SFR, sfr_reg_val);
1040:hardware/mcu/st/stm32wlxx_hal_driver/Src/stm32wlxx_hal_flash_ex.c ****   WRITE_REG(FLASH->SRRVR, srrvr_reg_val);
1041:hardware/mcu/st/stm32wlxx_hal_driver/Src/stm32wlxx_hal_flash_ex.c **** }
1042:hardware/mcu/st/stm32wlxx_hal_driver/Src/stm32wlxx_hal_flash_ex.c **** #endif /* DUAL_CORE */
1043:hardware/mcu/st/stm32wlxx_hal_driver/Src/stm32wlxx_hal_flash_ex.c **** 
1044:hardware/mcu/st/stm32wlxx_hal_driver/Src/stm32wlxx_hal_flash_ex.c **** /**
1045:hardware/mcu/st/stm32wlxx_hal_driver/Src/stm32wlxx_hal_flash_ex.c ****   * @brief  Return the FLASH Write Protection Option Bytes value.
1046:hardware/mcu/st/stm32wlxx_hal_driver/Src/stm32wlxx_hal_flash_ex.c ****   * @param[in]   WRPArea Specifies the area to be returned.
1047:hardware/mcu/st/stm32wlxx_hal_driver/Src/stm32wlxx_hal_flash_ex.c ****   *              This parameter can be one of the following values:
1048:hardware/mcu/st/stm32wlxx_hal_driver/Src/stm32wlxx_hal_flash_ex.c ****   *              @arg @ref OB_WRPAREA_BANK1_AREAA Flash Bank 1 Area A
1049:hardware/mcu/st/stm32wlxx_hal_driver/Src/stm32wlxx_hal_flash_ex.c ****   *              @arg @ref OB_WRPAREA_BANK1_AREAB Flash Bank 1 Area B
1050:hardware/mcu/st/stm32wlxx_hal_driver/Src/stm32wlxx_hal_flash_ex.c ****   * @param[out]  WRPStartOffset Specifies the address where to copied the start page
1051:hardware/mcu/st/stm32wlxx_hal_driver/Src/stm32wlxx_hal_flash_ex.c ****   *                             of the write protected area
1052:hardware/mcu/st/stm32wlxx_hal_driver/Src/stm32wlxx_hal_flash_ex.c ****   * @param[out]  WRDPEndOffset Specifies the address where to copied the end page of
1053:hardware/mcu/st/stm32wlxx_hal_driver/Src/stm32wlxx_hal_flash_ex.c ****   *                            the write protected area
1054:hardware/mcu/st/stm32wlxx_hal_driver/Src/stm32wlxx_hal_flash_ex.c ****   * @retval None
1055:hardware/mcu/st/stm32wlxx_hal_driver/Src/stm32wlxx_hal_flash_ex.c ****   */
1056:hardware/mcu/st/stm32wlxx_hal_driver/Src/stm32wlxx_hal_flash_ex.c **** static void FLASH_OB_GetWRP(uint32_t WRPArea, uint32_t *WRPStartOffset, uint32_t *WRDPEndOffset)
1057:hardware/mcu/st/stm32wlxx_hal_driver/Src/stm32wlxx_hal_flash_ex.c **** {
1058:hardware/mcu/st/stm32wlxx_hal_driver/Src/stm32wlxx_hal_flash_ex.c ****   /* Check the parameters */
1059:hardware/mcu/st/stm32wlxx_hal_driver/Src/stm32wlxx_hal_flash_ex.c ****   assert_param(IS_OB_WRPAREA(WRPArea));
1060:hardware/mcu/st/stm32wlxx_hal_driver/Src/stm32wlxx_hal_flash_ex.c **** 
1061:hardware/mcu/st/stm32wlxx_hal_driver/Src/stm32wlxx_hal_flash_ex.c ****   /* Get the configuration of the write protected area */
1062:hardware/mcu/st/stm32wlxx_hal_driver/Src/stm32wlxx_hal_flash_ex.c ****   if (WRPArea == OB_WRPAREA_BANK1_AREAA)
1063:hardware/mcu/st/stm32wlxx_hal_driver/Src/stm32wlxx_hal_flash_ex.c ****   {
1064:hardware/mcu/st/stm32wlxx_hal_driver/Src/stm32wlxx_hal_flash_ex.c ****     *WRPStartOffset = READ_BIT(FLASH->WRP1AR, FLASH_WRP1AR_WRP1A_STRT);
1065:hardware/mcu/st/stm32wlxx_hal_driver/Src/stm32wlxx_hal_flash_ex.c ****     *WRDPEndOffset = (READ_BIT(FLASH->WRP1AR, FLASH_WRP1AR_WRP1A_END) >> FLASH_WRP1AR_WRP1A_END_Pos
1066:hardware/mcu/st/stm32wlxx_hal_driver/Src/stm32wlxx_hal_flash_ex.c ****   }
1067:hardware/mcu/st/stm32wlxx_hal_driver/Src/stm32wlxx_hal_flash_ex.c ****   else /* OB_WRPAREA_BANK1_AREAB */
1068:hardware/mcu/st/stm32wlxx_hal_driver/Src/stm32wlxx_hal_flash_ex.c ****   {
1069:hardware/mcu/st/stm32wlxx_hal_driver/Src/stm32wlxx_hal_flash_ex.c ****     *WRPStartOffset = READ_BIT(FLASH->WRP1BR, FLASH_WRP1BR_WRP1B_STRT);
1070:hardware/mcu/st/stm32wlxx_hal_driver/Src/stm32wlxx_hal_flash_ex.c ****     *WRDPEndOffset = (READ_BIT(FLASH->WRP1BR, FLASH_WRP1BR_WRP1B_END) >> FLASH_WRP1BR_WRP1B_END_Pos
1071:hardware/mcu/st/stm32wlxx_hal_driver/Src/stm32wlxx_hal_flash_ex.c ****   }
1072:hardware/mcu/st/stm32wlxx_hal_driver/Src/stm32wlxx_hal_flash_ex.c **** }
1073:hardware/mcu/st/stm32wlxx_hal_driver/Src/stm32wlxx_hal_flash_ex.c **** 
1074:hardware/mcu/st/stm32wlxx_hal_driver/Src/stm32wlxx_hal_flash_ex.c **** /**
1075:hardware/mcu/st/stm32wlxx_hal_driver/Src/stm32wlxx_hal_flash_ex.c ****   * @brief  Return the FLASH Read Protection level.
ARM GAS  /var/folders/b4/k4jbz0ms4wg23jtq0w6p483m0000gn/T//cc2bvfXO.s 			page 25


1076:hardware/mcu/st/stm32wlxx_hal_driver/Src/stm32wlxx_hal_flash_ex.c ****   * @retval FLASH ReadOut Protection Status:
1077:hardware/mcu/st/stm32wlxx_hal_driver/Src/stm32wlxx_hal_flash_ex.c ****   *         This return value can be one of the following values:
1078:hardware/mcu/st/stm32wlxx_hal_driver/Src/stm32wlxx_hal_flash_ex.c ****   *            @arg @ref OB_RDP_LEVEL_0 No protection
1079:hardware/mcu/st/stm32wlxx_hal_driver/Src/stm32wlxx_hal_flash_ex.c ****   *            @arg @ref OB_RDP_LEVEL_1 Read protection of the memory
1080:hardware/mcu/st/stm32wlxx_hal_driver/Src/stm32wlxx_hal_flash_ex.c ****   *            @arg @ref OB_RDP_LEVEL_2 Full chip protection
1081:hardware/mcu/st/stm32wlxx_hal_driver/Src/stm32wlxx_hal_flash_ex.c ****   */
1082:hardware/mcu/st/stm32wlxx_hal_driver/Src/stm32wlxx_hal_flash_ex.c **** static uint32_t FLASH_OB_GetRDP(void)
1083:hardware/mcu/st/stm32wlxx_hal_driver/Src/stm32wlxx_hal_flash_ex.c **** {
1084:hardware/mcu/st/stm32wlxx_hal_driver/Src/stm32wlxx_hal_flash_ex.c ****   uint32_t rdplvl = READ_BIT(FLASH->OPTR, FLASH_OPTR_RDP);
1085:hardware/mcu/st/stm32wlxx_hal_driver/Src/stm32wlxx_hal_flash_ex.c **** 
1086:hardware/mcu/st/stm32wlxx_hal_driver/Src/stm32wlxx_hal_flash_ex.c ****   if ((rdplvl != OB_RDP_LEVEL_0) && (rdplvl != OB_RDP_LEVEL_2))
1087:hardware/mcu/st/stm32wlxx_hal_driver/Src/stm32wlxx_hal_flash_ex.c ****   {
1088:hardware/mcu/st/stm32wlxx_hal_driver/Src/stm32wlxx_hal_flash_ex.c ****     return (OB_RDP_LEVEL_1);
1089:hardware/mcu/st/stm32wlxx_hal_driver/Src/stm32wlxx_hal_flash_ex.c ****   }
1090:hardware/mcu/st/stm32wlxx_hal_driver/Src/stm32wlxx_hal_flash_ex.c ****   else
1091:hardware/mcu/st/stm32wlxx_hal_driver/Src/stm32wlxx_hal_flash_ex.c ****   {
1092:hardware/mcu/st/stm32wlxx_hal_driver/Src/stm32wlxx_hal_flash_ex.c ****     return rdplvl;
1093:hardware/mcu/st/stm32wlxx_hal_driver/Src/stm32wlxx_hal_flash_ex.c ****   }
1094:hardware/mcu/st/stm32wlxx_hal_driver/Src/stm32wlxx_hal_flash_ex.c **** }
1095:hardware/mcu/st/stm32wlxx_hal_driver/Src/stm32wlxx_hal_flash_ex.c **** 
1096:hardware/mcu/st/stm32wlxx_hal_driver/Src/stm32wlxx_hal_flash_ex.c **** #if defined(DUAL_CORE) /* Comment duplicated for Document generation */
1097:hardware/mcu/st/stm32wlxx_hal_driver/Src/stm32wlxx_hal_flash_ex.c **** /**
1098:hardware/mcu/st/stm32wlxx_hal_driver/Src/stm32wlxx_hal_flash_ex.c ****   * @brief  Return the FLASH User Option Byte value.
1099:hardware/mcu/st/stm32wlxx_hal_driver/Src/stm32wlxx_hal_flash_ex.c ****   * @retval This return value can be a combination of all the following values:
1100:hardware/mcu/st/stm32wlxx_hal_driver/Src/stm32wlxx_hal_flash_ex.c ****   *         @arg @ref OB_BOR_LEVEL_0 or @ref OB_BOR_LEVEL_1 or ... or @ref OB_BOR_LEVEL_4
1101:hardware/mcu/st/stm32wlxx_hal_driver/Src/stm32wlxx_hal_flash_ex.c ****   *         @arg @ref OB_STOP_RST or @ref OB_STOP_RST
1102:hardware/mcu/st/stm32wlxx_hal_driver/Src/stm32wlxx_hal_flash_ex.c ****   *         @arg @ref OB_STANDBY_RST or @ref OB_STANDBY_NORST
1103:hardware/mcu/st/stm32wlxx_hal_driver/Src/stm32wlxx_hal_flash_ex.c ****   *         @arg @ref OB_SHUTDOWN_RST or @ref OB_SHUTDOWN_NORST
1104:hardware/mcu/st/stm32wlxx_hal_driver/Src/stm32wlxx_hal_flash_ex.c ****   *         @arg @ref OB_IWDG_SW or @ref OB_IWDG_HW
1105:hardware/mcu/st/stm32wlxx_hal_driver/Src/stm32wlxx_hal_flash_ex.c ****   *         @arg @ref OB_IWDG_STOP_FREEZE or @ref OB_IWDG_STOP_RUN
1106:hardware/mcu/st/stm32wlxx_hal_driver/Src/stm32wlxx_hal_flash_ex.c ****   *         @arg @ref OB_IWDG_STDBY_FREEZE or @ref OB_IWDG_STDBY_RUN
1107:hardware/mcu/st/stm32wlxx_hal_driver/Src/stm32wlxx_hal_flash_ex.c ****   *         @arg @ref OB_WWDG_SW or @ref OB_WWDG_HW
1108:hardware/mcu/st/stm32wlxx_hal_driver/Src/stm32wlxx_hal_flash_ex.c ****   *         @arg @ref OB_BOOT1_RESET or @ref OB_BOOT1_SET
1109:hardware/mcu/st/stm32wlxx_hal_driver/Src/stm32wlxx_hal_flash_ex.c ****   *         @arg @ref OB_SRAM2_PARITY_ENABLE or @ref OB_SRAM2_PARITY_DISABLE
1110:hardware/mcu/st/stm32wlxx_hal_driver/Src/stm32wlxx_hal_flash_ex.c ****   *         @arg @ref OB_SRAM_RST_ERASE or @ref OB_SRAM_RST_NOT_ERASE
1111:hardware/mcu/st/stm32wlxx_hal_driver/Src/stm32wlxx_hal_flash_ex.c ****   *         @arg @ref OB_BOOT0_FROM_OB or @ref OB_BOOT0_FROM_PIN
1112:hardware/mcu/st/stm32wlxx_hal_driver/Src/stm32wlxx_hal_flash_ex.c ****   *         @arg @ref OB_BOOT0_RESET or @ref OB_BOOT0_SET
1113:hardware/mcu/st/stm32wlxx_hal_driver/Src/stm32wlxx_hal_flash_ex.c ****   *         @arg @ref OB_BOOT_LOCK_DISABLE or @ref OB_BOOT_LOCK_ENABLE
1114:hardware/mcu/st/stm32wlxx_hal_driver/Src/stm32wlxx_hal_flash_ex.c ****   *         @arg @ref OB_C2BOOT_LOCK_DISABLE or @ref OB_C2BOOT_LOCK_ENABLE
1115:hardware/mcu/st/stm32wlxx_hal_driver/Src/stm32wlxx_hal_flash_ex.c ****   */
1116:hardware/mcu/st/stm32wlxx_hal_driver/Src/stm32wlxx_hal_flash_ex.c **** #else
1117:hardware/mcu/st/stm32wlxx_hal_driver/Src/stm32wlxx_hal_flash_ex.c **** /**
1118:hardware/mcu/st/stm32wlxx_hal_driver/Src/stm32wlxx_hal_flash_ex.c ****   * @brief  Return the FLASH User Option Byte value.
1119:hardware/mcu/st/stm32wlxx_hal_driver/Src/stm32wlxx_hal_flash_ex.c ****   * @retval This return value can be a combination of all the following values:
1120:hardware/mcu/st/stm32wlxx_hal_driver/Src/stm32wlxx_hal_flash_ex.c ****   *         @arg @ref OB_BOR_LEVEL_0 or @ref OB_BOR_LEVEL_1 or ... or @ref OB_BOR_LEVEL_4
1121:hardware/mcu/st/stm32wlxx_hal_driver/Src/stm32wlxx_hal_flash_ex.c ****   *         @arg @ref OB_STOP_RST or @ref OB_STOP_RST
1122:hardware/mcu/st/stm32wlxx_hal_driver/Src/stm32wlxx_hal_flash_ex.c ****   *         @arg @ref OB_STANDBY_RST or @ref OB_STANDBY_NORST
1123:hardware/mcu/st/stm32wlxx_hal_driver/Src/stm32wlxx_hal_flash_ex.c ****   *         @arg @ref OB_SHUTDOWN_RST or @ref OB_SHUTDOWN_NORST
1124:hardware/mcu/st/stm32wlxx_hal_driver/Src/stm32wlxx_hal_flash_ex.c ****   *         @arg @ref OB_IWDG_SW or @ref OB_IWDG_HW
1125:hardware/mcu/st/stm32wlxx_hal_driver/Src/stm32wlxx_hal_flash_ex.c ****   *         @arg @ref OB_IWDG_STOP_FREEZE or @ref OB_IWDG_STOP_RUN
1126:hardware/mcu/st/stm32wlxx_hal_driver/Src/stm32wlxx_hal_flash_ex.c ****   *         @arg @ref OB_IWDG_STDBY_FREEZE or @ref OB_IWDG_STDBY_RUN
1127:hardware/mcu/st/stm32wlxx_hal_driver/Src/stm32wlxx_hal_flash_ex.c ****   *         @arg @ref OB_WWDG_SW or @ref OB_WWDG_HW
1128:hardware/mcu/st/stm32wlxx_hal_driver/Src/stm32wlxx_hal_flash_ex.c ****   *         @arg @ref OB_BOOT1_RESET or @ref OB_BOOT1_SET
1129:hardware/mcu/st/stm32wlxx_hal_driver/Src/stm32wlxx_hal_flash_ex.c ****   *         @arg @ref OB_SRAM2_PARITY_ENABLE or @ref OB_SRAM2_PARITY_DISABLE
1130:hardware/mcu/st/stm32wlxx_hal_driver/Src/stm32wlxx_hal_flash_ex.c ****   *         @arg @ref OB_SRAM_RST_ERASE or @ref OB_SRAM_RST_NOT_ERASE
1131:hardware/mcu/st/stm32wlxx_hal_driver/Src/stm32wlxx_hal_flash_ex.c ****   *         @arg @ref OB_BOOT0_FROM_OB or @ref OB_BOOT0_FROM_PIN
1132:hardware/mcu/st/stm32wlxx_hal_driver/Src/stm32wlxx_hal_flash_ex.c ****   *         @arg @ref OB_BOOT0_RESET or @ref OB_BOOT0_SET
ARM GAS  /var/folders/b4/k4jbz0ms4wg23jtq0w6p483m0000gn/T//cc2bvfXO.s 			page 26


1133:hardware/mcu/st/stm32wlxx_hal_driver/Src/stm32wlxx_hal_flash_ex.c ****   *         @arg @ref OB_BOOT_LOCK_DISABLE or @ref OB_BOOT_LOCK_ENABLE
1134:hardware/mcu/st/stm32wlxx_hal_driver/Src/stm32wlxx_hal_flash_ex.c ****   */
1135:hardware/mcu/st/stm32wlxx_hal_driver/Src/stm32wlxx_hal_flash_ex.c **** #endif
1136:hardware/mcu/st/stm32wlxx_hal_driver/Src/stm32wlxx_hal_flash_ex.c **** static uint32_t FLASH_OB_GetUser(void)
1137:hardware/mcu/st/stm32wlxx_hal_driver/Src/stm32wlxx_hal_flash_ex.c **** {
1138:hardware/mcu/st/stm32wlxx_hal_driver/Src/stm32wlxx_hal_flash_ex.c ****   uint32_t user_config = (READ_REG(FLASH->OPTR) & OB_USER_ALL);
1139:hardware/mcu/st/stm32wlxx_hal_driver/Src/stm32wlxx_hal_flash_ex.c ****   CLEAR_BIT(user_config, (FLASH_OPTR_RDP | FLASH_OPTR_ESE));
1140:hardware/mcu/st/stm32wlxx_hal_driver/Src/stm32wlxx_hal_flash_ex.c **** 
1141:hardware/mcu/st/stm32wlxx_hal_driver/Src/stm32wlxx_hal_flash_ex.c ****   return user_config;
1142:hardware/mcu/st/stm32wlxx_hal_driver/Src/stm32wlxx_hal_flash_ex.c **** }
1143:hardware/mcu/st/stm32wlxx_hal_driver/Src/stm32wlxx_hal_flash_ex.c **** 
1144:hardware/mcu/st/stm32wlxx_hal_driver/Src/stm32wlxx_hal_flash_ex.c **** /**
1145:hardware/mcu/st/stm32wlxx_hal_driver/Src/stm32wlxx_hal_flash_ex.c ****   * @brief  Return the FLASH Write Protection Option Bytes value.
1146:hardware/mcu/st/stm32wlxx_hal_driver/Src/stm32wlxx_hal_flash_ex.c ****   * @param PCROPConfig [out] Specifies the address where to copied the configuration of PCROP_RDP o
1147:hardware/mcu/st/stm32wlxx_hal_driver/Src/stm32wlxx_hal_flash_ex.c ****   * @param PCROP1AStartAddr [out] Specifies the address where to copied the start address
1148:hardware/mcu/st/stm32wlxx_hal_driver/Src/stm32wlxx_hal_flash_ex.c ****   *                         of the Zone 1A Proprietary code readout protection
1149:hardware/mcu/st/stm32wlxx_hal_driver/Src/stm32wlxx_hal_flash_ex.c ****   * @param PCROP1AEndAddr [out] Specifies the address where to copied the end address of
1150:hardware/mcu/st/stm32wlxx_hal_driver/Src/stm32wlxx_hal_flash_ex.c ****   *                       the Zone 1A Proprietary code readout protection
1151:hardware/mcu/st/stm32wlxx_hal_driver/Src/stm32wlxx_hal_flash_ex.c ****   * @param PCROP1BStartAddr [out] Specifies the address where to copied the start address
1152:hardware/mcu/st/stm32wlxx_hal_driver/Src/stm32wlxx_hal_flash_ex.c ****   *                         of the Zone 1B Proprietary code readout protection
1153:hardware/mcu/st/stm32wlxx_hal_driver/Src/stm32wlxx_hal_flash_ex.c ****   * @param PCROP1BEndAddr [out] Specifies the address where to copied the end address of
1154:hardware/mcu/st/stm32wlxx_hal_driver/Src/stm32wlxx_hal_flash_ex.c ****   *                       the Zone 1B Proprietary code readout protection
1155:hardware/mcu/st/stm32wlxx_hal_driver/Src/stm32wlxx_hal_flash_ex.c ****   * @retval None
1156:hardware/mcu/st/stm32wlxx_hal_driver/Src/stm32wlxx_hal_flash_ex.c ****   */
1157:hardware/mcu/st/stm32wlxx_hal_driver/Src/stm32wlxx_hal_flash_ex.c **** static void FLASH_OB_GetPCROP(uint32_t *PCROPConfig, uint32_t *PCROP1AStartAddr, uint32_t *PCROP1AE
1158:hardware/mcu/st/stm32wlxx_hal_driver/Src/stm32wlxx_hal_flash_ex.c **** {
1159:hardware/mcu/st/stm32wlxx_hal_driver/Src/stm32wlxx_hal_flash_ex.c ****   uint32_t pcrop;
1160:hardware/mcu/st/stm32wlxx_hal_driver/Src/stm32wlxx_hal_flash_ex.c **** 
1161:hardware/mcu/st/stm32wlxx_hal_driver/Src/stm32wlxx_hal_flash_ex.c ****   pcrop             = (READ_BIT(FLASH->PCROP1BSR, FLASH_PCROP1BSR_PCROP1B_STRT));
1162:hardware/mcu/st/stm32wlxx_hal_driver/Src/stm32wlxx_hal_flash_ex.c ****   *PCROP1BStartAddr = ((pcrop << FLASH_PCROP_GRANULARITY_OFFSET) + FLASH_BASE);
1163:hardware/mcu/st/stm32wlxx_hal_driver/Src/stm32wlxx_hal_flash_ex.c **** 
1164:hardware/mcu/st/stm32wlxx_hal_driver/Src/stm32wlxx_hal_flash_ex.c ****   pcrop             = (READ_BIT(FLASH->PCROP1BER, FLASH_PCROP1BER_PCROP1B_END));
1165:hardware/mcu/st/stm32wlxx_hal_driver/Src/stm32wlxx_hal_flash_ex.c ****   *PCROP1BEndAddr   = ((pcrop << FLASH_PCROP_GRANULARITY_OFFSET) + FLASH_BASE);
1166:hardware/mcu/st/stm32wlxx_hal_driver/Src/stm32wlxx_hal_flash_ex.c **** 
1167:hardware/mcu/st/stm32wlxx_hal_driver/Src/stm32wlxx_hal_flash_ex.c ****   pcrop             = (READ_BIT(FLASH->PCROP1ASR, FLASH_PCROP1ASR_PCROP1A_STRT));
1168:hardware/mcu/st/stm32wlxx_hal_driver/Src/stm32wlxx_hal_flash_ex.c ****   *PCROP1AStartAddr = ((pcrop << FLASH_PCROP_GRANULARITY_OFFSET) + FLASH_BASE);
1169:hardware/mcu/st/stm32wlxx_hal_driver/Src/stm32wlxx_hal_flash_ex.c **** 
1170:hardware/mcu/st/stm32wlxx_hal_driver/Src/stm32wlxx_hal_flash_ex.c ****   pcrop             = (READ_BIT(FLASH->PCROP1AER, FLASH_PCROP1AER_PCROP1A_END));
1171:hardware/mcu/st/stm32wlxx_hal_driver/Src/stm32wlxx_hal_flash_ex.c ****   *PCROP1AEndAddr   = ((pcrop << FLASH_PCROP_GRANULARITY_OFFSET) + FLASH_BASE);
1172:hardware/mcu/st/stm32wlxx_hal_driver/Src/stm32wlxx_hal_flash_ex.c **** 
1173:hardware/mcu/st/stm32wlxx_hal_driver/Src/stm32wlxx_hal_flash_ex.c ****   *PCROPConfig      = (READ_REG(FLASH->PCROP1AER) & FLASH_PCROP1AER_PCROP_RDP);
1174:hardware/mcu/st/stm32wlxx_hal_driver/Src/stm32wlxx_hal_flash_ex.c **** }
1175:hardware/mcu/st/stm32wlxx_hal_driver/Src/stm32wlxx_hal_flash_ex.c **** 
1176:hardware/mcu/st/stm32wlxx_hal_driver/Src/stm32wlxx_hal_flash_ex.c **** #if defined(DUAL_CORE)
1177:hardware/mcu/st/stm32wlxx_hal_driver/Src/stm32wlxx_hal_flash_ex.c **** /**
1178:hardware/mcu/st/stm32wlxx_hal_driver/Src/stm32wlxx_hal_flash_ex.c ****   * @brief  Return the FLASH IPCC data buffer base address Option Byte value.
1179:hardware/mcu/st/stm32wlxx_hal_driver/Src/stm32wlxx_hal_flash_ex.c ****   * @retval Returned value is the address where to copied the IPCC data buffer address.
1180:hardware/mcu/st/stm32wlxx_hal_driver/Src/stm32wlxx_hal_flash_ex.c ****   *           Value return between Min_Data = 0x0 and Max_Data = 0x3FFF
1181:hardware/mcu/st/stm32wlxx_hal_driver/Src/stm32wlxx_hal_flash_ex.c ****   *           This value correspond to the first double-word of the IPCC mailbox data buffer area
1182:hardware/mcu/st/stm32wlxx_hal_driver/Src/stm32wlxx_hal_flash_ex.c ****   *           in SRAM starting from 0x20000000 (SRAM1 start address to SRAM2 end address).
1183:hardware/mcu/st/stm32wlxx_hal_driver/Src/stm32wlxx_hal_flash_ex.c ****   */
1184:hardware/mcu/st/stm32wlxx_hal_driver/Src/stm32wlxx_hal_flash_ex.c **** static uint32_t FLASH_OB_GetIPCCBufferAddr(void)
1185:hardware/mcu/st/stm32wlxx_hal_driver/Src/stm32wlxx_hal_flash_ex.c **** {
1186:hardware/mcu/st/stm32wlxx_hal_driver/Src/stm32wlxx_hal_flash_ex.c ****   return (uint32_t)((READ_BIT(FLASH->IPCCBR, FLASH_IPCCBR_IPCCDBA) << 4) + SRAM1_BASE);
1187:hardware/mcu/st/stm32wlxx_hal_driver/Src/stm32wlxx_hal_flash_ex.c **** }
1188:hardware/mcu/st/stm32wlxx_hal_driver/Src/stm32wlxx_hal_flash_ex.c **** 
1189:hardware/mcu/st/stm32wlxx_hal_driver/Src/stm32wlxx_hal_flash_ex.c **** /**
ARM GAS  /var/folders/b4/k4jbz0ms4wg23jtq0w6p483m0000gn/T//cc2bvfXO.s 			page 27


1190:hardware/mcu/st/stm32wlxx_hal_driver/Src/stm32wlxx_hal_flash_ex.c ****   * @brief  Return the Secure Flash start address, Secure Hide Protection Area start address, Secur
1191:hardware/mcu/st/stm32wlxx_hal_driver/Src/stm32wlxx_hal_flash_ex.c ****   *                     Secure non-Backup SRAM1 start address and the SecureMode
1192:hardware/mcu/st/stm32wlxx_hal_driver/Src/stm32wlxx_hal_flash_ex.c ****   * @param  SecureFlashStartAddr  Specifies the address where to copied the Secure Flash start addr
1193:hardware/mcu/st/stm32wlxx_hal_driver/Src/stm32wlxx_hal_flash_ex.c ****   * @param  HideProtectionStartAddr Specifies the address where to copied the Secure Hide Protectio
1194:hardware/mcu/st/stm32wlxx_hal_driver/Src/stm32wlxx_hal_flash_ex.c ****   * @param  SecureSRAM2StartAddr  Specifies the address where to copied the Secure Backup SRAM2 sta
1195:hardware/mcu/st/stm32wlxx_hal_driver/Src/stm32wlxx_hal_flash_ex.c ****   * @param  SecureSRAM1StartAddr  Specifies the address where to copied the Secure non-Backup SRAM1
1196:hardware/mcu/st/stm32wlxx_hal_driver/Src/stm32wlxx_hal_flash_ex.c ****   * @param  SecureMode            Specifies the Secure area enabled or disabled.
1197:hardware/mcu/st/stm32wlxx_hal_driver/Src/stm32wlxx_hal_flash_ex.c ****   *                               This return value can be one of the following values:
1198:hardware/mcu/st/stm32wlxx_hal_driver/Src/stm32wlxx_hal_flash_ex.c ****   *                               @arg @ref OB_SECURE_SYSTEM_AND_ALL_AREAS_DISABLE : All System Sec
1199:hardware/mcu/st/stm32wlxx_hal_driver/Src/stm32wlxx_hal_flash_ex.c ****   *                               @arg @ref OB_SECURE_SYSTEM_AND_FLASH_ENABLE : Flash Security enab
1200:hardware/mcu/st/stm32wlxx_hal_driver/Src/stm32wlxx_hal_flash_ex.c ****   *                               @arg @ref OB_SECURE_HIDE_PROTECTION_ENABLE : Hide Protection Secu
1201:hardware/mcu/st/stm32wlxx_hal_driver/Src/stm32wlxx_hal_flash_ex.c ****   *                               @arg @ref OB_SECURE_SRAM1_ENABLE : SRAM1 Security enabled
1202:hardware/mcu/st/stm32wlxx_hal_driver/Src/stm32wlxx_hal_flash_ex.c ****   *                               @arg @ref OB_SECURE_SRAM2_ENABLE : SRAM2 Security enabled
1203:hardware/mcu/st/stm32wlxx_hal_driver/Src/stm32wlxx_hal_flash_ex.c ****   *                               @arg @ref OB_SECURE_SYSTEM_AND_FLASH_DISABLE : Flash Security dis
1204:hardware/mcu/st/stm32wlxx_hal_driver/Src/stm32wlxx_hal_flash_ex.c ****   *                               @arg @ref OB_SECURE_HIDE_PROTECTION_DISABLE : Hide Protection Sec
1205:hardware/mcu/st/stm32wlxx_hal_driver/Src/stm32wlxx_hal_flash_ex.c ****   *                               @arg @ref OB_SECURE_SRAM1_DISABLE : SRAM1 Security disabled
1206:hardware/mcu/st/stm32wlxx_hal_driver/Src/stm32wlxx_hal_flash_ex.c ****   *                               @arg @ref OB_SECURE_SRAM2_DISABLE : SRAM2 Security disabled
1207:hardware/mcu/st/stm32wlxx_hal_driver/Src/stm32wlxx_hal_flash_ex.c ****   *                               @arg @ref OB_SECURE_SYSTEM_AND_ALL_AREAS_ENABLE : All System Secu
1208:hardware/mcu/st/stm32wlxx_hal_driver/Src/stm32wlxx_hal_flash_ex.c ****   * @retval None
1209:hardware/mcu/st/stm32wlxx_hal_driver/Src/stm32wlxx_hal_flash_ex.c ****   */
1210:hardware/mcu/st/stm32wlxx_hal_driver/Src/stm32wlxx_hal_flash_ex.c **** static void FLASH_OB_GetSecureMemoryConfig(uint32_t *SecureFlashStartAddr, uint32_t *HideProtection
1211:hardware/mcu/st/stm32wlxx_hal_driver/Src/stm32wlxx_hal_flash_ex.c **** {
1212:hardware/mcu/st/stm32wlxx_hal_driver/Src/stm32wlxx_hal_flash_ex.c ****   uint32_t sfr_reg_val = READ_REG(FLASH->SFR);
1213:hardware/mcu/st/stm32wlxx_hal_driver/Src/stm32wlxx_hal_flash_ex.c ****   uint32_t srrvr_reg_val = READ_REG(FLASH->SRRVR);
1214:hardware/mcu/st/stm32wlxx_hal_driver/Src/stm32wlxx_hal_flash_ex.c **** 
1215:hardware/mcu/st/stm32wlxx_hal_driver/Src/stm32wlxx_hal_flash_ex.c ****   /* Get Secure Flash start address */
1216:hardware/mcu/st/stm32wlxx_hal_driver/Src/stm32wlxx_hal_flash_ex.c ****   uint32_t user_config = (READ_BIT(sfr_reg_val, FLASH_SFR_SFSA) >> FLASH_SFR_SFSA_Pos);
1217:hardware/mcu/st/stm32wlxx_hal_driver/Src/stm32wlxx_hal_flash_ex.c **** 
1218:hardware/mcu/st/stm32wlxx_hal_driver/Src/stm32wlxx_hal_flash_ex.c ****   *SecureFlashStartAddr = ((user_config * FLASH_PAGE_SIZE) + FLASH_BASE);
1219:hardware/mcu/st/stm32wlxx_hal_driver/Src/stm32wlxx_hal_flash_ex.c **** 
1220:hardware/mcu/st/stm32wlxx_hal_driver/Src/stm32wlxx_hal_flash_ex.c ****   /* Get Hide Protection Area start address */
1221:hardware/mcu/st/stm32wlxx_hal_driver/Src/stm32wlxx_hal_flash_ex.c ****   user_config = (READ_BIT(sfr_reg_val, FLASH_SFR_HDPSA) >> FLASH_SFR_HDPSA_Pos);
1222:hardware/mcu/st/stm32wlxx_hal_driver/Src/stm32wlxx_hal_flash_ex.c **** 
1223:hardware/mcu/st/stm32wlxx_hal_driver/Src/stm32wlxx_hal_flash_ex.c ****   *HideProtectionStartAddr = ((user_config * FLASH_PAGE_SIZE) + FLASH_BASE);
1224:hardware/mcu/st/stm32wlxx_hal_driver/Src/stm32wlxx_hal_flash_ex.c **** 
1225:hardware/mcu/st/stm32wlxx_hal_driver/Src/stm32wlxx_hal_flash_ex.c ****   /* Get Secure SRAM2 start address */
1226:hardware/mcu/st/stm32wlxx_hal_driver/Src/stm32wlxx_hal_flash_ex.c ****   user_config = (READ_BIT(srrvr_reg_val, FLASH_SRRVR_SBRSA) >> FLASH_SRRVR_SBRSA_Pos);
1227:hardware/mcu/st/stm32wlxx_hal_driver/Src/stm32wlxx_hal_flash_ex.c **** 
1228:hardware/mcu/st/stm32wlxx_hal_driver/Src/stm32wlxx_hal_flash_ex.c ****   *SecureSRAM2StartAddr = ((user_config << SRAM_SECURE_PAGE_GRANULARITY_OFFSET) + SRAM2_BASE);
1229:hardware/mcu/st/stm32wlxx_hal_driver/Src/stm32wlxx_hal_flash_ex.c **** 
1230:hardware/mcu/st/stm32wlxx_hal_driver/Src/stm32wlxx_hal_flash_ex.c ****   /* Get Secure SRAM1 start address */
1231:hardware/mcu/st/stm32wlxx_hal_driver/Src/stm32wlxx_hal_flash_ex.c ****   user_config = (READ_BIT(srrvr_reg_val, FLASH_SRRVR_SNBRSA) >> FLASH_SRRVR_SNBRSA_Pos);
1232:hardware/mcu/st/stm32wlxx_hal_driver/Src/stm32wlxx_hal_flash_ex.c **** 
1233:hardware/mcu/st/stm32wlxx_hal_driver/Src/stm32wlxx_hal_flash_ex.c ****   *SecureSRAM1StartAddr = ((user_config << SRAM_SECURE_PAGE_GRANULARITY_OFFSET) + SRAM1_BASE);
1234:hardware/mcu/st/stm32wlxx_hal_driver/Src/stm32wlxx_hal_flash_ex.c **** 
1235:hardware/mcu/st/stm32wlxx_hal_driver/Src/stm32wlxx_hal_flash_ex.c ****   /* Get Secure Area mode */
1236:hardware/mcu/st/stm32wlxx_hal_driver/Src/stm32wlxx_hal_flash_ex.c ****   *SecureMode = (FLASH_OB_GetSecureMode(sfr_reg_val, FLASH_SFR_FSD, OB_SECURE_SYSTEM_AND_FLASH_ENAB
1237:hardware/mcu/st/stm32wlxx_hal_driver/Src/stm32wlxx_hal_flash_ex.c ****                  FLASH_OB_GetSecureMode(sfr_reg_val, FLASH_SFR_HDPAD, OB_SECURE_HIDE_PROTECTION_ENA
1238:hardware/mcu/st/stm32wlxx_hal_driver/Src/stm32wlxx_hal_flash_ex.c ****                  FLASH_OB_GetSecureMode(srrvr_reg_val, FLASH_SRRVR_NBRSD, OB_SECURE_SRAM1_ENABLE, O
1239:hardware/mcu/st/stm32wlxx_hal_driver/Src/stm32wlxx_hal_flash_ex.c ****                  FLASH_OB_GetSecureMode(srrvr_reg_val, FLASH_SRRVR_BRSD, OB_SECURE_SRAM2_ENABLE, OB
1240:hardware/mcu/st/stm32wlxx_hal_driver/Src/stm32wlxx_hal_flash_ex.c **** }
1241:hardware/mcu/st/stm32wlxx_hal_driver/Src/stm32wlxx_hal_flash_ex.c **** 
1242:hardware/mcu/st/stm32wlxx_hal_driver/Src/stm32wlxx_hal_flash_ex.c **** /**
1243:hardware/mcu/st/stm32wlxx_hal_driver/Src/stm32wlxx_hal_flash_ex.c ****   * @brief  Return the CPU2 Secure Boot reset vector address and the CPU2 Secure Boot Region
1244:hardware/mcu/st/stm32wlxx_hal_driver/Src/stm32wlxx_hal_flash_ex.c ****   * @param  C2BootResetVectAddr Specifies the address where to copied the CPU2 Secure Boot reset ve
1245:hardware/mcu/st/stm32wlxx_hal_driver/Src/stm32wlxx_hal_flash_ex.c ****   * @param  C2BootResetRegion   Specifies the Secure Boot reset memory region
1246:hardware/mcu/st/stm32wlxx_hal_driver/Src/stm32wlxx_hal_flash_ex.c ****   * @retval None
ARM GAS  /var/folders/b4/k4jbz0ms4wg23jtq0w6p483m0000gn/T//cc2bvfXO.s 			page 28


1247:hardware/mcu/st/stm32wlxx_hal_driver/Src/stm32wlxx_hal_flash_ex.c ****   */
1248:hardware/mcu/st/stm32wlxx_hal_driver/Src/stm32wlxx_hal_flash_ex.c **** static void FLASH_OB_GetC2BootResetConfig(uint32_t *C2BootResetVectAddr, uint32_t *C2BootResetRegio
1249:hardware/mcu/st/stm32wlxx_hal_driver/Src/stm32wlxx_hal_flash_ex.c **** {
1250:hardware/mcu/st/stm32wlxx_hal_driver/Src/stm32wlxx_hal_flash_ex.c ****   *C2BootResetRegion = (READ_BIT(FLASH->SRRVR, FLASH_SRRVR_C2OPT));
1251:hardware/mcu/st/stm32wlxx_hal_driver/Src/stm32wlxx_hal_flash_ex.c **** 
1252:hardware/mcu/st/stm32wlxx_hal_driver/Src/stm32wlxx_hal_flash_ex.c ****   if (*C2BootResetRegion == OB_C2_BOOT_FROM_FLASH)
1253:hardware/mcu/st/stm32wlxx_hal_driver/Src/stm32wlxx_hal_flash_ex.c ****   {
1254:hardware/mcu/st/stm32wlxx_hal_driver/Src/stm32wlxx_hal_flash_ex.c ****     *C2BootResetVectAddr = (uint32_t)((READ_BIT(FLASH->SRRVR, FLASH_SRRVR_SBRV) << 2) + FLASH_BASE)
1255:hardware/mcu/st/stm32wlxx_hal_driver/Src/stm32wlxx_hal_flash_ex.c ****   }
1256:hardware/mcu/st/stm32wlxx_hal_driver/Src/stm32wlxx_hal_flash_ex.c ****   else
1257:hardware/mcu/st/stm32wlxx_hal_driver/Src/stm32wlxx_hal_flash_ex.c ****   {
1258:hardware/mcu/st/stm32wlxx_hal_driver/Src/stm32wlxx_hal_flash_ex.c ****     *C2BootResetVectAddr = (uint32_t)((READ_BIT(FLASH->SRRVR, FLASH_SRRVR_SBRV) << 2) + SRAM1_BASE)
1259:hardware/mcu/st/stm32wlxx_hal_driver/Src/stm32wlxx_hal_flash_ex.c ****   }
1260:hardware/mcu/st/stm32wlxx_hal_driver/Src/stm32wlxx_hal_flash_ex.c **** }
1261:hardware/mcu/st/stm32wlxx_hal_driver/Src/stm32wlxx_hal_flash_ex.c **** 
1262:hardware/mcu/st/stm32wlxx_hal_driver/Src/stm32wlxx_hal_flash_ex.c **** /**
1263:hardware/mcu/st/stm32wlxx_hal_driver/Src/stm32wlxx_hal_flash_ex.c ****   * @brief  Return the Sub-GHz radio SPI Secure Access mode
1264:hardware/mcu/st/stm32wlxx_hal_driver/Src/stm32wlxx_hal_flash_ex.c ****   * @retval Returned value can be one of the following values:
1265:hardware/mcu/st/stm32wlxx_hal_driver/Src/stm32wlxx_hal_flash_ex.c ****   *           @arg @ref OB_SUBGHZSPI_SECURE_ACCESS_DISABLE : Sub-GHz radio SPI Secure access disabl
1266:hardware/mcu/st/stm32wlxx_hal_driver/Src/stm32wlxx_hal_flash_ex.c ****   *           @arg @ref OB_SUBGHZSPI_SECURE_ACCESS_ENABLE : Sub-GHz radio SPI Secure access enabled
1267:hardware/mcu/st/stm32wlxx_hal_driver/Src/stm32wlxx_hal_flash_ex.c ****   */
1268:hardware/mcu/st/stm32wlxx_hal_driver/Src/stm32wlxx_hal_flash_ex.c **** static uint32_t FLASH_OB_GetSUBGHZSPISecureAccess(void)
1269:hardware/mcu/st/stm32wlxx_hal_driver/Src/stm32wlxx_hal_flash_ex.c **** {
1270:hardware/mcu/st/stm32wlxx_hal_driver/Src/stm32wlxx_hal_flash_ex.c ****   return (READ_BIT(FLASH->SFR, FLASH_SFR_SUBGHZSPISD));
1271:hardware/mcu/st/stm32wlxx_hal_driver/Src/stm32wlxx_hal_flash_ex.c **** }
1272:hardware/mcu/st/stm32wlxx_hal_driver/Src/stm32wlxx_hal_flash_ex.c **** 
1273:hardware/mcu/st/stm32wlxx_hal_driver/Src/stm32wlxx_hal_flash_ex.c **** /**
1274:hardware/mcu/st/stm32wlxx_hal_driver/Src/stm32wlxx_hal_flash_ex.c ****   * @brief  Return the CPU2 Debug Access mode
1275:hardware/mcu/st/stm32wlxx_hal_driver/Src/stm32wlxx_hal_flash_ex.c ****   * @retval Returned value can be one of the following values:
1276:hardware/mcu/st/stm32wlxx_hal_driver/Src/stm32wlxx_hal_flash_ex.c ****   *           @arg @ref OB_C2_DEBUG_ACCESS_DISABLE : CPU2 debug access disabled
1277:hardware/mcu/st/stm32wlxx_hal_driver/Src/stm32wlxx_hal_flash_ex.c ****   *           @arg @ref OB_C2_DEBUG_ACCESS_ENABLE : CPU2 debug access enabled
1278:hardware/mcu/st/stm32wlxx_hal_driver/Src/stm32wlxx_hal_flash_ex.c ****   */
1279:hardware/mcu/st/stm32wlxx_hal_driver/Src/stm32wlxx_hal_flash_ex.c **** static uint32_t FLASH_OB_GetC2DebugAccessMode(void)
1280:hardware/mcu/st/stm32wlxx_hal_driver/Src/stm32wlxx_hal_flash_ex.c **** {
1281:hardware/mcu/st/stm32wlxx_hal_driver/Src/stm32wlxx_hal_flash_ex.c ****   return (READ_BIT(FLASH->SFR, FLASH_SFR_DDS));
1282:hardware/mcu/st/stm32wlxx_hal_driver/Src/stm32wlxx_hal_flash_ex.c **** }
1283:hardware/mcu/st/stm32wlxx_hal_driver/Src/stm32wlxx_hal_flash_ex.c **** #endif /* DUAL_CORE */
1284:hardware/mcu/st/stm32wlxx_hal_driver/Src/stm32wlxx_hal_flash_ex.c **** 
1285:hardware/mcu/st/stm32wlxx_hal_driver/Src/stm32wlxx_hal_flash_ex.c **** /**
1286:hardware/mcu/st/stm32wlxx_hal_driver/Src/stm32wlxx_hal_flash_ex.c ****   * @brief  Proceed the OB Write Operation.
1287:hardware/mcu/st/stm32wlxx_hal_driver/Src/stm32wlxx_hal_flash_ex.c ****   * @retval HAL Status
1288:hardware/mcu/st/stm32wlxx_hal_driver/Src/stm32wlxx_hal_flash_ex.c ****   */
1289:hardware/mcu/st/stm32wlxx_hal_driver/Src/stm32wlxx_hal_flash_ex.c **** static HAL_StatusTypeDef FLASH_OB_ProceedWriteOperation(void)
 260              		.loc 1 1289 26 view .LVU103
 261              	.LBB38:
1290:hardware/mcu/st/stm32wlxx_hal_driver/Src/stm32wlxx_hal_flash_ex.c **** {
1291:hardware/mcu/st/stm32wlxx_hal_driver/Src/stm32wlxx_hal_flash_ex.c ****   HAL_StatusTypeDef status;
 262              		.loc 1 1291 3 view .LVU104
1292:hardware/mcu/st/stm32wlxx_hal_driver/Src/stm32wlxx_hal_flash_ex.c **** 
1293:hardware/mcu/st/stm32wlxx_hal_driver/Src/stm32wlxx_hal_flash_ex.c ****   /* Verify that next operation can be proceed */
1294:hardware/mcu/st/stm32wlxx_hal_driver/Src/stm32wlxx_hal_flash_ex.c ****   status = FLASH_WaitForLastOperation(FLASH_TIMEOUT_VALUE);
 263              		.loc 1 1294 3 view .LVU105
 264              		.loc 1 1294 12 is_stmt 0 view .LVU106
 265 00a6 4FF47A70 		mov	r0, #1000
 266              	.LVL20:
 267              		.loc 1 1294 12 view .LVU107
 268 00aa FFF7FEFF 		bl	FLASH_WaitForLastOperation
ARM GAS  /var/folders/b4/k4jbz0ms4wg23jtq0w6p483m0000gn/T//cc2bvfXO.s 			page 29


 269              	.LVL21:
1295:hardware/mcu/st/stm32wlxx_hal_driver/Src/stm32wlxx_hal_flash_ex.c **** 
1296:hardware/mcu/st/stm32wlxx_hal_driver/Src/stm32wlxx_hal_flash_ex.c ****   if (status == HAL_OK)
 270              		.loc 1 1296 3 is_stmt 1 view .LVU108
 271              		.loc 1 1296 6 is_stmt 0 view .LVU109
 272 00ae 40B9     		cbnz	r0, .L15
1297:hardware/mcu/st/stm32wlxx_hal_driver/Src/stm32wlxx_hal_flash_ex.c ****   {
1298:hardware/mcu/st/stm32wlxx_hal_driver/Src/stm32wlxx_hal_flash_ex.c ****     /* Set OPTSTRT Bit */
1299:hardware/mcu/st/stm32wlxx_hal_driver/Src/stm32wlxx_hal_flash_ex.c ****     SET_BIT(FLASH->CR, FLASH_CR_OPTSTRT);
 273              		.loc 1 1299 5 is_stmt 1 view .LVU110
 274 00b0 1E4A     		ldr	r2, .L38+4
 275 00b2 5369     		ldr	r3, [r2, #20]
 276 00b4 43F40033 		orr	r3, r3, #131072
 277 00b8 5361     		str	r3, [r2, #20]
1300:hardware/mcu/st/stm32wlxx_hal_driver/Src/stm32wlxx_hal_flash_ex.c **** 
1301:hardware/mcu/st/stm32wlxx_hal_driver/Src/stm32wlxx_hal_flash_ex.c ****     /* Wait for last operation to be completed */
1302:hardware/mcu/st/stm32wlxx_hal_driver/Src/stm32wlxx_hal_flash_ex.c ****     status = FLASH_WaitForLastOperation(FLASH_TIMEOUT_VALUE);
 278              		.loc 1 1302 5 view .LVU111
 279              		.loc 1 1302 14 is_stmt 0 view .LVU112
 280 00ba 4FF47A70 		mov	r0, #1000
 281              	.LVL22:
 282              		.loc 1 1302 14 view .LVU113
 283 00be FFF7FEFF 		bl	FLASH_WaitForLastOperation
 284              	.LVL23:
 285              	.L15:
1303:hardware/mcu/st/stm32wlxx_hal_driver/Src/stm32wlxx_hal_flash_ex.c ****   }
1304:hardware/mcu/st/stm32wlxx_hal_driver/Src/stm32wlxx_hal_flash_ex.c **** 
1305:hardware/mcu/st/stm32wlxx_hal_driver/Src/stm32wlxx_hal_flash_ex.c ****   return status;
 286              		.loc 1 1305 3 is_stmt 1 view .LVU114
 287              		.loc 1 1305 3 is_stmt 0 view .LVU115
 288              	.LBE38:
 289              	.LBE37:
 396:hardware/mcu/st/stm32wlxx_hal_driver/Src/stm32wlxx_hal_flash_ex.c **** 
 290              		.loc 1 396 3 is_stmt 1 view .LVU116
 396:hardware/mcu/st/stm32wlxx_hal_driver/Src/stm32wlxx_hal_flash_ex.c **** 
 291              		.loc 1 396 3 view .LVU117
 292 00c2 0023     		movs	r3, #0
 293 00c4 2370     		strb	r3, [r4]
 396:hardware/mcu/st/stm32wlxx_hal_driver/Src/stm32wlxx_hal_flash_ex.c **** 
 294              		.loc 1 396 3 view .LVU118
 399:hardware/mcu/st/stm32wlxx_hal_driver/Src/stm32wlxx_hal_flash_ex.c **** }
 295              		.loc 1 399 3 view .LVU119
 296              	.LVL24:
 297              	.L2:
 400:hardware/mcu/st/stm32wlxx_hal_driver/Src/stm32wlxx_hal_flash_ex.c **** 
 298              		.loc 1 400 1 is_stmt 0 view .LVU120
 299 00c6 70BD     		pop	{r4, r5, r6, pc}
 300              	.LVL25:
 301              	.L4:
 302              	.LBB39:
 303              	.LBB26:
 743:hardware/mcu/st/stm32wlxx_hal_driver/Src/stm32wlxx_hal_flash_ex.c ****                (WRPStartOffset | (WRDPEndOffset << FLASH_WRP1AR_WRP1A_END_Pos)));
 304              		.loc 1 743 5 is_stmt 1 view .LVU121
 305 00c8 136B     		ldr	r3, [r2, #48]
 306 00ca 23F07F13 		bic	r3, r3, #8323199
 307 00ce 3343     		orrs	r3, r3, r6
 308 00d0 2B43     		orrs	r3, r3, r5
ARM GAS  /var/folders/b4/k4jbz0ms4wg23jtq0w6p483m0000gn/T//cc2bvfXO.s 			page 30


 309 00d2 1363     		str	r3, [r2, #48]
 310 00d4 AEE7     		b	.L3
 311              	.L5:
 312              	.LBE26:
 313              	.LBE39:
 336:hardware/mcu/st/stm32wlxx_hal_driver/Src/stm32wlxx_hal_flash_ex.c ****   {
 314              		.loc 1 336 8 view .LVU122
 336:hardware/mcu/st/stm32wlxx_hal_driver/Src/stm32wlxx_hal_flash_ex.c ****   {
 315              		.loc 1 336 11 is_stmt 0 view .LVU123
 316 00d6 8E07     		lsls	r6, r1, #30
 317 00d8 11D5     		bpl	.L7
 339:hardware/mcu/st/stm32wlxx_hal_driver/Src/stm32wlxx_hal_flash_ex.c **** 
 318              		.loc 1 339 5 is_stmt 1 view .LVU124
 319              	.LBB40:
 320              	.LBI40:
1136:hardware/mcu/st/stm32wlxx_hal_driver/Src/stm32wlxx_hal_flash_ex.c **** {
 321              		.loc 1 1136 17 view .LVU125
 322              	.LBB41:
1138:hardware/mcu/st/stm32wlxx_hal_driver/Src/stm32wlxx_hal_flash_ex.c ****   CLEAR_BIT(user_config, (FLASH_OPTR_RDP | FLASH_OPTR_ESE));
 323              		.loc 1 1138 3 view .LVU126
1138:hardware/mcu/st/stm32wlxx_hal_driver/Src/stm32wlxx_hal_flash_ex.c ****   CLEAR_BIT(user_config, (FLASH_OPTR_RDP | FLASH_OPTR_ESE));
 324              		.loc 1 1138 27 is_stmt 0 view .LVU127
 325 00da 144D     		ldr	r5, .L38+4
 326 00dc 2B6A     		ldr	r3, [r5, #32]
 327              	.LVL26:
1139:hardware/mcu/st/stm32wlxx_hal_driver/Src/stm32wlxx_hal_flash_ex.c **** 
 328              		.loc 1 1139 3 is_stmt 1 view .LVU128
1141:hardware/mcu/st/stm32wlxx_hal_driver/Src/stm32wlxx_hal_flash_ex.c **** }
 329              		.loc 1 1141 3 view .LVU129
1141:hardware/mcu/st/stm32wlxx_hal_driver/Src/stm32wlxx_hal_flash_ex.c **** }
 330              		.loc 1 1141 3 is_stmt 0 view .LVU130
 331              	.LBE41:
 332              	.LBE40:
 342:hardware/mcu/st/stm32wlxx_hal_driver/Src/stm32wlxx_hal_flash_ex.c **** 
 333              		.loc 1 342 5 is_stmt 1 view .LVU131
 334              	.LBB42:
 335              	.LBB43:
 830:hardware/mcu/st/stm32wlxx_hal_driver/Src/stm32wlxx_hal_flash_ex.c ****   optr &= ~(UserType | FLASH_OPTR_RDP);
 336              		.loc 1 830 8 is_stmt 0 view .LVU132
 337 00de 2A6A     		ldr	r2, [r5, #32]
 338              	.LBE43:
 339              	.LBE42:
 342:hardware/mcu/st/stm32wlxx_hal_driver/Src/stm32wlxx_hal_flash_ex.c **** 
 340              		.loc 1 342 10 view .LVU133
 341 00e0 23F03043 		bic	r3, r3, #-1342177280
 342              	.LVL27:
 342:hardware/mcu/st/stm32wlxx_hal_driver/Src/stm32wlxx_hal_flash_ex.c **** 
 343              		.loc 1 342 10 view .LVU134
 344 00e4 23F4E103 		bic	r3, r3, #7372800
 345 00e8 23F47F63 		bic	r3, r3, #4080
 346 00ec 23F00F03 		bic	r3, r3, #15
 347              	.LVL28:
 344:hardware/mcu/st/stm32wlxx_hal_driver/Src/stm32wlxx_hal_flash_ex.c ****   }
 348              		.loc 1 344 5 is_stmt 1 view .LVU135
 349              	.LBB45:
 350              	.LBI42:
 820:hardware/mcu/st/stm32wlxx_hal_driver/Src/stm32wlxx_hal_flash_ex.c **** {
ARM GAS  /var/folders/b4/k4jbz0ms4wg23jtq0w6p483m0000gn/T//cc2bvfXO.s 			page 31


 351              		.loc 1 820 13 view .LVU136
 352              	.LBB44:
 822:hardware/mcu/st/stm32wlxx_hal_driver/Src/stm32wlxx_hal_flash_ex.c **** 
 353              		.loc 1 822 3 view .LVU137
 825:hardware/mcu/st/stm32wlxx_hal_driver/Src/stm32wlxx_hal_flash_ex.c ****   assert_param(IS_OB_USER_CONFIG(UserType, UserConfig));
 354              		.loc 1 825 3 view .LVU138
 826:hardware/mcu/st/stm32wlxx_hal_driver/Src/stm32wlxx_hal_flash_ex.c ****   assert_param(IS_OB_RDP_LEVEL(RDPLevel));
 355              		.loc 1 826 3 view .LVU139
 827:hardware/mcu/st/stm32wlxx_hal_driver/Src/stm32wlxx_hal_flash_ex.c **** 
 356              		.loc 1 827 3 view .LVU140
 830:hardware/mcu/st/stm32wlxx_hal_driver/Src/stm32wlxx_hal_flash_ex.c ****   optr &= ~(UserType | FLASH_OPTR_RDP);
 357              		.loc 1 830 3 view .LVU141
 831:hardware/mcu/st/stm32wlxx_hal_driver/Src/stm32wlxx_hal_flash_ex.c ****   FLASH->OPTR = (optr | UserConfig | RDPLevel);
 358              		.loc 1 831 3 view .LVU142
 832:hardware/mcu/st/stm32wlxx_hal_driver/Src/stm32wlxx_hal_flash_ex.c **** }
 359              		.loc 1 832 3 view .LVU143
 831:hardware/mcu/st/stm32wlxx_hal_driver/Src/stm32wlxx_hal_flash_ex.c ****   FLASH->OPTR = (optr | UserConfig | RDPLevel);
 360              		.loc 1 831 22 is_stmt 0 view .LVU144
 361 00f0 43F0FF06 		orr	r6, r3, #255
 831:hardware/mcu/st/stm32wlxx_hal_driver/Src/stm32wlxx_hal_flash_ex.c ****   FLASH->OPTR = (optr | UserConfig | RDPLevel);
 362              		.loc 1 831 8 view .LVU145
 363 00f4 22EA0602 		bic	r2, r2, r6
 364              	.LVL29:
 832:hardware/mcu/st/stm32wlxx_hal_driver/Src/stm32wlxx_hal_flash_ex.c **** }
 365              		.loc 1 832 36 view .LVU146
 366 00f8 0669     		ldr	r6, [r0, #16]
 367              	.LVL30:
 368              	.L37:
 832:hardware/mcu/st/stm32wlxx_hal_driver/Src/stm32wlxx_hal_flash_ex.c **** }
 369              		.loc 1 832 36 view .LVU147
 370              	.LBE44:
 371              	.LBE45:
 372              	.LBB46:
 373              	.LBB31:
 832:hardware/mcu/st/stm32wlxx_hal_driver/Src/stm32wlxx_hal_flash_ex.c **** }
 374              		.loc 1 832 23 view .LVU148
 375 00fa 3343     		orrs	r3, r3, r6
 376 00fc A8E7     		b	.L36
 377              	.L7:
 378              	.LBE31:
 379              	.LBE46:
 346:hardware/mcu/st/stm32wlxx_hal_driver/Src/stm32wlxx_hal_flash_ex.c ****   {
 380              		.loc 1 346 8 is_stmt 1 view .LVU149
 346:hardware/mcu/st/stm32wlxx_hal_driver/Src/stm32wlxx_hal_flash_ex.c ****   {
 381              		.loc 1 346 11 is_stmt 0 view .LVU150
 382 00fe 4D07     		lsls	r5, r1, #29
 383 0100 A8D5     		bpl	.L6
 349:hardware/mcu/st/stm32wlxx_hal_driver/Src/stm32wlxx_hal_flash_ex.c ****     FLASH_OB_OptrConfig(pOBInit->UserType, pOBInit->UserConfig, optr);
 384              		.loc 1 349 5 is_stmt 1 view .LVU151
 385              	.LBB47:
 386              	.LBI47:
1082:hardware/mcu/st/stm32wlxx_hal_driver/Src/stm32wlxx_hal_flash_ex.c **** {
 387              		.loc 1 1082 17 view .LVU152
 388              	.LBB48:
1084:hardware/mcu/st/stm32wlxx_hal_driver/Src/stm32wlxx_hal_flash_ex.c **** 
 389              		.loc 1 1084 3 view .LVU153
1084:hardware/mcu/st/stm32wlxx_hal_driver/Src/stm32wlxx_hal_flash_ex.c **** 
ARM GAS  /var/folders/b4/k4jbz0ms4wg23jtq0w6p483m0000gn/T//cc2bvfXO.s 			page 32


 390              		.loc 1 1084 21 is_stmt 0 view .LVU154
 391 0102 0A4D     		ldr	r5, .L38+4
 392 0104 2A6A     		ldr	r2, [r5, #32]
1084:hardware/mcu/st/stm32wlxx_hal_driver/Src/stm32wlxx_hal_flash_ex.c **** 
 393              		.loc 1 1084 12 view .LVU155
 394 0106 D2B2     		uxtb	r2, r2
 395              	.LVL31:
1086:hardware/mcu/st/stm32wlxx_hal_driver/Src/stm32wlxx_hal_flash_ex.c ****   {
 396              		.loc 1 1086 3 is_stmt 1 view .LVU156
1086:hardware/mcu/st/stm32wlxx_hal_driver/Src/stm32wlxx_hal_flash_ex.c ****   {
 397              		.loc 1 1086 6 is_stmt 0 view .LVU157
 398 0108 AA2A     		cmp	r2, #170
 399 010a 02D0     		beq	.L8
1088:hardware/mcu/st/stm32wlxx_hal_driver/Src/stm32wlxx_hal_flash_ex.c ****   }
 400              		.loc 1 1088 12 view .LVU158
 401 010c CC2A     		cmp	r2, #204
 402 010e 18BF     		it	ne
 403 0110 BB22     		movne	r2, #187
 404              	.LVL32:
 405              	.L8:
1088:hardware/mcu/st/stm32wlxx_hal_driver/Src/stm32wlxx_hal_flash_ex.c ****   }
 406              		.loc 1 1088 12 view .LVU159
 407              	.LBE48:
 408              	.LBE47:
 350:hardware/mcu/st/stm32wlxx_hal_driver/Src/stm32wlxx_hal_flash_ex.c ****   }
 409              		.loc 1 350 5 is_stmt 1 view .LVU160
 410              	.LBB49:
 411              	.LBI29:
 820:hardware/mcu/st/stm32wlxx_hal_driver/Src/stm32wlxx_hal_flash_ex.c **** {
 412              		.loc 1 820 13 view .LVU161
 413              	.LBB32:
 822:hardware/mcu/st/stm32wlxx_hal_driver/Src/stm32wlxx_hal_flash_ex.c **** 
 414              		.loc 1 822 3 view .LVU162
 825:hardware/mcu/st/stm32wlxx_hal_driver/Src/stm32wlxx_hal_flash_ex.c ****   assert_param(IS_OB_USER_CONFIG(UserType, UserConfig));
 415              		.loc 1 825 3 view .LVU163
 826:hardware/mcu/st/stm32wlxx_hal_driver/Src/stm32wlxx_hal_flash_ex.c ****   assert_param(IS_OB_RDP_LEVEL(RDPLevel));
 416              		.loc 1 826 3 view .LVU164
 827:hardware/mcu/st/stm32wlxx_hal_driver/Src/stm32wlxx_hal_flash_ex.c **** 
 417              		.loc 1 827 3 view .LVU165
 830:hardware/mcu/st/stm32wlxx_hal_driver/Src/stm32wlxx_hal_flash_ex.c ****   optr &= ~(UserType | FLASH_OPTR_RDP);
 418              		.loc 1 830 3 view .LVU166
 831:hardware/mcu/st/stm32wlxx_hal_driver/Src/stm32wlxx_hal_flash_ex.c ****   FLASH->OPTR = (optr | UserConfig | RDPLevel);
 419              		.loc 1 831 22 is_stmt 0 view .LVU167
 420 0112 4669     		ldr	r6, [r0, #20]
 830:hardware/mcu/st/stm32wlxx_hal_driver/Src/stm32wlxx_hal_flash_ex.c ****   optr &= ~(UserType | FLASH_OPTR_RDP);
 421              		.loc 1 830 8 view .LVU168
 422 0114 2B6A     		ldr	r3, [r5, #32]
 423              	.LVL33:
 831:hardware/mcu/st/stm32wlxx_hal_driver/Src/stm32wlxx_hal_flash_ex.c ****   FLASH->OPTR = (optr | UserConfig | RDPLevel);
 424              		.loc 1 831 3 is_stmt 1 view .LVU169
 832:hardware/mcu/st/stm32wlxx_hal_driver/Src/stm32wlxx_hal_flash_ex.c **** }
 425              		.loc 1 832 3 view .LVU170
 831:hardware/mcu/st/stm32wlxx_hal_driver/Src/stm32wlxx_hal_flash_ex.c ****   FLASH->OPTR = (optr | UserConfig | RDPLevel);
 426              		.loc 1 831 22 is_stmt 0 view .LVU171
 427 0116 46F0FF06 		orr	r6, r6, #255
 831:hardware/mcu/st/stm32wlxx_hal_driver/Src/stm32wlxx_hal_flash_ex.c ****   FLASH->OPTR = (optr | UserConfig | RDPLevel);
 428              		.loc 1 831 8 view .LVU172
ARM GAS  /var/folders/b4/k4jbz0ms4wg23jtq0w6p483m0000gn/T//cc2bvfXO.s 			page 33


 429 011a 23EA0603 		bic	r3, r3, r6
 430              	.LVL34:
 832:hardware/mcu/st/stm32wlxx_hal_driver/Src/stm32wlxx_hal_flash_ex.c **** }
 431              		.loc 1 832 23 view .LVU173
 432 011e 8669     		ldr	r6, [r0, #24]
 433 0120 EBE7     		b	.L37
 434              	.LVL35:
 435              	.L16:
 832:hardware/mcu/st/stm32wlxx_hal_driver/Src/stm32wlxx_hal_flash_ex.c **** }
 436              		.loc 1 832 23 view .LVU174
 437              	.LBE32:
 438              	.LBE49:
 319:hardware/mcu/st/stm32wlxx_hal_driver/Src/stm32wlxx_hal_flash_ex.c **** 
 439              		.loc 1 319 3 view .LVU175
 440 0122 0220     		movs	r0, #2
 441              	.LVL36:
 319:hardware/mcu/st/stm32wlxx_hal_driver/Src/stm32wlxx_hal_flash_ex.c **** 
 442              		.loc 1 319 3 view .LVU176
 443 0124 CFE7     		b	.L2
 444              	.L39:
 445 0126 00BF     		.align	2
 446              	.L38:
 447 0128 00000000 		.word	pFlash
 448 012c 00400058 		.word	1476411392
 449 0130 01000080 		.word	-2147483647
 450              		.cfi_endproc
 451              	.LFE723:
 453              		.section	.text.HAL_FLASHEx_OBGetConfig,"ax",%progbits
 454              		.align	1
 455              		.global	HAL_FLASHEx_OBGetConfig
 456              		.syntax unified
 457              		.thumb
 458              		.thumb_func
 460              	HAL_FLASHEx_OBGetConfig:
 461              	.LVL37:
 462              	.LFB724:
 414:hardware/mcu/st/stm32wlxx_hal_driver/Src/stm32wlxx_hal_flash_ex.c ****   pOBInit->OptionType = OPTIONBYTE_ALL;
 463              		.loc 1 414 1 is_stmt 1 view -0
 464              		.cfi_startproc
 465              		@ args = 0, pretend = 0, frame = 0
 466              		@ frame_needed = 0, uses_anonymous_args = 0
 467              		@ link register save eliminated.
 415:hardware/mcu/st/stm32wlxx_hal_driver/Src/stm32wlxx_hal_flash_ex.c **** 
 468              		.loc 1 415 3 view .LVU178
 417:hardware/mcu/st/stm32wlxx_hal_driver/Src/stm32wlxx_hal_flash_ex.c ****   {
 469              		.loc 1 417 15 is_stmt 0 view .LVU179
 470 0000 4268     		ldr	r2, [r0, #4]
 415:hardware/mcu/st/stm32wlxx_hal_driver/Src/stm32wlxx_hal_flash_ex.c **** 
 471              		.loc 1 415 23 view .LVU180
 472 0002 0F23     		movs	r3, #15
 417:hardware/mcu/st/stm32wlxx_hal_driver/Src/stm32wlxx_hal_flash_ex.c ****   {
 473              		.loc 1 417 6 view .LVU181
 474 0004 012A     		cmp	r2, #1
 415:hardware/mcu/st/stm32wlxx_hal_driver/Src/stm32wlxx_hal_flash_ex.c **** 
 475              		.loc 1 415 23 view .LVU182
 476 0006 0360     		str	r3, [r0]
 417:hardware/mcu/st/stm32wlxx_hal_driver/Src/stm32wlxx_hal_flash_ex.c ****   {
ARM GAS  /var/folders/b4/k4jbz0ms4wg23jtq0w6p483m0000gn/T//cc2bvfXO.s 			page 34


 477              		.loc 1 417 3 is_stmt 1 view .LVU183
 417:hardware/mcu/st/stm32wlxx_hal_driver/Src/stm32wlxx_hal_flash_ex.c ****   {
 478              		.loc 1 417 6 is_stmt 0 view .LVU184
 479 0008 0AD8     		bhi	.L41
 420:hardware/mcu/st/stm32wlxx_hal_driver/Src/stm32wlxx_hal_flash_ex.c ****   }
 480              		.loc 1 420 5 is_stmt 1 view .LVU185
 481              	.LVL38:
 482              	.LBB58:
 483              	.LBI58:
1056:hardware/mcu/st/stm32wlxx_hal_driver/Src/stm32wlxx_hal_flash_ex.c **** {
 484              		.loc 1 1056 13 view .LVU186
 485              	.LBB59:
1059:hardware/mcu/st/stm32wlxx_hal_driver/Src/stm32wlxx_hal_flash_ex.c **** 
 486              		.loc 1 1059 3 view .LVU187
1062:hardware/mcu/st/stm32wlxx_hal_driver/Src/stm32wlxx_hal_flash_ex.c ****   {
 487              		.loc 1 1062 3 view .LVU188
 488 000a 214B     		ldr	r3, .L49
1062:hardware/mcu/st/stm32wlxx_hal_driver/Src/stm32wlxx_hal_flash_ex.c ****   {
 489              		.loc 1 1062 6 is_stmt 0 view .LVU189
 490 000c 002A     		cmp	r2, #0
 491 000e 38D1     		bne	.L42
1064:hardware/mcu/st/stm32wlxx_hal_driver/Src/stm32wlxx_hal_flash_ex.c ****     *WRDPEndOffset = (READ_BIT(FLASH->WRP1AR, FLASH_WRP1AR_WRP1A_END) >> FLASH_WRP1AR_WRP1A_END_Pos
 492              		.loc 1 1064 5 is_stmt 1 view .LVU190
1064:hardware/mcu/st/stm32wlxx_hal_driver/Src/stm32wlxx_hal_flash_ex.c ****     *WRDPEndOffset = (READ_BIT(FLASH->WRP1AR, FLASH_WRP1AR_WRP1A_END) >> FLASH_WRP1AR_WRP1A_END_Pos
 493              		.loc 1 1064 23 is_stmt 0 view .LVU191
 494 0010 DA6A     		ldr	r2, [r3, #44]
 495              	.LVL39:
1064:hardware/mcu/st/stm32wlxx_hal_driver/Src/stm32wlxx_hal_flash_ex.c ****     *WRDPEndOffset = (READ_BIT(FLASH->WRP1AR, FLASH_WRP1AR_WRP1A_END) >> FLASH_WRP1AR_WRP1A_END_Pos
 496              		.loc 1 1064 23 view .LVU192
 497 0012 02F07F02 		and	r2, r2, #127
1064:hardware/mcu/st/stm32wlxx_hal_driver/Src/stm32wlxx_hal_flash_ex.c ****     *WRDPEndOffset = (READ_BIT(FLASH->WRP1AR, FLASH_WRP1AR_WRP1A_END) >> FLASH_WRP1AR_WRP1A_END_Pos
 498              		.loc 1 1064 21 view .LVU193
 499 0016 8260     		str	r2, [r0, #8]
1065:hardware/mcu/st/stm32wlxx_hal_driver/Src/stm32wlxx_hal_flash_ex.c ****   }
 500              		.loc 1 1065 5 is_stmt 1 view .LVU194
1065:hardware/mcu/st/stm32wlxx_hal_driver/Src/stm32wlxx_hal_flash_ex.c ****   }
 501              		.loc 1 1065 23 is_stmt 0 view .LVU195
 502 0018 DB6A     		ldr	r3, [r3, #44]
 503              	.L48:
1070:hardware/mcu/st/stm32wlxx_hal_driver/Src/stm32wlxx_hal_flash_ex.c ****   }
 504              		.loc 1 1070 71 view .LVU196
 505 001a C3F30643 		ubfx	r3, r3, #16, #7
1070:hardware/mcu/st/stm32wlxx_hal_driver/Src/stm32wlxx_hal_flash_ex.c ****   }
 506              		.loc 1 1070 20 view .LVU197
 507 001e C360     		str	r3, [r0, #12]
 508              	.LVL40:
 509              	.L41:
1070:hardware/mcu/st/stm32wlxx_hal_driver/Src/stm32wlxx_hal_flash_ex.c ****   }
 510              		.loc 1 1070 20 view .LVU198
 511              	.LBE59:
 512              	.LBE58:
 424:hardware/mcu/st/stm32wlxx_hal_driver/Src/stm32wlxx_hal_flash_ex.c **** 
 513              		.loc 1 424 3 is_stmt 1 view .LVU199
 514              	.LBB61:
 515              	.LBI61:
1082:hardware/mcu/st/stm32wlxx_hal_driver/Src/stm32wlxx_hal_flash_ex.c **** {
 516              		.loc 1 1082 17 view .LVU200
ARM GAS  /var/folders/b4/k4jbz0ms4wg23jtq0w6p483m0000gn/T//cc2bvfXO.s 			page 35


 517              	.LBB62:
1084:hardware/mcu/st/stm32wlxx_hal_driver/Src/stm32wlxx_hal_flash_ex.c **** 
 518              		.loc 1 1084 3 view .LVU201
1084:hardware/mcu/st/stm32wlxx_hal_driver/Src/stm32wlxx_hal_flash_ex.c **** 
 519              		.loc 1 1084 21 is_stmt 0 view .LVU202
 520 0020 1B4B     		ldr	r3, .L49
 521 0022 1A6A     		ldr	r2, [r3, #32]
1084:hardware/mcu/st/stm32wlxx_hal_driver/Src/stm32wlxx_hal_flash_ex.c **** 
 522              		.loc 1 1084 12 view .LVU203
 523 0024 D2B2     		uxtb	r2, r2
 524              	.LVL41:
1086:hardware/mcu/st/stm32wlxx_hal_driver/Src/stm32wlxx_hal_flash_ex.c ****   {
 525              		.loc 1 1086 3 is_stmt 1 view .LVU204
1086:hardware/mcu/st/stm32wlxx_hal_driver/Src/stm32wlxx_hal_flash_ex.c ****   {
 526              		.loc 1 1086 6 is_stmt 0 view .LVU205
 527 0026 AA2A     		cmp	r2, #170
 528 0028 02D0     		beq	.L43
1088:hardware/mcu/st/stm32wlxx_hal_driver/Src/stm32wlxx_hal_flash_ex.c ****   }
 529              		.loc 1 1088 12 view .LVU206
 530 002a CC2A     		cmp	r2, #204
 531 002c 18BF     		it	ne
 532 002e BB22     		movne	r2, #187
 533              	.LVL42:
 534              	.L43:
1088:hardware/mcu/st/stm32wlxx_hal_driver/Src/stm32wlxx_hal_flash_ex.c ****   }
 535              		.loc 1 1088 12 view .LVU207
 536              	.LBE62:
 537              	.LBE61:
 424:hardware/mcu/st/stm32wlxx_hal_driver/Src/stm32wlxx_hal_flash_ex.c **** 
 538              		.loc 1 424 21 view .LVU208
 539 0030 0261     		str	r2, [r0, #16]
 427:hardware/mcu/st/stm32wlxx_hal_driver/Src/stm32wlxx_hal_flash_ex.c ****   pOBInit->UserType = OB_USER_ALL;
 540              		.loc 1 427 3 is_stmt 1 view .LVU209
 541              	.LBB63:
 542              	.LBI63:
1136:hardware/mcu/st/stm32wlxx_hal_driver/Src/stm32wlxx_hal_flash_ex.c **** {
 543              		.loc 1 1136 17 view .LVU210
 544              	.LBB64:
1138:hardware/mcu/st/stm32wlxx_hal_driver/Src/stm32wlxx_hal_flash_ex.c ****   CLEAR_BIT(user_config, (FLASH_OPTR_RDP | FLASH_OPTR_ESE));
 545              		.loc 1 1138 3 view .LVU211
1138:hardware/mcu/st/stm32wlxx_hal_driver/Src/stm32wlxx_hal_flash_ex.c ****   CLEAR_BIT(user_config, (FLASH_OPTR_RDP | FLASH_OPTR_ESE));
 546              		.loc 1 1138 27 is_stmt 0 view .LVU212
 547 0032 1A6A     		ldr	r2, [r3, #32]
 548              	.LVL43:
1139:hardware/mcu/st/stm32wlxx_hal_driver/Src/stm32wlxx_hal_flash_ex.c **** 
 549              		.loc 1 1139 3 is_stmt 1 view .LVU213
1141:hardware/mcu/st/stm32wlxx_hal_driver/Src/stm32wlxx_hal_flash_ex.c **** }
 550              		.loc 1 1141 3 view .LVU214
1138:hardware/mcu/st/stm32wlxx_hal_driver/Src/stm32wlxx_hal_flash_ex.c ****   CLEAR_BIT(user_config, (FLASH_OPTR_RDP | FLASH_OPTR_ESE));
 551              		.loc 1 1138 12 is_stmt 0 view .LVU215
 552 0034 1749     		ldr	r1, .L49+4
 553 0036 0A40     		ands	r2, r2, r1
 554              	.LBE64:
 555              	.LBE63:
 428:hardware/mcu/st/stm32wlxx_hal_driver/Src/stm32wlxx_hal_flash_ex.c **** 
 556              		.loc 1 428 21 view .LVU216
 557 0038 C0E90512 		strd	r1, r2, [r0, #20]
ARM GAS  /var/folders/b4/k4jbz0ms4wg23jtq0w6p483m0000gn/T//cc2bvfXO.s 			page 36


 431:hardware/mcu/st/stm32wlxx_hal_driver/Src/stm32wlxx_hal_flash_ex.c ****   pOBInit->PCROPConfig |= (OB_PCROP_ZONE_A | OB_PCROP_ZONE_B);
 558              		.loc 1 431 3 is_stmt 1 view .LVU217
 559              	.LVL44:
 560              	.LBB65:
 561              	.LBI65:
1157:hardware/mcu/st/stm32wlxx_hal_driver/Src/stm32wlxx_hal_flash_ex.c **** {
 562              		.loc 1 1157 13 view .LVU218
 563              	.LBB66:
1159:hardware/mcu/st/stm32wlxx_hal_driver/Src/stm32wlxx_hal_flash_ex.c **** 
 564              		.loc 1 1159 3 view .LVU219
1161:hardware/mcu/st/stm32wlxx_hal_driver/Src/stm32wlxx_hal_flash_ex.c ****   *PCROP1BStartAddr = ((pcrop << FLASH_PCROP_GRANULARITY_OFFSET) + FLASH_BASE);
 565              		.loc 1 1161 3 view .LVU220
1161:hardware/mcu/st/stm32wlxx_hal_driver/Src/stm32wlxx_hal_flash_ex.c ****   *PCROP1BStartAddr = ((pcrop << FLASH_PCROP_GRANULARITY_OFFSET) + FLASH_BASE);
 566              		.loc 1 1161 24 is_stmt 0 view .LVU221
 567 003c 5A6B     		ldr	r2, [r3, #52]
 568              	.LVL45:
1162:hardware/mcu/st/stm32wlxx_hal_driver/Src/stm32wlxx_hal_flash_ex.c **** 
 569              		.loc 1 1162 3 is_stmt 1 view .LVU222
1162:hardware/mcu/st/stm32wlxx_hal_driver/Src/stm32wlxx_hal_flash_ex.c **** 
 570              		.loc 1 1162 31 is_stmt 0 view .LVU223
 571 003e 9202     		lsls	r2, r2, #10
 572              	.LVL46:
1162:hardware/mcu/st/stm32wlxx_hal_driver/Src/stm32wlxx_hal_flash_ex.c **** 
 573              		.loc 1 1162 31 view .LVU224
 574 0040 02F47F32 		and	r2, r2, #261120
1162:hardware/mcu/st/stm32wlxx_hal_driver/Src/stm32wlxx_hal_flash_ex.c **** 
 575              		.loc 1 1162 66 view .LVU225
 576 0044 02F10062 		add	r2, r2, #134217728
1162:hardware/mcu/st/stm32wlxx_hal_driver/Src/stm32wlxx_hal_flash_ex.c **** 
 577              		.loc 1 1162 21 view .LVU226
 578 0048 8262     		str	r2, [r0, #40]
1164:hardware/mcu/st/stm32wlxx_hal_driver/Src/stm32wlxx_hal_flash_ex.c ****   *PCROP1BEndAddr   = ((pcrop << FLASH_PCROP_GRANULARITY_OFFSET) + FLASH_BASE);
 579              		.loc 1 1164 3 is_stmt 1 view .LVU227
1164:hardware/mcu/st/stm32wlxx_hal_driver/Src/stm32wlxx_hal_flash_ex.c ****   *PCROP1BEndAddr   = ((pcrop << FLASH_PCROP_GRANULARITY_OFFSET) + FLASH_BASE);
 580              		.loc 1 1164 24 is_stmt 0 view .LVU228
 581 004a 9A6B     		ldr	r2, [r3, #56]
 582              	.LVL47:
1165:hardware/mcu/st/stm32wlxx_hal_driver/Src/stm32wlxx_hal_flash_ex.c **** 
 583              		.loc 1 1165 3 is_stmt 1 view .LVU229
1165:hardware/mcu/st/stm32wlxx_hal_driver/Src/stm32wlxx_hal_flash_ex.c **** 
 584              		.loc 1 1165 31 is_stmt 0 view .LVU230
 585 004c 9202     		lsls	r2, r2, #10
 586              	.LVL48:
1165:hardware/mcu/st/stm32wlxx_hal_driver/Src/stm32wlxx_hal_flash_ex.c **** 
 587              		.loc 1 1165 31 view .LVU231
 588 004e 02F47F32 		and	r2, r2, #261120
1165:hardware/mcu/st/stm32wlxx_hal_driver/Src/stm32wlxx_hal_flash_ex.c **** 
 589              		.loc 1 1165 66 view .LVU232
 590 0052 02F10062 		add	r2, r2, #134217728
1165:hardware/mcu/st/stm32wlxx_hal_driver/Src/stm32wlxx_hal_flash_ex.c **** 
 591              		.loc 1 1165 21 view .LVU233
 592 0056 C262     		str	r2, [r0, #44]
1167:hardware/mcu/st/stm32wlxx_hal_driver/Src/stm32wlxx_hal_flash_ex.c ****   *PCROP1AStartAddr = ((pcrop << FLASH_PCROP_GRANULARITY_OFFSET) + FLASH_BASE);
 593              		.loc 1 1167 3 is_stmt 1 view .LVU234
1167:hardware/mcu/st/stm32wlxx_hal_driver/Src/stm32wlxx_hal_flash_ex.c ****   *PCROP1AStartAddr = ((pcrop << FLASH_PCROP_GRANULARITY_OFFSET) + FLASH_BASE);
 594              		.loc 1 1167 24 is_stmt 0 view .LVU235
 595 0058 5A6A     		ldr	r2, [r3, #36]
ARM GAS  /var/folders/b4/k4jbz0ms4wg23jtq0w6p483m0000gn/T//cc2bvfXO.s 			page 37


 596              	.LVL49:
1168:hardware/mcu/st/stm32wlxx_hal_driver/Src/stm32wlxx_hal_flash_ex.c **** 
 597              		.loc 1 1168 3 is_stmt 1 view .LVU236
1168:hardware/mcu/st/stm32wlxx_hal_driver/Src/stm32wlxx_hal_flash_ex.c **** 
 598              		.loc 1 1168 31 is_stmt 0 view .LVU237
 599 005a 9202     		lsls	r2, r2, #10
 600              	.LVL50:
1168:hardware/mcu/st/stm32wlxx_hal_driver/Src/stm32wlxx_hal_flash_ex.c **** 
 601              		.loc 1 1168 31 view .LVU238
 602 005c 02F47F32 		and	r2, r2, #261120
1168:hardware/mcu/st/stm32wlxx_hal_driver/Src/stm32wlxx_hal_flash_ex.c **** 
 603              		.loc 1 1168 66 view .LVU239
 604 0060 02F10062 		add	r2, r2, #134217728
1168:hardware/mcu/st/stm32wlxx_hal_driver/Src/stm32wlxx_hal_flash_ex.c **** 
 605              		.loc 1 1168 21 view .LVU240
 606 0064 0262     		str	r2, [r0, #32]
1170:hardware/mcu/st/stm32wlxx_hal_driver/Src/stm32wlxx_hal_flash_ex.c ****   *PCROP1AEndAddr   = ((pcrop << FLASH_PCROP_GRANULARITY_OFFSET) + FLASH_BASE);
 607              		.loc 1 1170 3 is_stmt 1 view .LVU241
1170:hardware/mcu/st/stm32wlxx_hal_driver/Src/stm32wlxx_hal_flash_ex.c ****   *PCROP1AEndAddr   = ((pcrop << FLASH_PCROP_GRANULARITY_OFFSET) + FLASH_BASE);
 608              		.loc 1 1170 24 is_stmt 0 view .LVU242
 609 0066 9A6A     		ldr	r2, [r3, #40]
 610              	.LVL51:
1171:hardware/mcu/st/stm32wlxx_hal_driver/Src/stm32wlxx_hal_flash_ex.c **** 
 611              		.loc 1 1171 3 is_stmt 1 view .LVU243
1171:hardware/mcu/st/stm32wlxx_hal_driver/Src/stm32wlxx_hal_flash_ex.c **** 
 612              		.loc 1 1171 31 is_stmt 0 view .LVU244
 613 0068 9202     		lsls	r2, r2, #10
 614              	.LVL52:
1171:hardware/mcu/st/stm32wlxx_hal_driver/Src/stm32wlxx_hal_flash_ex.c **** 
 615              		.loc 1 1171 31 view .LVU245
 616 006a 02F47F32 		and	r2, r2, #261120
1171:hardware/mcu/st/stm32wlxx_hal_driver/Src/stm32wlxx_hal_flash_ex.c **** 
 617              		.loc 1 1171 66 view .LVU246
 618 006e 02F10062 		add	r2, r2, #134217728
1171:hardware/mcu/st/stm32wlxx_hal_driver/Src/stm32wlxx_hal_flash_ex.c **** 
 619              		.loc 1 1171 21 view .LVU247
 620 0072 4262     		str	r2, [r0, #36]
1173:hardware/mcu/st/stm32wlxx_hal_driver/Src/stm32wlxx_hal_flash_ex.c **** }
 621              		.loc 1 1173 3 is_stmt 1 view .LVU248
1173:hardware/mcu/st/stm32wlxx_hal_driver/Src/stm32wlxx_hal_flash_ex.c **** }
 622              		.loc 1 1173 24 is_stmt 0 view .LVU249
 623 0074 9B6A     		ldr	r3, [r3, #40]
 624              	.LVL53:
1173:hardware/mcu/st/stm32wlxx_hal_driver/Src/stm32wlxx_hal_flash_ex.c **** }
 625              		.loc 1 1173 24 view .LVU250
 626              	.LBE66:
 627              	.LBE65:
 432:hardware/mcu/st/stm32wlxx_hal_driver/Src/stm32wlxx_hal_flash_ex.c **** 
 628              		.loc 1 432 3 is_stmt 1 view .LVU251
 629              	.LBB68:
 630              	.LBB67:
1173:hardware/mcu/st/stm32wlxx_hal_driver/Src/stm32wlxx_hal_flash_ex.c **** }
 631              		.loc 1 1173 51 is_stmt 0 view .LVU252
 632 0076 03F00043 		and	r3, r3, #-2147483648
 633              	.LBE67:
 634              	.LBE68:
 432:hardware/mcu/st/stm32wlxx_hal_driver/Src/stm32wlxx_hal_flash_ex.c **** 
ARM GAS  /var/folders/b4/k4jbz0ms4wg23jtq0w6p483m0000gn/T//cc2bvfXO.s 			page 38


 635              		.loc 1 432 24 view .LVU253
 636 007a 43F00303 		orr	r3, r3, #3
 637 007e C361     		str	r3, [r0, #28]
 450:hardware/mcu/st/stm32wlxx_hal_driver/Src/stm32wlxx_hal_flash_ex.c **** 
 638              		.loc 1 450 1 view .LVU254
 639 0080 7047     		bx	lr
 640              	.LVL54:
 641              	.L42:
 642              	.LBB69:
 643              	.LBB60:
1069:hardware/mcu/st/stm32wlxx_hal_driver/Src/stm32wlxx_hal_flash_ex.c ****     *WRDPEndOffset = (READ_BIT(FLASH->WRP1BR, FLASH_WRP1BR_WRP1B_END) >> FLASH_WRP1BR_WRP1B_END_Pos
 644              		.loc 1 1069 5 is_stmt 1 view .LVU255
1069:hardware/mcu/st/stm32wlxx_hal_driver/Src/stm32wlxx_hal_flash_ex.c ****     *WRDPEndOffset = (READ_BIT(FLASH->WRP1BR, FLASH_WRP1BR_WRP1B_END) >> FLASH_WRP1BR_WRP1B_END_Pos
 645              		.loc 1 1069 23 is_stmt 0 view .LVU256
 646 0082 1A6B     		ldr	r2, [r3, #48]
 647              	.LVL55:
1069:hardware/mcu/st/stm32wlxx_hal_driver/Src/stm32wlxx_hal_flash_ex.c ****     *WRDPEndOffset = (READ_BIT(FLASH->WRP1BR, FLASH_WRP1BR_WRP1B_END) >> FLASH_WRP1BR_WRP1B_END_Pos
 648              		.loc 1 1069 23 view .LVU257
 649 0084 02F07F02 		and	r2, r2, #127
1069:hardware/mcu/st/stm32wlxx_hal_driver/Src/stm32wlxx_hal_flash_ex.c ****     *WRDPEndOffset = (READ_BIT(FLASH->WRP1BR, FLASH_WRP1BR_WRP1B_END) >> FLASH_WRP1BR_WRP1B_END_Pos
 650              		.loc 1 1069 21 view .LVU258
 651 0088 8260     		str	r2, [r0, #8]
1070:hardware/mcu/st/stm32wlxx_hal_driver/Src/stm32wlxx_hal_flash_ex.c ****   }
 652              		.loc 1 1070 5 is_stmt 1 view .LVU259
1070:hardware/mcu/st/stm32wlxx_hal_driver/Src/stm32wlxx_hal_flash_ex.c ****   }
 653              		.loc 1 1070 23 is_stmt 0 view .LVU260
 654 008a 1B6B     		ldr	r3, [r3, #48]
 655 008c C5E7     		b	.L48
 656              	.L50:
 657 008e 00BF     		.align	2
 658              	.L49:
 659 0090 00400058 		.word	1476411392
 660 0094 007E8F4F 		.word	1334803968
 661              	.LBE60:
 662              	.LBE69:
 663              		.cfi_endproc
 664              	.LFE724:
 666              		.section	.text.HAL_FLASHEx_FlashEmptyCheck,"ax",%progbits
 667              		.align	1
 668              		.global	HAL_FLASHEx_FlashEmptyCheck
 669              		.syntax unified
 670              		.thumb
 671              		.thumb_func
 673              	HAL_FLASHEx_FlashEmptyCheck:
 674              	.LFB725:
 461:hardware/mcu/st/stm32wlxx_hal_driver/Src/stm32wlxx_hal_flash_ex.c ****   return (READ_BIT(FLASH->ACR, FLASH_ACR_EMPTY));
 675              		.loc 1 461 1 is_stmt 1 view -0
 676              		.cfi_startproc
 677              		@ args = 0, pretend = 0, frame = 0
 678              		@ frame_needed = 0, uses_anonymous_args = 0
 679              		@ link register save eliminated.
 462:hardware/mcu/st/stm32wlxx_hal_driver/Src/stm32wlxx_hal_flash_ex.c **** }
 680              		.loc 1 462 3 view .LVU262
 462:hardware/mcu/st/stm32wlxx_hal_driver/Src/stm32wlxx_hal_flash_ex.c **** }
 681              		.loc 1 462 11 is_stmt 0 view .LVU263
 682 0000 024B     		ldr	r3, .L52
 683 0002 1868     		ldr	r0, [r3]
ARM GAS  /var/folders/b4/k4jbz0ms4wg23jtq0w6p483m0000gn/T//cc2bvfXO.s 			page 39


 463:hardware/mcu/st/stm32wlxx_hal_driver/Src/stm32wlxx_hal_flash_ex.c **** 
 684              		.loc 1 463 1 view .LVU264
 685 0004 00F48030 		and	r0, r0, #65536
 686 0008 7047     		bx	lr
 687              	.L53:
 688 000a 00BF     		.align	2
 689              	.L52:
 690 000c 00400058 		.word	1476411392
 691              		.cfi_endproc
 692              	.LFE725:
 694              		.section	.text.HAL_FLASHEx_ForceFlashEmpty,"ax",%progbits
 695              		.align	1
 696              		.global	HAL_FLASHEx_ForceFlashEmpty
 697              		.syntax unified
 698              		.thumb
 699              		.thumb_func
 701              	HAL_FLASHEx_ForceFlashEmpty:
 702              	.LVL56:
 703              	.LFB726:
 478:hardware/mcu/st/stm32wlxx_hal_driver/Src/stm32wlxx_hal_flash_ex.c ****   assert_param(IS_FLASH_EMPTY_CHECK(FlashEmpty));
 704              		.loc 1 478 1 is_stmt 1 view -0
 705              		.cfi_startproc
 706              		@ args = 0, pretend = 0, frame = 0
 707              		@ frame_needed = 0, uses_anonymous_args = 0
 708              		@ link register save eliminated.
 479:hardware/mcu/st/stm32wlxx_hal_driver/Src/stm32wlxx_hal_flash_ex.c **** 
 709              		.loc 1 479 3 view .LVU266
 481:hardware/mcu/st/stm32wlxx_hal_driver/Src/stm32wlxx_hal_flash_ex.c **** }
 710              		.loc 1 481 3 view .LVU267
 711 0000 034A     		ldr	r2, .L55
 712 0002 1368     		ldr	r3, [r2]
 713 0004 23F48033 		bic	r3, r3, #65536
 714 0008 0343     		orrs	r3, r3, r0
 715 000a 1360     		str	r3, [r2]
 482:hardware/mcu/st/stm32wlxx_hal_driver/Src/stm32wlxx_hal_flash_ex.c **** 
 716              		.loc 1 482 1 is_stmt 0 view .LVU268
 717 000c 7047     		bx	lr
 718              	.L56:
 719 000e 00BF     		.align	2
 720              	.L55:
 721 0010 00400058 		.word	1476411392
 722              		.cfi_endproc
 723              	.LFE726:
 725              		.section	.text.HAL_FLASHEx_SuspendOperation,"ax",%progbits
 726              		.align	1
 727              		.global	HAL_FLASHEx_SuspendOperation
 728              		.syntax unified
 729              		.thumb
 730              		.thumb_func
 732              	HAL_FLASHEx_SuspendOperation:
 733              	.LFB727:
 494:hardware/mcu/st/stm32wlxx_hal_driver/Src/stm32wlxx_hal_flash_ex.c **** #if defined(CORE_CM0PLUS)
 734              		.loc 1 494 1 is_stmt 1 view -0
 735              		.cfi_startproc
 736              		@ args = 0, pretend = 0, frame = 0
 737              		@ frame_needed = 0, uses_anonymous_args = 0
 738              		@ link register save eliminated.
ARM GAS  /var/folders/b4/k4jbz0ms4wg23jtq0w6p483m0000gn/T//cc2bvfXO.s 			page 40


 498:hardware/mcu/st/stm32wlxx_hal_driver/Src/stm32wlxx_hal_flash_ex.c **** #endif
 739              		.loc 1 498 3 view .LVU270
 740 0000 024A     		ldr	r2, .L58
 741 0002 1368     		ldr	r3, [r2]
 742 0004 43F40043 		orr	r3, r3, #32768
 743 0008 1360     		str	r3, [r2]
 500:hardware/mcu/st/stm32wlxx_hal_driver/Src/stm32wlxx_hal_flash_ex.c **** 
 744              		.loc 1 500 1 is_stmt 0 view .LVU271
 745 000a 7047     		bx	lr
 746              	.L59:
 747              		.align	2
 748              	.L58:
 749 000c 00400058 		.word	1476411392
 750              		.cfi_endproc
 751              	.LFE727:
 753              		.section	.text.HAL_FLASHEx_AllowOperation,"ax",%progbits
 754              		.align	1
 755              		.global	HAL_FLASHEx_AllowOperation
 756              		.syntax unified
 757              		.thumb
 758              		.thumb_func
 760              	HAL_FLASHEx_AllowOperation:
 761              	.LFB728:
 512:hardware/mcu/st/stm32wlxx_hal_driver/Src/stm32wlxx_hal_flash_ex.c **** #if defined(CORE_CM0PLUS)
 762              		.loc 1 512 1 is_stmt 1 view -0
 763              		.cfi_startproc
 764              		@ args = 0, pretend = 0, frame = 0
 765              		@ frame_needed = 0, uses_anonymous_args = 0
 766              		@ link register save eliminated.
 516:hardware/mcu/st/stm32wlxx_hal_driver/Src/stm32wlxx_hal_flash_ex.c **** #endif
 767              		.loc 1 516 3 view .LVU273
 768 0000 024A     		ldr	r2, .L61
 769 0002 1368     		ldr	r3, [r2]
 770 0004 23F40043 		bic	r3, r3, #32768
 771 0008 1360     		str	r3, [r2]
 518:hardware/mcu/st/stm32wlxx_hal_driver/Src/stm32wlxx_hal_flash_ex.c **** 
 772              		.loc 1 518 1 is_stmt 0 view .LVU274
 773 000a 7047     		bx	lr
 774              	.L62:
 775              		.align	2
 776              	.L61:
 777 000c 00400058 		.word	1476411392
 778              		.cfi_endproc
 779              	.LFE728:
 781              		.section	.text.HAL_FLASHEx_IsOperationSuspended,"ax",%progbits
 782              		.align	1
 783              		.global	HAL_FLASHEx_IsOperationSuspended
 784              		.syntax unified
 785              		.thumb
 786              		.thumb_func
 788              	HAL_FLASHEx_IsOperationSuspended:
 789              	.LFB729:
 532:hardware/mcu/st/stm32wlxx_hal_driver/Src/stm32wlxx_hal_flash_ex.c ****   uint32_t status = 0U;
 790              		.loc 1 532 1 is_stmt 1 view -0
 791              		.cfi_startproc
 792              		@ args = 0, pretend = 0, frame = 0
 793              		@ frame_needed = 0, uses_anonymous_args = 0
ARM GAS  /var/folders/b4/k4jbz0ms4wg23jtq0w6p483m0000gn/T//cc2bvfXO.s 			page 41


 794              		@ link register save eliminated.
 533:hardware/mcu/st/stm32wlxx_hal_driver/Src/stm32wlxx_hal_flash_ex.c **** 
 795              		.loc 1 533 3 view .LVU276
 796              	.LVL57:
 538:hardware/mcu/st/stm32wlxx_hal_driver/Src/stm32wlxx_hal_flash_ex.c **** #endif
 797              		.loc 1 538 3 view .LVU277
 538:hardware/mcu/st/stm32wlxx_hal_driver/Src/stm32wlxx_hal_flash_ex.c **** #endif
 798              		.loc 1 538 7 is_stmt 0 view .LVU278
 799 0000 024B     		ldr	r3, .L64
 800 0002 1869     		ldr	r0, [r3, #16]
 801              	.LVL58:
 544:hardware/mcu/st/stm32wlxx_hal_driver/Src/stm32wlxx_hal_flash_ex.c **** }
 802              		.loc 1 544 3 is_stmt 1 view .LVU279
 545:hardware/mcu/st/stm32wlxx_hal_driver/Src/stm32wlxx_hal_flash_ex.c **** 
 803              		.loc 1 545 1 is_stmt 0 view .LVU280
 804 0004 C0F3C040 		ubfx	r0, r0, #19, #1
 805              	.LVL59:
 545:hardware/mcu/st/stm32wlxx_hal_driver/Src/stm32wlxx_hal_flash_ex.c **** 
 806              		.loc 1 545 1 view .LVU281
 807 0008 7047     		bx	lr
 808              	.L65:
 809 000a 00BF     		.align	2
 810              	.L64:
 811 000c 00400058 		.word	1476411392
 812              		.cfi_endproc
 813              	.LFE729:
 815              		.section	.text.FLASH_PageErase,"ax",%progbits
 816              		.align	1
 817              		.global	FLASH_PageErase
 818              		.syntax unified
 819              		.thumb
 820              		.thumb_func
 822              	FLASH_PageErase:
 823              	.LVL60:
 824              	.LFB731:
 648:hardware/mcu/st/stm32wlxx_hal_driver/Src/stm32wlxx_hal_flash_ex.c ****   /* Check the parameters */
 825              		.loc 1 648 1 is_stmt 1 view -0
 826              		.cfi_startproc
 827              		@ args = 0, pretend = 0, frame = 0
 828              		@ frame_needed = 0, uses_anonymous_args = 0
 829              		@ link register save eliminated.
 650:hardware/mcu/st/stm32wlxx_hal_driver/Src/stm32wlxx_hal_flash_ex.c **** 
 830              		.loc 1 650 3 view .LVU283
 656:hardware/mcu/st/stm32wlxx_hal_driver/Src/stm32wlxx_hal_flash_ex.c **** #endif
 831              		.loc 1 656 3 view .LVU284
 832 0000 054A     		ldr	r2, .L67
 833 0002 5369     		ldr	r3, [r2, #20]
 834 0004 23F47E73 		bic	r3, r3, #1016
 835 0008 43EAC000 		orr	r0, r3, r0, lsl #3
 836              	.LVL61:
 656:hardware/mcu/st/stm32wlxx_hal_driver/Src/stm32wlxx_hal_flash_ex.c **** #endif
 837              		.loc 1 656 3 is_stmt 0 view .LVU285
 838 000c 40F48030 		orr	r0, r0, #65536
 839 0010 40F00200 		orr	r0, r0, #2
 840 0014 5061     		str	r0, [r2, #20]
 658:hardware/mcu/st/stm32wlxx_hal_driver/Src/stm32wlxx_hal_flash_ex.c **** 
 841              		.loc 1 658 1 view .LVU286
ARM GAS  /var/folders/b4/k4jbz0ms4wg23jtq0w6p483m0000gn/T//cc2bvfXO.s 			page 42


 842 0016 7047     		bx	lr
 843              	.L68:
 844              		.align	2
 845              	.L67:
 846 0018 00400058 		.word	1476411392
 847              		.cfi_endproc
 848              	.LFE731:
 850              		.section	.text.HAL_FLASHEx_Erase,"ax",%progbits
 851              		.align	1
 852              		.global	HAL_FLASHEx_Erase
 853              		.syntax unified
 854              		.thumb
 855              		.thumb_func
 857              	HAL_FLASHEx_Erase:
 858              	.LVL62:
 859              	.LFB721:
 175:hardware/mcu/st/stm32wlxx_hal_driver/Src/stm32wlxx_hal_flash_ex.c ****   HAL_StatusTypeDef status;
 860              		.loc 1 175 1 is_stmt 1 view -0
 861              		.cfi_startproc
 862              		@ args = 0, pretend = 0, frame = 0
 863              		@ frame_needed = 0, uses_anonymous_args = 0
 176:hardware/mcu/st/stm32wlxx_hal_driver/Src/stm32wlxx_hal_flash_ex.c ****   uint32_t index;
 864              		.loc 1 176 3 view .LVU288
 177:hardware/mcu/st/stm32wlxx_hal_driver/Src/stm32wlxx_hal_flash_ex.c **** 
 865              		.loc 1 177 3 view .LVU289
 180:hardware/mcu/st/stm32wlxx_hal_driver/Src/stm32wlxx_hal_flash_ex.c **** 
 866              		.loc 1 180 3 view .LVU290
 183:hardware/mcu/st/stm32wlxx_hal_driver/Src/stm32wlxx_hal_flash_ex.c **** 
 867              		.loc 1 183 3 view .LVU291
 183:hardware/mcu/st/stm32wlxx_hal_driver/Src/stm32wlxx_hal_flash_ex.c **** 
 868              		.loc 1 183 3 view .LVU292
 175:hardware/mcu/st/stm32wlxx_hal_driver/Src/stm32wlxx_hal_flash_ex.c ****   HAL_StatusTypeDef status;
 869              		.loc 1 175 1 is_stmt 0 view .LVU293
 870 0000 2DE9F041 		push	{r4, r5, r6, r7, r8, lr}
 871              	.LCFI1:
 872              		.cfi_def_cfa_offset 24
 873              		.cfi_offset 4, -24
 874              		.cfi_offset 5, -20
 875              		.cfi_offset 6, -16
 876              		.cfi_offset 7, -12
 877              		.cfi_offset 8, -8
 878              		.cfi_offset 14, -4
 183:hardware/mcu/st/stm32wlxx_hal_driver/Src/stm32wlxx_hal_flash_ex.c **** 
 879              		.loc 1 183 3 view .LVU294
 880 0004 234F     		ldr	r7, .L79
 881 0006 3B78     		ldrb	r3, [r7]	@ zero_extendqisi2
 882 0008 012B     		cmp	r3, #1
 175:hardware/mcu/st/stm32wlxx_hal_driver/Src/stm32wlxx_hal_flash_ex.c ****   HAL_StatusTypeDef status;
 883              		.loc 1 175 1 view .LVU295
 884 000a 0546     		mov	r5, r0
 885 000c 8846     		mov	r8, r1
 183:hardware/mcu/st/stm32wlxx_hal_driver/Src/stm32wlxx_hal_flash_ex.c **** 
 886              		.loc 1 183 3 view .LVU296
 887 000e 3FD0     		beq	.L78
 183:hardware/mcu/st/stm32wlxx_hal_driver/Src/stm32wlxx_hal_flash_ex.c **** 
 888              		.loc 1 183 3 is_stmt 1 discriminator 2 view .LVU297
 889 0010 0123     		movs	r3, #1
ARM GAS  /var/folders/b4/k4jbz0ms4wg23jtq0w6p483m0000gn/T//cc2bvfXO.s 			page 43


 890 0012 3B70     		strb	r3, [r7]
 183:hardware/mcu/st/stm32wlxx_hal_driver/Src/stm32wlxx_hal_flash_ex.c **** 
 891              		.loc 1 183 3 discriminator 2 view .LVU298
 186:hardware/mcu/st/stm32wlxx_hal_driver/Src/stm32wlxx_hal_flash_ex.c **** 
 892              		.loc 1 186 3 discriminator 2 view .LVU299
 189:hardware/mcu/st/stm32wlxx_hal_driver/Src/stm32wlxx_hal_flash_ex.c **** 
 893              		.loc 1 189 12 is_stmt 0 discriminator 2 view .LVU300
 894 0014 4FF47A70 		mov	r0, #1000
 895              	.LVL63:
 186:hardware/mcu/st/stm32wlxx_hal_driver/Src/stm32wlxx_hal_flash_ex.c **** 
 896              		.loc 1 186 20 discriminator 2 view .LVU301
 897 0018 0023     		movs	r3, #0
 898 001a 7B60     		str	r3, [r7, #4]
 189:hardware/mcu/st/stm32wlxx_hal_driver/Src/stm32wlxx_hal_flash_ex.c **** 
 899              		.loc 1 189 3 is_stmt 1 discriminator 2 view .LVU302
 189:hardware/mcu/st/stm32wlxx_hal_driver/Src/stm32wlxx_hal_flash_ex.c **** 
 900              		.loc 1 189 12 is_stmt 0 discriminator 2 view .LVU303
 901 001c FFF7FEFF 		bl	FLASH_WaitForLastOperation
 902              	.LVL64:
 191:hardware/mcu/st/stm32wlxx_hal_driver/Src/stm32wlxx_hal_flash_ex.c ****   {
 903              		.loc 1 191 3 is_stmt 1 discriminator 2 view .LVU304
 191:hardware/mcu/st/stm32wlxx_hal_driver/Src/stm32wlxx_hal_flash_ex.c ****   {
 904              		.loc 1 191 6 is_stmt 0 discriminator 2 view .LVU305
 905 0020 0446     		mov	r4, r0
 906 0022 88B9     		cbnz	r0, .L71
 193:hardware/mcu/st/stm32wlxx_hal_driver/Src/stm32wlxx_hal_flash_ex.c ****     {
 907              		.loc 1 193 5 is_stmt 1 view .LVU306
 193:hardware/mcu/st/stm32wlxx_hal_driver/Src/stm32wlxx_hal_flash_ex.c ****     {
 908              		.loc 1 193 8 is_stmt 0 view .LVU307
 909 0024 2B68     		ldr	r3, [r5]
 910 0026 042B     		cmp	r3, #4
 911 0028 13D1     		bne	.L72
 196:hardware/mcu/st/stm32wlxx_hal_driver/Src/stm32wlxx_hal_flash_ex.c **** 
 912              		.loc 1 196 7 is_stmt 1 view .LVU308
 913              	.LBB76:
 914              	.LBI76:
 631:hardware/mcu/st/stm32wlxx_hal_driver/Src/stm32wlxx_hal_flash_ex.c **** {
 915              		.loc 1 631 13 view .LVU309
 916              	.LBB77:
 637:hardware/mcu/st/stm32wlxx_hal_driver/Src/stm32wlxx_hal_flash_ex.c **** #endif
 917              		.loc 1 637 3 view .LVU310
 918 002a 1B4A     		ldr	r2, .L79+4
 919 002c 5369     		ldr	r3, [r2, #20]
 920 002e 43F48033 		orr	r3, r3, #65536
 921 0032 43F00403 		orr	r3, r3, #4
 922 0036 5361     		str	r3, [r2, #20]
 923              	.LBE77:
 924              	.LBE76:
 199:hardware/mcu/st/stm32wlxx_hal_driver/Src/stm32wlxx_hal_flash_ex.c **** 
 925              		.loc 1 199 7 view .LVU311
 199:hardware/mcu/st/stm32wlxx_hal_driver/Src/stm32wlxx_hal_flash_ex.c **** 
 926              		.loc 1 199 16 is_stmt 0 view .LVU312
 927 0038 4FF47A70 		mov	r0, #1000
 928              	.LVL65:
 199:hardware/mcu/st/stm32wlxx_hal_driver/Src/stm32wlxx_hal_flash_ex.c **** 
 929              		.loc 1 199 16 view .LVU313
 930 003c FFF7FEFF 		bl	FLASH_WaitForLastOperation
ARM GAS  /var/folders/b4/k4jbz0ms4wg23jtq0w6p483m0000gn/T//cc2bvfXO.s 			page 44


 931              	.LVL66:
 932 0040 0446     		mov	r4, r0
 933              	.LVL67:
 934              	.L73:
 229:hardware/mcu/st/stm32wlxx_hal_driver/Src/stm32wlxx_hal_flash_ex.c ****   }
 935              		.loc 1 229 5 is_stmt 1 view .LVU314
 936              	.LBB78:
 937              	.LBI78:
 664:hardware/mcu/st/stm32wlxx_hal_driver/Src/stm32wlxx_hal_flash_ex.c **** {
 938              		.loc 1 664 6 view .LVU315
 939              	.LBB79:
 667:hardware/mcu/st/stm32wlxx_hal_driver/Src/stm32wlxx_hal_flash_ex.c ****   {
 940              		.loc 1 667 3 view .LVU316
 667:hardware/mcu/st/stm32wlxx_hal_driver/Src/stm32wlxx_hal_flash_ex.c ****   {
 941              		.loc 1 667 7 is_stmt 0 view .LVU317
 942 0042 154B     		ldr	r3, .L79+4
 943 0044 1A68     		ldr	r2, [r3]
 680:hardware/mcu/st/stm32wlxx_hal_driver/Src/stm32wlxx_hal_flash_ex.c ****   {
 944              		.loc 1 680 3 is_stmt 1 view .LVU318
 680:hardware/mcu/st/stm32wlxx_hal_driver/Src/stm32wlxx_hal_flash_ex.c ****   {
 945              		.loc 1 680 7 is_stmt 0 view .LVU319
 946 0046 1B68     		ldr	r3, [r3]
 947              	.LVL68:
 948              	.L71:
 680:hardware/mcu/st/stm32wlxx_hal_driver/Src/stm32wlxx_hal_flash_ex.c ****   {
 949              		.loc 1 680 7 view .LVU320
 950              	.LBE79:
 951              	.LBE78:
 233:hardware/mcu/st/stm32wlxx_hal_driver/Src/stm32wlxx_hal_flash_ex.c **** 
 952              		.loc 1 233 3 is_stmt 1 view .LVU321
 233:hardware/mcu/st/stm32wlxx_hal_driver/Src/stm32wlxx_hal_flash_ex.c **** 
 953              		.loc 1 233 3 view .LVU322
 954 0048 0023     		movs	r3, #0
 955 004a 3B70     		strb	r3, [r7]
 233:hardware/mcu/st/stm32wlxx_hal_driver/Src/stm32wlxx_hal_flash_ex.c **** 
 956              		.loc 1 233 3 view .LVU323
 235:hardware/mcu/st/stm32wlxx_hal_driver/Src/stm32wlxx_hal_flash_ex.c **** }
 957              		.loc 1 235 3 view .LVU324
 958              	.LVL69:
 959              	.L70:
 236:hardware/mcu/st/stm32wlxx_hal_driver/Src/stm32wlxx_hal_flash_ex.c **** 
 960              		.loc 1 236 1 is_stmt 0 view .LVU325
 961 004c 2046     		mov	r0, r4
 962 004e BDE8F081 		pop	{r4, r5, r6, r7, r8, pc}
 963              	.LVL70:
 964              	.L72:
 206:hardware/mcu/st/stm32wlxx_hal_driver/Src/stm32wlxx_hal_flash_ex.c **** 
 965              		.loc 1 206 7 is_stmt 1 view .LVU326
 206:hardware/mcu/st/stm32wlxx_hal_driver/Src/stm32wlxx_hal_flash_ex.c **** 
 966              		.loc 1 206 18 is_stmt 0 view .LVU327
 967 0052 4FF0FF33 		mov	r3, #-1
 968 0056 C8F80030 		str	r3, [r8]
 208:hardware/mcu/st/stm32wlxx_hal_driver/Src/stm32wlxx_hal_flash_ex.c ****       {
 969              		.loc 1 208 7 is_stmt 1 view .LVU328
 208:hardware/mcu/st/stm32wlxx_hal_driver/Src/stm32wlxx_hal_flash_ex.c ****       {
 970              		.loc 1 208 18 is_stmt 0 view .LVU329
 971 005a 6E68     		ldr	r6, [r5, #4]
ARM GAS  /var/folders/b4/k4jbz0ms4wg23jtq0w6p483m0000gn/T//cc2bvfXO.s 			page 45


 972              	.LVL71:
 973              	.L74:
 208:hardware/mcu/st/stm32wlxx_hal_driver/Src/stm32wlxx_hal_flash_ex.c ****       {
 974              		.loc 1 208 38 is_stmt 1 discriminator 1 view .LVU330
 208:hardware/mcu/st/stm32wlxx_hal_driver/Src/stm32wlxx_hal_flash_ex.c ****       {
 975              		.loc 1 208 64 is_stmt 0 discriminator 1 view .LVU331
 976 005c D5E90132 		ldrd	r3, r2, [r5, #4]
 977 0060 1344     		add	r3, r3, r2
 208:hardware/mcu/st/stm32wlxx_hal_driver/Src/stm32wlxx_hal_flash_ex.c ****       {
 978              		.loc 1 208 7 discriminator 1 view .LVU332
 979 0062 B342     		cmp	r3, r6
 980 0064 0AD9     		bls	.L76
 211:hardware/mcu/st/stm32wlxx_hal_driver/Src/stm32wlxx_hal_flash_ex.c **** 
 981              		.loc 1 211 9 is_stmt 1 view .LVU333
 982 0066 3046     		mov	r0, r6
 983 0068 FFF7FEFF 		bl	FLASH_PageErase
 984              	.LVL72:
 214:hardware/mcu/st/stm32wlxx_hal_driver/Src/stm32wlxx_hal_flash_ex.c **** 
 985              		.loc 1 214 9 view .LVU334
 214:hardware/mcu/st/stm32wlxx_hal_driver/Src/stm32wlxx_hal_flash_ex.c **** 
 986              		.loc 1 214 18 is_stmt 0 view .LVU335
 987 006c 4FF47A70 		mov	r0, #1000
 988 0070 FFF7FEFF 		bl	FLASH_WaitForLastOperation
 989              	.LVL73:
 216:hardware/mcu/st/stm32wlxx_hal_driver/Src/stm32wlxx_hal_flash_ex.c ****         {
 990              		.loc 1 216 9 is_stmt 1 view .LVU336
 216:hardware/mcu/st/stm32wlxx_hal_driver/Src/stm32wlxx_hal_flash_ex.c ****         {
 991              		.loc 1 216 12 is_stmt 0 view .LVU337
 992 0074 50B1     		cbz	r0, .L75
 219:hardware/mcu/st/stm32wlxx_hal_driver/Src/stm32wlxx_hal_flash_ex.c ****           break;
 993              		.loc 1 219 11 is_stmt 1 view .LVU338
 219:hardware/mcu/st/stm32wlxx_hal_driver/Src/stm32wlxx_hal_flash_ex.c ****           break;
 994              		.loc 1 219 22 is_stmt 0 view .LVU339
 995 0076 C8F80060 		str	r6, [r8]
 220:hardware/mcu/st/stm32wlxx_hal_driver/Src/stm32wlxx_hal_flash_ex.c ****         }
 996              		.loc 1 220 11 is_stmt 1 view .LVU340
 214:hardware/mcu/st/stm32wlxx_hal_driver/Src/stm32wlxx_hal_flash_ex.c **** 
 997              		.loc 1 214 18 is_stmt 0 view .LVU341
 998 007a 0446     		mov	r4, r0
 999              	.LVL74:
 1000              	.L76:
 225:hardware/mcu/st/stm32wlxx_hal_driver/Src/stm32wlxx_hal_flash_ex.c ****     }
 1001              		.loc 1 225 7 is_stmt 1 view .LVU342
 1002              	.LBB80:
 1003              	.LBI80:
 696:hardware/mcu/st/stm32wlxx_hal_driver/Src/stm32wlxx_hal_flash_ex.c **** {
 1004              		.loc 1 696 13 view .LVU343
 1005              	.LBB81:
 701:hardware/mcu/st/stm32wlxx_hal_driver/Src/stm32wlxx_hal_flash_ex.c **** #endif
 1006              		.loc 1 701 3 view .LVU344
 1007 007c 064A     		ldr	r2, .L79+4
 1008 007e 5369     		ldr	r3, [r2, #20]
 1009 0080 23F47E73 		bic	r3, r3, #1016
 1010 0084 23F00203 		bic	r3, r3, #2
 1011 0088 5361     		str	r3, [r2, #20]
 703:hardware/mcu/st/stm32wlxx_hal_driver/Src/stm32wlxx_hal_flash_ex.c **** 
 1012              		.loc 1 703 1 is_stmt 0 view .LVU345
ARM GAS  /var/folders/b4/k4jbz0ms4wg23jtq0w6p483m0000gn/T//cc2bvfXO.s 			page 46


 1013 008a DAE7     		b	.L73
 1014              	.LVL75:
 1015              	.L75:
 703:hardware/mcu/st/stm32wlxx_hal_driver/Src/stm32wlxx_hal_flash_ex.c **** 
 1016              		.loc 1 703 1 view .LVU346
 1017              	.LBE81:
 1018              	.LBE80:
 208:hardware/mcu/st/stm32wlxx_hal_driver/Src/stm32wlxx_hal_flash_ex.c ****       {
 1019              		.loc 1 208 88 is_stmt 1 discriminator 2 view .LVU347
 208:hardware/mcu/st/stm32wlxx_hal_driver/Src/stm32wlxx_hal_flash_ex.c ****       {
 1020              		.loc 1 208 93 is_stmt 0 discriminator 2 view .LVU348
 1021 008c 0136     		adds	r6, r6, #1
 1022              	.LVL76:
 208:hardware/mcu/st/stm32wlxx_hal_driver/Src/stm32wlxx_hal_flash_ex.c ****       {
 1023              		.loc 1 208 93 discriminator 2 view .LVU349
 1024 008e E5E7     		b	.L74
 1025              	.LVL77:
 1026              	.L78:
 183:hardware/mcu/st/stm32wlxx_hal_driver/Src/stm32wlxx_hal_flash_ex.c **** 
 1027              		.loc 1 183 3 view .LVU350
 1028 0090 0224     		movs	r4, #2
 1029 0092 DBE7     		b	.L70
 1030              	.L80:
 1031              		.align	2
 1032              	.L79:
 1033 0094 00000000 		.word	pFlash
 1034 0098 00400058 		.word	1476411392
 1035              		.cfi_endproc
 1036              	.LFE721:
 1038              		.section	.text.HAL_FLASHEx_Erase_IT,"ax",%progbits
 1039              		.align	1
 1040              		.global	HAL_FLASHEx_Erase_IT
 1041              		.syntax unified
 1042              		.thumb
 1043              		.thumb_func
 1045              	HAL_FLASHEx_Erase_IT:
 1046              	.LVL78:
 1047              	.LFB722:
 247:hardware/mcu/st/stm32wlxx_hal_driver/Src/stm32wlxx_hal_flash_ex.c ****   HAL_StatusTypeDef status;
 1048              		.loc 1 247 1 is_stmt 1 view -0
 1049              		.cfi_startproc
 1050              		@ args = 0, pretend = 0, frame = 0
 1051              		@ frame_needed = 0, uses_anonymous_args = 0
 248:hardware/mcu/st/stm32wlxx_hal_driver/Src/stm32wlxx_hal_flash_ex.c **** 
 1052              		.loc 1 248 3 view .LVU352
 251:hardware/mcu/st/stm32wlxx_hal_driver/Src/stm32wlxx_hal_flash_ex.c **** 
 1053              		.loc 1 251 3 view .LVU353
 254:hardware/mcu/st/stm32wlxx_hal_driver/Src/stm32wlxx_hal_flash_ex.c **** 
 1054              		.loc 1 254 3 view .LVU354
 254:hardware/mcu/st/stm32wlxx_hal_driver/Src/stm32wlxx_hal_flash_ex.c **** 
 1055              		.loc 1 254 3 view .LVU355
 247:hardware/mcu/st/stm32wlxx_hal_driver/Src/stm32wlxx_hal_flash_ex.c ****   HAL_StatusTypeDef status;
 1056              		.loc 1 247 1 is_stmt 0 view .LVU356
 1057 0000 70B5     		push	{r4, r5, r6, lr}
 1058              	.LCFI2:
 1059              		.cfi_def_cfa_offset 16
 1060              		.cfi_offset 4, -16
ARM GAS  /var/folders/b4/k4jbz0ms4wg23jtq0w6p483m0000gn/T//cc2bvfXO.s 			page 47


 1061              		.cfi_offset 5, -12
 1062              		.cfi_offset 6, -8
 1063              		.cfi_offset 14, -4
 254:hardware/mcu/st/stm32wlxx_hal_driver/Src/stm32wlxx_hal_flash_ex.c **** 
 1064              		.loc 1 254 3 view .LVU357
 1065 0002 164C     		ldr	r4, .L86
 1066 0004 2378     		ldrb	r3, [r4]	@ zero_extendqisi2
 1067 0006 012B     		cmp	r3, #1
 247:hardware/mcu/st/stm32wlxx_hal_driver/Src/stm32wlxx_hal_flash_ex.c ****   HAL_StatusTypeDef status;
 1068              		.loc 1 247 1 view .LVU358
 1069 0008 0546     		mov	r5, r0
 254:hardware/mcu/st/stm32wlxx_hal_driver/Src/stm32wlxx_hal_flash_ex.c **** 
 1070              		.loc 1 254 3 view .LVU359
 1071 000a 25D0     		beq	.L85
 254:hardware/mcu/st/stm32wlxx_hal_driver/Src/stm32wlxx_hal_flash_ex.c **** 
 1072              		.loc 1 254 3 is_stmt 1 discriminator 2 view .LVU360
 1073 000c 0123     		movs	r3, #1
 1074 000e 2370     		strb	r3, [r4]
 254:hardware/mcu/st/stm32wlxx_hal_driver/Src/stm32wlxx_hal_flash_ex.c **** 
 1075              		.loc 1 254 3 discriminator 2 view .LVU361
 257:hardware/mcu/st/stm32wlxx_hal_driver/Src/stm32wlxx_hal_flash_ex.c **** 
 1076              		.loc 1 257 3 discriminator 2 view .LVU362
 260:hardware/mcu/st/stm32wlxx_hal_driver/Src/stm32wlxx_hal_flash_ex.c **** 
 1077              		.loc 1 260 27 is_stmt 0 discriminator 2 view .LVU363
 1078 0010 0368     		ldr	r3, [r0]
 1079 0012 A360     		str	r3, [r4, #8]
 257:hardware/mcu/st/stm32wlxx_hal_driver/Src/stm32wlxx_hal_flash_ex.c **** 
 1080              		.loc 1 257 20 discriminator 2 view .LVU364
 1081 0014 0026     		movs	r6, #0
 263:hardware/mcu/st/stm32wlxx_hal_driver/Src/stm32wlxx_hal_flash_ex.c **** 
 1082              		.loc 1 263 12 discriminator 2 view .LVU365
 1083 0016 4FF47A70 		mov	r0, #1000
 1084              	.LVL79:
 257:hardware/mcu/st/stm32wlxx_hal_driver/Src/stm32wlxx_hal_flash_ex.c **** 
 1085              		.loc 1 257 20 discriminator 2 view .LVU366
 1086 001a 6660     		str	r6, [r4, #4]
 260:hardware/mcu/st/stm32wlxx_hal_driver/Src/stm32wlxx_hal_flash_ex.c **** 
 1087              		.loc 1 260 3 is_stmt 1 discriminator 2 view .LVU367
 263:hardware/mcu/st/stm32wlxx_hal_driver/Src/stm32wlxx_hal_flash_ex.c **** 
 1088              		.loc 1 263 3 discriminator 2 view .LVU368
 263:hardware/mcu/st/stm32wlxx_hal_driver/Src/stm32wlxx_hal_flash_ex.c **** 
 1089              		.loc 1 263 12 is_stmt 0 discriminator 2 view .LVU369
 1090 001c FFF7FEFF 		bl	FLASH_WaitForLastOperation
 1091              	.LVL80:
 265:hardware/mcu/st/stm32wlxx_hal_driver/Src/stm32wlxx_hal_flash_ex.c ****   {
 1092              		.loc 1 265 3 is_stmt 1 discriminator 2 view .LVU370
 265:hardware/mcu/st/stm32wlxx_hal_driver/Src/stm32wlxx_hal_flash_ex.c ****   {
 1093              		.loc 1 265 6 is_stmt 0 discriminator 2 view .LVU371
 1094 0020 0146     		mov	r1, r0
 1095 0022 10B1     		cbz	r0, .L83
 268:hardware/mcu/st/stm32wlxx_hal_driver/Src/stm32wlxx_hal_flash_ex.c ****   }
 1096              		.loc 1 268 5 is_stmt 1 view .LVU372
 268:hardware/mcu/st/stm32wlxx_hal_driver/Src/stm32wlxx_hal_flash_ex.c ****   }
 1097              		.loc 1 268 5 view .LVU373
 1098 0024 2670     		strb	r6, [r4]
 268:hardware/mcu/st/stm32wlxx_hal_driver/Src/stm32wlxx_hal_flash_ex.c ****   }
 1099              		.loc 1 268 5 view .LVU374
ARM GAS  /var/folders/b4/k4jbz0ms4wg23jtq0w6p483m0000gn/T//cc2bvfXO.s 			page 48


 1100              	.LVL81:
 1101              	.L82:
 296:hardware/mcu/st/stm32wlxx_hal_driver/Src/stm32wlxx_hal_flash_ex.c **** 
 1102              		.loc 1 296 1 is_stmt 0 view .LVU375
 1103 0026 0846     		mov	r0, r1
 1104 0028 70BD     		pop	{r4, r5, r6, pc}
 1105              	.LVL82:
 1106              	.L83:
 273:hardware/mcu/st/stm32wlxx_hal_driver/Src/stm32wlxx_hal_flash_ex.c **** 
 1107              		.loc 1 273 5 is_stmt 1 discriminator 4 view .LVU376
 273:hardware/mcu/st/stm32wlxx_hal_driver/Src/stm32wlxx_hal_flash_ex.c **** 
 1108              		.loc 1 273 5 discriminator 4 view .LVU377
 273:hardware/mcu/st/stm32wlxx_hal_driver/Src/stm32wlxx_hal_flash_ex.c **** 
 1109              		.loc 1 273 5 discriminator 4 view .LVU378
 273:hardware/mcu/st/stm32wlxx_hal_driver/Src/stm32wlxx_hal_flash_ex.c **** 
 1110              		.loc 1 273 5 discriminator 4 view .LVU379
 1111 002a 0D4A     		ldr	r2, .L86+4
 1112 002c 5369     		ldr	r3, [r2, #20]
 1113 002e 43F04073 		orr	r3, r3, #50331648
 1114 0032 5361     		str	r3, [r2, #20]
 273:hardware/mcu/st/stm32wlxx_hal_driver/Src/stm32wlxx_hal_flash_ex.c **** 
 1115              		.loc 1 273 5 discriminator 4 view .LVU380
 275:hardware/mcu/st/stm32wlxx_hal_driver/Src/stm32wlxx_hal_flash_ex.c ****     {
 1116              		.loc 1 275 5 discriminator 4 view .LVU381
 275:hardware/mcu/st/stm32wlxx_hal_driver/Src/stm32wlxx_hal_flash_ex.c ****     {
 1117              		.loc 1 275 8 is_stmt 0 discriminator 4 view .LVU382
 1118 0034 2B68     		ldr	r3, [r5]
 1119 0036 042B     		cmp	r3, #4
 1120 0038 07D1     		bne	.L84
 278:hardware/mcu/st/stm32wlxx_hal_driver/Src/stm32wlxx_hal_flash_ex.c **** 
 1121              		.loc 1 278 7 is_stmt 1 view .LVU383
 278:hardware/mcu/st/stm32wlxx_hal_driver/Src/stm32wlxx_hal_flash_ex.c **** 
 1122              		.loc 1 278 19 is_stmt 0 view .LVU384
 1123 003a 2061     		str	r0, [r4, #16]
 281:hardware/mcu/st/stm32wlxx_hal_driver/Src/stm32wlxx_hal_flash_ex.c ****     }
 1124              		.loc 1 281 7 is_stmt 1 view .LVU385
 1125              	.LBB84:
 1126              	.LBI84:
 631:hardware/mcu/st/stm32wlxx_hal_driver/Src/stm32wlxx_hal_flash_ex.c **** {
 1127              		.loc 1 631 13 view .LVU386
 1128              	.LBB85:
 637:hardware/mcu/st/stm32wlxx_hal_driver/Src/stm32wlxx_hal_flash_ex.c **** #endif
 1129              		.loc 1 637 3 view .LVU387
 1130 003c 5369     		ldr	r3, [r2, #20]
 1131 003e 43F48033 		orr	r3, r3, #65536
 1132 0042 43F00403 		orr	r3, r3, #4
 1133 0046 5361     		str	r3, [r2, #20]
 639:hardware/mcu/st/stm32wlxx_hal_driver/Src/stm32wlxx_hal_flash_ex.c **** 
 1134              		.loc 1 639 1 is_stmt 0 view .LVU388
 1135 0048 EDE7     		b	.L82
 1136              	.L84:
 1137              	.LBE85:
 1138              	.LBE84:
 286:hardware/mcu/st/stm32wlxx_hal_driver/Src/stm32wlxx_hal_flash_ex.c ****       pFlash.Page = pEraseInit->Page;
 1139              		.loc 1 286 7 is_stmt 1 view .LVU389
 286:hardware/mcu/st/stm32wlxx_hal_driver/Src/stm32wlxx_hal_flash_ex.c ****       pFlash.Page = pEraseInit->Page;
 1140              		.loc 1 286 29 is_stmt 0 view .LVU390
ARM GAS  /var/folders/b4/k4jbz0ms4wg23jtq0w6p483m0000gn/T//cc2bvfXO.s 			page 49


 1141 004a AB68     		ldr	r3, [r5, #8]
 287:hardware/mcu/st/stm32wlxx_hal_driver/Src/stm32wlxx_hal_flash_ex.c **** 
 1142              		.loc 1 287 31 view .LVU391
 1143 004c 6868     		ldr	r0, [r5, #4]
 1144              	.LVL83:
 286:hardware/mcu/st/stm32wlxx_hal_driver/Src/stm32wlxx_hal_flash_ex.c ****       pFlash.Page = pEraseInit->Page;
 1145              		.loc 1 286 29 view .LVU392
 1146 004e 6361     		str	r3, [r4, #20]
 287:hardware/mcu/st/stm32wlxx_hal_driver/Src/stm32wlxx_hal_flash_ex.c **** 
 1147              		.loc 1 287 7 is_stmt 1 view .LVU393
 287:hardware/mcu/st/stm32wlxx_hal_driver/Src/stm32wlxx_hal_flash_ex.c **** 
 1148              		.loc 1 287 19 is_stmt 0 view .LVU394
 1149 0050 2061     		str	r0, [r4, #16]
 290:hardware/mcu/st/stm32wlxx_hal_driver/Src/stm32wlxx_hal_flash_ex.c ****     }
 1150              		.loc 1 290 7 is_stmt 1 view .LVU395
 1151 0052 FFF7FEFF 		bl	FLASH_PageErase
 1152              	.LVL84:
 1153 0056 E6E7     		b	.L82
 1154              	.LVL85:
 1155              	.L85:
 254:hardware/mcu/st/stm32wlxx_hal_driver/Src/stm32wlxx_hal_flash_ex.c **** 
 1156              		.loc 1 254 3 is_stmt 0 view .LVU396
 1157 0058 0221     		movs	r1, #2
 1158 005a E4E7     		b	.L82
 1159              	.L87:
 1160              		.align	2
 1161              	.L86:
 1162 005c 00000000 		.word	pFlash
 1163 0060 00400058 		.word	1476411392
 1164              		.cfi_endproc
 1165              	.LFE722:
 1167              		.text
 1168              	.Letext0:
 1169              		.file 2 "/Applications/ARM/arm-none-eabi/include/machine/_default_types.h"
 1170              		.file 3 "/Applications/ARM/arm-none-eabi/include/sys/_stdint.h"
 1171              		.file 4 "hardware/mcu/st/cmsis_device_wl/Include/stm32wle5xx.h"
 1172              		.file 5 "hardware/mcu/st/stm32wlxx_hal_driver/Inc/stm32wlxx_hal_def.h"
 1173              		.file 6 "hardware/mcu/st/stm32wlxx_hal_driver/Inc/stm32wlxx_hal_flash.h"
 1174              		.file 7 "hardware/mcu/st/stm32wlxx_hal_driver/Inc/stm32wlxx_ll_dma.h"
ARM GAS  /var/folders/b4/k4jbz0ms4wg23jtq0w6p483m0000gn/T//cc2bvfXO.s 			page 50

