ARM GAS  /var/folders/b4/k4jbz0ms4wg23jtq0w6p483m0000gn/T//ccaHqEcm.s 			page 1


   1              		.cpu cortex-m4
   2              		.arch armv7e-m
   3              		.fpu softvfp
   4              		.eabi_attribute 20, 1
   5              		.eabi_attribute 21, 1
   6              		.eabi_attribute 23, 3
   7              		.eabi_attribute 24, 1
   8              		.eabi_attribute 25, 1
   9              		.eabi_attribute 26, 1
  10              		.eabi_attribute 30, 4
  11              		.eabi_attribute 34, 1
  12              		.eabi_attribute 18, 4
  13              		.file	"stm32wlxx_hal_pwr_ex.c"
  14              		.text
  15              	.Ltext0:
  16              		.cfi_sections	.debug_frame
  17              		.section	.text.HAL_PWREx_GetVoltageRange,"ax",%progbits
  18              		.align	1
  19              		.global	HAL_PWREx_GetVoltageRange
  20              		.syntax unified
  21              		.thumb
  22              		.thumb_func
  24              	HAL_PWREx_GetVoltageRange:
  25              	.LFB721:
  26              		.file 1 "hardware/mcu/st/stm32wlxx_hal_driver/Src/stm32wlxx_hal_pwr_ex.c"
   1:hardware/mcu/st/stm32wlxx_hal_driver/Src/stm32wlxx_hal_pwr_ex.c **** /**
   2:hardware/mcu/st/stm32wlxx_hal_driver/Src/stm32wlxx_hal_pwr_ex.c ****   ******************************************************************************
   3:hardware/mcu/st/stm32wlxx_hal_driver/Src/stm32wlxx_hal_pwr_ex.c ****   * @file    stm32wlxx_hal_pwr_ex.c
   4:hardware/mcu/st/stm32wlxx_hal_driver/Src/stm32wlxx_hal_pwr_ex.c ****   * @author  MCD Application Team
   5:hardware/mcu/st/stm32wlxx_hal_driver/Src/stm32wlxx_hal_pwr_ex.c ****   * @brief   Extended PWR HAL module driver.
   6:hardware/mcu/st/stm32wlxx_hal_driver/Src/stm32wlxx_hal_pwr_ex.c ****   *          This file provides firmware functions to manage the following
   7:hardware/mcu/st/stm32wlxx_hal_driver/Src/stm32wlxx_hal_pwr_ex.c ****   *          functionalities of the Power Controller (PWR) peripheral:
   8:hardware/mcu/st/stm32wlxx_hal_driver/Src/stm32wlxx_hal_pwr_ex.c ****   *           + Extended Initialization and de-initialization functions
   9:hardware/mcu/st/stm32wlxx_hal_driver/Src/stm32wlxx_hal_pwr_ex.c ****   *           + Extended Peripheral Control functions
  10:hardware/mcu/st/stm32wlxx_hal_driver/Src/stm32wlxx_hal_pwr_ex.c ****   *
  11:hardware/mcu/st/stm32wlxx_hal_driver/Src/stm32wlxx_hal_pwr_ex.c ****   ******************************************************************************
  12:hardware/mcu/st/stm32wlxx_hal_driver/Src/stm32wlxx_hal_pwr_ex.c ****   * @attention
  13:hardware/mcu/st/stm32wlxx_hal_driver/Src/stm32wlxx_hal_pwr_ex.c ****   *
  14:hardware/mcu/st/stm32wlxx_hal_driver/Src/stm32wlxx_hal_pwr_ex.c ****   * <h2><center>&copy; Copyright (c) 2020 STMicroelectronics.
  15:hardware/mcu/st/stm32wlxx_hal_driver/Src/stm32wlxx_hal_pwr_ex.c ****   * All rights reserved.</center></h2>
  16:hardware/mcu/st/stm32wlxx_hal_driver/Src/stm32wlxx_hal_pwr_ex.c ****   *
  17:hardware/mcu/st/stm32wlxx_hal_driver/Src/stm32wlxx_hal_pwr_ex.c ****   * This software component is licensed by ST under BSD 3-Clause license,
  18:hardware/mcu/st/stm32wlxx_hal_driver/Src/stm32wlxx_hal_pwr_ex.c ****   * the "License"; You may not use this file except in compliance with the
  19:hardware/mcu/st/stm32wlxx_hal_driver/Src/stm32wlxx_hal_pwr_ex.c ****   * License. You may obtain a copy of the License at:
  20:hardware/mcu/st/stm32wlxx_hal_driver/Src/stm32wlxx_hal_pwr_ex.c ****   *                        opensource.org/licenses/BSD-3-Clause
  21:hardware/mcu/st/stm32wlxx_hal_driver/Src/stm32wlxx_hal_pwr_ex.c ****   *
  22:hardware/mcu/st/stm32wlxx_hal_driver/Src/stm32wlxx_hal_pwr_ex.c ****   ******************************************************************************
  23:hardware/mcu/st/stm32wlxx_hal_driver/Src/stm32wlxx_hal_pwr_ex.c ****   */
  24:hardware/mcu/st/stm32wlxx_hal_driver/Src/stm32wlxx_hal_pwr_ex.c **** 
  25:hardware/mcu/st/stm32wlxx_hal_driver/Src/stm32wlxx_hal_pwr_ex.c **** /* Includes ------------------------------------------------------------------*/
  26:hardware/mcu/st/stm32wlxx_hal_driver/Src/stm32wlxx_hal_pwr_ex.c **** #include "stm32wlxx_hal.h"
  27:hardware/mcu/st/stm32wlxx_hal_driver/Src/stm32wlxx_hal_pwr_ex.c **** 
  28:hardware/mcu/st/stm32wlxx_hal_driver/Src/stm32wlxx_hal_pwr_ex.c **** /** @addtogroup STM32WLxx_HAL_Driver
  29:hardware/mcu/st/stm32wlxx_hal_driver/Src/stm32wlxx_hal_pwr_ex.c ****   * @{
  30:hardware/mcu/st/stm32wlxx_hal_driver/Src/stm32wlxx_hal_pwr_ex.c ****   */
  31:hardware/mcu/st/stm32wlxx_hal_driver/Src/stm32wlxx_hal_pwr_ex.c **** 
  32:hardware/mcu/st/stm32wlxx_hal_driver/Src/stm32wlxx_hal_pwr_ex.c **** /** @addtogroup PWREx
ARM GAS  /var/folders/b4/k4jbz0ms4wg23jtq0w6p483m0000gn/T//ccaHqEcm.s 			page 2


  33:hardware/mcu/st/stm32wlxx_hal_driver/Src/stm32wlxx_hal_pwr_ex.c ****   * @{
  34:hardware/mcu/st/stm32wlxx_hal_driver/Src/stm32wlxx_hal_pwr_ex.c ****   */
  35:hardware/mcu/st/stm32wlxx_hal_driver/Src/stm32wlxx_hal_pwr_ex.c **** 
  36:hardware/mcu/st/stm32wlxx_hal_driver/Src/stm32wlxx_hal_pwr_ex.c **** #ifdef HAL_PWR_MODULE_ENABLED
  37:hardware/mcu/st/stm32wlxx_hal_driver/Src/stm32wlxx_hal_pwr_ex.c **** 
  38:hardware/mcu/st/stm32wlxx_hal_driver/Src/stm32wlxx_hal_pwr_ex.c **** /* Private typedef -----------------------------------------------------------*/
  39:hardware/mcu/st/stm32wlxx_hal_driver/Src/stm32wlxx_hal_pwr_ex.c **** /* Private constants ---------------------------------------------------------*/
  40:hardware/mcu/st/stm32wlxx_hal_driver/Src/stm32wlxx_hal_pwr_ex.c **** /** @addtogroup PWREx_Private_Constants PWR Extended Private Constants
  41:hardware/mcu/st/stm32wlxx_hal_driver/Src/stm32wlxx_hal_pwr_ex.c ****   * @{
  42:hardware/mcu/st/stm32wlxx_hal_driver/Src/stm32wlxx_hal_pwr_ex.c ****   */
  43:hardware/mcu/st/stm32wlxx_hal_driver/Src/stm32wlxx_hal_pwr_ex.c **** #define PWR_PORTC_AVAILABLE_PINS   (PWR_GPIO_BIT_15 | PWR_GPIO_BIT_14 | PWR_GPIO_BIT_13 | PWR_GPIO_
  44:hardware/mcu/st/stm32wlxx_hal_driver/Src/stm32wlxx_hal_pwr_ex.c **** #define PWR_PORTH_AVAILABLE_PINS   (PWR_GPIO_BIT_3)
  45:hardware/mcu/st/stm32wlxx_hal_driver/Src/stm32wlxx_hal_pwr_ex.c **** 
  46:hardware/mcu/st/stm32wlxx_hal_driver/Src/stm32wlxx_hal_pwr_ex.c **** /** @defgroup PWREx_TimeOut_Value PWR Extended Flag Setting Time Out Value
  47:hardware/mcu/st/stm32wlxx_hal_driver/Src/stm32wlxx_hal_pwr_ex.c ****   * @{
  48:hardware/mcu/st/stm32wlxx_hal_driver/Src/stm32wlxx_hal_pwr_ex.c ****   */
  49:hardware/mcu/st/stm32wlxx_hal_driver/Src/stm32wlxx_hal_pwr_ex.c **** #define PWR_FLAG_SETTING_DELAY_US                      50UL   /*!< Time out value for REGLPF and VO
  50:hardware/mcu/st/stm32wlxx_hal_driver/Src/stm32wlxx_hal_pwr_ex.c **** /**
  51:hardware/mcu/st/stm32wlxx_hal_driver/Src/stm32wlxx_hal_pwr_ex.c ****   * @}
  52:hardware/mcu/st/stm32wlxx_hal_driver/Src/stm32wlxx_hal_pwr_ex.c ****   */
  53:hardware/mcu/st/stm32wlxx_hal_driver/Src/stm32wlxx_hal_pwr_ex.c **** 
  54:hardware/mcu/st/stm32wlxx_hal_driver/Src/stm32wlxx_hal_pwr_ex.c **** /**
  55:hardware/mcu/st/stm32wlxx_hal_driver/Src/stm32wlxx_hal_pwr_ex.c ****   * @}
  56:hardware/mcu/st/stm32wlxx_hal_driver/Src/stm32wlxx_hal_pwr_ex.c ****   */
  57:hardware/mcu/st/stm32wlxx_hal_driver/Src/stm32wlxx_hal_pwr_ex.c **** 
  58:hardware/mcu/st/stm32wlxx_hal_driver/Src/stm32wlxx_hal_pwr_ex.c **** /* Private macro -------------------------------------------------------------*/
  59:hardware/mcu/st/stm32wlxx_hal_driver/Src/stm32wlxx_hal_pwr_ex.c **** /* Private variables ---------------------------------------------------------*/
  60:hardware/mcu/st/stm32wlxx_hal_driver/Src/stm32wlxx_hal_pwr_ex.c **** /* Private function prototypes -----------------------------------------------*/
  61:hardware/mcu/st/stm32wlxx_hal_driver/Src/stm32wlxx_hal_pwr_ex.c **** /* Exported functions --------------------------------------------------------*/
  62:hardware/mcu/st/stm32wlxx_hal_driver/Src/stm32wlxx_hal_pwr_ex.c **** /** @addtogroup PWREx_Exported_Functions PWR Extended Exported Functions
  63:hardware/mcu/st/stm32wlxx_hal_driver/Src/stm32wlxx_hal_pwr_ex.c ****   * @{
  64:hardware/mcu/st/stm32wlxx_hal_driver/Src/stm32wlxx_hal_pwr_ex.c ****   */
  65:hardware/mcu/st/stm32wlxx_hal_driver/Src/stm32wlxx_hal_pwr_ex.c **** 
  66:hardware/mcu/st/stm32wlxx_hal_driver/Src/stm32wlxx_hal_pwr_ex.c **** /** @addtogroup PWREx_Exported_Functions_Group1 Extended Peripheral Control functions
  67:hardware/mcu/st/stm32wlxx_hal_driver/Src/stm32wlxx_hal_pwr_ex.c ****   *  @brief   Extended Peripheral Control functions
  68:hardware/mcu/st/stm32wlxx_hal_driver/Src/stm32wlxx_hal_pwr_ex.c ****   *
  69:hardware/mcu/st/stm32wlxx_hal_driver/Src/stm32wlxx_hal_pwr_ex.c **** @verbatim
  70:hardware/mcu/st/stm32wlxx_hal_driver/Src/stm32wlxx_hal_pwr_ex.c ****  ===============================================================================
  71:hardware/mcu/st/stm32wlxx_hal_driver/Src/stm32wlxx_hal_pwr_ex.c ****               ##### Extended Peripheral Initialization and de-initialization functions #####
  72:hardware/mcu/st/stm32wlxx_hal_driver/Src/stm32wlxx_hal_pwr_ex.c ****  ===============================================================================
  73:hardware/mcu/st/stm32wlxx_hal_driver/Src/stm32wlxx_hal_pwr_ex.c ****     [..]
  74:hardware/mcu/st/stm32wlxx_hal_driver/Src/stm32wlxx_hal_pwr_ex.c **** 
  75:hardware/mcu/st/stm32wlxx_hal_driver/Src/stm32wlxx_hal_pwr_ex.c **** @endverbatim
  76:hardware/mcu/st/stm32wlxx_hal_driver/Src/stm32wlxx_hal_pwr_ex.c ****   * @{
  77:hardware/mcu/st/stm32wlxx_hal_driver/Src/stm32wlxx_hal_pwr_ex.c ****   */
  78:hardware/mcu/st/stm32wlxx_hal_driver/Src/stm32wlxx_hal_pwr_ex.c **** 
  79:hardware/mcu/st/stm32wlxx_hal_driver/Src/stm32wlxx_hal_pwr_ex.c **** 
  80:hardware/mcu/st/stm32wlxx_hal_driver/Src/stm32wlxx_hal_pwr_ex.c **** /**
  81:hardware/mcu/st/stm32wlxx_hal_driver/Src/stm32wlxx_hal_pwr_ex.c ****   * @brief Return Voltage Scaling Range.
  82:hardware/mcu/st/stm32wlxx_hal_driver/Src/stm32wlxx_hal_pwr_ex.c ****   * @retval VOS bit field (PWR_REGULATOR_VOLTAGE_SCALE1 or PWPWR_REGULATOR_VOLTAGE_SCALE2)
  83:hardware/mcu/st/stm32wlxx_hal_driver/Src/stm32wlxx_hal_pwr_ex.c ****   */
  84:hardware/mcu/st/stm32wlxx_hal_driver/Src/stm32wlxx_hal_pwr_ex.c **** uint32_t HAL_PWREx_GetVoltageRange(void)
  85:hardware/mcu/st/stm32wlxx_hal_driver/Src/stm32wlxx_hal_pwr_ex.c **** {
  27              		.loc 1 85 1 view -0
  28              		.cfi_startproc
  29              		@ args = 0, pretend = 0, frame = 0
  30              		@ frame_needed = 0, uses_anonymous_args = 0
ARM GAS  /var/folders/b4/k4jbz0ms4wg23jtq0w6p483m0000gn/T//ccaHqEcm.s 			page 3


  31              		@ link register save eliminated.
  86:hardware/mcu/st/stm32wlxx_hal_driver/Src/stm32wlxx_hal_pwr_ex.c ****   return (PWR->CR1 & PWR_CR1_VOS);
  32              		.loc 1 86 3 view .LVU1
  33              		.loc 1 86 14 is_stmt 0 view .LVU2
  34 0000 024B     		ldr	r3, .L2
  35 0002 1868     		ldr	r0, [r3]
  87:hardware/mcu/st/stm32wlxx_hal_driver/Src/stm32wlxx_hal_pwr_ex.c **** }
  36              		.loc 1 87 1 view .LVU3
  37 0004 00F4C060 		and	r0, r0, #1536
  38 0008 7047     		bx	lr
  39              	.L3:
  40 000a 00BF     		.align	2
  41              	.L2:
  42 000c 00040058 		.word	1476396032
  43              		.cfi_endproc
  44              	.LFE721:
  46              		.section	.text.HAL_PWREx_ControlVoltageScaling,"ax",%progbits
  47              		.align	1
  48              		.global	HAL_PWREx_ControlVoltageScaling
  49              		.syntax unified
  50              		.thumb
  51              		.thumb_func
  53              	HAL_PWREx_ControlVoltageScaling:
  54              	.LVL0:
  55              	.LFB722:
  88:hardware/mcu/st/stm32wlxx_hal_driver/Src/stm32wlxx_hal_pwr_ex.c **** 
  89:hardware/mcu/st/stm32wlxx_hal_driver/Src/stm32wlxx_hal_pwr_ex.c **** /**
  90:hardware/mcu/st/stm32wlxx_hal_driver/Src/stm32wlxx_hal_pwr_ex.c ****   * @brief Configure the main internal regulator output voltage.
  91:hardware/mcu/st/stm32wlxx_hal_driver/Src/stm32wlxx_hal_pwr_ex.c ****   * @param VoltageScaling specifies the regulator output voltage to achieve
  92:hardware/mcu/st/stm32wlxx_hal_driver/Src/stm32wlxx_hal_pwr_ex.c ****   *         a trade-off between performance and power consumption.
  93:hardware/mcu/st/stm32wlxx_hal_driver/Src/stm32wlxx_hal_pwr_ex.c ****   *          This parameter can be one of the following values:
  94:hardware/mcu/st/stm32wlxx_hal_driver/Src/stm32wlxx_hal_pwr_ex.c ****   *            @arg @ref PWR_REGULATOR_VOLTAGE_SCALE1 Regulator voltage output range 1 mode,
  95:hardware/mcu/st/stm32wlxx_hal_driver/Src/stm32wlxx_hal_pwr_ex.c ****   *                                                typical output voltage at 1.2 V,
  96:hardware/mcu/st/stm32wlxx_hal_driver/Src/stm32wlxx_hal_pwr_ex.c ****   *                                                system frequency up to 48 MHz.
  97:hardware/mcu/st/stm32wlxx_hal_driver/Src/stm32wlxx_hal_pwr_ex.c ****   *            @arg @ref PWR_REGULATOR_VOLTAGE_SCALE2 Regulator voltage output range 2 mode,
  98:hardware/mcu/st/stm32wlxx_hal_driver/Src/stm32wlxx_hal_pwr_ex.c ****   *                                                typical output voltage at 1.0 V,
  99:hardware/mcu/st/stm32wlxx_hal_driver/Src/stm32wlxx_hal_pwr_ex.c ****   *                                                system frequency up to 16 MHz.
 100:hardware/mcu/st/stm32wlxx_hal_driver/Src/stm32wlxx_hal_pwr_ex.c ****   * @note  When moving from Range 1 to Range 2, the system frequency must be decreased to
 101:hardware/mcu/st/stm32wlxx_hal_driver/Src/stm32wlxx_hal_pwr_ex.c ****   *        a value below 16 MHz before calling HAL_PWREx_ControlVoltageScaling() API.
 102:hardware/mcu/st/stm32wlxx_hal_driver/Src/stm32wlxx_hal_pwr_ex.c ****   *        When moving from Range 2 to Range 1, the system frequency can be increased to
 103:hardware/mcu/st/stm32wlxx_hal_driver/Src/stm32wlxx_hal_pwr_ex.c ****   *        a value up to 48 MHz after calling HAL_PWREx_ControlVoltageScaling() API.
 104:hardware/mcu/st/stm32wlxx_hal_driver/Src/stm32wlxx_hal_pwr_ex.c ****   * @note  When moving from Range 2 to Range 1, the API waits for VOSF flag to be
 105:hardware/mcu/st/stm32wlxx_hal_driver/Src/stm32wlxx_hal_pwr_ex.c ****   *        cleared before returning the status. If the flag is not cleared within
 106:hardware/mcu/st/stm32wlxx_hal_driver/Src/stm32wlxx_hal_pwr_ex.c ****   *        50 microseconds, HAL_TIMEOUT status is reported.
 107:hardware/mcu/st/stm32wlxx_hal_driver/Src/stm32wlxx_hal_pwr_ex.c ****   * @retval HAL Status
 108:hardware/mcu/st/stm32wlxx_hal_driver/Src/stm32wlxx_hal_pwr_ex.c ****   */
 109:hardware/mcu/st/stm32wlxx_hal_driver/Src/stm32wlxx_hal_pwr_ex.c **** HAL_StatusTypeDef HAL_PWREx_ControlVoltageScaling(uint32_t VoltageScaling)
 110:hardware/mcu/st/stm32wlxx_hal_driver/Src/stm32wlxx_hal_pwr_ex.c **** {
  56              		.loc 1 110 1 is_stmt 1 view -0
  57              		.cfi_startproc
  58              		@ args = 0, pretend = 0, frame = 0
  59              		@ frame_needed = 0, uses_anonymous_args = 0
  60              		@ link register save eliminated.
 111:hardware/mcu/st/stm32wlxx_hal_driver/Src/stm32wlxx_hal_pwr_ex.c ****   uint32_t wait_loop_index;
  61              		.loc 1 111 3 view .LVU5
 112:hardware/mcu/st/stm32wlxx_hal_driver/Src/stm32wlxx_hal_pwr_ex.c **** 
 113:hardware/mcu/st/stm32wlxx_hal_driver/Src/stm32wlxx_hal_pwr_ex.c ****   assert_param(IS_PWR_VOLTAGE_SCALING_RANGE(VoltageScaling));
ARM GAS  /var/folders/b4/k4jbz0ms4wg23jtq0w6p483m0000gn/T//ccaHqEcm.s 			page 4


  62              		.loc 1 113 3 view .LVU6
 114:hardware/mcu/st/stm32wlxx_hal_driver/Src/stm32wlxx_hal_pwr_ex.c **** 
 115:hardware/mcu/st/stm32wlxx_hal_driver/Src/stm32wlxx_hal_pwr_ex.c ****   /* If Set Range 1 */
 116:hardware/mcu/st/stm32wlxx_hal_driver/Src/stm32wlxx_hal_pwr_ex.c ****   if (VoltageScaling == PWR_REGULATOR_VOLTAGE_SCALE1)
  63              		.loc 1 116 3 view .LVU7
  64 0000 164B     		ldr	r3, .L20
 117:hardware/mcu/st/stm32wlxx_hal_driver/Src/stm32wlxx_hal_pwr_ex.c ****   {
 118:hardware/mcu/st/stm32wlxx_hal_driver/Src/stm32wlxx_hal_pwr_ex.c ****     if (READ_BIT(PWR->CR1, PWR_CR1_VOS) != PWR_REGULATOR_VOLTAGE_SCALE1)
  65              		.loc 1 118 9 is_stmt 0 view .LVU8
  66 0002 1A68     		ldr	r2, [r3]
 116:hardware/mcu/st/stm32wlxx_hal_driver/Src/stm32wlxx_hal_pwr_ex.c ****   {
  67              		.loc 1 116 6 view .LVU9
  68 0004 B0F5007F 		cmp	r0, #512
  69              		.loc 1 118 9 view .LVU10
  70 0008 02F4C062 		and	r2, r2, #1536
 116:hardware/mcu/st/stm32wlxx_hal_driver/Src/stm32wlxx_hal_pwr_ex.c ****   {
  71              		.loc 1 116 6 view .LVU11
  72 000c 1CD1     		bne	.L5
  73              		.loc 1 118 5 is_stmt 1 view .LVU12
  74              		.loc 1 118 8 is_stmt 0 view .LVU13
  75 000e B2F5007F 		cmp	r2, #512
  76 0012 01D1     		bne	.L6
  77              	.L19:
 119:hardware/mcu/st/stm32wlxx_hal_driver/Src/stm32wlxx_hal_pwr_ex.c ****     {
 120:hardware/mcu/st/stm32wlxx_hal_driver/Src/stm32wlxx_hal_pwr_ex.c ****       /* Set Range 1 */
 121:hardware/mcu/st/stm32wlxx_hal_driver/Src/stm32wlxx_hal_pwr_ex.c ****       MODIFY_REG(PWR->CR1, PWR_CR1_VOS, PWR_REGULATOR_VOLTAGE_SCALE1);
 122:hardware/mcu/st/stm32wlxx_hal_driver/Src/stm32wlxx_hal_pwr_ex.c **** 
 123:hardware/mcu/st/stm32wlxx_hal_driver/Src/stm32wlxx_hal_pwr_ex.c ****       /* Wait until VOSF is cleared */
 124:hardware/mcu/st/stm32wlxx_hal_driver/Src/stm32wlxx_hal_pwr_ex.c ****       wait_loop_index = ((PWR_FLAG_SETTING_DELAY_US * SystemCoreClock) / 1000000UL);
 125:hardware/mcu/st/stm32wlxx_hal_driver/Src/stm32wlxx_hal_pwr_ex.c ****       while ((HAL_IS_BIT_SET(PWR->SR2, PWR_SR2_VOSF)) && (wait_loop_index != 0U))
 126:hardware/mcu/st/stm32wlxx_hal_driver/Src/stm32wlxx_hal_pwr_ex.c ****       {
 127:hardware/mcu/st/stm32wlxx_hal_driver/Src/stm32wlxx_hal_pwr_ex.c ****         wait_loop_index--;
 128:hardware/mcu/st/stm32wlxx_hal_driver/Src/stm32wlxx_hal_pwr_ex.c ****       }
 129:hardware/mcu/st/stm32wlxx_hal_driver/Src/stm32wlxx_hal_pwr_ex.c ****       if (HAL_IS_BIT_SET(PWR->SR2, PWR_SR2_VOSF))
 130:hardware/mcu/st/stm32wlxx_hal_driver/Src/stm32wlxx_hal_pwr_ex.c ****       {
 131:hardware/mcu/st/stm32wlxx_hal_driver/Src/stm32wlxx_hal_pwr_ex.c ****         return HAL_TIMEOUT;
 132:hardware/mcu/st/stm32wlxx_hal_driver/Src/stm32wlxx_hal_pwr_ex.c ****       }
 133:hardware/mcu/st/stm32wlxx_hal_driver/Src/stm32wlxx_hal_pwr_ex.c ****     }
 134:hardware/mcu/st/stm32wlxx_hal_driver/Src/stm32wlxx_hal_pwr_ex.c ****   }
 135:hardware/mcu/st/stm32wlxx_hal_driver/Src/stm32wlxx_hal_pwr_ex.c ****   else
 136:hardware/mcu/st/stm32wlxx_hal_driver/Src/stm32wlxx_hal_pwr_ex.c ****   {
 137:hardware/mcu/st/stm32wlxx_hal_driver/Src/stm32wlxx_hal_pwr_ex.c ****     if (READ_BIT(PWR->CR1, PWR_CR1_VOS) != PWR_REGULATOR_VOLTAGE_SCALE2)
 138:hardware/mcu/st/stm32wlxx_hal_driver/Src/stm32wlxx_hal_pwr_ex.c ****     {
 139:hardware/mcu/st/stm32wlxx_hal_driver/Src/stm32wlxx_hal_pwr_ex.c ****       /* Set Range 2 */
 140:hardware/mcu/st/stm32wlxx_hal_driver/Src/stm32wlxx_hal_pwr_ex.c ****       MODIFY_REG(PWR->CR1, PWR_CR1_VOS, PWR_REGULATOR_VOLTAGE_SCALE2);
 141:hardware/mcu/st/stm32wlxx_hal_driver/Src/stm32wlxx_hal_pwr_ex.c ****       /* No need to wait for VOSF to be cleared for this transition */
 142:hardware/mcu/st/stm32wlxx_hal_driver/Src/stm32wlxx_hal_pwr_ex.c ****     }
 143:hardware/mcu/st/stm32wlxx_hal_driver/Src/stm32wlxx_hal_pwr_ex.c ****   }
 144:hardware/mcu/st/stm32wlxx_hal_driver/Src/stm32wlxx_hal_pwr_ex.c **** 
 145:hardware/mcu/st/stm32wlxx_hal_driver/Src/stm32wlxx_hal_pwr_ex.c ****   return HAL_OK;
  78              		.loc 1 145 10 view .LVU14
  79 0014 0020     		movs	r0, #0
  80              	.LVL1:
  81              		.loc 1 145 10 view .LVU15
  82 0016 7047     		bx	lr
  83              	.LVL2:
  84              	.L6:
ARM GAS  /var/folders/b4/k4jbz0ms4wg23jtq0w6p483m0000gn/T//ccaHqEcm.s 			page 5


 121:hardware/mcu/st/stm32wlxx_hal_driver/Src/stm32wlxx_hal_pwr_ex.c **** 
  85              		.loc 1 121 7 is_stmt 1 view .LVU16
  86 0018 1A68     		ldr	r2, [r3]
  87 001a 22F4C062 		bic	r2, r2, #1536
  88 001e 42F40072 		orr	r2, r2, #512
  89 0022 1A60     		str	r2, [r3]
 124:hardware/mcu/st/stm32wlxx_hal_driver/Src/stm32wlxx_hal_pwr_ex.c ****       while ((HAL_IS_BIT_SET(PWR->SR2, PWR_SR2_VOSF)) && (wait_loop_index != 0U))
  90              		.loc 1 124 7 view .LVU17
 124:hardware/mcu/st/stm32wlxx_hal_driver/Src/stm32wlxx_hal_pwr_ex.c ****       while ((HAL_IS_BIT_SET(PWR->SR2, PWR_SR2_VOSF)) && (wait_loop_index != 0U))
  91              		.loc 1 124 53 is_stmt 0 view .LVU18
  92 0024 0E4A     		ldr	r2, .L20+4
  93 0026 1268     		ldr	r2, [r2]
  94 0028 3221     		movs	r1, #50
  95 002a 4A43     		muls	r2, r1, r2
 124:hardware/mcu/st/stm32wlxx_hal_driver/Src/stm32wlxx_hal_pwr_ex.c ****       while ((HAL_IS_BIT_SET(PWR->SR2, PWR_SR2_VOSF)) && (wait_loop_index != 0U))
  96              		.loc 1 124 23 view .LVU19
  97 002c 0D49     		ldr	r1, .L20+8
  98 002e B2FBF1F2 		udiv	r2, r2, r1
  99              	.LVL3:
 125:hardware/mcu/st/stm32wlxx_hal_driver/Src/stm32wlxx_hal_pwr_ex.c ****       {
 100              		.loc 1 125 7 is_stmt 1 view .LVU20
 101              	.L8:
 125:hardware/mcu/st/stm32wlxx_hal_driver/Src/stm32wlxx_hal_pwr_ex.c ****       {
 102              		.loc 1 125 13 view .LVU21
 125:hardware/mcu/st/stm32wlxx_hal_driver/Src/stm32wlxx_hal_pwr_ex.c ****       {
 103              		.loc 1 125 15 is_stmt 0 view .LVU22
 104 0032 5969     		ldr	r1, [r3, #20]
 125:hardware/mcu/st/stm32wlxx_hal_driver/Src/stm32wlxx_hal_pwr_ex.c ****       {
 105              		.loc 1 125 13 view .LVU23
 106 0034 4905     		lsls	r1, r1, #21
 107 0036 00D5     		bpl	.L9
 125:hardware/mcu/st/stm32wlxx_hal_driver/Src/stm32wlxx_hal_pwr_ex.c ****       {
 108              		.loc 1 125 55 discriminator 1 view .LVU24
 109 0038 22B9     		cbnz	r2, .L10
 110              	.L9:
 129:hardware/mcu/st/stm32wlxx_hal_driver/Src/stm32wlxx_hal_pwr_ex.c ****       {
 111              		.loc 1 129 7 is_stmt 1 view .LVU25
 129:hardware/mcu/st/stm32wlxx_hal_driver/Src/stm32wlxx_hal_pwr_ex.c ****       {
 112              		.loc 1 129 11 is_stmt 0 view .LVU26
 113 003a 5B69     		ldr	r3, [r3, #20]
 129:hardware/mcu/st/stm32wlxx_hal_driver/Src/stm32wlxx_hal_pwr_ex.c ****       {
 114              		.loc 1 129 10 view .LVU27
 115 003c 5B05     		lsls	r3, r3, #21
 116 003e E9D5     		bpl	.L19
 131:hardware/mcu/st/stm32wlxx_hal_driver/Src/stm32wlxx_hal_pwr_ex.c ****       }
 117              		.loc 1 131 16 view .LVU28
 118 0040 0320     		movs	r0, #3
 119              	.LVL4:
 146:hardware/mcu/st/stm32wlxx_hal_driver/Src/stm32wlxx_hal_pwr_ex.c **** }
 120              		.loc 1 146 1 view .LVU29
 121 0042 7047     		bx	lr
 122              	.LVL5:
 123              	.L10:
 127:hardware/mcu/st/stm32wlxx_hal_driver/Src/stm32wlxx_hal_pwr_ex.c ****       }
 124              		.loc 1 127 9 is_stmt 1 view .LVU30
 127:hardware/mcu/st/stm32wlxx_hal_driver/Src/stm32wlxx_hal_pwr_ex.c ****       }
 125              		.loc 1 127 24 is_stmt 0 view .LVU31
ARM GAS  /var/folders/b4/k4jbz0ms4wg23jtq0w6p483m0000gn/T//ccaHqEcm.s 			page 6


 126 0044 013A     		subs	r2, r2, #1
 127              	.LVL6:
 127:hardware/mcu/st/stm32wlxx_hal_driver/Src/stm32wlxx_hal_pwr_ex.c ****       }
 128              		.loc 1 127 24 view .LVU32
 129 0046 F4E7     		b	.L8
 130              	.LVL7:
 131              	.L5:
 137:hardware/mcu/st/stm32wlxx_hal_driver/Src/stm32wlxx_hal_pwr_ex.c ****     {
 132              		.loc 1 137 5 is_stmt 1 view .LVU33
 137:hardware/mcu/st/stm32wlxx_hal_driver/Src/stm32wlxx_hal_pwr_ex.c ****     {
 133              		.loc 1 137 8 is_stmt 0 view .LVU34
 134 0048 B2F5806F 		cmp	r2, #1024
 140:hardware/mcu/st/stm32wlxx_hal_driver/Src/stm32wlxx_hal_pwr_ex.c ****       /* No need to wait for VOSF to be cleared for this transition */
 135              		.loc 1 140 7 is_stmt 1 view .LVU35
 136 004c 1FBF     		itttt	ne
 137 004e 1A68     		ldrne	r2, [r3]
 138 0050 22F4C062 		bicne	r2, r2, #1536
 139 0054 42F48062 		orrne	r2, r2, #1024
 140 0058 1A60     		strne	r2, [r3]
 141 005a DBE7     		b	.L19
 142              	.L21:
 143              		.align	2
 144              	.L20:
 145 005c 00040058 		.word	1476396032
 146 0060 00000000 		.word	SystemCoreClock
 147 0064 40420F00 		.word	1000000
 148              		.cfi_endproc
 149              	.LFE722:
 151              		.section	.text.HAL_PWREx_EnableBatteryCharging,"ax",%progbits
 152              		.align	1
 153              		.global	HAL_PWREx_EnableBatteryCharging
 154              		.syntax unified
 155              		.thumb
 156              		.thumb_func
 158              	HAL_PWREx_EnableBatteryCharging:
 159              	.LVL8:
 160              	.LFB723:
 147:hardware/mcu/st/stm32wlxx_hal_driver/Src/stm32wlxx_hal_pwr_ex.c **** 
 148:hardware/mcu/st/stm32wlxx_hal_driver/Src/stm32wlxx_hal_pwr_ex.c **** /****************************************************************************/
 149:hardware/mcu/st/stm32wlxx_hal_driver/Src/stm32wlxx_hal_pwr_ex.c **** 
 150:hardware/mcu/st/stm32wlxx_hal_driver/Src/stm32wlxx_hal_pwr_ex.c **** /**
 151:hardware/mcu/st/stm32wlxx_hal_driver/Src/stm32wlxx_hal_pwr_ex.c ****   * @brief Enable battery charging.
 152:hardware/mcu/st/stm32wlxx_hal_driver/Src/stm32wlxx_hal_pwr_ex.c ****   *        When VDD is present, charge the external battery on VBAT through an internal resistor.
 153:hardware/mcu/st/stm32wlxx_hal_driver/Src/stm32wlxx_hal_pwr_ex.c ****   * @param ResistorSelection specifies the resistor impedance.
 154:hardware/mcu/st/stm32wlxx_hal_driver/Src/stm32wlxx_hal_pwr_ex.c ****   *          This parameter can be one of the following values:
 155:hardware/mcu/st/stm32wlxx_hal_driver/Src/stm32wlxx_hal_pwr_ex.c ****   *            @arg @ref PWR_BATTERY_CHARGING_RESISTOR_5     5 kOhms resistor
 156:hardware/mcu/st/stm32wlxx_hal_driver/Src/stm32wlxx_hal_pwr_ex.c ****   *            @arg @ref PWR_BATTERY_CHARGING_RESISTOR_1_5 1.5 kOhms resistor
 157:hardware/mcu/st/stm32wlxx_hal_driver/Src/stm32wlxx_hal_pwr_ex.c ****   * @retval None
 158:hardware/mcu/st/stm32wlxx_hal_driver/Src/stm32wlxx_hal_pwr_ex.c ****   */
 159:hardware/mcu/st/stm32wlxx_hal_driver/Src/stm32wlxx_hal_pwr_ex.c **** void HAL_PWREx_EnableBatteryCharging(uint32_t ResistorSelection)
 160:hardware/mcu/st/stm32wlxx_hal_driver/Src/stm32wlxx_hal_pwr_ex.c **** {
 161              		.loc 1 160 1 view -0
 162              		.cfi_startproc
 163              		@ args = 0, pretend = 0, frame = 0
 164              		@ frame_needed = 0, uses_anonymous_args = 0
 165              		@ link register save eliminated.
 161:hardware/mcu/st/stm32wlxx_hal_driver/Src/stm32wlxx_hal_pwr_ex.c ****   assert_param(IS_PWR_BATTERY_RESISTOR_SELECT(ResistorSelection));
ARM GAS  /var/folders/b4/k4jbz0ms4wg23jtq0w6p483m0000gn/T//ccaHqEcm.s 			page 7


 166              		.loc 1 161 3 view .LVU37
 162:hardware/mcu/st/stm32wlxx_hal_driver/Src/stm32wlxx_hal_pwr_ex.c **** 
 163:hardware/mcu/st/stm32wlxx_hal_driver/Src/stm32wlxx_hal_pwr_ex.c ****   /* Specify resistor selection */
 164:hardware/mcu/st/stm32wlxx_hal_driver/Src/stm32wlxx_hal_pwr_ex.c ****   MODIFY_REG(PWR->CR4, PWR_CR4_VBRS, ResistorSelection);
 167              		.loc 1 164 3 view .LVU38
 168 0000 054A     		ldr	r2, .L23
 169 0002 D368     		ldr	r3, [r2, #12]
 170 0004 23F40073 		bic	r3, r3, #512
 171 0008 0343     		orrs	r3, r3, r0
 172 000a D360     		str	r3, [r2, #12]
 165:hardware/mcu/st/stm32wlxx_hal_driver/Src/stm32wlxx_hal_pwr_ex.c **** 
 166:hardware/mcu/st/stm32wlxx_hal_driver/Src/stm32wlxx_hal_pwr_ex.c ****   /* Enable battery charging */
 167:hardware/mcu/st/stm32wlxx_hal_driver/Src/stm32wlxx_hal_pwr_ex.c ****   SET_BIT(PWR->CR4, PWR_CR4_VBE);
 173              		.loc 1 167 3 view .LVU39
 174 000c D368     		ldr	r3, [r2, #12]
 175 000e 43F48073 		orr	r3, r3, #256
 176 0012 D360     		str	r3, [r2, #12]
 168:hardware/mcu/st/stm32wlxx_hal_driver/Src/stm32wlxx_hal_pwr_ex.c **** }
 177              		.loc 1 168 1 is_stmt 0 view .LVU40
 178 0014 7047     		bx	lr
 179              	.L24:
 180 0016 00BF     		.align	2
 181              	.L23:
 182 0018 00040058 		.word	1476396032
 183              		.cfi_endproc
 184              	.LFE723:
 186              		.section	.text.HAL_PWREx_DisableBatteryCharging,"ax",%progbits
 187              		.align	1
 188              		.global	HAL_PWREx_DisableBatteryCharging
 189              		.syntax unified
 190              		.thumb
 191              		.thumb_func
 193              	HAL_PWREx_DisableBatteryCharging:
 194              	.LFB724:
 169:hardware/mcu/st/stm32wlxx_hal_driver/Src/stm32wlxx_hal_pwr_ex.c **** 
 170:hardware/mcu/st/stm32wlxx_hal_driver/Src/stm32wlxx_hal_pwr_ex.c **** /**
 171:hardware/mcu/st/stm32wlxx_hal_driver/Src/stm32wlxx_hal_pwr_ex.c ****   * @brief Disable battery charging.
 172:hardware/mcu/st/stm32wlxx_hal_driver/Src/stm32wlxx_hal_pwr_ex.c ****   * @retval None
 173:hardware/mcu/st/stm32wlxx_hal_driver/Src/stm32wlxx_hal_pwr_ex.c ****   */
 174:hardware/mcu/st/stm32wlxx_hal_driver/Src/stm32wlxx_hal_pwr_ex.c **** void HAL_PWREx_DisableBatteryCharging(void)
 175:hardware/mcu/st/stm32wlxx_hal_driver/Src/stm32wlxx_hal_pwr_ex.c **** {
 195              		.loc 1 175 1 is_stmt 1 view -0
 196              		.cfi_startproc
 197              		@ args = 0, pretend = 0, frame = 0
 198              		@ frame_needed = 0, uses_anonymous_args = 0
 199              		@ link register save eliminated.
 176:hardware/mcu/st/stm32wlxx_hal_driver/Src/stm32wlxx_hal_pwr_ex.c ****   CLEAR_BIT(PWR->CR4, PWR_CR4_VBE);
 200              		.loc 1 176 3 view .LVU42
 201 0000 024A     		ldr	r2, .L26
 202 0002 D368     		ldr	r3, [r2, #12]
 203 0004 23F48073 		bic	r3, r3, #256
 204 0008 D360     		str	r3, [r2, #12]
 177:hardware/mcu/st/stm32wlxx_hal_driver/Src/stm32wlxx_hal_pwr_ex.c **** }
 205              		.loc 1 177 1 is_stmt 0 view .LVU43
 206 000a 7047     		bx	lr
 207              	.L27:
 208              		.align	2
ARM GAS  /var/folders/b4/k4jbz0ms4wg23jtq0w6p483m0000gn/T//ccaHqEcm.s 			page 8


 209              	.L26:
 210 000c 00040058 		.word	1476396032
 211              		.cfi_endproc
 212              	.LFE724:
 214              		.section	.text.HAL_PWREx_EnableInternalWakeUpLine,"ax",%progbits
 215              		.align	1
 216              		.global	HAL_PWREx_EnableInternalWakeUpLine
 217              		.syntax unified
 218              		.thumb
 219              		.thumb_func
 221              	HAL_PWREx_EnableInternalWakeUpLine:
 222              	.LFB725:
 178:hardware/mcu/st/stm32wlxx_hal_driver/Src/stm32wlxx_hal_pwr_ex.c **** 
 179:hardware/mcu/st/stm32wlxx_hal_driver/Src/stm32wlxx_hal_pwr_ex.c **** /****************************************************************************/
 180:hardware/mcu/st/stm32wlxx_hal_driver/Src/stm32wlxx_hal_pwr_ex.c **** 
 181:hardware/mcu/st/stm32wlxx_hal_driver/Src/stm32wlxx_hal_pwr_ex.c **** /**
 182:hardware/mcu/st/stm32wlxx_hal_driver/Src/stm32wlxx_hal_pwr_ex.c ****   * @brief Enable Internal Wake-up Line.
 183:hardware/mcu/st/stm32wlxx_hal_driver/Src/stm32wlxx_hal_pwr_ex.c ****   * @retval None
 184:hardware/mcu/st/stm32wlxx_hal_driver/Src/stm32wlxx_hal_pwr_ex.c ****   */
 185:hardware/mcu/st/stm32wlxx_hal_driver/Src/stm32wlxx_hal_pwr_ex.c **** void HAL_PWREx_EnableInternalWakeUpLine(void)
 186:hardware/mcu/st/stm32wlxx_hal_driver/Src/stm32wlxx_hal_pwr_ex.c **** {
 223              		.loc 1 186 1 is_stmt 1 view -0
 224              		.cfi_startproc
 225              		@ args = 0, pretend = 0, frame = 0
 226              		@ frame_needed = 0, uses_anonymous_args = 0
 227              		@ link register save eliminated.
 187:hardware/mcu/st/stm32wlxx_hal_driver/Src/stm32wlxx_hal_pwr_ex.c **** #ifdef CORE_CM0PLUS
 188:hardware/mcu/st/stm32wlxx_hal_driver/Src/stm32wlxx_hal_pwr_ex.c ****   SET_BIT(PWR->C2CR3, PWR_C2CR3_EIWUL);
 189:hardware/mcu/st/stm32wlxx_hal_driver/Src/stm32wlxx_hal_pwr_ex.c **** #else
 190:hardware/mcu/st/stm32wlxx_hal_driver/Src/stm32wlxx_hal_pwr_ex.c ****   SET_BIT(PWR->CR3, PWR_CR3_EIWUL);
 228              		.loc 1 190 3 view .LVU45
 229 0000 024A     		ldr	r2, .L29
 230 0002 9368     		ldr	r3, [r2, #8]
 231 0004 43F40043 		orr	r3, r3, #32768
 232 0008 9360     		str	r3, [r2, #8]
 191:hardware/mcu/st/stm32wlxx_hal_driver/Src/stm32wlxx_hal_pwr_ex.c **** #endif
 192:hardware/mcu/st/stm32wlxx_hal_driver/Src/stm32wlxx_hal_pwr_ex.c **** }
 233              		.loc 1 192 1 is_stmt 0 view .LVU46
 234 000a 7047     		bx	lr
 235              	.L30:
 236              		.align	2
 237              	.L29:
 238 000c 00040058 		.word	1476396032
 239              		.cfi_endproc
 240              	.LFE725:
 242              		.section	.text.HAL_PWREx_DisableInternalWakeUpLine,"ax",%progbits
 243              		.align	1
 244              		.global	HAL_PWREx_DisableInternalWakeUpLine
 245              		.syntax unified
 246              		.thumb
 247              		.thumb_func
 249              	HAL_PWREx_DisableInternalWakeUpLine:
 250              	.LFB726:
 193:hardware/mcu/st/stm32wlxx_hal_driver/Src/stm32wlxx_hal_pwr_ex.c **** 
 194:hardware/mcu/st/stm32wlxx_hal_driver/Src/stm32wlxx_hal_pwr_ex.c **** /**
 195:hardware/mcu/st/stm32wlxx_hal_driver/Src/stm32wlxx_hal_pwr_ex.c ****   * @brief Disable Internal Wake-up Line.
 196:hardware/mcu/st/stm32wlxx_hal_driver/Src/stm32wlxx_hal_pwr_ex.c ****   * @retval None
ARM GAS  /var/folders/b4/k4jbz0ms4wg23jtq0w6p483m0000gn/T//ccaHqEcm.s 			page 9


 197:hardware/mcu/st/stm32wlxx_hal_driver/Src/stm32wlxx_hal_pwr_ex.c ****   */
 198:hardware/mcu/st/stm32wlxx_hal_driver/Src/stm32wlxx_hal_pwr_ex.c **** void HAL_PWREx_DisableInternalWakeUpLine(void)
 199:hardware/mcu/st/stm32wlxx_hal_driver/Src/stm32wlxx_hal_pwr_ex.c **** {
 251              		.loc 1 199 1 is_stmt 1 view -0
 252              		.cfi_startproc
 253              		@ args = 0, pretend = 0, frame = 0
 254              		@ frame_needed = 0, uses_anonymous_args = 0
 255              		@ link register save eliminated.
 200:hardware/mcu/st/stm32wlxx_hal_driver/Src/stm32wlxx_hal_pwr_ex.c **** #ifdef CORE_CM0PLUS
 201:hardware/mcu/st/stm32wlxx_hal_driver/Src/stm32wlxx_hal_pwr_ex.c ****   CLEAR_BIT(PWR->C2CR3, PWR_C2CR3_EIWUL);
 202:hardware/mcu/st/stm32wlxx_hal_driver/Src/stm32wlxx_hal_pwr_ex.c **** #else
 203:hardware/mcu/st/stm32wlxx_hal_driver/Src/stm32wlxx_hal_pwr_ex.c ****   CLEAR_BIT(PWR->CR3, PWR_CR3_EIWUL);
 256              		.loc 1 203 3 view .LVU48
 257 0000 024A     		ldr	r2, .L32
 258 0002 9368     		ldr	r3, [r2, #8]
 259 0004 23F40043 		bic	r3, r3, #32768
 260 0008 9360     		str	r3, [r2, #8]
 204:hardware/mcu/st/stm32wlxx_hal_driver/Src/stm32wlxx_hal_pwr_ex.c **** #endif
 205:hardware/mcu/st/stm32wlxx_hal_driver/Src/stm32wlxx_hal_pwr_ex.c **** }
 261              		.loc 1 205 1 is_stmt 0 view .LVU49
 262 000a 7047     		bx	lr
 263              	.L33:
 264              		.align	2
 265              	.L32:
 266 000c 00040058 		.word	1476396032
 267              		.cfi_endproc
 268              	.LFE726:
 270              		.section	.text.HAL_PWREx_SetRadioBusyPolarity,"ax",%progbits
 271              		.align	1
 272              		.global	HAL_PWREx_SetRadioBusyPolarity
 273              		.syntax unified
 274              		.thumb
 275              		.thumb_func
 277              	HAL_PWREx_SetRadioBusyPolarity:
 278              	.LVL9:
 279              	.LFB727:
 206:hardware/mcu/st/stm32wlxx_hal_driver/Src/stm32wlxx_hal_pwr_ex.c **** 
 207:hardware/mcu/st/stm32wlxx_hal_driver/Src/stm32wlxx_hal_pwr_ex.c **** /**
 208:hardware/mcu/st/stm32wlxx_hal_driver/Src/stm32wlxx_hal_pwr_ex.c ****   * @brief  Set radio busy trigger polarity.
 209:hardware/mcu/st/stm32wlxx_hal_driver/Src/stm32wlxx_hal_pwr_ex.c ****   * @param  RadioBusyPolarity This parameter can be one of the following values:
 210:hardware/mcu/st/stm32wlxx_hal_driver/Src/stm32wlxx_hal_pwr_ex.c ****   *         @arg @ref PWR_RADIO_BUSY_POLARITY_RISING
 211:hardware/mcu/st/stm32wlxx_hal_driver/Src/stm32wlxx_hal_pwr_ex.c ****   *         @arg @ref PWR_RADIO_BUSY_POLARITY_FALLING
 212:hardware/mcu/st/stm32wlxx_hal_driver/Src/stm32wlxx_hal_pwr_ex.c ****   * @retval HAL Status
 213:hardware/mcu/st/stm32wlxx_hal_driver/Src/stm32wlxx_hal_pwr_ex.c ****   */
 214:hardware/mcu/st/stm32wlxx_hal_driver/Src/stm32wlxx_hal_pwr_ex.c **** void HAL_PWREx_SetRadioBusyPolarity(uint32_t RadioBusyPolarity)
 215:hardware/mcu/st/stm32wlxx_hal_driver/Src/stm32wlxx_hal_pwr_ex.c **** {
 280              		.loc 1 215 1 is_stmt 1 view -0
 281              		.cfi_startproc
 282              		@ args = 0, pretend = 0, frame = 0
 283              		@ frame_needed = 0, uses_anonymous_args = 0
 284              		@ link register save eliminated.
 216:hardware/mcu/st/stm32wlxx_hal_driver/Src/stm32wlxx_hal_pwr_ex.c ****   /* Check the parameters */
 217:hardware/mcu/st/stm32wlxx_hal_driver/Src/stm32wlxx_hal_pwr_ex.c ****   assert_param(IS_RADIO_BUSY_POLARITY(RadioBusyPolarity));
 285              		.loc 1 217 3 view .LVU51
 218:hardware/mcu/st/stm32wlxx_hal_driver/Src/stm32wlxx_hal_pwr_ex.c **** 
 219:hardware/mcu/st/stm32wlxx_hal_driver/Src/stm32wlxx_hal_pwr_ex.c ****   LL_PWR_SetRadioBusyPolarity(RadioBusyPolarity);
 286              		.loc 1 219 3 view .LVU52
ARM GAS  /var/folders/b4/k4jbz0ms4wg23jtq0w6p483m0000gn/T//ccaHqEcm.s 			page 10


 287              	.LBB12:
 288              	.LBI12:
 289              		.file 2 "hardware/mcu/st/stm32wlxx_hal_driver/Inc/stm32wlxx_ll_pwr.h"
   1:hardware/mcu/st/stm32wlxx_hal_driver/Inc/stm32wlxx_ll_pwr.h **** /**
   2:hardware/mcu/st/stm32wlxx_hal_driver/Inc/stm32wlxx_ll_pwr.h ****   ******************************************************************************
   3:hardware/mcu/st/stm32wlxx_hal_driver/Inc/stm32wlxx_ll_pwr.h ****   * @file    stm32wlxx_ll_pwr.h
   4:hardware/mcu/st/stm32wlxx_hal_driver/Inc/stm32wlxx_ll_pwr.h ****   * @author  MCD Application Team
   5:hardware/mcu/st/stm32wlxx_hal_driver/Inc/stm32wlxx_ll_pwr.h ****   * @brief   Header file of PWR LL module.
   6:hardware/mcu/st/stm32wlxx_hal_driver/Inc/stm32wlxx_ll_pwr.h ****   ******************************************************************************
   7:hardware/mcu/st/stm32wlxx_hal_driver/Inc/stm32wlxx_ll_pwr.h ****   * @attention
   8:hardware/mcu/st/stm32wlxx_hal_driver/Inc/stm32wlxx_ll_pwr.h ****   *
   9:hardware/mcu/st/stm32wlxx_hal_driver/Inc/stm32wlxx_ll_pwr.h ****   * <h2><center>&copy; Copyright (c) 2020 STMicroelectronics.
  10:hardware/mcu/st/stm32wlxx_hal_driver/Inc/stm32wlxx_ll_pwr.h ****   * All rights reserved.</center></h2>
  11:hardware/mcu/st/stm32wlxx_hal_driver/Inc/stm32wlxx_ll_pwr.h ****   *
  12:hardware/mcu/st/stm32wlxx_hal_driver/Inc/stm32wlxx_ll_pwr.h ****   * This software component is licensed by ST under BSD 3-Clause license,
  13:hardware/mcu/st/stm32wlxx_hal_driver/Inc/stm32wlxx_ll_pwr.h ****   * the "License"; You may not use this file except in compliance with the
  14:hardware/mcu/st/stm32wlxx_hal_driver/Inc/stm32wlxx_ll_pwr.h ****   * License. You may obtain a copy of the License at:
  15:hardware/mcu/st/stm32wlxx_hal_driver/Inc/stm32wlxx_ll_pwr.h ****   *                        opensource.org/licenses/BSD-3-Clause
  16:hardware/mcu/st/stm32wlxx_hal_driver/Inc/stm32wlxx_ll_pwr.h ****   *
  17:hardware/mcu/st/stm32wlxx_hal_driver/Inc/stm32wlxx_ll_pwr.h ****   ******************************************************************************
  18:hardware/mcu/st/stm32wlxx_hal_driver/Inc/stm32wlxx_ll_pwr.h ****   */
  19:hardware/mcu/st/stm32wlxx_hal_driver/Inc/stm32wlxx_ll_pwr.h **** 
  20:hardware/mcu/st/stm32wlxx_hal_driver/Inc/stm32wlxx_ll_pwr.h **** /* Define to prevent recursive inclusion -------------------------------------*/
  21:hardware/mcu/st/stm32wlxx_hal_driver/Inc/stm32wlxx_ll_pwr.h **** #ifndef __STM32WLxx_LL_PWR_H
  22:hardware/mcu/st/stm32wlxx_hal_driver/Inc/stm32wlxx_ll_pwr.h **** #define __STM32WLxx_LL_PWR_H
  23:hardware/mcu/st/stm32wlxx_hal_driver/Inc/stm32wlxx_ll_pwr.h **** 
  24:hardware/mcu/st/stm32wlxx_hal_driver/Inc/stm32wlxx_ll_pwr.h **** #ifdef __cplusplus
  25:hardware/mcu/st/stm32wlxx_hal_driver/Inc/stm32wlxx_ll_pwr.h **** extern "C" {
  26:hardware/mcu/st/stm32wlxx_hal_driver/Inc/stm32wlxx_ll_pwr.h **** #endif
  27:hardware/mcu/st/stm32wlxx_hal_driver/Inc/stm32wlxx_ll_pwr.h **** 
  28:hardware/mcu/st/stm32wlxx_hal_driver/Inc/stm32wlxx_ll_pwr.h **** /* Includes ------------------------------------------------------------------*/
  29:hardware/mcu/st/stm32wlxx_hal_driver/Inc/stm32wlxx_ll_pwr.h **** #include "stm32wlxx.h"
  30:hardware/mcu/st/stm32wlxx_hal_driver/Inc/stm32wlxx_ll_pwr.h **** 
  31:hardware/mcu/st/stm32wlxx_hal_driver/Inc/stm32wlxx_ll_pwr.h **** /** @addtogroup STM32WLxx_LL_Driver
  32:hardware/mcu/st/stm32wlxx_hal_driver/Inc/stm32wlxx_ll_pwr.h ****   * @{
  33:hardware/mcu/st/stm32wlxx_hal_driver/Inc/stm32wlxx_ll_pwr.h ****   */
  34:hardware/mcu/st/stm32wlxx_hal_driver/Inc/stm32wlxx_ll_pwr.h **** 
  35:hardware/mcu/st/stm32wlxx_hal_driver/Inc/stm32wlxx_ll_pwr.h **** #if defined(PWR)
  36:hardware/mcu/st/stm32wlxx_hal_driver/Inc/stm32wlxx_ll_pwr.h **** 
  37:hardware/mcu/st/stm32wlxx_hal_driver/Inc/stm32wlxx_ll_pwr.h **** /** @defgroup PWR_LL PWR
  38:hardware/mcu/st/stm32wlxx_hal_driver/Inc/stm32wlxx_ll_pwr.h ****   * @{
  39:hardware/mcu/st/stm32wlxx_hal_driver/Inc/stm32wlxx_ll_pwr.h ****   */
  40:hardware/mcu/st/stm32wlxx_hal_driver/Inc/stm32wlxx_ll_pwr.h **** 
  41:hardware/mcu/st/stm32wlxx_hal_driver/Inc/stm32wlxx_ll_pwr.h **** /* Private types -------------------------------------------------------------*/
  42:hardware/mcu/st/stm32wlxx_hal_driver/Inc/stm32wlxx_ll_pwr.h **** /* Private variables ---------------------------------------------------------*/
  43:hardware/mcu/st/stm32wlxx_hal_driver/Inc/stm32wlxx_ll_pwr.h **** 
  44:hardware/mcu/st/stm32wlxx_hal_driver/Inc/stm32wlxx_ll_pwr.h **** /* Private constants ---------------------------------------------------------*/
  45:hardware/mcu/st/stm32wlxx_hal_driver/Inc/stm32wlxx_ll_pwr.h **** /** @defgroup PWR_LL_Private_Constants PWR Private Constants
  46:hardware/mcu/st/stm32wlxx_hal_driver/Inc/stm32wlxx_ll_pwr.h ****   * @{
  47:hardware/mcu/st/stm32wlxx_hal_driver/Inc/stm32wlxx_ll_pwr.h ****   */
  48:hardware/mcu/st/stm32wlxx_hal_driver/Inc/stm32wlxx_ll_pwr.h **** #define PWR_FLASH_POWER_MODE_UNLOCK_CODE  (0x0000C1B0UL)
  49:hardware/mcu/st/stm32wlxx_hal_driver/Inc/stm32wlxx_ll_pwr.h **** /**
  50:hardware/mcu/st/stm32wlxx_hal_driver/Inc/stm32wlxx_ll_pwr.h ****   * @}
  51:hardware/mcu/st/stm32wlxx_hal_driver/Inc/stm32wlxx_ll_pwr.h ****   */
  52:hardware/mcu/st/stm32wlxx_hal_driver/Inc/stm32wlxx_ll_pwr.h **** 
  53:hardware/mcu/st/stm32wlxx_hal_driver/Inc/stm32wlxx_ll_pwr.h **** /* Private macros ------------------------------------------------------------*/
  54:hardware/mcu/st/stm32wlxx_hal_driver/Inc/stm32wlxx_ll_pwr.h **** 
ARM GAS  /var/folders/b4/k4jbz0ms4wg23jtq0w6p483m0000gn/T//ccaHqEcm.s 			page 11


  55:hardware/mcu/st/stm32wlxx_hal_driver/Inc/stm32wlxx_ll_pwr.h **** /* Exported types ------------------------------------------------------------*/
  56:hardware/mcu/st/stm32wlxx_hal_driver/Inc/stm32wlxx_ll_pwr.h **** /* Exported constants --------------------------------------------------------*/
  57:hardware/mcu/st/stm32wlxx_hal_driver/Inc/stm32wlxx_ll_pwr.h **** /** @defgroup PWR_LL_Exported_Constants PWR Exported Constants
  58:hardware/mcu/st/stm32wlxx_hal_driver/Inc/stm32wlxx_ll_pwr.h ****   * @{
  59:hardware/mcu/st/stm32wlxx_hal_driver/Inc/stm32wlxx_ll_pwr.h ****   */
  60:hardware/mcu/st/stm32wlxx_hal_driver/Inc/stm32wlxx_ll_pwr.h **** 
  61:hardware/mcu/st/stm32wlxx_hal_driver/Inc/stm32wlxx_ll_pwr.h **** /** @defgroup PWR_LL_EC_CLEAR_FLAG Clear Flags Defines
  62:hardware/mcu/st/stm32wlxx_hal_driver/Inc/stm32wlxx_ll_pwr.h ****   * @brief    Flags defines which can be used with LL_PWR_WriteReg function
  63:hardware/mcu/st/stm32wlxx_hal_driver/Inc/stm32wlxx_ll_pwr.h ****   * @{
  64:hardware/mcu/st/stm32wlxx_hal_driver/Inc/stm32wlxx_ll_pwr.h ****   */
  65:hardware/mcu/st/stm32wlxx_hal_driver/Inc/stm32wlxx_ll_pwr.h **** #define LL_PWR_SCR_CWUF                    PWR_SCR_CWUF
  66:hardware/mcu/st/stm32wlxx_hal_driver/Inc/stm32wlxx_ll_pwr.h **** #define LL_PWR_SCR_CWUF3                   PWR_SCR_CWUF3
  67:hardware/mcu/st/stm32wlxx_hal_driver/Inc/stm32wlxx_ll_pwr.h **** #define LL_PWR_SCR_CWUF2                   PWR_SCR_CWUF2
  68:hardware/mcu/st/stm32wlxx_hal_driver/Inc/stm32wlxx_ll_pwr.h **** #define LL_PWR_SCR_CWUF1                   PWR_SCR_CWUF1
  69:hardware/mcu/st/stm32wlxx_hal_driver/Inc/stm32wlxx_ll_pwr.h **** #define LL_PWR_SCR_CWPVDF                  PWR_SCR_CWPVDF
  70:hardware/mcu/st/stm32wlxx_hal_driver/Inc/stm32wlxx_ll_pwr.h **** #define LL_PWR_SCR_CWRFBUSYF               PWR_SCR_CWRFBUSYF
  71:hardware/mcu/st/stm32wlxx_hal_driver/Inc/stm32wlxx_ll_pwr.h **** #define LL_PWR_SCR_CC2HF                   PWR_SCR_CC2HF
  72:hardware/mcu/st/stm32wlxx_hal_driver/Inc/stm32wlxx_ll_pwr.h **** #define LL_PWR_EXTSCR_C2CSSF               PWR_EXTSCR_C2CSSF
  73:hardware/mcu/st/stm32wlxx_hal_driver/Inc/stm32wlxx_ll_pwr.h **** #define LL_PWR_EXTSCR_C1CSSF               PWR_EXTSCR_C1CSSF
  74:hardware/mcu/st/stm32wlxx_hal_driver/Inc/stm32wlxx_ll_pwr.h **** /**
  75:hardware/mcu/st/stm32wlxx_hal_driver/Inc/stm32wlxx_ll_pwr.h ****   * @}
  76:hardware/mcu/st/stm32wlxx_hal_driver/Inc/stm32wlxx_ll_pwr.h ****   */
  77:hardware/mcu/st/stm32wlxx_hal_driver/Inc/stm32wlxx_ll_pwr.h **** 
  78:hardware/mcu/st/stm32wlxx_hal_driver/Inc/stm32wlxx_ll_pwr.h **** /** @defgroup PWR_LL_EC_GET_FLAG Get Flags Defines
  79:hardware/mcu/st/stm32wlxx_hal_driver/Inc/stm32wlxx_ll_pwr.h ****   * @brief    Flags defines which can be used with LL_PWR_ReadReg function
  80:hardware/mcu/st/stm32wlxx_hal_driver/Inc/stm32wlxx_ll_pwr.h ****   * @{
  81:hardware/mcu/st/stm32wlxx_hal_driver/Inc/stm32wlxx_ll_pwr.h ****   */
  82:hardware/mcu/st/stm32wlxx_hal_driver/Inc/stm32wlxx_ll_pwr.h **** #define LL_PWR_SR1_WUFI                    PWR_SR1_WUFI
  83:hardware/mcu/st/stm32wlxx_hal_driver/Inc/stm32wlxx_ll_pwr.h **** #define LL_PWR_SR1_WUF3                    PWR_SR1_WUF3
  84:hardware/mcu/st/stm32wlxx_hal_driver/Inc/stm32wlxx_ll_pwr.h **** #define LL_PWR_SR1_WUF2                    PWR_SR1_WUF2
  85:hardware/mcu/st/stm32wlxx_hal_driver/Inc/stm32wlxx_ll_pwr.h **** #define LL_PWR_SR1_WUF1                    PWR_SR1_WUF1
  86:hardware/mcu/st/stm32wlxx_hal_driver/Inc/stm32wlxx_ll_pwr.h **** #define LL_PWR_SR1_WPVDF                   PWR_SR1_WPVDF
  87:hardware/mcu/st/stm32wlxx_hal_driver/Inc/stm32wlxx_ll_pwr.h **** 
  88:hardware/mcu/st/stm32wlxx_hal_driver/Inc/stm32wlxx_ll_pwr.h **** #define LL_PWR_SR2_LDORDY                  PWR_SR2_LDORDY
  89:hardware/mcu/st/stm32wlxx_hal_driver/Inc/stm32wlxx_ll_pwr.h **** #define LL_PWR_SR2_PVMO3                   PWR_SR2_PVMO3
  90:hardware/mcu/st/stm32wlxx_hal_driver/Inc/stm32wlxx_ll_pwr.h **** #define LL_PWR_SR2_PVDO                    PWR_SR2_PVDO
  91:hardware/mcu/st/stm32wlxx_hal_driver/Inc/stm32wlxx_ll_pwr.h **** #define LL_PWR_SR2_RFEOL                   PWR_SR2_RFEOLF
  92:hardware/mcu/st/stm32wlxx_hal_driver/Inc/stm32wlxx_ll_pwr.h **** #define LL_PWR_SR2_VOSF                    PWR_SR2_VOSF
  93:hardware/mcu/st/stm32wlxx_hal_driver/Inc/stm32wlxx_ll_pwr.h **** #define LL_PWR_SR2_REGLPF                  PWR_SR2_REGLPF
  94:hardware/mcu/st/stm32wlxx_hal_driver/Inc/stm32wlxx_ll_pwr.h **** #define LL_PWR_SR2_REGLPS                  PWR_SR2_REGLPS
  95:hardware/mcu/st/stm32wlxx_hal_driver/Inc/stm32wlxx_ll_pwr.h **** #define LL_PWR_SR2_REGMRS                  PWR_SR2_REGMRS
  96:hardware/mcu/st/stm32wlxx_hal_driver/Inc/stm32wlxx_ll_pwr.h **** 
  97:hardware/mcu/st/stm32wlxx_hal_driver/Inc/stm32wlxx_ll_pwr.h **** /* SMPS flags */
  98:hardware/mcu/st/stm32wlxx_hal_driver/Inc/stm32wlxx_ll_pwr.h **** #define LL_PWR_SR2_SMPSRDY                 PWR_SR2_SMPSRDY
  99:hardware/mcu/st/stm32wlxx_hal_driver/Inc/stm32wlxx_ll_pwr.h **** 
 100:hardware/mcu/st/stm32wlxx_hal_driver/Inc/stm32wlxx_ll_pwr.h **** /* Radio flags */
 101:hardware/mcu/st/stm32wlxx_hal_driver/Inc/stm32wlxx_ll_pwr.h **** #define LL_PWR_SR1_WRFBUSY                 PWR_SR1_WRFBUSYF   /* Radio busy flag for wake-up and in
 102:hardware/mcu/st/stm32wlxx_hal_driver/Inc/stm32wlxx_ll_pwr.h **** #define LL_PWR_SR2_RFBUSYS                 PWR_SR2_RFBUSYS    /* Radio busy signal flag (current st
 103:hardware/mcu/st/stm32wlxx_hal_driver/Inc/stm32wlxx_ll_pwr.h **** #define LL_PWR_SR2_RFBUSYMS                PWR_SR2_RFBUSYMS   /* Radio busy masked signal flag (cur
 104:hardware/mcu/st/stm32wlxx_hal_driver/Inc/stm32wlxx_ll_pwr.h **** 
 105:hardware/mcu/st/stm32wlxx_hal_driver/Inc/stm32wlxx_ll_pwr.h **** /* Multicore flags */
 106:hardware/mcu/st/stm32wlxx_hal_driver/Inc/stm32wlxx_ll_pwr.h **** #define LL_PWR_EXTSCR_C1SBF                PWR_EXTSCR_C1SBF    /* System Standby flag for CPU1 */
 107:hardware/mcu/st/stm32wlxx_hal_driver/Inc/stm32wlxx_ll_pwr.h **** #define LL_PWR_EXTSCR_C1STOP2F             PWR_EXTSCR_C1STOP2F /* System Stop 2 flag for CPU1 */
 108:hardware/mcu/st/stm32wlxx_hal_driver/Inc/stm32wlxx_ll_pwr.h **** #define LL_PWR_EXTSCR_C1STOPF              PWR_EXTSCR_C1STOPF  /* System Stop 0 or stop 1 flag for 
 109:hardware/mcu/st/stm32wlxx_hal_driver/Inc/stm32wlxx_ll_pwr.h **** #define LL_PWR_EXTSCR_C1DS                 PWR_EXTSCR_C1DS     /* CPU1 deepsleep mode */
 110:hardware/mcu/st/stm32wlxx_hal_driver/Inc/stm32wlxx_ll_pwr.h **** #if defined(DUAL_CORE)
 111:hardware/mcu/st/stm32wlxx_hal_driver/Inc/stm32wlxx_ll_pwr.h **** #define LL_PWR_EXTSCR_C2SBF                PWR_EXTSCR_C2SBF    /* System Standby flag for CPU2 */
ARM GAS  /var/folders/b4/k4jbz0ms4wg23jtq0w6p483m0000gn/T//ccaHqEcm.s 			page 12


 112:hardware/mcu/st/stm32wlxx_hal_driver/Inc/stm32wlxx_ll_pwr.h **** #define LL_PWR_EXTSCR_C2STOP2F             PWR_EXTSCR_C2STOP2F /* System Stop 2 flag for CPU2 */
 113:hardware/mcu/st/stm32wlxx_hal_driver/Inc/stm32wlxx_ll_pwr.h **** #define LL_PWR_EXTSCR_C2STOPF              PWR_EXTSCR_C2STOPF  /* System Stop 0 or stop 1 flag for 
 114:hardware/mcu/st/stm32wlxx_hal_driver/Inc/stm32wlxx_ll_pwr.h **** #define LL_PWR_EXTSCR_C2DS                 PWR_EXTSCR_C2DS     /* CPU2 deepsleep mode */
 115:hardware/mcu/st/stm32wlxx_hal_driver/Inc/stm32wlxx_ll_pwr.h **** #define LL_PWR_SR2_C2BOOTS                 PWR_SR2_C2BOOTS     /* CPU2 boot request source informat
 116:hardware/mcu/st/stm32wlxx_hal_driver/Inc/stm32wlxx_ll_pwr.h **** #define LL_PWR_SR1_C2HF                    PWR_SR1_C2HF        /* CPU2 hold interrupt flag */
 117:hardware/mcu/st/stm32wlxx_hal_driver/Inc/stm32wlxx_ll_pwr.h **** #endif
 118:hardware/mcu/st/stm32wlxx_hal_driver/Inc/stm32wlxx_ll_pwr.h **** /**
 119:hardware/mcu/st/stm32wlxx_hal_driver/Inc/stm32wlxx_ll_pwr.h ****   * @}
 120:hardware/mcu/st/stm32wlxx_hal_driver/Inc/stm32wlxx_ll_pwr.h ****   */
 121:hardware/mcu/st/stm32wlxx_hal_driver/Inc/stm32wlxx_ll_pwr.h **** 
 122:hardware/mcu/st/stm32wlxx_hal_driver/Inc/stm32wlxx_ll_pwr.h **** /** @defgroup PWR_LL_EC_REGU_VOLTAGE REGU VOLTAGE
 123:hardware/mcu/st/stm32wlxx_hal_driver/Inc/stm32wlxx_ll_pwr.h ****   * @{
 124:hardware/mcu/st/stm32wlxx_hal_driver/Inc/stm32wlxx_ll_pwr.h ****   */
 125:hardware/mcu/st/stm32wlxx_hal_driver/Inc/stm32wlxx_ll_pwr.h **** #define LL_PWR_REGU_VOLTAGE_SCALE1         (PWR_CR1_VOS_0) /* Regulator voltage output range 1 mode
 126:hardware/mcu/st/stm32wlxx_hal_driver/Inc/stm32wlxx_ll_pwr.h **** #define LL_PWR_REGU_VOLTAGE_SCALE2         (PWR_CR1_VOS_1) /* Regulator voltage output range 2 mode
 127:hardware/mcu/st/stm32wlxx_hal_driver/Inc/stm32wlxx_ll_pwr.h **** /**
 128:hardware/mcu/st/stm32wlxx_hal_driver/Inc/stm32wlxx_ll_pwr.h ****   * @}
 129:hardware/mcu/st/stm32wlxx_hal_driver/Inc/stm32wlxx_ll_pwr.h ****   */
 130:hardware/mcu/st/stm32wlxx_hal_driver/Inc/stm32wlxx_ll_pwr.h **** 
 131:hardware/mcu/st/stm32wlxx_hal_driver/Inc/stm32wlxx_ll_pwr.h **** /** @defgroup PWR_LL_EC_MODE_PWR MODE PWR
 132:hardware/mcu/st/stm32wlxx_hal_driver/Inc/stm32wlxx_ll_pwr.h ****   * @{
 133:hardware/mcu/st/stm32wlxx_hal_driver/Inc/stm32wlxx_ll_pwr.h ****   */
 134:hardware/mcu/st/stm32wlxx_hal_driver/Inc/stm32wlxx_ll_pwr.h **** #define LL_PWR_MODE_STOP0                  (0x000000000UL)
 135:hardware/mcu/st/stm32wlxx_hal_driver/Inc/stm32wlxx_ll_pwr.h **** #define LL_PWR_MODE_STOP1                  (PWR_CR1_LPMS_0)
 136:hardware/mcu/st/stm32wlxx_hal_driver/Inc/stm32wlxx_ll_pwr.h **** #define LL_PWR_MODE_STOP2                  (PWR_CR1_LPMS_1)
 137:hardware/mcu/st/stm32wlxx_hal_driver/Inc/stm32wlxx_ll_pwr.h **** #define LL_PWR_MODE_STANDBY                (PWR_CR1_LPMS_1 | PWR_CR1_LPMS_0)
 138:hardware/mcu/st/stm32wlxx_hal_driver/Inc/stm32wlxx_ll_pwr.h **** #define LL_PWR_MODE_SHUTDOWN               (PWR_CR1_LPMS_2 | PWR_CR1_LPMS_1 | PWR_CR1_LPMS_0)
 139:hardware/mcu/st/stm32wlxx_hal_driver/Inc/stm32wlxx_ll_pwr.h **** /**
 140:hardware/mcu/st/stm32wlxx_hal_driver/Inc/stm32wlxx_ll_pwr.h ****   * @}
 141:hardware/mcu/st/stm32wlxx_hal_driver/Inc/stm32wlxx_ll_pwr.h ****   */
 142:hardware/mcu/st/stm32wlxx_hal_driver/Inc/stm32wlxx_ll_pwr.h **** 
 143:hardware/mcu/st/stm32wlxx_hal_driver/Inc/stm32wlxx_ll_pwr.h **** /** @defgroup PWR_LL_EC_FLASH_LPRUN_POWER_DOWN_MODE Flash power-down mode during low-power run mode
 144:hardware/mcu/st/stm32wlxx_hal_driver/Inc/stm32wlxx_ll_pwr.h ****   * @{
 145:hardware/mcu/st/stm32wlxx_hal_driver/Inc/stm32wlxx_ll_pwr.h ****   */
 146:hardware/mcu/st/stm32wlxx_hal_driver/Inc/stm32wlxx_ll_pwr.h **** #define LL_PWR_FLASH_LPRUN_MODE_IDLE       (0x000000000UL)
 147:hardware/mcu/st/stm32wlxx_hal_driver/Inc/stm32wlxx_ll_pwr.h **** #define LL_PWR_FLASH_LPRUN_MODE_POWER_DOWN (PWR_CR1_FPDR)
 148:hardware/mcu/st/stm32wlxx_hal_driver/Inc/stm32wlxx_ll_pwr.h **** /**
 149:hardware/mcu/st/stm32wlxx_hal_driver/Inc/stm32wlxx_ll_pwr.h ****   * @}
 150:hardware/mcu/st/stm32wlxx_hal_driver/Inc/stm32wlxx_ll_pwr.h ****   */
 151:hardware/mcu/st/stm32wlxx_hal_driver/Inc/stm32wlxx_ll_pwr.h **** 
 152:hardware/mcu/st/stm32wlxx_hal_driver/Inc/stm32wlxx_ll_pwr.h **** /** @defgroup PWR_LL_EC_FLASH_SLEEP_POWER_DOWN_MODE Flash power-down mode during sleep mode
 153:hardware/mcu/st/stm32wlxx_hal_driver/Inc/stm32wlxx_ll_pwr.h ****   * @{
 154:hardware/mcu/st/stm32wlxx_hal_driver/Inc/stm32wlxx_ll_pwr.h ****   */
 155:hardware/mcu/st/stm32wlxx_hal_driver/Inc/stm32wlxx_ll_pwr.h **** #define LL_PWR_FLASH_SLEEP_MODE_IDLE       (0x000000000UL)
 156:hardware/mcu/st/stm32wlxx_hal_driver/Inc/stm32wlxx_ll_pwr.h **** #define LL_PWR_FLASH_SLEEP_MODE_POWER_DOWN (PWR_CR1_FPDS)
 157:hardware/mcu/st/stm32wlxx_hal_driver/Inc/stm32wlxx_ll_pwr.h **** /**
 158:hardware/mcu/st/stm32wlxx_hal_driver/Inc/stm32wlxx_ll_pwr.h ****   * @}
 159:hardware/mcu/st/stm32wlxx_hal_driver/Inc/stm32wlxx_ll_pwr.h ****   */
 160:hardware/mcu/st/stm32wlxx_hal_driver/Inc/stm32wlxx_ll_pwr.h **** 
 161:hardware/mcu/st/stm32wlxx_hal_driver/Inc/stm32wlxx_ll_pwr.h **** /** @defgroup PWR_LL_EC_PVM Peripheral voltage monitoring
 162:hardware/mcu/st/stm32wlxx_hal_driver/Inc/stm32wlxx_ll_pwr.h ****   * @{
 163:hardware/mcu/st/stm32wlxx_hal_driver/Inc/stm32wlxx_ll_pwr.h ****   */
 164:hardware/mcu/st/stm32wlxx_hal_driver/Inc/stm32wlxx_ll_pwr.h **** #define LL_PWR_PVM_VDDA_1_62V              (PWR_CR2_PVME3)     /* Monitoring VDDA vs. 1.62V  */
 165:hardware/mcu/st/stm32wlxx_hal_driver/Inc/stm32wlxx_ll_pwr.h **** /**
 166:hardware/mcu/st/stm32wlxx_hal_driver/Inc/stm32wlxx_ll_pwr.h ****   * @}
 167:hardware/mcu/st/stm32wlxx_hal_driver/Inc/stm32wlxx_ll_pwr.h ****   */
 168:hardware/mcu/st/stm32wlxx_hal_driver/Inc/stm32wlxx_ll_pwr.h **** 
ARM GAS  /var/folders/b4/k4jbz0ms4wg23jtq0w6p483m0000gn/T//ccaHqEcm.s 			page 13


 169:hardware/mcu/st/stm32wlxx_hal_driver/Inc/stm32wlxx_ll_pwr.h **** /** @defgroup PWR_LL_EC_PVDLEVEL PVDLEVEL
 170:hardware/mcu/st/stm32wlxx_hal_driver/Inc/stm32wlxx_ll_pwr.h ****   * @{
 171:hardware/mcu/st/stm32wlxx_hal_driver/Inc/stm32wlxx_ll_pwr.h ****   */
 172:hardware/mcu/st/stm32wlxx_hal_driver/Inc/stm32wlxx_ll_pwr.h **** #define LL_PWR_PVDLEVEL_0                  (0x00000000UL)                                  /* VPVD0
 173:hardware/mcu/st/stm32wlxx_hal_driver/Inc/stm32wlxx_ll_pwr.h **** #define LL_PWR_PVDLEVEL_1                  (PWR_CR2_PLS_0)                                 /* VPVD1
 174:hardware/mcu/st/stm32wlxx_hal_driver/Inc/stm32wlxx_ll_pwr.h **** #define LL_PWR_PVDLEVEL_2                  (PWR_CR2_PLS_1)                                 /* VPVD2
 175:hardware/mcu/st/stm32wlxx_hal_driver/Inc/stm32wlxx_ll_pwr.h **** #define LL_PWR_PVDLEVEL_3                  (PWR_CR2_PLS_1 | PWR_CR2_PLS_0)                 /* VPVD3
 176:hardware/mcu/st/stm32wlxx_hal_driver/Inc/stm32wlxx_ll_pwr.h **** #define LL_PWR_PVDLEVEL_4                  (PWR_CR2_PLS_2)                                 /* VPVD4
 177:hardware/mcu/st/stm32wlxx_hal_driver/Inc/stm32wlxx_ll_pwr.h **** #define LL_PWR_PVDLEVEL_5                  (PWR_CR2_PLS_2 | PWR_CR2_PLS_0)                 /* VPVD5
 178:hardware/mcu/st/stm32wlxx_hal_driver/Inc/stm32wlxx_ll_pwr.h **** #define LL_PWR_PVDLEVEL_6                  (PWR_CR2_PLS_2 | PWR_CR2_PLS_1)                 /* VPVD6
 179:hardware/mcu/st/stm32wlxx_hal_driver/Inc/stm32wlxx_ll_pwr.h **** #define LL_PWR_PVDLEVEL_7                  (PWR_CR2_PLS_2 | PWR_CR2_PLS_1 | PWR_CR2_PLS_0) /* Exter
 180:hardware/mcu/st/stm32wlxx_hal_driver/Inc/stm32wlxx_ll_pwr.h **** /**
 181:hardware/mcu/st/stm32wlxx_hal_driver/Inc/stm32wlxx_ll_pwr.h ****   * @}
 182:hardware/mcu/st/stm32wlxx_hal_driver/Inc/stm32wlxx_ll_pwr.h ****   */
 183:hardware/mcu/st/stm32wlxx_hal_driver/Inc/stm32wlxx_ll_pwr.h **** 
 184:hardware/mcu/st/stm32wlxx_hal_driver/Inc/stm32wlxx_ll_pwr.h **** /** @defgroup PWR_LL_EC_EOL_OPERATING_MODES Monitoring of supply voltage for radio operating level 
 185:hardware/mcu/st/stm32wlxx_hal_driver/Inc/stm32wlxx_ll_pwr.h ****   * @{
 186:hardware/mcu/st/stm32wlxx_hal_driver/Inc/stm32wlxx_ll_pwr.h ****   */
 187:hardware/mcu/st/stm32wlxx_hal_driver/Inc/stm32wlxx_ll_pwr.h **** #define LL_PWR_RADIO_EOL_DISABLE                  (0x00000000UL)    /*!< Monitoring of supply volta
 188:hardware/mcu/st/stm32wlxx_hal_driver/Inc/stm32wlxx_ll_pwr.h **** #define LL_PWR_RADIO_EOL_ENABLE                   (PWR_CR5_RFEOLEN) /*!< Monitoring of supply volta
 189:hardware/mcu/st/stm32wlxx_hal_driver/Inc/stm32wlxx_ll_pwr.h **** /**
 190:hardware/mcu/st/stm32wlxx_hal_driver/Inc/stm32wlxx_ll_pwr.h ****   * @}
 191:hardware/mcu/st/stm32wlxx_hal_driver/Inc/stm32wlxx_ll_pwr.h ****   */
 192:hardware/mcu/st/stm32wlxx_hal_driver/Inc/stm32wlxx_ll_pwr.h **** 
 193:hardware/mcu/st/stm32wlxx_hal_driver/Inc/stm32wlxx_ll_pwr.h **** /** @defgroup PWR_LL_EC_WAKEUP WAKEUP
 194:hardware/mcu/st/stm32wlxx_hal_driver/Inc/stm32wlxx_ll_pwr.h ****   * @{
 195:hardware/mcu/st/stm32wlxx_hal_driver/Inc/stm32wlxx_ll_pwr.h ****   */
 196:hardware/mcu/st/stm32wlxx_hal_driver/Inc/stm32wlxx_ll_pwr.h **** #define LL_PWR_WAKEUP_PIN1                 (PWR_CR3_EWUP1)
 197:hardware/mcu/st/stm32wlxx_hal_driver/Inc/stm32wlxx_ll_pwr.h **** #define LL_PWR_WAKEUP_PIN2                 (PWR_CR3_EWUP2)
 198:hardware/mcu/st/stm32wlxx_hal_driver/Inc/stm32wlxx_ll_pwr.h **** #define LL_PWR_WAKEUP_PIN3                 (PWR_CR3_EWUP3)
 199:hardware/mcu/st/stm32wlxx_hal_driver/Inc/stm32wlxx_ll_pwr.h **** /**
 200:hardware/mcu/st/stm32wlxx_hal_driver/Inc/stm32wlxx_ll_pwr.h ****   * @}
 201:hardware/mcu/st/stm32wlxx_hal_driver/Inc/stm32wlxx_ll_pwr.h ****   */
 202:hardware/mcu/st/stm32wlxx_hal_driver/Inc/stm32wlxx_ll_pwr.h **** 
 203:hardware/mcu/st/stm32wlxx_hal_driver/Inc/stm32wlxx_ll_pwr.h **** /** @defgroup PWR_LL_EC_BATT_CHARG_RESISTOR BATT CHARG RESISTOR
 204:hardware/mcu/st/stm32wlxx_hal_driver/Inc/stm32wlxx_ll_pwr.h ****   * @{
 205:hardware/mcu/st/stm32wlxx_hal_driver/Inc/stm32wlxx_ll_pwr.h ****   */
 206:hardware/mcu/st/stm32wlxx_hal_driver/Inc/stm32wlxx_ll_pwr.h **** #define LL_PWR_BATT_CHARG_RESISTOR_5K      (0x00000000UL)
 207:hardware/mcu/st/stm32wlxx_hal_driver/Inc/stm32wlxx_ll_pwr.h **** #define LL_PWR_BATT_CHARGRESISTOR_1_5K     (PWR_CR4_VBRS)
 208:hardware/mcu/st/stm32wlxx_hal_driver/Inc/stm32wlxx_ll_pwr.h **** /**
 209:hardware/mcu/st/stm32wlxx_hal_driver/Inc/stm32wlxx_ll_pwr.h ****   * @}
 210:hardware/mcu/st/stm32wlxx_hal_driver/Inc/stm32wlxx_ll_pwr.h ****   */
 211:hardware/mcu/st/stm32wlxx_hal_driver/Inc/stm32wlxx_ll_pwr.h **** 
 212:hardware/mcu/st/stm32wlxx_hal_driver/Inc/stm32wlxx_ll_pwr.h **** /** @defgroup PWR_LL_EC_GPIO GPIO
 213:hardware/mcu/st/stm32wlxx_hal_driver/Inc/stm32wlxx_ll_pwr.h ****   * @{
 214:hardware/mcu/st/stm32wlxx_hal_driver/Inc/stm32wlxx_ll_pwr.h ****   */
 215:hardware/mcu/st/stm32wlxx_hal_driver/Inc/stm32wlxx_ll_pwr.h **** #define LL_PWR_GPIO_A                      ((uint32_t)(&(PWR->PUCRA)))
 216:hardware/mcu/st/stm32wlxx_hal_driver/Inc/stm32wlxx_ll_pwr.h **** #define LL_PWR_GPIO_B                      ((uint32_t)(&(PWR->PUCRB)))
 217:hardware/mcu/st/stm32wlxx_hal_driver/Inc/stm32wlxx_ll_pwr.h **** #define LL_PWR_GPIO_C                      ((uint32_t)(&(PWR->PUCRC)))
 218:hardware/mcu/st/stm32wlxx_hal_driver/Inc/stm32wlxx_ll_pwr.h **** #define LL_PWR_GPIO_H                      ((uint32_t)(&(PWR->PUCRH)))
 219:hardware/mcu/st/stm32wlxx_hal_driver/Inc/stm32wlxx_ll_pwr.h **** /**
 220:hardware/mcu/st/stm32wlxx_hal_driver/Inc/stm32wlxx_ll_pwr.h ****   * @}
 221:hardware/mcu/st/stm32wlxx_hal_driver/Inc/stm32wlxx_ll_pwr.h ****   */
 222:hardware/mcu/st/stm32wlxx_hal_driver/Inc/stm32wlxx_ll_pwr.h **** 
 223:hardware/mcu/st/stm32wlxx_hal_driver/Inc/stm32wlxx_ll_pwr.h **** /** @defgroup PWR_LL_EC_GPIO_BIT GPIO BIT
 224:hardware/mcu/st/stm32wlxx_hal_driver/Inc/stm32wlxx_ll_pwr.h ****   * @{
 225:hardware/mcu/st/stm32wlxx_hal_driver/Inc/stm32wlxx_ll_pwr.h ****   */
ARM GAS  /var/folders/b4/k4jbz0ms4wg23jtq0w6p483m0000gn/T//ccaHqEcm.s 			page 14


 226:hardware/mcu/st/stm32wlxx_hal_driver/Inc/stm32wlxx_ll_pwr.h **** /* Note: LL_PWR_GPIO_BIT_x defined from port B because all pins are available */
 227:hardware/mcu/st/stm32wlxx_hal_driver/Inc/stm32wlxx_ll_pwr.h **** /*       for PWR pull-up and pull-down.                                       */
 228:hardware/mcu/st/stm32wlxx_hal_driver/Inc/stm32wlxx_ll_pwr.h **** #define LL_PWR_GPIO_BIT_0                  (PWR_PUCRB_PB0)
 229:hardware/mcu/st/stm32wlxx_hal_driver/Inc/stm32wlxx_ll_pwr.h **** #define LL_PWR_GPIO_BIT_1                  (PWR_PUCRB_PB1)
 230:hardware/mcu/st/stm32wlxx_hal_driver/Inc/stm32wlxx_ll_pwr.h **** #define LL_PWR_GPIO_BIT_2                  (PWR_PUCRB_PB2)
 231:hardware/mcu/st/stm32wlxx_hal_driver/Inc/stm32wlxx_ll_pwr.h **** #define LL_PWR_GPIO_BIT_3                  (PWR_PUCRB_PB3)
 232:hardware/mcu/st/stm32wlxx_hal_driver/Inc/stm32wlxx_ll_pwr.h **** #define LL_PWR_GPIO_BIT_4                  (PWR_PUCRB_PB4)
 233:hardware/mcu/st/stm32wlxx_hal_driver/Inc/stm32wlxx_ll_pwr.h **** #define LL_PWR_GPIO_BIT_5                  (PWR_PUCRB_PB5)
 234:hardware/mcu/st/stm32wlxx_hal_driver/Inc/stm32wlxx_ll_pwr.h **** #define LL_PWR_GPIO_BIT_6                  (PWR_PUCRB_PB6)
 235:hardware/mcu/st/stm32wlxx_hal_driver/Inc/stm32wlxx_ll_pwr.h **** #define LL_PWR_GPIO_BIT_7                  (PWR_PUCRB_PB7)
 236:hardware/mcu/st/stm32wlxx_hal_driver/Inc/stm32wlxx_ll_pwr.h **** #define LL_PWR_GPIO_BIT_8                  (PWR_PUCRB_PB8)
 237:hardware/mcu/st/stm32wlxx_hal_driver/Inc/stm32wlxx_ll_pwr.h **** #define LL_PWR_GPIO_BIT_9                  (PWR_PUCRB_PB9)
 238:hardware/mcu/st/stm32wlxx_hal_driver/Inc/stm32wlxx_ll_pwr.h **** #define LL_PWR_GPIO_BIT_10                 (PWR_PUCRB_PB10)
 239:hardware/mcu/st/stm32wlxx_hal_driver/Inc/stm32wlxx_ll_pwr.h **** #define LL_PWR_GPIO_BIT_11                 (PWR_PUCRB_PB11)
 240:hardware/mcu/st/stm32wlxx_hal_driver/Inc/stm32wlxx_ll_pwr.h **** #define LL_PWR_GPIO_BIT_12                 (PWR_PUCRB_PB12)
 241:hardware/mcu/st/stm32wlxx_hal_driver/Inc/stm32wlxx_ll_pwr.h **** #define LL_PWR_GPIO_BIT_13                 (PWR_PUCRB_PB13)
 242:hardware/mcu/st/stm32wlxx_hal_driver/Inc/stm32wlxx_ll_pwr.h **** #define LL_PWR_GPIO_BIT_14                 (PWR_PUCRB_PB14)
 243:hardware/mcu/st/stm32wlxx_hal_driver/Inc/stm32wlxx_ll_pwr.h **** #define LL_PWR_GPIO_BIT_15                 (PWR_PUCRB_PB15)
 244:hardware/mcu/st/stm32wlxx_hal_driver/Inc/stm32wlxx_ll_pwr.h **** /**
 245:hardware/mcu/st/stm32wlxx_hal_driver/Inc/stm32wlxx_ll_pwr.h ****   * @}
 246:hardware/mcu/st/stm32wlxx_hal_driver/Inc/stm32wlxx_ll_pwr.h ****   */
 247:hardware/mcu/st/stm32wlxx_hal_driver/Inc/stm32wlxx_ll_pwr.h **** 
 248:hardware/mcu/st/stm32wlxx_hal_driver/Inc/stm32wlxx_ll_pwr.h **** /** @defgroup PWR_LL_EC_SMPS_OPERATING_MODES SMPS step down converter operating modes
 249:hardware/mcu/st/stm32wlxx_hal_driver/Inc/stm32wlxx_ll_pwr.h ****   * @{
 250:hardware/mcu/st/stm32wlxx_hal_driver/Inc/stm32wlxx_ll_pwr.h ****   */
 251:hardware/mcu/st/stm32wlxx_hal_driver/Inc/stm32wlxx_ll_pwr.h **** #define LL_PWR_SMPS_BYPASS                 (0x00000000UL)    /*!< SMPS step down in bypass mode (di
 252:hardware/mcu/st/stm32wlxx_hal_driver/Inc/stm32wlxx_ll_pwr.h **** #define LL_PWR_SMPS_STEP_DOWN              (PWR_CR5_SMPSEN)  /*!< SMPS step down in step down mode 
 253:hardware/mcu/st/stm32wlxx_hal_driver/Inc/stm32wlxx_ll_pwr.h **** /**
 254:hardware/mcu/st/stm32wlxx_hal_driver/Inc/stm32wlxx_ll_pwr.h ****   * @}
 255:hardware/mcu/st/stm32wlxx_hal_driver/Inc/stm32wlxx_ll_pwr.h ****   */
 256:hardware/mcu/st/stm32wlxx_hal_driver/Inc/stm32wlxx_ll_pwr.h **** 
 257:hardware/mcu/st/stm32wlxx_hal_driver/Inc/stm32wlxx_ll_pwr.h **** /** @defgroup PWR_LL_EC_RADIO_BUSY_POLARITY Radio busy signal polarity
 258:hardware/mcu/st/stm32wlxx_hal_driver/Inc/stm32wlxx_ll_pwr.h ****   * @{
 259:hardware/mcu/st/stm32wlxx_hal_driver/Inc/stm32wlxx_ll_pwr.h ****   */
 260:hardware/mcu/st/stm32wlxx_hal_driver/Inc/stm32wlxx_ll_pwr.h **** #define LL_PWR_RADIO_BUSY_POLARITY_RISING  (0x00000000UL)     /*!< Radio busy signal polarity to ri
 261:hardware/mcu/st/stm32wlxx_hal_driver/Inc/stm32wlxx_ll_pwr.h **** #define LL_PWR_RADIO_BUSY_POLARITY_FALLING (PWR_CR4_WRFBUSYP) /*!< Radio busy signal polarity to fa
 262:hardware/mcu/st/stm32wlxx_hal_driver/Inc/stm32wlxx_ll_pwr.h **** /**
 263:hardware/mcu/st/stm32wlxx_hal_driver/Inc/stm32wlxx_ll_pwr.h ****   * @}
 264:hardware/mcu/st/stm32wlxx_hal_driver/Inc/stm32wlxx_ll_pwr.h ****   */
 265:hardware/mcu/st/stm32wlxx_hal_driver/Inc/stm32wlxx_ll_pwr.h **** 
 266:hardware/mcu/st/stm32wlxx_hal_driver/Inc/stm32wlxx_ll_pwr.h **** /** @defgroup PWR_LL_EC_RADIO_BUSY_TRIGGER Radio busy trigger
 267:hardware/mcu/st/stm32wlxx_hal_driver/Inc/stm32wlxx_ll_pwr.h ****   * @{
 268:hardware/mcu/st/stm32wlxx_hal_driver/Inc/stm32wlxx_ll_pwr.h ****   */
 269:hardware/mcu/st/stm32wlxx_hal_driver/Inc/stm32wlxx_ll_pwr.h **** #define LL_PWR_RADIO_BUSY_TRIGGER_NONE     (0x00000000UL)     /*!< Radio busy trigger action: no wa
 270:hardware/mcu/st/stm32wlxx_hal_driver/Inc/stm32wlxx_ll_pwr.h **** #define LL_PWR_RADIO_BUSY_TRIGGER_WU_IT    (PWR_CR3_EWRFBUSY) /*!< Radio busy trigger action: wake-
 271:hardware/mcu/st/stm32wlxx_hal_driver/Inc/stm32wlxx_ll_pwr.h **** /**
 272:hardware/mcu/st/stm32wlxx_hal_driver/Inc/stm32wlxx_ll_pwr.h ****   * @}
 273:hardware/mcu/st/stm32wlxx_hal_driver/Inc/stm32wlxx_ll_pwr.h ****   */
 274:hardware/mcu/st/stm32wlxx_hal_driver/Inc/stm32wlxx_ll_pwr.h **** 
 275:hardware/mcu/st/stm32wlxx_hal_driver/Inc/stm32wlxx_ll_pwr.h **** /** @defgroup PWR_LL_EC_RADIO_IRQ_TRIGGER Radio IRQ trigger
 276:hardware/mcu/st/stm32wlxx_hal_driver/Inc/stm32wlxx_ll_pwr.h ****   * @{
 277:hardware/mcu/st/stm32wlxx_hal_driver/Inc/stm32wlxx_ll_pwr.h ****   */
 278:hardware/mcu/st/stm32wlxx_hal_driver/Inc/stm32wlxx_ll_pwr.h **** #define LL_PWR_RADIO_IRQ_TRIGGER_NONE      (0x00000000UL)     /*!< Radio IRQ trigger action: no wak
 279:hardware/mcu/st/stm32wlxx_hal_driver/Inc/stm32wlxx_ll_pwr.h **** #define LL_PWR_RADIO_IRQ_TRIGGER_WU_IT     (PWR_CR3_EWRFIRQ)  /*!< Radio IRQ trigger action: wake-u
 280:hardware/mcu/st/stm32wlxx_hal_driver/Inc/stm32wlxx_ll_pwr.h **** /**
 281:hardware/mcu/st/stm32wlxx_hal_driver/Inc/stm32wlxx_ll_pwr.h ****   * @}
 282:hardware/mcu/st/stm32wlxx_hal_driver/Inc/stm32wlxx_ll_pwr.h ****   */
ARM GAS  /var/folders/b4/k4jbz0ms4wg23jtq0w6p483m0000gn/T//ccaHqEcm.s 			page 15


 283:hardware/mcu/st/stm32wlxx_hal_driver/Inc/stm32wlxx_ll_pwr.h **** 
 284:hardware/mcu/st/stm32wlxx_hal_driver/Inc/stm32wlxx_ll_pwr.h **** /** @defgroup PWR_LL_EC_RADIO_SPI_NSS_SRC Radio Sub-GHz radio SPI NSS source
 285:hardware/mcu/st/stm32wlxx_hal_driver/Inc/stm32wlxx_ll_pwr.h ****   * @{
 286:hardware/mcu/st/stm32wlxx_hal_driver/Inc/stm32wlxx_ll_pwr.h ****   */
 287:hardware/mcu/st/stm32wlxx_hal_driver/Inc/stm32wlxx_ll_pwr.h **** #define LL_PWR_SUBGHZSPI_NSS_SRC_SW        (0x00000000UL)            /*!< Sub-GHz radio SPI NSS con
 288:hardware/mcu/st/stm32wlxx_hal_driver/Inc/stm32wlxx_ll_pwr.h **** #define LL_PWR_SUBGHZSPI_NSS_SRC_LPTIM3    (PWR_CR1_SUBGHZSPINSSSEL) /*!< Sub-GHz radio SPI NSS con
 289:hardware/mcu/st/stm32wlxx_hal_driver/Inc/stm32wlxx_ll_pwr.h **** /**
 290:hardware/mcu/st/stm32wlxx_hal_driver/Inc/stm32wlxx_ll_pwr.h ****   * @}
 291:hardware/mcu/st/stm32wlxx_hal_driver/Inc/stm32wlxx_ll_pwr.h ****   */
 292:hardware/mcu/st/stm32wlxx_hal_driver/Inc/stm32wlxx_ll_pwr.h **** 
 293:hardware/mcu/st/stm32wlxx_hal_driver/Inc/stm32wlxx_ll_pwr.h **** /**
 294:hardware/mcu/st/stm32wlxx_hal_driver/Inc/stm32wlxx_ll_pwr.h ****   * @}
 295:hardware/mcu/st/stm32wlxx_hal_driver/Inc/stm32wlxx_ll_pwr.h ****   */
 296:hardware/mcu/st/stm32wlxx_hal_driver/Inc/stm32wlxx_ll_pwr.h **** 
 297:hardware/mcu/st/stm32wlxx_hal_driver/Inc/stm32wlxx_ll_pwr.h **** /* Exported macro ------------------------------------------------------------*/
 298:hardware/mcu/st/stm32wlxx_hal_driver/Inc/stm32wlxx_ll_pwr.h **** /** @defgroup PWR_LL_Exported_Macros PWR Exported Macros
 299:hardware/mcu/st/stm32wlxx_hal_driver/Inc/stm32wlxx_ll_pwr.h ****   * @{
 300:hardware/mcu/st/stm32wlxx_hal_driver/Inc/stm32wlxx_ll_pwr.h ****   */
 301:hardware/mcu/st/stm32wlxx_hal_driver/Inc/stm32wlxx_ll_pwr.h **** 
 302:hardware/mcu/st/stm32wlxx_hal_driver/Inc/stm32wlxx_ll_pwr.h **** /** @defgroup PWR_LL_EM_WRITE_READ Common Write and read registers Macros
 303:hardware/mcu/st/stm32wlxx_hal_driver/Inc/stm32wlxx_ll_pwr.h ****   * @{
 304:hardware/mcu/st/stm32wlxx_hal_driver/Inc/stm32wlxx_ll_pwr.h ****   */
 305:hardware/mcu/st/stm32wlxx_hal_driver/Inc/stm32wlxx_ll_pwr.h **** 
 306:hardware/mcu/st/stm32wlxx_hal_driver/Inc/stm32wlxx_ll_pwr.h **** /**
 307:hardware/mcu/st/stm32wlxx_hal_driver/Inc/stm32wlxx_ll_pwr.h ****   * @brief  Write a value in PWR register
 308:hardware/mcu/st/stm32wlxx_hal_driver/Inc/stm32wlxx_ll_pwr.h ****   * @param  __REG__ Register to be written
 309:hardware/mcu/st/stm32wlxx_hal_driver/Inc/stm32wlxx_ll_pwr.h ****   * @param  __VALUE__ Value to be written in the register
 310:hardware/mcu/st/stm32wlxx_hal_driver/Inc/stm32wlxx_ll_pwr.h ****   * @retval None
 311:hardware/mcu/st/stm32wlxx_hal_driver/Inc/stm32wlxx_ll_pwr.h ****   */
 312:hardware/mcu/st/stm32wlxx_hal_driver/Inc/stm32wlxx_ll_pwr.h **** #define LL_PWR_WriteReg(__REG__, __VALUE__) WRITE_REG(PWR->__REG__, (__VALUE__))
 313:hardware/mcu/st/stm32wlxx_hal_driver/Inc/stm32wlxx_ll_pwr.h **** 
 314:hardware/mcu/st/stm32wlxx_hal_driver/Inc/stm32wlxx_ll_pwr.h **** /**
 315:hardware/mcu/st/stm32wlxx_hal_driver/Inc/stm32wlxx_ll_pwr.h ****   * @brief  Read a value in PWR register
 316:hardware/mcu/st/stm32wlxx_hal_driver/Inc/stm32wlxx_ll_pwr.h ****   * @param  __REG__ Register to be read
 317:hardware/mcu/st/stm32wlxx_hal_driver/Inc/stm32wlxx_ll_pwr.h ****   * @retval Register value
 318:hardware/mcu/st/stm32wlxx_hal_driver/Inc/stm32wlxx_ll_pwr.h ****   */
 319:hardware/mcu/st/stm32wlxx_hal_driver/Inc/stm32wlxx_ll_pwr.h **** #define LL_PWR_ReadReg(__REG__) READ_REG(PWR->__REG__)
 320:hardware/mcu/st/stm32wlxx_hal_driver/Inc/stm32wlxx_ll_pwr.h **** /**
 321:hardware/mcu/st/stm32wlxx_hal_driver/Inc/stm32wlxx_ll_pwr.h ****   * @}
 322:hardware/mcu/st/stm32wlxx_hal_driver/Inc/stm32wlxx_ll_pwr.h ****   */
 323:hardware/mcu/st/stm32wlxx_hal_driver/Inc/stm32wlxx_ll_pwr.h **** 
 324:hardware/mcu/st/stm32wlxx_hal_driver/Inc/stm32wlxx_ll_pwr.h **** /**
 325:hardware/mcu/st/stm32wlxx_hal_driver/Inc/stm32wlxx_ll_pwr.h ****   * @}
 326:hardware/mcu/st/stm32wlxx_hal_driver/Inc/stm32wlxx_ll_pwr.h ****   */
 327:hardware/mcu/st/stm32wlxx_hal_driver/Inc/stm32wlxx_ll_pwr.h **** 
 328:hardware/mcu/st/stm32wlxx_hal_driver/Inc/stm32wlxx_ll_pwr.h **** 
 329:hardware/mcu/st/stm32wlxx_hal_driver/Inc/stm32wlxx_ll_pwr.h **** /* Exported functions --------------------------------------------------------*/
 330:hardware/mcu/st/stm32wlxx_hal_driver/Inc/stm32wlxx_ll_pwr.h **** /** @defgroup PWR_LL_Exported_Functions PWR Exported Functions
 331:hardware/mcu/st/stm32wlxx_hal_driver/Inc/stm32wlxx_ll_pwr.h ****   * @{
 332:hardware/mcu/st/stm32wlxx_hal_driver/Inc/stm32wlxx_ll_pwr.h ****   */
 333:hardware/mcu/st/stm32wlxx_hal_driver/Inc/stm32wlxx_ll_pwr.h **** 
 334:hardware/mcu/st/stm32wlxx_hal_driver/Inc/stm32wlxx_ll_pwr.h **** /** @defgroup PWR_LL_EF_Configuration Configuration
 335:hardware/mcu/st/stm32wlxx_hal_driver/Inc/stm32wlxx_ll_pwr.h ****   * @{
 336:hardware/mcu/st/stm32wlxx_hal_driver/Inc/stm32wlxx_ll_pwr.h ****   */
 337:hardware/mcu/st/stm32wlxx_hal_driver/Inc/stm32wlxx_ll_pwr.h **** 
 338:hardware/mcu/st/stm32wlxx_hal_driver/Inc/stm32wlxx_ll_pwr.h **** /**
 339:hardware/mcu/st/stm32wlxx_hal_driver/Inc/stm32wlxx_ll_pwr.h ****   * @brief  Switch from run main mode to run low-power mode.
ARM GAS  /var/folders/b4/k4jbz0ms4wg23jtq0w6p483m0000gn/T//ccaHqEcm.s 			page 16


 340:hardware/mcu/st/stm32wlxx_hal_driver/Inc/stm32wlxx_ll_pwr.h ****   * @rmtoll CR1          LPR           LL_PWR_EnterLowPowerRunMode
 341:hardware/mcu/st/stm32wlxx_hal_driver/Inc/stm32wlxx_ll_pwr.h ****   * @retval None
 342:hardware/mcu/st/stm32wlxx_hal_driver/Inc/stm32wlxx_ll_pwr.h ****   */
 343:hardware/mcu/st/stm32wlxx_hal_driver/Inc/stm32wlxx_ll_pwr.h **** __STATIC_INLINE void LL_PWR_EnterLowPowerRunMode(void)
 344:hardware/mcu/st/stm32wlxx_hal_driver/Inc/stm32wlxx_ll_pwr.h **** {
 345:hardware/mcu/st/stm32wlxx_hal_driver/Inc/stm32wlxx_ll_pwr.h ****   SET_BIT(PWR->CR1, PWR_CR1_LPR);
 346:hardware/mcu/st/stm32wlxx_hal_driver/Inc/stm32wlxx_ll_pwr.h **** }
 347:hardware/mcu/st/stm32wlxx_hal_driver/Inc/stm32wlxx_ll_pwr.h **** 
 348:hardware/mcu/st/stm32wlxx_hal_driver/Inc/stm32wlxx_ll_pwr.h **** /**
 349:hardware/mcu/st/stm32wlxx_hal_driver/Inc/stm32wlxx_ll_pwr.h ****   * @brief  Switch from run main mode to low-power mode.
 350:hardware/mcu/st/stm32wlxx_hal_driver/Inc/stm32wlxx_ll_pwr.h ****   * @rmtoll CR1          LPR           LL_PWR_ExitLowPowerRunMode
 351:hardware/mcu/st/stm32wlxx_hal_driver/Inc/stm32wlxx_ll_pwr.h ****   * @retval None
 352:hardware/mcu/st/stm32wlxx_hal_driver/Inc/stm32wlxx_ll_pwr.h ****   */
 353:hardware/mcu/st/stm32wlxx_hal_driver/Inc/stm32wlxx_ll_pwr.h **** __STATIC_INLINE void LL_PWR_ExitLowPowerRunMode(void)
 354:hardware/mcu/st/stm32wlxx_hal_driver/Inc/stm32wlxx_ll_pwr.h **** {
 355:hardware/mcu/st/stm32wlxx_hal_driver/Inc/stm32wlxx_ll_pwr.h ****   CLEAR_BIT(PWR->CR1, PWR_CR1_LPR);
 356:hardware/mcu/st/stm32wlxx_hal_driver/Inc/stm32wlxx_ll_pwr.h **** }
 357:hardware/mcu/st/stm32wlxx_hal_driver/Inc/stm32wlxx_ll_pwr.h **** 
 358:hardware/mcu/st/stm32wlxx_hal_driver/Inc/stm32wlxx_ll_pwr.h **** /**
 359:hardware/mcu/st/stm32wlxx_hal_driver/Inc/stm32wlxx_ll_pwr.h ****   * @brief  Check if the regulator is in low-power mode
 360:hardware/mcu/st/stm32wlxx_hal_driver/Inc/stm32wlxx_ll_pwr.h ****   * @rmtoll CR1          LPR           LL_PWR_IsEnabledLowPowerRunMode
 361:hardware/mcu/st/stm32wlxx_hal_driver/Inc/stm32wlxx_ll_pwr.h ****   * @retval State of bit (1 or 0).
 362:hardware/mcu/st/stm32wlxx_hal_driver/Inc/stm32wlxx_ll_pwr.h ****   */
 363:hardware/mcu/st/stm32wlxx_hal_driver/Inc/stm32wlxx_ll_pwr.h **** __STATIC_INLINE uint32_t LL_PWR_IsEnabledLowPowerRunMode(void)
 364:hardware/mcu/st/stm32wlxx_hal_driver/Inc/stm32wlxx_ll_pwr.h **** {
 365:hardware/mcu/st/stm32wlxx_hal_driver/Inc/stm32wlxx_ll_pwr.h ****   return ((READ_BIT(PWR->CR1, PWR_CR1_LPR) == (PWR_CR1_LPR)) ? 1UL : 0UL);
 366:hardware/mcu/st/stm32wlxx_hal_driver/Inc/stm32wlxx_ll_pwr.h **** }
 367:hardware/mcu/st/stm32wlxx_hal_driver/Inc/stm32wlxx_ll_pwr.h **** 
 368:hardware/mcu/st/stm32wlxx_hal_driver/Inc/stm32wlxx_ll_pwr.h **** /**
 369:hardware/mcu/st/stm32wlxx_hal_driver/Inc/stm32wlxx_ll_pwr.h ****   * @brief  Set the main internal regulator output voltage
 370:hardware/mcu/st/stm32wlxx_hal_driver/Inc/stm32wlxx_ll_pwr.h ****   * @note   A delay is required for the internal regulator to be ready
 371:hardware/mcu/st/stm32wlxx_hal_driver/Inc/stm32wlxx_ll_pwr.h ****   *         after the voltage scaling has been changed.
 372:hardware/mcu/st/stm32wlxx_hal_driver/Inc/stm32wlxx_ll_pwr.h ****   *         Check whether regulator reached the selected voltage level
 373:hardware/mcu/st/stm32wlxx_hal_driver/Inc/stm32wlxx_ll_pwr.h ****   *         can be done using function @ref LL_PWR_IsActiveFlag_VOS().
 374:hardware/mcu/st/stm32wlxx_hal_driver/Inc/stm32wlxx_ll_pwr.h ****   * @rmtoll CR1          VOS           LL_PWR_SetRegulVoltageScaling
 375:hardware/mcu/st/stm32wlxx_hal_driver/Inc/stm32wlxx_ll_pwr.h ****   * @param  VoltageScaling This parameter can be one of the following values:
 376:hardware/mcu/st/stm32wlxx_hal_driver/Inc/stm32wlxx_ll_pwr.h ****   *         @arg @ref LL_PWR_REGU_VOLTAGE_SCALE1
 377:hardware/mcu/st/stm32wlxx_hal_driver/Inc/stm32wlxx_ll_pwr.h ****   *         @arg @ref LL_PWR_REGU_VOLTAGE_SCALE2
 378:hardware/mcu/st/stm32wlxx_hal_driver/Inc/stm32wlxx_ll_pwr.h ****   * @retval None
 379:hardware/mcu/st/stm32wlxx_hal_driver/Inc/stm32wlxx_ll_pwr.h ****   */
 380:hardware/mcu/st/stm32wlxx_hal_driver/Inc/stm32wlxx_ll_pwr.h **** __STATIC_INLINE void LL_PWR_SetRegulVoltageScaling(uint32_t VoltageScaling)
 381:hardware/mcu/st/stm32wlxx_hal_driver/Inc/stm32wlxx_ll_pwr.h **** {
 382:hardware/mcu/st/stm32wlxx_hal_driver/Inc/stm32wlxx_ll_pwr.h ****   MODIFY_REG(PWR->CR1, PWR_CR1_VOS, VoltageScaling);
 383:hardware/mcu/st/stm32wlxx_hal_driver/Inc/stm32wlxx_ll_pwr.h **** }
 384:hardware/mcu/st/stm32wlxx_hal_driver/Inc/stm32wlxx_ll_pwr.h **** 
 385:hardware/mcu/st/stm32wlxx_hal_driver/Inc/stm32wlxx_ll_pwr.h **** /**
 386:hardware/mcu/st/stm32wlxx_hal_driver/Inc/stm32wlxx_ll_pwr.h ****   * @brief  Get the main internal regulator output voltage
 387:hardware/mcu/st/stm32wlxx_hal_driver/Inc/stm32wlxx_ll_pwr.h ****   * @rmtoll CR1          VOS           LL_PWR_GetRegulVoltageScaling
 388:hardware/mcu/st/stm32wlxx_hal_driver/Inc/stm32wlxx_ll_pwr.h ****   * @retval Returned value can be one of the following values:
 389:hardware/mcu/st/stm32wlxx_hal_driver/Inc/stm32wlxx_ll_pwr.h ****   *         @arg @ref LL_PWR_REGU_VOLTAGE_SCALE1
 390:hardware/mcu/st/stm32wlxx_hal_driver/Inc/stm32wlxx_ll_pwr.h ****   *         @arg @ref LL_PWR_REGU_VOLTAGE_SCALE2
 391:hardware/mcu/st/stm32wlxx_hal_driver/Inc/stm32wlxx_ll_pwr.h ****   */
 392:hardware/mcu/st/stm32wlxx_hal_driver/Inc/stm32wlxx_ll_pwr.h **** __STATIC_INLINE uint32_t LL_PWR_GetRegulVoltageScaling(void)
 393:hardware/mcu/st/stm32wlxx_hal_driver/Inc/stm32wlxx_ll_pwr.h **** {
 394:hardware/mcu/st/stm32wlxx_hal_driver/Inc/stm32wlxx_ll_pwr.h ****   return (uint32_t)(READ_BIT(PWR->CR1, PWR_CR1_VOS));
 395:hardware/mcu/st/stm32wlxx_hal_driver/Inc/stm32wlxx_ll_pwr.h **** }
 396:hardware/mcu/st/stm32wlxx_hal_driver/Inc/stm32wlxx_ll_pwr.h **** 
ARM GAS  /var/folders/b4/k4jbz0ms4wg23jtq0w6p483m0000gn/T//ccaHqEcm.s 			page 17


 397:hardware/mcu/st/stm32wlxx_hal_driver/Inc/stm32wlxx_ll_pwr.h **** /**
 398:hardware/mcu/st/stm32wlxx_hal_driver/Inc/stm32wlxx_ll_pwr.h ****   * @brief  Enable access to the backup domain
 399:hardware/mcu/st/stm32wlxx_hal_driver/Inc/stm32wlxx_ll_pwr.h ****   * @rmtoll CR1          DBP           LL_PWR_EnableBkUpAccess
 400:hardware/mcu/st/stm32wlxx_hal_driver/Inc/stm32wlxx_ll_pwr.h ****   * @retval None
 401:hardware/mcu/st/stm32wlxx_hal_driver/Inc/stm32wlxx_ll_pwr.h ****   */
 402:hardware/mcu/st/stm32wlxx_hal_driver/Inc/stm32wlxx_ll_pwr.h **** __STATIC_INLINE void LL_PWR_EnableBkUpAccess(void)
 403:hardware/mcu/st/stm32wlxx_hal_driver/Inc/stm32wlxx_ll_pwr.h **** {
 404:hardware/mcu/st/stm32wlxx_hal_driver/Inc/stm32wlxx_ll_pwr.h ****   SET_BIT(PWR->CR1, PWR_CR1_DBP);
 405:hardware/mcu/st/stm32wlxx_hal_driver/Inc/stm32wlxx_ll_pwr.h **** }
 406:hardware/mcu/st/stm32wlxx_hal_driver/Inc/stm32wlxx_ll_pwr.h **** 
 407:hardware/mcu/st/stm32wlxx_hal_driver/Inc/stm32wlxx_ll_pwr.h **** /**
 408:hardware/mcu/st/stm32wlxx_hal_driver/Inc/stm32wlxx_ll_pwr.h ****   * @brief  Disable access to the backup domain
 409:hardware/mcu/st/stm32wlxx_hal_driver/Inc/stm32wlxx_ll_pwr.h ****   * @rmtoll CR1          DBP           LL_PWR_DisableBkUpAccess
 410:hardware/mcu/st/stm32wlxx_hal_driver/Inc/stm32wlxx_ll_pwr.h ****   * @retval None
 411:hardware/mcu/st/stm32wlxx_hal_driver/Inc/stm32wlxx_ll_pwr.h ****   */
 412:hardware/mcu/st/stm32wlxx_hal_driver/Inc/stm32wlxx_ll_pwr.h **** __STATIC_INLINE void LL_PWR_DisableBkUpAccess(void)
 413:hardware/mcu/st/stm32wlxx_hal_driver/Inc/stm32wlxx_ll_pwr.h **** {
 414:hardware/mcu/st/stm32wlxx_hal_driver/Inc/stm32wlxx_ll_pwr.h ****   CLEAR_BIT(PWR->CR1, PWR_CR1_DBP);
 415:hardware/mcu/st/stm32wlxx_hal_driver/Inc/stm32wlxx_ll_pwr.h **** }
 416:hardware/mcu/st/stm32wlxx_hal_driver/Inc/stm32wlxx_ll_pwr.h **** 
 417:hardware/mcu/st/stm32wlxx_hal_driver/Inc/stm32wlxx_ll_pwr.h **** /**
 418:hardware/mcu/st/stm32wlxx_hal_driver/Inc/stm32wlxx_ll_pwr.h ****   * @brief  Check if the backup domain is enabled
 419:hardware/mcu/st/stm32wlxx_hal_driver/Inc/stm32wlxx_ll_pwr.h ****   * @rmtoll CR1          DBP           LL_PWR_IsEnabledBkUpAccess
 420:hardware/mcu/st/stm32wlxx_hal_driver/Inc/stm32wlxx_ll_pwr.h ****   * @retval State of bit (1 or 0).
 421:hardware/mcu/st/stm32wlxx_hal_driver/Inc/stm32wlxx_ll_pwr.h ****   */
 422:hardware/mcu/st/stm32wlxx_hal_driver/Inc/stm32wlxx_ll_pwr.h **** __STATIC_INLINE uint32_t LL_PWR_IsEnabledBkUpAccess(void)
 423:hardware/mcu/st/stm32wlxx_hal_driver/Inc/stm32wlxx_ll_pwr.h **** {
 424:hardware/mcu/st/stm32wlxx_hal_driver/Inc/stm32wlxx_ll_pwr.h ****   return ((READ_BIT(PWR->CR1, PWR_CR1_DBP) == (PWR_CR1_DBP)) ? 1UL : 0UL);
 425:hardware/mcu/st/stm32wlxx_hal_driver/Inc/stm32wlxx_ll_pwr.h **** }
 426:hardware/mcu/st/stm32wlxx_hal_driver/Inc/stm32wlxx_ll_pwr.h **** 
 427:hardware/mcu/st/stm32wlxx_hal_driver/Inc/stm32wlxx_ll_pwr.h **** /**
 428:hardware/mcu/st/stm32wlxx_hal_driver/Inc/stm32wlxx_ll_pwr.h ****   * @brief  Set Low-Power mode
 429:hardware/mcu/st/stm32wlxx_hal_driver/Inc/stm32wlxx_ll_pwr.h ****   * @rmtoll CR1          LPMS          LL_PWR_SetPowerMode
 430:hardware/mcu/st/stm32wlxx_hal_driver/Inc/stm32wlxx_ll_pwr.h ****   * @param  LowPowerMode This parameter can be one of the following values:
 431:hardware/mcu/st/stm32wlxx_hal_driver/Inc/stm32wlxx_ll_pwr.h ****   *         @arg @ref LL_PWR_MODE_STOP0
 432:hardware/mcu/st/stm32wlxx_hal_driver/Inc/stm32wlxx_ll_pwr.h ****   *         @arg @ref LL_PWR_MODE_STOP1
 433:hardware/mcu/st/stm32wlxx_hal_driver/Inc/stm32wlxx_ll_pwr.h ****   *         @arg @ref LL_PWR_MODE_STOP2
 434:hardware/mcu/st/stm32wlxx_hal_driver/Inc/stm32wlxx_ll_pwr.h ****   *         @arg @ref LL_PWR_MODE_STANDBY
 435:hardware/mcu/st/stm32wlxx_hal_driver/Inc/stm32wlxx_ll_pwr.h ****   *         @arg @ref LL_PWR_MODE_SHUTDOWN
 436:hardware/mcu/st/stm32wlxx_hal_driver/Inc/stm32wlxx_ll_pwr.h ****   * @retval None
 437:hardware/mcu/st/stm32wlxx_hal_driver/Inc/stm32wlxx_ll_pwr.h ****   */
 438:hardware/mcu/st/stm32wlxx_hal_driver/Inc/stm32wlxx_ll_pwr.h **** __STATIC_INLINE void LL_PWR_SetPowerMode(uint32_t LowPowerMode)
 439:hardware/mcu/st/stm32wlxx_hal_driver/Inc/stm32wlxx_ll_pwr.h **** {
 440:hardware/mcu/st/stm32wlxx_hal_driver/Inc/stm32wlxx_ll_pwr.h ****   MODIFY_REG(PWR->CR1, PWR_CR1_LPMS, LowPowerMode);
 441:hardware/mcu/st/stm32wlxx_hal_driver/Inc/stm32wlxx_ll_pwr.h **** }
 442:hardware/mcu/st/stm32wlxx_hal_driver/Inc/stm32wlxx_ll_pwr.h **** 
 443:hardware/mcu/st/stm32wlxx_hal_driver/Inc/stm32wlxx_ll_pwr.h **** /**
 444:hardware/mcu/st/stm32wlxx_hal_driver/Inc/stm32wlxx_ll_pwr.h ****   * @brief  Get Low-Power mode
 445:hardware/mcu/st/stm32wlxx_hal_driver/Inc/stm32wlxx_ll_pwr.h ****   * @rmtoll CR1          LPMS          LL_PWR_GetPowerMode
 446:hardware/mcu/st/stm32wlxx_hal_driver/Inc/stm32wlxx_ll_pwr.h ****   * @retval Returned value can be one of the following values:
 447:hardware/mcu/st/stm32wlxx_hal_driver/Inc/stm32wlxx_ll_pwr.h ****   *         @arg @ref LL_PWR_MODE_STOP0
 448:hardware/mcu/st/stm32wlxx_hal_driver/Inc/stm32wlxx_ll_pwr.h ****   *         @arg @ref LL_PWR_MODE_STOP1
 449:hardware/mcu/st/stm32wlxx_hal_driver/Inc/stm32wlxx_ll_pwr.h ****   *         @arg @ref LL_PWR_MODE_STOP2
 450:hardware/mcu/st/stm32wlxx_hal_driver/Inc/stm32wlxx_ll_pwr.h ****   *         @arg @ref LL_PWR_MODE_STANDBY
 451:hardware/mcu/st/stm32wlxx_hal_driver/Inc/stm32wlxx_ll_pwr.h ****   *         @arg @ref LL_PWR_MODE_SHUTDOWN
 452:hardware/mcu/st/stm32wlxx_hal_driver/Inc/stm32wlxx_ll_pwr.h ****   */
 453:hardware/mcu/st/stm32wlxx_hal_driver/Inc/stm32wlxx_ll_pwr.h **** __STATIC_INLINE uint32_t LL_PWR_GetPowerMode(void)
ARM GAS  /var/folders/b4/k4jbz0ms4wg23jtq0w6p483m0000gn/T//ccaHqEcm.s 			page 18


 454:hardware/mcu/st/stm32wlxx_hal_driver/Inc/stm32wlxx_ll_pwr.h **** {
 455:hardware/mcu/st/stm32wlxx_hal_driver/Inc/stm32wlxx_ll_pwr.h ****   return (uint32_t)(READ_BIT(PWR->CR1, PWR_CR1_LPMS));
 456:hardware/mcu/st/stm32wlxx_hal_driver/Inc/stm32wlxx_ll_pwr.h **** }
 457:hardware/mcu/st/stm32wlxx_hal_driver/Inc/stm32wlxx_ll_pwr.h **** 
 458:hardware/mcu/st/stm32wlxx_hal_driver/Inc/stm32wlxx_ll_pwr.h **** /**
 459:hardware/mcu/st/stm32wlxx_hal_driver/Inc/stm32wlxx_ll_pwr.h ****   * @brief  Set flash power-down mode during low-power run mode
 460:hardware/mcu/st/stm32wlxx_hal_driver/Inc/stm32wlxx_ll_pwr.h ****   * @rmtoll CR1          FPDR          LL_PWR_SetFlashPowerModeLPRun
 461:hardware/mcu/st/stm32wlxx_hal_driver/Inc/stm32wlxx_ll_pwr.h ****   * @param  FlashLowPowerMode This parameter can be one of the following values:
 462:hardware/mcu/st/stm32wlxx_hal_driver/Inc/stm32wlxx_ll_pwr.h ****   *         @arg @ref LL_PWR_FLASH_LPRUN_MODE_IDLE
 463:hardware/mcu/st/stm32wlxx_hal_driver/Inc/stm32wlxx_ll_pwr.h ****   *         @arg @ref LL_PWR_FLASH_LPRUN_MODE_POWER_DOWN
 464:hardware/mcu/st/stm32wlxx_hal_driver/Inc/stm32wlxx_ll_pwr.h ****   * @retval None
 465:hardware/mcu/st/stm32wlxx_hal_driver/Inc/stm32wlxx_ll_pwr.h ****   */
 466:hardware/mcu/st/stm32wlxx_hal_driver/Inc/stm32wlxx_ll_pwr.h **** __STATIC_INLINE void LL_PWR_SetFlashPowerModeLPRun(uint32_t FlashLowPowerMode)
 467:hardware/mcu/st/stm32wlxx_hal_driver/Inc/stm32wlxx_ll_pwr.h **** {
 468:hardware/mcu/st/stm32wlxx_hal_driver/Inc/stm32wlxx_ll_pwr.h ****   /* Unlock bit FPDR */
 469:hardware/mcu/st/stm32wlxx_hal_driver/Inc/stm32wlxx_ll_pwr.h ****   WRITE_REG(PWR->CR1, PWR_FLASH_POWER_MODE_UNLOCK_CODE);
 470:hardware/mcu/st/stm32wlxx_hal_driver/Inc/stm32wlxx_ll_pwr.h **** 
 471:hardware/mcu/st/stm32wlxx_hal_driver/Inc/stm32wlxx_ll_pwr.h ****   /* Update bit FPDR */
 472:hardware/mcu/st/stm32wlxx_hal_driver/Inc/stm32wlxx_ll_pwr.h ****   MODIFY_REG(PWR->CR1, PWR_CR1_FPDR, FlashLowPowerMode);
 473:hardware/mcu/st/stm32wlxx_hal_driver/Inc/stm32wlxx_ll_pwr.h **** }
 474:hardware/mcu/st/stm32wlxx_hal_driver/Inc/stm32wlxx_ll_pwr.h **** 
 475:hardware/mcu/st/stm32wlxx_hal_driver/Inc/stm32wlxx_ll_pwr.h **** /**
 476:hardware/mcu/st/stm32wlxx_hal_driver/Inc/stm32wlxx_ll_pwr.h ****   * @brief  Get flash power-down mode during low-power run mode
 477:hardware/mcu/st/stm32wlxx_hal_driver/Inc/stm32wlxx_ll_pwr.h ****   * @rmtoll CR1          FPDR          LL_PWR_GetFlashPowerModeLPRun
 478:hardware/mcu/st/stm32wlxx_hal_driver/Inc/stm32wlxx_ll_pwr.h ****   * @retval Returned value can be one of the following values:
 479:hardware/mcu/st/stm32wlxx_hal_driver/Inc/stm32wlxx_ll_pwr.h ****   *         @arg @ref LL_PWR_FLASH_LPRUN_MODE_IDLE
 480:hardware/mcu/st/stm32wlxx_hal_driver/Inc/stm32wlxx_ll_pwr.h ****   *         @arg @ref LL_PWR_FLASH_LPRUN_MODE_POWER_DOWN
 481:hardware/mcu/st/stm32wlxx_hal_driver/Inc/stm32wlxx_ll_pwr.h ****   */
 482:hardware/mcu/st/stm32wlxx_hal_driver/Inc/stm32wlxx_ll_pwr.h **** __STATIC_INLINE uint32_t LL_PWR_GetFlashPowerModeLPRun(void)
 483:hardware/mcu/st/stm32wlxx_hal_driver/Inc/stm32wlxx_ll_pwr.h **** {
 484:hardware/mcu/st/stm32wlxx_hal_driver/Inc/stm32wlxx_ll_pwr.h ****   return (uint32_t)(READ_BIT(PWR->CR1, PWR_CR1_FPDR));
 485:hardware/mcu/st/stm32wlxx_hal_driver/Inc/stm32wlxx_ll_pwr.h **** }
 486:hardware/mcu/st/stm32wlxx_hal_driver/Inc/stm32wlxx_ll_pwr.h **** 
 487:hardware/mcu/st/stm32wlxx_hal_driver/Inc/stm32wlxx_ll_pwr.h **** /**
 488:hardware/mcu/st/stm32wlxx_hal_driver/Inc/stm32wlxx_ll_pwr.h ****   * @brief  Set flash power-down mode during sleep mode
 489:hardware/mcu/st/stm32wlxx_hal_driver/Inc/stm32wlxx_ll_pwr.h ****   * @rmtoll CR1          FPDS          LL_PWR_SetFlashPowerModeSleep
 490:hardware/mcu/st/stm32wlxx_hal_driver/Inc/stm32wlxx_ll_pwr.h ****   * @param  FlashLowPowerMode This parameter can be one of the following values:
 491:hardware/mcu/st/stm32wlxx_hal_driver/Inc/stm32wlxx_ll_pwr.h ****   *         @arg @ref LL_PWR_FLASH_SLEEP_MODE_IDLE
 492:hardware/mcu/st/stm32wlxx_hal_driver/Inc/stm32wlxx_ll_pwr.h ****   *         @arg @ref LL_PWR_FLASH_SLEEP_MODE_POWER_DOWN
 493:hardware/mcu/st/stm32wlxx_hal_driver/Inc/stm32wlxx_ll_pwr.h ****   * @retval None
 494:hardware/mcu/st/stm32wlxx_hal_driver/Inc/stm32wlxx_ll_pwr.h ****   */
 495:hardware/mcu/st/stm32wlxx_hal_driver/Inc/stm32wlxx_ll_pwr.h **** __STATIC_INLINE void LL_PWR_SetFlashPowerModeSleep(uint32_t FlashLowPowerMode)
 496:hardware/mcu/st/stm32wlxx_hal_driver/Inc/stm32wlxx_ll_pwr.h **** {
 497:hardware/mcu/st/stm32wlxx_hal_driver/Inc/stm32wlxx_ll_pwr.h ****   MODIFY_REG(PWR->CR1, PWR_CR1_FPDS, FlashLowPowerMode);
 498:hardware/mcu/st/stm32wlxx_hal_driver/Inc/stm32wlxx_ll_pwr.h **** }
 499:hardware/mcu/st/stm32wlxx_hal_driver/Inc/stm32wlxx_ll_pwr.h **** 
 500:hardware/mcu/st/stm32wlxx_hal_driver/Inc/stm32wlxx_ll_pwr.h **** /**
 501:hardware/mcu/st/stm32wlxx_hal_driver/Inc/stm32wlxx_ll_pwr.h ****   * @brief  Get flash power-down mode during sleep mode
 502:hardware/mcu/st/stm32wlxx_hal_driver/Inc/stm32wlxx_ll_pwr.h ****   * @rmtoll CR1          FPDS          LL_PWR_GetFlashPowerModeSleep
 503:hardware/mcu/st/stm32wlxx_hal_driver/Inc/stm32wlxx_ll_pwr.h ****   * @retval Returned value can be one of the following values:
 504:hardware/mcu/st/stm32wlxx_hal_driver/Inc/stm32wlxx_ll_pwr.h ****   *         @arg @ref LL_PWR_FLASH_SLEEP_MODE_IDLE
 505:hardware/mcu/st/stm32wlxx_hal_driver/Inc/stm32wlxx_ll_pwr.h ****   *         @arg @ref LL_PWR_FLASH_SLEEP_MODE_POWER_DOWN
 506:hardware/mcu/st/stm32wlxx_hal_driver/Inc/stm32wlxx_ll_pwr.h ****   */
 507:hardware/mcu/st/stm32wlxx_hal_driver/Inc/stm32wlxx_ll_pwr.h **** __STATIC_INLINE uint32_t LL_PWR_GetFlashPowerModeSleep(void)
 508:hardware/mcu/st/stm32wlxx_hal_driver/Inc/stm32wlxx_ll_pwr.h **** {
 509:hardware/mcu/st/stm32wlxx_hal_driver/Inc/stm32wlxx_ll_pwr.h ****   return (uint32_t)(READ_BIT(PWR->CR1, PWR_CR1_FPDS));
 510:hardware/mcu/st/stm32wlxx_hal_driver/Inc/stm32wlxx_ll_pwr.h **** }
ARM GAS  /var/folders/b4/k4jbz0ms4wg23jtq0w6p483m0000gn/T//ccaHqEcm.s 			page 19


 511:hardware/mcu/st/stm32wlxx_hal_driver/Inc/stm32wlxx_ll_pwr.h **** 
 512:hardware/mcu/st/stm32wlxx_hal_driver/Inc/stm32wlxx_ll_pwr.h **** /**
 513:hardware/mcu/st/stm32wlxx_hal_driver/Inc/stm32wlxx_ll_pwr.h ****   * @brief  Enable the Power Voltage Monitoring on a peripheral
 514:hardware/mcu/st/stm32wlxx_hal_driver/Inc/stm32wlxx_ll_pwr.h ****   * @rmtoll CR2          PVME3         LL_PWR_EnablePVM
 515:hardware/mcu/st/stm32wlxx_hal_driver/Inc/stm32wlxx_ll_pwr.h ****   * @param  PeriphVoltage This parameter can be one of the following values:
 516:hardware/mcu/st/stm32wlxx_hal_driver/Inc/stm32wlxx_ll_pwr.h ****   *         @arg @ref LL_PWR_PVM_VDDA_1_62V
 517:hardware/mcu/st/stm32wlxx_hal_driver/Inc/stm32wlxx_ll_pwr.h ****   * @retval None
 518:hardware/mcu/st/stm32wlxx_hal_driver/Inc/stm32wlxx_ll_pwr.h ****   */
 519:hardware/mcu/st/stm32wlxx_hal_driver/Inc/stm32wlxx_ll_pwr.h **** __STATIC_INLINE void LL_PWR_EnablePVM(uint32_t PeriphVoltage)
 520:hardware/mcu/st/stm32wlxx_hal_driver/Inc/stm32wlxx_ll_pwr.h **** {
 521:hardware/mcu/st/stm32wlxx_hal_driver/Inc/stm32wlxx_ll_pwr.h ****   SET_BIT(PWR->CR2, PeriphVoltage);
 522:hardware/mcu/st/stm32wlxx_hal_driver/Inc/stm32wlxx_ll_pwr.h **** }
 523:hardware/mcu/st/stm32wlxx_hal_driver/Inc/stm32wlxx_ll_pwr.h **** 
 524:hardware/mcu/st/stm32wlxx_hal_driver/Inc/stm32wlxx_ll_pwr.h **** /**
 525:hardware/mcu/st/stm32wlxx_hal_driver/Inc/stm32wlxx_ll_pwr.h ****   * @brief  Disable the Power Voltage Monitoring on a peripheral
 526:hardware/mcu/st/stm32wlxx_hal_driver/Inc/stm32wlxx_ll_pwr.h ****   * @rmtoll CR2          PVME3         LL_PWR_DisablePVM
 527:hardware/mcu/st/stm32wlxx_hal_driver/Inc/stm32wlxx_ll_pwr.h ****   * @param  PeriphVoltage This parameter can be one of the following values:
 528:hardware/mcu/st/stm32wlxx_hal_driver/Inc/stm32wlxx_ll_pwr.h ****   *         @arg @ref LL_PWR_PVM_VDDA_1_62V
 529:hardware/mcu/st/stm32wlxx_hal_driver/Inc/stm32wlxx_ll_pwr.h ****   * @retval None
 530:hardware/mcu/st/stm32wlxx_hal_driver/Inc/stm32wlxx_ll_pwr.h ****   */
 531:hardware/mcu/st/stm32wlxx_hal_driver/Inc/stm32wlxx_ll_pwr.h **** __STATIC_INLINE void LL_PWR_DisablePVM(uint32_t PeriphVoltage)
 532:hardware/mcu/st/stm32wlxx_hal_driver/Inc/stm32wlxx_ll_pwr.h **** {
 533:hardware/mcu/st/stm32wlxx_hal_driver/Inc/stm32wlxx_ll_pwr.h ****   CLEAR_BIT(PWR->CR2, PeriphVoltage);
 534:hardware/mcu/st/stm32wlxx_hal_driver/Inc/stm32wlxx_ll_pwr.h **** }
 535:hardware/mcu/st/stm32wlxx_hal_driver/Inc/stm32wlxx_ll_pwr.h **** 
 536:hardware/mcu/st/stm32wlxx_hal_driver/Inc/stm32wlxx_ll_pwr.h **** /**
 537:hardware/mcu/st/stm32wlxx_hal_driver/Inc/stm32wlxx_ll_pwr.h ****   * @brief  Check if Power Voltage Monitoring is enabled on a peripheral
 538:hardware/mcu/st/stm32wlxx_hal_driver/Inc/stm32wlxx_ll_pwr.h ****   * @rmtoll CR2          PVME3         LL_PWR_IsEnabledPVM
 539:hardware/mcu/st/stm32wlxx_hal_driver/Inc/stm32wlxx_ll_pwr.h ****   * @param  PeriphVoltage This parameter can be one of the following values:
 540:hardware/mcu/st/stm32wlxx_hal_driver/Inc/stm32wlxx_ll_pwr.h ****   *         @arg @ref LL_PWR_PVM_VDDA_1_62V
 541:hardware/mcu/st/stm32wlxx_hal_driver/Inc/stm32wlxx_ll_pwr.h ****   * @retval State of bit (1 or 0).
 542:hardware/mcu/st/stm32wlxx_hal_driver/Inc/stm32wlxx_ll_pwr.h ****   */
 543:hardware/mcu/st/stm32wlxx_hal_driver/Inc/stm32wlxx_ll_pwr.h **** __STATIC_INLINE uint32_t LL_PWR_IsEnabledPVM(uint32_t PeriphVoltage)
 544:hardware/mcu/st/stm32wlxx_hal_driver/Inc/stm32wlxx_ll_pwr.h **** {
 545:hardware/mcu/st/stm32wlxx_hal_driver/Inc/stm32wlxx_ll_pwr.h ****   return ((READ_BIT(PWR->CR2, PeriphVoltage) == (PeriphVoltage)) ? 1UL : 0UL);
 546:hardware/mcu/st/stm32wlxx_hal_driver/Inc/stm32wlxx_ll_pwr.h **** }
 547:hardware/mcu/st/stm32wlxx_hal_driver/Inc/stm32wlxx_ll_pwr.h **** 
 548:hardware/mcu/st/stm32wlxx_hal_driver/Inc/stm32wlxx_ll_pwr.h **** /**
 549:hardware/mcu/st/stm32wlxx_hal_driver/Inc/stm32wlxx_ll_pwr.h ****   * @brief  Configure the voltage threshold detected by the Power Voltage Detector
 550:hardware/mcu/st/stm32wlxx_hal_driver/Inc/stm32wlxx_ll_pwr.h ****   * @rmtoll CR2          PLS           LL_PWR_SetPVDLevel
 551:hardware/mcu/st/stm32wlxx_hal_driver/Inc/stm32wlxx_ll_pwr.h ****   * @param  PVDLevel This parameter can be one of the following values:
 552:hardware/mcu/st/stm32wlxx_hal_driver/Inc/stm32wlxx_ll_pwr.h ****   *         @arg @ref LL_PWR_PVDLEVEL_0
 553:hardware/mcu/st/stm32wlxx_hal_driver/Inc/stm32wlxx_ll_pwr.h ****   *         @arg @ref LL_PWR_PVDLEVEL_1
 554:hardware/mcu/st/stm32wlxx_hal_driver/Inc/stm32wlxx_ll_pwr.h ****   *         @arg @ref LL_PWR_PVDLEVEL_2
 555:hardware/mcu/st/stm32wlxx_hal_driver/Inc/stm32wlxx_ll_pwr.h ****   *         @arg @ref LL_PWR_PVDLEVEL_3
 556:hardware/mcu/st/stm32wlxx_hal_driver/Inc/stm32wlxx_ll_pwr.h ****   *         @arg @ref LL_PWR_PVDLEVEL_4
 557:hardware/mcu/st/stm32wlxx_hal_driver/Inc/stm32wlxx_ll_pwr.h ****   *         @arg @ref LL_PWR_PVDLEVEL_5
 558:hardware/mcu/st/stm32wlxx_hal_driver/Inc/stm32wlxx_ll_pwr.h ****   *         @arg @ref LL_PWR_PVDLEVEL_6
 559:hardware/mcu/st/stm32wlxx_hal_driver/Inc/stm32wlxx_ll_pwr.h ****   *         @arg @ref LL_PWR_PVDLEVEL_7
 560:hardware/mcu/st/stm32wlxx_hal_driver/Inc/stm32wlxx_ll_pwr.h ****   * @retval None
 561:hardware/mcu/st/stm32wlxx_hal_driver/Inc/stm32wlxx_ll_pwr.h ****   */
 562:hardware/mcu/st/stm32wlxx_hal_driver/Inc/stm32wlxx_ll_pwr.h **** __STATIC_INLINE void LL_PWR_SetPVDLevel(uint32_t PVDLevel)
 563:hardware/mcu/st/stm32wlxx_hal_driver/Inc/stm32wlxx_ll_pwr.h **** {
 564:hardware/mcu/st/stm32wlxx_hal_driver/Inc/stm32wlxx_ll_pwr.h ****   MODIFY_REG(PWR->CR2, PWR_CR2_PLS, PVDLevel);
 565:hardware/mcu/st/stm32wlxx_hal_driver/Inc/stm32wlxx_ll_pwr.h **** }
 566:hardware/mcu/st/stm32wlxx_hal_driver/Inc/stm32wlxx_ll_pwr.h **** 
 567:hardware/mcu/st/stm32wlxx_hal_driver/Inc/stm32wlxx_ll_pwr.h **** /**
ARM GAS  /var/folders/b4/k4jbz0ms4wg23jtq0w6p483m0000gn/T//ccaHqEcm.s 			page 20


 568:hardware/mcu/st/stm32wlxx_hal_driver/Inc/stm32wlxx_ll_pwr.h ****   * @brief  Get the voltage threshold detection
 569:hardware/mcu/st/stm32wlxx_hal_driver/Inc/stm32wlxx_ll_pwr.h ****   * @rmtoll CR2          PLS           LL_PWR_GetPVDLevel
 570:hardware/mcu/st/stm32wlxx_hal_driver/Inc/stm32wlxx_ll_pwr.h ****   * @retval Returned value can be one of the following values:
 571:hardware/mcu/st/stm32wlxx_hal_driver/Inc/stm32wlxx_ll_pwr.h ****   *         @arg @ref LL_PWR_PVDLEVEL_0
 572:hardware/mcu/st/stm32wlxx_hal_driver/Inc/stm32wlxx_ll_pwr.h ****   *         @arg @ref LL_PWR_PVDLEVEL_1
 573:hardware/mcu/st/stm32wlxx_hal_driver/Inc/stm32wlxx_ll_pwr.h ****   *         @arg @ref LL_PWR_PVDLEVEL_2
 574:hardware/mcu/st/stm32wlxx_hal_driver/Inc/stm32wlxx_ll_pwr.h ****   *         @arg @ref LL_PWR_PVDLEVEL_3
 575:hardware/mcu/st/stm32wlxx_hal_driver/Inc/stm32wlxx_ll_pwr.h ****   *         @arg @ref LL_PWR_PVDLEVEL_4
 576:hardware/mcu/st/stm32wlxx_hal_driver/Inc/stm32wlxx_ll_pwr.h ****   *         @arg @ref LL_PWR_PVDLEVEL_5
 577:hardware/mcu/st/stm32wlxx_hal_driver/Inc/stm32wlxx_ll_pwr.h ****   *         @arg @ref LL_PWR_PVDLEVEL_6
 578:hardware/mcu/st/stm32wlxx_hal_driver/Inc/stm32wlxx_ll_pwr.h ****   *         @arg @ref LL_PWR_PVDLEVEL_7
 579:hardware/mcu/st/stm32wlxx_hal_driver/Inc/stm32wlxx_ll_pwr.h ****   */
 580:hardware/mcu/st/stm32wlxx_hal_driver/Inc/stm32wlxx_ll_pwr.h **** __STATIC_INLINE uint32_t LL_PWR_GetPVDLevel(void)
 581:hardware/mcu/st/stm32wlxx_hal_driver/Inc/stm32wlxx_ll_pwr.h **** {
 582:hardware/mcu/st/stm32wlxx_hal_driver/Inc/stm32wlxx_ll_pwr.h ****   return (uint32_t)(READ_BIT(PWR->CR2, PWR_CR2_PLS));
 583:hardware/mcu/st/stm32wlxx_hal_driver/Inc/stm32wlxx_ll_pwr.h **** }
 584:hardware/mcu/st/stm32wlxx_hal_driver/Inc/stm32wlxx_ll_pwr.h **** 
 585:hardware/mcu/st/stm32wlxx_hal_driver/Inc/stm32wlxx_ll_pwr.h **** /**
 586:hardware/mcu/st/stm32wlxx_hal_driver/Inc/stm32wlxx_ll_pwr.h ****   * @brief  Enable Power Voltage Detector
 587:hardware/mcu/st/stm32wlxx_hal_driver/Inc/stm32wlxx_ll_pwr.h ****   * @rmtoll CR2          PVDE          LL_PWR_EnablePVD
 588:hardware/mcu/st/stm32wlxx_hal_driver/Inc/stm32wlxx_ll_pwr.h ****   * @retval None
 589:hardware/mcu/st/stm32wlxx_hal_driver/Inc/stm32wlxx_ll_pwr.h ****   */
 590:hardware/mcu/st/stm32wlxx_hal_driver/Inc/stm32wlxx_ll_pwr.h **** __STATIC_INLINE void LL_PWR_EnablePVD(void)
 591:hardware/mcu/st/stm32wlxx_hal_driver/Inc/stm32wlxx_ll_pwr.h **** {
 592:hardware/mcu/st/stm32wlxx_hal_driver/Inc/stm32wlxx_ll_pwr.h ****   SET_BIT(PWR->CR2, PWR_CR2_PVDE);
 593:hardware/mcu/st/stm32wlxx_hal_driver/Inc/stm32wlxx_ll_pwr.h **** }
 594:hardware/mcu/st/stm32wlxx_hal_driver/Inc/stm32wlxx_ll_pwr.h **** 
 595:hardware/mcu/st/stm32wlxx_hal_driver/Inc/stm32wlxx_ll_pwr.h **** /**
 596:hardware/mcu/st/stm32wlxx_hal_driver/Inc/stm32wlxx_ll_pwr.h ****   * @brief  Disable Power Voltage Detector
 597:hardware/mcu/st/stm32wlxx_hal_driver/Inc/stm32wlxx_ll_pwr.h ****   * @rmtoll CR2          PVDE          LL_PWR_DisablePVD
 598:hardware/mcu/st/stm32wlxx_hal_driver/Inc/stm32wlxx_ll_pwr.h ****   * @retval None
 599:hardware/mcu/st/stm32wlxx_hal_driver/Inc/stm32wlxx_ll_pwr.h ****   */
 600:hardware/mcu/st/stm32wlxx_hal_driver/Inc/stm32wlxx_ll_pwr.h **** __STATIC_INLINE void LL_PWR_DisablePVD(void)
 601:hardware/mcu/st/stm32wlxx_hal_driver/Inc/stm32wlxx_ll_pwr.h **** {
 602:hardware/mcu/st/stm32wlxx_hal_driver/Inc/stm32wlxx_ll_pwr.h ****   CLEAR_BIT(PWR->CR2, PWR_CR2_PVDE);
 603:hardware/mcu/st/stm32wlxx_hal_driver/Inc/stm32wlxx_ll_pwr.h **** }
 604:hardware/mcu/st/stm32wlxx_hal_driver/Inc/stm32wlxx_ll_pwr.h **** 
 605:hardware/mcu/st/stm32wlxx_hal_driver/Inc/stm32wlxx_ll_pwr.h **** /**
 606:hardware/mcu/st/stm32wlxx_hal_driver/Inc/stm32wlxx_ll_pwr.h ****   * @brief  Check if Power Voltage Detector is enabled
 607:hardware/mcu/st/stm32wlxx_hal_driver/Inc/stm32wlxx_ll_pwr.h ****   * @rmtoll CR2          PVDE          LL_PWR_IsEnabledPVD
 608:hardware/mcu/st/stm32wlxx_hal_driver/Inc/stm32wlxx_ll_pwr.h ****   * @retval State of bit (1 or 0).
 609:hardware/mcu/st/stm32wlxx_hal_driver/Inc/stm32wlxx_ll_pwr.h ****   */
 610:hardware/mcu/st/stm32wlxx_hal_driver/Inc/stm32wlxx_ll_pwr.h **** __STATIC_INLINE uint32_t LL_PWR_IsEnabledPVD(void)
 611:hardware/mcu/st/stm32wlxx_hal_driver/Inc/stm32wlxx_ll_pwr.h **** {
 612:hardware/mcu/st/stm32wlxx_hal_driver/Inc/stm32wlxx_ll_pwr.h ****   return ((READ_BIT(PWR->CR2, PWR_CR2_PVDE) == (PWR_CR2_PVDE)) ? 1UL : 0UL);
 613:hardware/mcu/st/stm32wlxx_hal_driver/Inc/stm32wlxx_ll_pwr.h **** }
 614:hardware/mcu/st/stm32wlxx_hal_driver/Inc/stm32wlxx_ll_pwr.h **** 
 615:hardware/mcu/st/stm32wlxx_hal_driver/Inc/stm32wlxx_ll_pwr.h **** /**
 616:hardware/mcu/st/stm32wlxx_hal_driver/Inc/stm32wlxx_ll_pwr.h ****   * @brief  Set monitoring of supply voltage for radio operating level
 617:hardware/mcu/st/stm32wlxx_hal_driver/Inc/stm32wlxx_ll_pwr.h ****   *         (radio End Of Life), radio must be in active mode.
 618:hardware/mcu/st/stm32wlxx_hal_driver/Inc/stm32wlxx_ll_pwr.h ****   * @rmtoll CR5          RFEOLEN       LL_PWR_SetRadioEOL
 619:hardware/mcu/st/stm32wlxx_hal_driver/Inc/stm32wlxx_ll_pwr.h ****   * @param  RadioEOL This parameter can be one of the following values:
 620:hardware/mcu/st/stm32wlxx_hal_driver/Inc/stm32wlxx_ll_pwr.h ****   *         @arg @ref LL_PWR_RADIO_EOL_DISABLE
 621:hardware/mcu/st/stm32wlxx_hal_driver/Inc/stm32wlxx_ll_pwr.h ****   *         @arg @ref LL_PWR_RADIO_EOL_ENABLE
 622:hardware/mcu/st/stm32wlxx_hal_driver/Inc/stm32wlxx_ll_pwr.h ****   * @retval None
 623:hardware/mcu/st/stm32wlxx_hal_driver/Inc/stm32wlxx_ll_pwr.h ****   */
 624:hardware/mcu/st/stm32wlxx_hal_driver/Inc/stm32wlxx_ll_pwr.h **** __STATIC_INLINE void LL_PWR_SetRadioEOL(uint32_t RadioEOL)
ARM GAS  /var/folders/b4/k4jbz0ms4wg23jtq0w6p483m0000gn/T//ccaHqEcm.s 			page 21


 625:hardware/mcu/st/stm32wlxx_hal_driver/Inc/stm32wlxx_ll_pwr.h **** {
 626:hardware/mcu/st/stm32wlxx_hal_driver/Inc/stm32wlxx_ll_pwr.h ****   MODIFY_REG(PWR->CR5, PWR_CR5_RFEOLEN, RadioEOL);
 627:hardware/mcu/st/stm32wlxx_hal_driver/Inc/stm32wlxx_ll_pwr.h **** }
 628:hardware/mcu/st/stm32wlxx_hal_driver/Inc/stm32wlxx_ll_pwr.h **** 
 629:hardware/mcu/st/stm32wlxx_hal_driver/Inc/stm32wlxx_ll_pwr.h **** /**
 630:hardware/mcu/st/stm32wlxx_hal_driver/Inc/stm32wlxx_ll_pwr.h ****   * @brief  Get monitoring of supply voltage for radio operating level (radio End Of Life)
 631:hardware/mcu/st/stm32wlxx_hal_driver/Inc/stm32wlxx_ll_pwr.h ****   * @rmtoll CR5          RFEOLEN       LL_PWR_GetRadioEOL
 632:hardware/mcu/st/stm32wlxx_hal_driver/Inc/stm32wlxx_ll_pwr.h ****   * @retval Returned value can be one of the following values:
 633:hardware/mcu/st/stm32wlxx_hal_driver/Inc/stm32wlxx_ll_pwr.h ****   *         @arg @ref LL_PWR_RADIO_EOL_DISABLE
 634:hardware/mcu/st/stm32wlxx_hal_driver/Inc/stm32wlxx_ll_pwr.h ****   *         @arg @ref LL_PWR_RADIO_EOL_ENABLE
 635:hardware/mcu/st/stm32wlxx_hal_driver/Inc/stm32wlxx_ll_pwr.h ****   */
 636:hardware/mcu/st/stm32wlxx_hal_driver/Inc/stm32wlxx_ll_pwr.h **** __STATIC_INLINE uint32_t LL_PWR_GetRadioEOL(void)
 637:hardware/mcu/st/stm32wlxx_hal_driver/Inc/stm32wlxx_ll_pwr.h **** {
 638:hardware/mcu/st/stm32wlxx_hal_driver/Inc/stm32wlxx_ll_pwr.h ****   return (uint32_t)(READ_BIT(PWR->CR5, PWR_CR5_RFEOLEN));
 639:hardware/mcu/st/stm32wlxx_hal_driver/Inc/stm32wlxx_ll_pwr.h **** }
 640:hardware/mcu/st/stm32wlxx_hal_driver/Inc/stm32wlxx_ll_pwr.h **** 
 641:hardware/mcu/st/stm32wlxx_hal_driver/Inc/stm32wlxx_ll_pwr.h **** /**
 642:hardware/mcu/st/stm32wlxx_hal_driver/Inc/stm32wlxx_ll_pwr.h ****   * @brief  Enable Internal Wake-up line
 643:hardware/mcu/st/stm32wlxx_hal_driver/Inc/stm32wlxx_ll_pwr.h ****   * @rmtoll CR3          EIWF          LL_PWR_EnableInternWU
 644:hardware/mcu/st/stm32wlxx_hal_driver/Inc/stm32wlxx_ll_pwr.h ****   * @retval None
 645:hardware/mcu/st/stm32wlxx_hal_driver/Inc/stm32wlxx_ll_pwr.h ****   */
 646:hardware/mcu/st/stm32wlxx_hal_driver/Inc/stm32wlxx_ll_pwr.h **** __STATIC_INLINE void LL_PWR_EnableInternWU(void)
 647:hardware/mcu/st/stm32wlxx_hal_driver/Inc/stm32wlxx_ll_pwr.h **** {
 648:hardware/mcu/st/stm32wlxx_hal_driver/Inc/stm32wlxx_ll_pwr.h ****   SET_BIT(PWR->CR3, PWR_CR3_EIWUL);
 649:hardware/mcu/st/stm32wlxx_hal_driver/Inc/stm32wlxx_ll_pwr.h **** }
 650:hardware/mcu/st/stm32wlxx_hal_driver/Inc/stm32wlxx_ll_pwr.h **** 
 651:hardware/mcu/st/stm32wlxx_hal_driver/Inc/stm32wlxx_ll_pwr.h **** /**
 652:hardware/mcu/st/stm32wlxx_hal_driver/Inc/stm32wlxx_ll_pwr.h ****   * @brief  Disable Internal Wake-up line
 653:hardware/mcu/st/stm32wlxx_hal_driver/Inc/stm32wlxx_ll_pwr.h ****   * @rmtoll CR3          EIWF          LL_PWR_DisableInternWU
 654:hardware/mcu/st/stm32wlxx_hal_driver/Inc/stm32wlxx_ll_pwr.h ****   * @retval None
 655:hardware/mcu/st/stm32wlxx_hal_driver/Inc/stm32wlxx_ll_pwr.h ****   */
 656:hardware/mcu/st/stm32wlxx_hal_driver/Inc/stm32wlxx_ll_pwr.h **** __STATIC_INLINE void LL_PWR_DisableInternWU(void)
 657:hardware/mcu/st/stm32wlxx_hal_driver/Inc/stm32wlxx_ll_pwr.h **** {
 658:hardware/mcu/st/stm32wlxx_hal_driver/Inc/stm32wlxx_ll_pwr.h ****   CLEAR_BIT(PWR->CR3, PWR_CR3_EIWUL);
 659:hardware/mcu/st/stm32wlxx_hal_driver/Inc/stm32wlxx_ll_pwr.h **** }
 660:hardware/mcu/st/stm32wlxx_hal_driver/Inc/stm32wlxx_ll_pwr.h **** 
 661:hardware/mcu/st/stm32wlxx_hal_driver/Inc/stm32wlxx_ll_pwr.h **** /**
 662:hardware/mcu/st/stm32wlxx_hal_driver/Inc/stm32wlxx_ll_pwr.h ****   * @brief  Check if Internal Wake-up line is enabled
 663:hardware/mcu/st/stm32wlxx_hal_driver/Inc/stm32wlxx_ll_pwr.h ****   * @rmtoll CR3          EIWF          LL_PWR_IsEnabledInternWU
 664:hardware/mcu/st/stm32wlxx_hal_driver/Inc/stm32wlxx_ll_pwr.h ****   * @retval State of bit (1 or 0).
 665:hardware/mcu/st/stm32wlxx_hal_driver/Inc/stm32wlxx_ll_pwr.h ****   */
 666:hardware/mcu/st/stm32wlxx_hal_driver/Inc/stm32wlxx_ll_pwr.h **** __STATIC_INLINE uint32_t LL_PWR_IsEnabledInternWU(void)
 667:hardware/mcu/st/stm32wlxx_hal_driver/Inc/stm32wlxx_ll_pwr.h **** {
 668:hardware/mcu/st/stm32wlxx_hal_driver/Inc/stm32wlxx_ll_pwr.h ****   return ((READ_BIT(PWR->CR3, PWR_CR3_EIWUL) == (PWR_CR3_EIWUL)) ? 1UL : 0UL);
 669:hardware/mcu/st/stm32wlxx_hal_driver/Inc/stm32wlxx_ll_pwr.h **** }
 670:hardware/mcu/st/stm32wlxx_hal_driver/Inc/stm32wlxx_ll_pwr.h **** 
 671:hardware/mcu/st/stm32wlxx_hal_driver/Inc/stm32wlxx_ll_pwr.h **** /**
 672:hardware/mcu/st/stm32wlxx_hal_driver/Inc/stm32wlxx_ll_pwr.h ****   * @brief  Enable pull-up and pull-down configuration
 673:hardware/mcu/st/stm32wlxx_hal_driver/Inc/stm32wlxx_ll_pwr.h ****   * @rmtoll CR3          APC           LL_PWR_EnablePUPDCfg
 674:hardware/mcu/st/stm32wlxx_hal_driver/Inc/stm32wlxx_ll_pwr.h ****   * @retval None
 675:hardware/mcu/st/stm32wlxx_hal_driver/Inc/stm32wlxx_ll_pwr.h ****   */
 676:hardware/mcu/st/stm32wlxx_hal_driver/Inc/stm32wlxx_ll_pwr.h **** __STATIC_INLINE void LL_PWR_EnablePUPDCfg(void)
 677:hardware/mcu/st/stm32wlxx_hal_driver/Inc/stm32wlxx_ll_pwr.h **** {
 678:hardware/mcu/st/stm32wlxx_hal_driver/Inc/stm32wlxx_ll_pwr.h ****   SET_BIT(PWR->CR3, PWR_CR3_APC);
 679:hardware/mcu/st/stm32wlxx_hal_driver/Inc/stm32wlxx_ll_pwr.h **** }
 680:hardware/mcu/st/stm32wlxx_hal_driver/Inc/stm32wlxx_ll_pwr.h **** 
 681:hardware/mcu/st/stm32wlxx_hal_driver/Inc/stm32wlxx_ll_pwr.h **** /**
ARM GAS  /var/folders/b4/k4jbz0ms4wg23jtq0w6p483m0000gn/T//ccaHqEcm.s 			page 22


 682:hardware/mcu/st/stm32wlxx_hal_driver/Inc/stm32wlxx_ll_pwr.h ****   * @brief  Disable pull-up and pull-down configuration
 683:hardware/mcu/st/stm32wlxx_hal_driver/Inc/stm32wlxx_ll_pwr.h ****   * @rmtoll CR3          APC           LL_PWR_DisablePUPDCfg
 684:hardware/mcu/st/stm32wlxx_hal_driver/Inc/stm32wlxx_ll_pwr.h ****   * @retval None
 685:hardware/mcu/st/stm32wlxx_hal_driver/Inc/stm32wlxx_ll_pwr.h ****   */
 686:hardware/mcu/st/stm32wlxx_hal_driver/Inc/stm32wlxx_ll_pwr.h **** __STATIC_INLINE void LL_PWR_DisablePUPDCfg(void)
 687:hardware/mcu/st/stm32wlxx_hal_driver/Inc/stm32wlxx_ll_pwr.h **** {
 688:hardware/mcu/st/stm32wlxx_hal_driver/Inc/stm32wlxx_ll_pwr.h ****   CLEAR_BIT(PWR->CR3, PWR_CR3_APC);
 689:hardware/mcu/st/stm32wlxx_hal_driver/Inc/stm32wlxx_ll_pwr.h **** }
 690:hardware/mcu/st/stm32wlxx_hal_driver/Inc/stm32wlxx_ll_pwr.h **** 
 691:hardware/mcu/st/stm32wlxx_hal_driver/Inc/stm32wlxx_ll_pwr.h **** /**
 692:hardware/mcu/st/stm32wlxx_hal_driver/Inc/stm32wlxx_ll_pwr.h ****   * @brief  Check if pull-up and pull-down configuration is enabled
 693:hardware/mcu/st/stm32wlxx_hal_driver/Inc/stm32wlxx_ll_pwr.h ****   * @rmtoll CR3          APC           LL_PWR_IsEnabledPUPDCfg
 694:hardware/mcu/st/stm32wlxx_hal_driver/Inc/stm32wlxx_ll_pwr.h ****   * @retval State of bit (1 or 0).
 695:hardware/mcu/st/stm32wlxx_hal_driver/Inc/stm32wlxx_ll_pwr.h ****   */
 696:hardware/mcu/st/stm32wlxx_hal_driver/Inc/stm32wlxx_ll_pwr.h **** __STATIC_INLINE uint32_t LL_PWR_IsEnabledPUPDCfg(void)
 697:hardware/mcu/st/stm32wlxx_hal_driver/Inc/stm32wlxx_ll_pwr.h **** {
 698:hardware/mcu/st/stm32wlxx_hal_driver/Inc/stm32wlxx_ll_pwr.h ****   return ((READ_BIT(PWR->CR3, PWR_CR3_APC) == (PWR_CR3_APC)) ? 1UL : 0UL);
 699:hardware/mcu/st/stm32wlxx_hal_driver/Inc/stm32wlxx_ll_pwr.h **** }
 700:hardware/mcu/st/stm32wlxx_hal_driver/Inc/stm32wlxx_ll_pwr.h **** 
 701:hardware/mcu/st/stm32wlxx_hal_driver/Inc/stm32wlxx_ll_pwr.h **** /**
 702:hardware/mcu/st/stm32wlxx_hal_driver/Inc/stm32wlxx_ll_pwr.h ****   * @brief  Enable SRAM2 content retention in Standby mode
 703:hardware/mcu/st/stm32wlxx_hal_driver/Inc/stm32wlxx_ll_pwr.h ****   * @rmtoll CR3          RRS           LL_PWR_EnableSRAM2Retention
 704:hardware/mcu/st/stm32wlxx_hal_driver/Inc/stm32wlxx_ll_pwr.h ****   * @retval None
 705:hardware/mcu/st/stm32wlxx_hal_driver/Inc/stm32wlxx_ll_pwr.h ****   */
 706:hardware/mcu/st/stm32wlxx_hal_driver/Inc/stm32wlxx_ll_pwr.h **** __STATIC_INLINE void LL_PWR_EnableSRAM2Retention(void)
 707:hardware/mcu/st/stm32wlxx_hal_driver/Inc/stm32wlxx_ll_pwr.h **** {
 708:hardware/mcu/st/stm32wlxx_hal_driver/Inc/stm32wlxx_ll_pwr.h ****   SET_BIT(PWR->CR3, PWR_CR3_RRS);
 709:hardware/mcu/st/stm32wlxx_hal_driver/Inc/stm32wlxx_ll_pwr.h **** }
 710:hardware/mcu/st/stm32wlxx_hal_driver/Inc/stm32wlxx_ll_pwr.h **** 
 711:hardware/mcu/st/stm32wlxx_hal_driver/Inc/stm32wlxx_ll_pwr.h **** /**
 712:hardware/mcu/st/stm32wlxx_hal_driver/Inc/stm32wlxx_ll_pwr.h ****   * @brief  Disable SRAM2 content retention in Standby mode
 713:hardware/mcu/st/stm32wlxx_hal_driver/Inc/stm32wlxx_ll_pwr.h ****   * @rmtoll CR3          RRS           LL_PWR_DisableSRAM2Retention
 714:hardware/mcu/st/stm32wlxx_hal_driver/Inc/stm32wlxx_ll_pwr.h ****   * @retval None
 715:hardware/mcu/st/stm32wlxx_hal_driver/Inc/stm32wlxx_ll_pwr.h ****   */
 716:hardware/mcu/st/stm32wlxx_hal_driver/Inc/stm32wlxx_ll_pwr.h **** __STATIC_INLINE void LL_PWR_DisableSRAM2Retention(void)
 717:hardware/mcu/st/stm32wlxx_hal_driver/Inc/stm32wlxx_ll_pwr.h **** {
 718:hardware/mcu/st/stm32wlxx_hal_driver/Inc/stm32wlxx_ll_pwr.h ****   CLEAR_BIT(PWR->CR3, PWR_CR3_RRS);
 719:hardware/mcu/st/stm32wlxx_hal_driver/Inc/stm32wlxx_ll_pwr.h **** }
 720:hardware/mcu/st/stm32wlxx_hal_driver/Inc/stm32wlxx_ll_pwr.h **** 
 721:hardware/mcu/st/stm32wlxx_hal_driver/Inc/stm32wlxx_ll_pwr.h **** /**
 722:hardware/mcu/st/stm32wlxx_hal_driver/Inc/stm32wlxx_ll_pwr.h ****   * @brief  Check if SRAM2 content retention in Standby mode is enabled
 723:hardware/mcu/st/stm32wlxx_hal_driver/Inc/stm32wlxx_ll_pwr.h ****   * @rmtoll CR3          RRS           LL_PWR_IsEnabledSRAM2Retention
 724:hardware/mcu/st/stm32wlxx_hal_driver/Inc/stm32wlxx_ll_pwr.h ****   * @retval State of bit (1 or 0).
 725:hardware/mcu/st/stm32wlxx_hal_driver/Inc/stm32wlxx_ll_pwr.h ****   */
 726:hardware/mcu/st/stm32wlxx_hal_driver/Inc/stm32wlxx_ll_pwr.h **** __STATIC_INLINE uint32_t LL_PWR_IsEnabledSRAM2Retention(void)
 727:hardware/mcu/st/stm32wlxx_hal_driver/Inc/stm32wlxx_ll_pwr.h **** {
 728:hardware/mcu/st/stm32wlxx_hal_driver/Inc/stm32wlxx_ll_pwr.h ****   return ((READ_BIT(PWR->CR3, PWR_CR3_RRS) == (PWR_CR3_RRS)) ? 1UL : 0UL);
 729:hardware/mcu/st/stm32wlxx_hal_driver/Inc/stm32wlxx_ll_pwr.h **** }
 730:hardware/mcu/st/stm32wlxx_hal_driver/Inc/stm32wlxx_ll_pwr.h **** 
 731:hardware/mcu/st/stm32wlxx_hal_driver/Inc/stm32wlxx_ll_pwr.h **** /**
 732:hardware/mcu/st/stm32wlxx_hal_driver/Inc/stm32wlxx_ll_pwr.h ****   * @brief  Enable wake-up power voltage detection with trigger for CPU1
 733:hardware/mcu/st/stm32wlxx_hal_driver/Inc/stm32wlxx_ll_pwr.h ****   * @note   Wake-up power voltage detection status can be checked
 734:hardware/mcu/st/stm32wlxx_hal_driver/Inc/stm32wlxx_ll_pwr.h ****   *         using function @ref LL_PWR_IsActiveFlag_WPVD().
 735:hardware/mcu/st/stm32wlxx_hal_driver/Inc/stm32wlxx_ll_pwr.h ****   * @rmtoll CR3          EWPVD         LL_PWR_EnableWPVD
 736:hardware/mcu/st/stm32wlxx_hal_driver/Inc/stm32wlxx_ll_pwr.h ****   * @retval None
 737:hardware/mcu/st/stm32wlxx_hal_driver/Inc/stm32wlxx_ll_pwr.h ****   */
 738:hardware/mcu/st/stm32wlxx_hal_driver/Inc/stm32wlxx_ll_pwr.h **** __STATIC_INLINE void LL_PWR_EnableWPVD(void)
ARM GAS  /var/folders/b4/k4jbz0ms4wg23jtq0w6p483m0000gn/T//ccaHqEcm.s 			page 23


 739:hardware/mcu/st/stm32wlxx_hal_driver/Inc/stm32wlxx_ll_pwr.h **** {
 740:hardware/mcu/st/stm32wlxx_hal_driver/Inc/stm32wlxx_ll_pwr.h ****   SET_BIT(PWR->CR3, PWR_CR3_EWPVD);
 741:hardware/mcu/st/stm32wlxx_hal_driver/Inc/stm32wlxx_ll_pwr.h **** }
 742:hardware/mcu/st/stm32wlxx_hal_driver/Inc/stm32wlxx_ll_pwr.h **** 
 743:hardware/mcu/st/stm32wlxx_hal_driver/Inc/stm32wlxx_ll_pwr.h **** /**
 744:hardware/mcu/st/stm32wlxx_hal_driver/Inc/stm32wlxx_ll_pwr.h ****   * @brief  Disable wake-up power voltage detection with trigger for CPU1
 745:hardware/mcu/st/stm32wlxx_hal_driver/Inc/stm32wlxx_ll_pwr.h ****   * @rmtoll CR3          EWPVD         LL_PWR_DisableWPVD
 746:hardware/mcu/st/stm32wlxx_hal_driver/Inc/stm32wlxx_ll_pwr.h ****   * @retval None
 747:hardware/mcu/st/stm32wlxx_hal_driver/Inc/stm32wlxx_ll_pwr.h ****   */
 748:hardware/mcu/st/stm32wlxx_hal_driver/Inc/stm32wlxx_ll_pwr.h **** __STATIC_INLINE void LL_PWR_DisableWPVD(void)
 749:hardware/mcu/st/stm32wlxx_hal_driver/Inc/stm32wlxx_ll_pwr.h **** {
 750:hardware/mcu/st/stm32wlxx_hal_driver/Inc/stm32wlxx_ll_pwr.h ****   CLEAR_BIT(PWR->CR3, PWR_CR3_EWPVD);
 751:hardware/mcu/st/stm32wlxx_hal_driver/Inc/stm32wlxx_ll_pwr.h **** }
 752:hardware/mcu/st/stm32wlxx_hal_driver/Inc/stm32wlxx_ll_pwr.h **** 
 753:hardware/mcu/st/stm32wlxx_hal_driver/Inc/stm32wlxx_ll_pwr.h **** /**
 754:hardware/mcu/st/stm32wlxx_hal_driver/Inc/stm32wlxx_ll_pwr.h ****   * @brief  Check if wake-up power voltage detection is enabled with trigger for CPU1
 755:hardware/mcu/st/stm32wlxx_hal_driver/Inc/stm32wlxx_ll_pwr.h ****   * @rmtoll CR3          EWPVD         LL_PWR_IsEnabledWPVD
 756:hardware/mcu/st/stm32wlxx_hal_driver/Inc/stm32wlxx_ll_pwr.h ****   * @retval State of bit (1 or 0).
 757:hardware/mcu/st/stm32wlxx_hal_driver/Inc/stm32wlxx_ll_pwr.h ****   */
 758:hardware/mcu/st/stm32wlxx_hal_driver/Inc/stm32wlxx_ll_pwr.h **** __STATIC_INLINE uint32_t LL_PWR_IsEnabledWPVD(void)
 759:hardware/mcu/st/stm32wlxx_hal_driver/Inc/stm32wlxx_ll_pwr.h **** {
 760:hardware/mcu/st/stm32wlxx_hal_driver/Inc/stm32wlxx_ll_pwr.h ****   return ((READ_BIT(PWR->CR3, PWR_CR3_EWPVD) == (PWR_CR3_EWPVD)) ? 1UL : 0UL);
 761:hardware/mcu/st/stm32wlxx_hal_driver/Inc/stm32wlxx_ll_pwr.h **** }
 762:hardware/mcu/st/stm32wlxx_hal_driver/Inc/stm32wlxx_ll_pwr.h **** 
 763:hardware/mcu/st/stm32wlxx_hal_driver/Inc/stm32wlxx_ll_pwr.h **** /**
 764:hardware/mcu/st/stm32wlxx_hal_driver/Inc/stm32wlxx_ll_pwr.h ****   * @brief  Enable periodical sampling of supply voltage in Stop and Standby
 765:hardware/mcu/st/stm32wlxx_hal_driver/Inc/stm32wlxx_ll_pwr.h ****   *         modes for detecting condition of PDR and BOR reset.
 766:hardware/mcu/st/stm32wlxx_hal_driver/Inc/stm32wlxx_ll_pwr.h ****   * @note   Caution: When enabled, and if the supply voltage drops below
 767:hardware/mcu/st/stm32wlxx_hal_driver/Inc/stm32wlxx_ll_pwr.h ****   *         the minimum operating condition between two supply voltage samples,
 768:hardware/mcu/st/stm32wlxx_hal_driver/Inc/stm32wlxx_ll_pwr.h ****   *         the reset condition is missed and no reset is generated.
 769:hardware/mcu/st/stm32wlxx_hal_driver/Inc/stm32wlxx_ll_pwr.h ****   * @rmtoll CR3          ULPEN         LL_PWR_EnableBORPVD_ULP
 770:hardware/mcu/st/stm32wlxx_hal_driver/Inc/stm32wlxx_ll_pwr.h ****   * @retval None
 771:hardware/mcu/st/stm32wlxx_hal_driver/Inc/stm32wlxx_ll_pwr.h ****   */
 772:hardware/mcu/st/stm32wlxx_hal_driver/Inc/stm32wlxx_ll_pwr.h **** __STATIC_INLINE void LL_PWR_EnableBORPVD_ULP(void)
 773:hardware/mcu/st/stm32wlxx_hal_driver/Inc/stm32wlxx_ll_pwr.h **** {
 774:hardware/mcu/st/stm32wlxx_hal_driver/Inc/stm32wlxx_ll_pwr.h ****   SET_BIT(PWR->CR3, PWR_CR3_ULPEN);
 775:hardware/mcu/st/stm32wlxx_hal_driver/Inc/stm32wlxx_ll_pwr.h **** }
 776:hardware/mcu/st/stm32wlxx_hal_driver/Inc/stm32wlxx_ll_pwr.h **** 
 777:hardware/mcu/st/stm32wlxx_hal_driver/Inc/stm32wlxx_ll_pwr.h **** /**
 778:hardware/mcu/st/stm32wlxx_hal_driver/Inc/stm32wlxx_ll_pwr.h ****   * @brief  Disable periodical sampling of supply voltage in Stop and Standby
 779:hardware/mcu/st/stm32wlxx_hal_driver/Inc/stm32wlxx_ll_pwr.h ****   *         modes for detecting condition of PDR and BOR reset.
 780:hardware/mcu/st/stm32wlxx_hal_driver/Inc/stm32wlxx_ll_pwr.h ****   * @rmtoll CR3          ULPEN         LL_PWR_DisableBORPVD_ULP
 781:hardware/mcu/st/stm32wlxx_hal_driver/Inc/stm32wlxx_ll_pwr.h ****   * @retval None
 782:hardware/mcu/st/stm32wlxx_hal_driver/Inc/stm32wlxx_ll_pwr.h ****   */
 783:hardware/mcu/st/stm32wlxx_hal_driver/Inc/stm32wlxx_ll_pwr.h **** __STATIC_INLINE void LL_PWR_DisableBORPVD_ULP(void)
 784:hardware/mcu/st/stm32wlxx_hal_driver/Inc/stm32wlxx_ll_pwr.h **** {
 785:hardware/mcu/st/stm32wlxx_hal_driver/Inc/stm32wlxx_ll_pwr.h ****   CLEAR_BIT(PWR->CR3, PWR_CR3_ULPEN);
 786:hardware/mcu/st/stm32wlxx_hal_driver/Inc/stm32wlxx_ll_pwr.h **** }
 787:hardware/mcu/st/stm32wlxx_hal_driver/Inc/stm32wlxx_ll_pwr.h **** 
 788:hardware/mcu/st/stm32wlxx_hal_driver/Inc/stm32wlxx_ll_pwr.h **** /**
 789:hardware/mcu/st/stm32wlxx_hal_driver/Inc/stm32wlxx_ll_pwr.h ****   * @brief  Check if periodical sampling of supply voltage in Stop and Standby
 790:hardware/mcu/st/stm32wlxx_hal_driver/Inc/stm32wlxx_ll_pwr.h ****   *         modes is enabled.
 791:hardware/mcu/st/stm32wlxx_hal_driver/Inc/stm32wlxx_ll_pwr.h ****   * @rmtoll CR3          ULPEN         LL_PWR_IsEnabledBORPVD_ULP
 792:hardware/mcu/st/stm32wlxx_hal_driver/Inc/stm32wlxx_ll_pwr.h ****   * @retval State of bit (1 or 0).
 793:hardware/mcu/st/stm32wlxx_hal_driver/Inc/stm32wlxx_ll_pwr.h ****   */
 794:hardware/mcu/st/stm32wlxx_hal_driver/Inc/stm32wlxx_ll_pwr.h **** __STATIC_INLINE uint32_t LL_PWR_IsEnabledBORPVD_ULP(void)
 795:hardware/mcu/st/stm32wlxx_hal_driver/Inc/stm32wlxx_ll_pwr.h **** {
ARM GAS  /var/folders/b4/k4jbz0ms4wg23jtq0w6p483m0000gn/T//ccaHqEcm.s 			page 24


 796:hardware/mcu/st/stm32wlxx_hal_driver/Inc/stm32wlxx_ll_pwr.h ****   return ((READ_BIT(PWR->CR3, PWR_CR3_ULPEN) == (PWR_CR3_ULPEN)) ? 1UL : 0UL);
 797:hardware/mcu/st/stm32wlxx_hal_driver/Inc/stm32wlxx_ll_pwr.h **** }
 798:hardware/mcu/st/stm32wlxx_hal_driver/Inc/stm32wlxx_ll_pwr.h **** 
 799:hardware/mcu/st/stm32wlxx_hal_driver/Inc/stm32wlxx_ll_pwr.h **** /**
 800:hardware/mcu/st/stm32wlxx_hal_driver/Inc/stm32wlxx_ll_pwr.h ****   * @brief  Enable the WakeUp PINx functionality
 801:hardware/mcu/st/stm32wlxx_hal_driver/Inc/stm32wlxx_ll_pwr.h ****   * @rmtoll CR3          EWUP1         LL_PWR_EnableWakeUpPin\n
 802:hardware/mcu/st/stm32wlxx_hal_driver/Inc/stm32wlxx_ll_pwr.h ****   *         CR3          EWUP2         LL_PWR_EnableWakeUpPin\n
 803:hardware/mcu/st/stm32wlxx_hal_driver/Inc/stm32wlxx_ll_pwr.h ****   *         CR3          EWUP3         LL_PWR_EnableWakeUpPin
 804:hardware/mcu/st/stm32wlxx_hal_driver/Inc/stm32wlxx_ll_pwr.h ****   * @param  WakeUpPin This parameter can be one of the following values:
 805:hardware/mcu/st/stm32wlxx_hal_driver/Inc/stm32wlxx_ll_pwr.h ****   *         @arg @ref LL_PWR_WAKEUP_PIN1
 806:hardware/mcu/st/stm32wlxx_hal_driver/Inc/stm32wlxx_ll_pwr.h ****   *         @arg @ref LL_PWR_WAKEUP_PIN2
 807:hardware/mcu/st/stm32wlxx_hal_driver/Inc/stm32wlxx_ll_pwr.h ****   *         @arg @ref LL_PWR_WAKEUP_PIN3
 808:hardware/mcu/st/stm32wlxx_hal_driver/Inc/stm32wlxx_ll_pwr.h ****   * @retval None
 809:hardware/mcu/st/stm32wlxx_hal_driver/Inc/stm32wlxx_ll_pwr.h ****   */
 810:hardware/mcu/st/stm32wlxx_hal_driver/Inc/stm32wlxx_ll_pwr.h **** __STATIC_INLINE void LL_PWR_EnableWakeUpPin(uint32_t WakeUpPin)
 811:hardware/mcu/st/stm32wlxx_hal_driver/Inc/stm32wlxx_ll_pwr.h **** {
 812:hardware/mcu/st/stm32wlxx_hal_driver/Inc/stm32wlxx_ll_pwr.h ****   SET_BIT(PWR->CR3, WakeUpPin);
 813:hardware/mcu/st/stm32wlxx_hal_driver/Inc/stm32wlxx_ll_pwr.h **** }
 814:hardware/mcu/st/stm32wlxx_hal_driver/Inc/stm32wlxx_ll_pwr.h **** 
 815:hardware/mcu/st/stm32wlxx_hal_driver/Inc/stm32wlxx_ll_pwr.h **** /**
 816:hardware/mcu/st/stm32wlxx_hal_driver/Inc/stm32wlxx_ll_pwr.h ****   * @brief  Disable the WakeUp PINx functionality
 817:hardware/mcu/st/stm32wlxx_hal_driver/Inc/stm32wlxx_ll_pwr.h ****   * @rmtoll CR3          EWUP1         LL_PWR_DisableWakeUpPin\n
 818:hardware/mcu/st/stm32wlxx_hal_driver/Inc/stm32wlxx_ll_pwr.h ****   *         CR3          EWUP2         LL_PWR_DisableWakeUpPin\n
 819:hardware/mcu/st/stm32wlxx_hal_driver/Inc/stm32wlxx_ll_pwr.h ****   *         CR3          EWUP3         LL_PWR_DisableWakeUpPin
 820:hardware/mcu/st/stm32wlxx_hal_driver/Inc/stm32wlxx_ll_pwr.h ****   * @param  WakeUpPin This parameter can be one of the following values:
 821:hardware/mcu/st/stm32wlxx_hal_driver/Inc/stm32wlxx_ll_pwr.h ****   *         @arg @ref LL_PWR_WAKEUP_PIN1
 822:hardware/mcu/st/stm32wlxx_hal_driver/Inc/stm32wlxx_ll_pwr.h ****   *         @arg @ref LL_PWR_WAKEUP_PIN2
 823:hardware/mcu/st/stm32wlxx_hal_driver/Inc/stm32wlxx_ll_pwr.h ****   *         @arg @ref LL_PWR_WAKEUP_PIN3
 824:hardware/mcu/st/stm32wlxx_hal_driver/Inc/stm32wlxx_ll_pwr.h ****   * @retval None
 825:hardware/mcu/st/stm32wlxx_hal_driver/Inc/stm32wlxx_ll_pwr.h ****   */
 826:hardware/mcu/st/stm32wlxx_hal_driver/Inc/stm32wlxx_ll_pwr.h **** __STATIC_INLINE void LL_PWR_DisableWakeUpPin(uint32_t WakeUpPin)
 827:hardware/mcu/st/stm32wlxx_hal_driver/Inc/stm32wlxx_ll_pwr.h **** {
 828:hardware/mcu/st/stm32wlxx_hal_driver/Inc/stm32wlxx_ll_pwr.h ****   CLEAR_BIT(PWR->CR3, WakeUpPin);
 829:hardware/mcu/st/stm32wlxx_hal_driver/Inc/stm32wlxx_ll_pwr.h **** }
 830:hardware/mcu/st/stm32wlxx_hal_driver/Inc/stm32wlxx_ll_pwr.h **** 
 831:hardware/mcu/st/stm32wlxx_hal_driver/Inc/stm32wlxx_ll_pwr.h **** /**
 832:hardware/mcu/st/stm32wlxx_hal_driver/Inc/stm32wlxx_ll_pwr.h ****   * @brief  Check if the WakeUp PINx functionality is enabled
 833:hardware/mcu/st/stm32wlxx_hal_driver/Inc/stm32wlxx_ll_pwr.h ****   * @rmtoll CR3          EWUP1         LL_PWR_IsEnabledWakeUpPin\n
 834:hardware/mcu/st/stm32wlxx_hal_driver/Inc/stm32wlxx_ll_pwr.h ****   *         CR3          EWUP2         LL_PWR_IsEnabledWakeUpPin\n
 835:hardware/mcu/st/stm32wlxx_hal_driver/Inc/stm32wlxx_ll_pwr.h ****   *         CR3          EWUP3         LL_PWR_IsEnabledWakeUpPin
 836:hardware/mcu/st/stm32wlxx_hal_driver/Inc/stm32wlxx_ll_pwr.h ****   * @param  WakeUpPin This parameter can be one of the following values:
 837:hardware/mcu/st/stm32wlxx_hal_driver/Inc/stm32wlxx_ll_pwr.h ****   *         @arg @ref LL_PWR_WAKEUP_PIN1
 838:hardware/mcu/st/stm32wlxx_hal_driver/Inc/stm32wlxx_ll_pwr.h ****   *         @arg @ref LL_PWR_WAKEUP_PIN2
 839:hardware/mcu/st/stm32wlxx_hal_driver/Inc/stm32wlxx_ll_pwr.h ****   *         @arg @ref LL_PWR_WAKEUP_PIN3
 840:hardware/mcu/st/stm32wlxx_hal_driver/Inc/stm32wlxx_ll_pwr.h ****   * @retval State of bit (1 or 0).
 841:hardware/mcu/st/stm32wlxx_hal_driver/Inc/stm32wlxx_ll_pwr.h ****   */
 842:hardware/mcu/st/stm32wlxx_hal_driver/Inc/stm32wlxx_ll_pwr.h **** __STATIC_INLINE uint32_t LL_PWR_IsEnabledWakeUpPin(uint32_t WakeUpPin)
 843:hardware/mcu/st/stm32wlxx_hal_driver/Inc/stm32wlxx_ll_pwr.h **** {
 844:hardware/mcu/st/stm32wlxx_hal_driver/Inc/stm32wlxx_ll_pwr.h ****   return ((READ_BIT(PWR->CR3, WakeUpPin) == (WakeUpPin)) ? 1UL : 0UL);
 845:hardware/mcu/st/stm32wlxx_hal_driver/Inc/stm32wlxx_ll_pwr.h **** }
 846:hardware/mcu/st/stm32wlxx_hal_driver/Inc/stm32wlxx_ll_pwr.h **** 
 847:hardware/mcu/st/stm32wlxx_hal_driver/Inc/stm32wlxx_ll_pwr.h **** /**
 848:hardware/mcu/st/stm32wlxx_hal_driver/Inc/stm32wlxx_ll_pwr.h ****   * @brief  Set the resistor impedance
 849:hardware/mcu/st/stm32wlxx_hal_driver/Inc/stm32wlxx_ll_pwr.h ****   * @rmtoll CR4          VBRS          LL_PWR_SetBattChargResistor
 850:hardware/mcu/st/stm32wlxx_hal_driver/Inc/stm32wlxx_ll_pwr.h ****   * @param  Resistor This parameter can be one of the following values:
 851:hardware/mcu/st/stm32wlxx_hal_driver/Inc/stm32wlxx_ll_pwr.h ****   *         @arg @ref LL_PWR_BATT_CHARG_RESISTOR_5K
 852:hardware/mcu/st/stm32wlxx_hal_driver/Inc/stm32wlxx_ll_pwr.h ****   *         @arg @ref LL_PWR_BATT_CHARGRESISTOR_1_5K
ARM GAS  /var/folders/b4/k4jbz0ms4wg23jtq0w6p483m0000gn/T//ccaHqEcm.s 			page 25


 853:hardware/mcu/st/stm32wlxx_hal_driver/Inc/stm32wlxx_ll_pwr.h ****   * @retval None
 854:hardware/mcu/st/stm32wlxx_hal_driver/Inc/stm32wlxx_ll_pwr.h ****   */
 855:hardware/mcu/st/stm32wlxx_hal_driver/Inc/stm32wlxx_ll_pwr.h **** __STATIC_INLINE void LL_PWR_SetBattChargResistor(uint32_t Resistor)
 856:hardware/mcu/st/stm32wlxx_hal_driver/Inc/stm32wlxx_ll_pwr.h **** {
 857:hardware/mcu/st/stm32wlxx_hal_driver/Inc/stm32wlxx_ll_pwr.h ****   MODIFY_REG(PWR->CR4, PWR_CR4_VBRS, Resistor);
 858:hardware/mcu/st/stm32wlxx_hal_driver/Inc/stm32wlxx_ll_pwr.h **** }
 859:hardware/mcu/st/stm32wlxx_hal_driver/Inc/stm32wlxx_ll_pwr.h **** 
 860:hardware/mcu/st/stm32wlxx_hal_driver/Inc/stm32wlxx_ll_pwr.h **** /**
 861:hardware/mcu/st/stm32wlxx_hal_driver/Inc/stm32wlxx_ll_pwr.h ****   * @brief  Get the resistor impedance
 862:hardware/mcu/st/stm32wlxx_hal_driver/Inc/stm32wlxx_ll_pwr.h ****   * @rmtoll CR4          VBRS          LL_PWR_GetBattChargResistor
 863:hardware/mcu/st/stm32wlxx_hal_driver/Inc/stm32wlxx_ll_pwr.h ****   * @retval Returned value can be one of the following values:
 864:hardware/mcu/st/stm32wlxx_hal_driver/Inc/stm32wlxx_ll_pwr.h ****   *         @arg @ref LL_PWR_BATT_CHARG_RESISTOR_5K
 865:hardware/mcu/st/stm32wlxx_hal_driver/Inc/stm32wlxx_ll_pwr.h ****   *         @arg @ref LL_PWR_BATT_CHARGRESISTOR_1_5K
 866:hardware/mcu/st/stm32wlxx_hal_driver/Inc/stm32wlxx_ll_pwr.h ****   */
 867:hardware/mcu/st/stm32wlxx_hal_driver/Inc/stm32wlxx_ll_pwr.h **** __STATIC_INLINE uint32_t LL_PWR_GetBattChargResistor(void)
 868:hardware/mcu/st/stm32wlxx_hal_driver/Inc/stm32wlxx_ll_pwr.h **** {
 869:hardware/mcu/st/stm32wlxx_hal_driver/Inc/stm32wlxx_ll_pwr.h ****   return (uint32_t)(READ_BIT(PWR->CR4, PWR_CR4_VBRS));
 870:hardware/mcu/st/stm32wlxx_hal_driver/Inc/stm32wlxx_ll_pwr.h **** }
 871:hardware/mcu/st/stm32wlxx_hal_driver/Inc/stm32wlxx_ll_pwr.h **** 
 872:hardware/mcu/st/stm32wlxx_hal_driver/Inc/stm32wlxx_ll_pwr.h **** /**
 873:hardware/mcu/st/stm32wlxx_hal_driver/Inc/stm32wlxx_ll_pwr.h ****   * @brief  Enable battery charging
 874:hardware/mcu/st/stm32wlxx_hal_driver/Inc/stm32wlxx_ll_pwr.h ****   * @rmtoll CR4          VBE           LL_PWR_EnableBatteryCharging
 875:hardware/mcu/st/stm32wlxx_hal_driver/Inc/stm32wlxx_ll_pwr.h ****   * @retval None
 876:hardware/mcu/st/stm32wlxx_hal_driver/Inc/stm32wlxx_ll_pwr.h ****   */
 877:hardware/mcu/st/stm32wlxx_hal_driver/Inc/stm32wlxx_ll_pwr.h **** __STATIC_INLINE void LL_PWR_EnableBatteryCharging(void)
 878:hardware/mcu/st/stm32wlxx_hal_driver/Inc/stm32wlxx_ll_pwr.h **** {
 879:hardware/mcu/st/stm32wlxx_hal_driver/Inc/stm32wlxx_ll_pwr.h ****   SET_BIT(PWR->CR4, PWR_CR4_VBE);
 880:hardware/mcu/st/stm32wlxx_hal_driver/Inc/stm32wlxx_ll_pwr.h **** }
 881:hardware/mcu/st/stm32wlxx_hal_driver/Inc/stm32wlxx_ll_pwr.h **** 
 882:hardware/mcu/st/stm32wlxx_hal_driver/Inc/stm32wlxx_ll_pwr.h **** /**
 883:hardware/mcu/st/stm32wlxx_hal_driver/Inc/stm32wlxx_ll_pwr.h ****   * @brief  Disable battery charging
 884:hardware/mcu/st/stm32wlxx_hal_driver/Inc/stm32wlxx_ll_pwr.h ****   * @rmtoll CR4          VBE           LL_PWR_DisableBatteryCharging
 885:hardware/mcu/st/stm32wlxx_hal_driver/Inc/stm32wlxx_ll_pwr.h ****   * @retval None
 886:hardware/mcu/st/stm32wlxx_hal_driver/Inc/stm32wlxx_ll_pwr.h ****   */
 887:hardware/mcu/st/stm32wlxx_hal_driver/Inc/stm32wlxx_ll_pwr.h **** __STATIC_INLINE void LL_PWR_DisableBatteryCharging(void)
 888:hardware/mcu/st/stm32wlxx_hal_driver/Inc/stm32wlxx_ll_pwr.h **** {
 889:hardware/mcu/st/stm32wlxx_hal_driver/Inc/stm32wlxx_ll_pwr.h ****   CLEAR_BIT(PWR->CR4, PWR_CR4_VBE);
 890:hardware/mcu/st/stm32wlxx_hal_driver/Inc/stm32wlxx_ll_pwr.h **** }
 891:hardware/mcu/st/stm32wlxx_hal_driver/Inc/stm32wlxx_ll_pwr.h **** 
 892:hardware/mcu/st/stm32wlxx_hal_driver/Inc/stm32wlxx_ll_pwr.h **** /**
 893:hardware/mcu/st/stm32wlxx_hal_driver/Inc/stm32wlxx_ll_pwr.h ****   * @brief  Check if battery charging is enabled
 894:hardware/mcu/st/stm32wlxx_hal_driver/Inc/stm32wlxx_ll_pwr.h ****   * @rmtoll CR4          VBE           LL_PWR_IsEnabledBatteryCharging
 895:hardware/mcu/st/stm32wlxx_hal_driver/Inc/stm32wlxx_ll_pwr.h ****   * @retval State of bit (1 or 0).
 896:hardware/mcu/st/stm32wlxx_hal_driver/Inc/stm32wlxx_ll_pwr.h ****   */
 897:hardware/mcu/st/stm32wlxx_hal_driver/Inc/stm32wlxx_ll_pwr.h **** __STATIC_INLINE uint32_t LL_PWR_IsEnabledBatteryCharging(void)
 898:hardware/mcu/st/stm32wlxx_hal_driver/Inc/stm32wlxx_ll_pwr.h **** {
 899:hardware/mcu/st/stm32wlxx_hal_driver/Inc/stm32wlxx_ll_pwr.h ****   return ((READ_BIT(PWR->CR4, PWR_CR4_VBE) == (PWR_CR4_VBE)) ? 1UL : 0UL);
 900:hardware/mcu/st/stm32wlxx_hal_driver/Inc/stm32wlxx_ll_pwr.h **** }
 901:hardware/mcu/st/stm32wlxx_hal_driver/Inc/stm32wlxx_ll_pwr.h **** 
 902:hardware/mcu/st/stm32wlxx_hal_driver/Inc/stm32wlxx_ll_pwr.h **** /**
 903:hardware/mcu/st/stm32wlxx_hal_driver/Inc/stm32wlxx_ll_pwr.h ****   * @brief  Set the Wake-Up pin polarity low for the event detection
 904:hardware/mcu/st/stm32wlxx_hal_driver/Inc/stm32wlxx_ll_pwr.h ****   * @rmtoll CR4          WP1           LL_PWR_SetWakeUpPinPolarityLow\n
 905:hardware/mcu/st/stm32wlxx_hal_driver/Inc/stm32wlxx_ll_pwr.h ****   *         CR4          WP2           LL_PWR_SetWakeUpPinPolarityLow\n
 906:hardware/mcu/st/stm32wlxx_hal_driver/Inc/stm32wlxx_ll_pwr.h ****   *         CR4          WP3           LL_PWR_SetWakeUpPinPolarityLow
 907:hardware/mcu/st/stm32wlxx_hal_driver/Inc/stm32wlxx_ll_pwr.h ****   * @param  WakeUpPin This parameter can be one of the following values:
 908:hardware/mcu/st/stm32wlxx_hal_driver/Inc/stm32wlxx_ll_pwr.h ****   *         @arg @ref LL_PWR_WAKEUP_PIN1
 909:hardware/mcu/st/stm32wlxx_hal_driver/Inc/stm32wlxx_ll_pwr.h ****   *         @arg @ref LL_PWR_WAKEUP_PIN2
ARM GAS  /var/folders/b4/k4jbz0ms4wg23jtq0w6p483m0000gn/T//ccaHqEcm.s 			page 26


 910:hardware/mcu/st/stm32wlxx_hal_driver/Inc/stm32wlxx_ll_pwr.h ****   *         @arg @ref LL_PWR_WAKEUP_PIN3
 911:hardware/mcu/st/stm32wlxx_hal_driver/Inc/stm32wlxx_ll_pwr.h ****   * @retval None
 912:hardware/mcu/st/stm32wlxx_hal_driver/Inc/stm32wlxx_ll_pwr.h ****   */
 913:hardware/mcu/st/stm32wlxx_hal_driver/Inc/stm32wlxx_ll_pwr.h **** __STATIC_INLINE void LL_PWR_SetWakeUpPinPolarityLow(uint32_t WakeUpPin)
 914:hardware/mcu/st/stm32wlxx_hal_driver/Inc/stm32wlxx_ll_pwr.h **** {
 915:hardware/mcu/st/stm32wlxx_hal_driver/Inc/stm32wlxx_ll_pwr.h ****   SET_BIT(PWR->CR4, WakeUpPin);
 916:hardware/mcu/st/stm32wlxx_hal_driver/Inc/stm32wlxx_ll_pwr.h **** }
 917:hardware/mcu/st/stm32wlxx_hal_driver/Inc/stm32wlxx_ll_pwr.h **** 
 918:hardware/mcu/st/stm32wlxx_hal_driver/Inc/stm32wlxx_ll_pwr.h **** /**
 919:hardware/mcu/st/stm32wlxx_hal_driver/Inc/stm32wlxx_ll_pwr.h ****   * @brief  Set the Wake-Up pin polarity high for the event detection
 920:hardware/mcu/st/stm32wlxx_hal_driver/Inc/stm32wlxx_ll_pwr.h ****   * @rmtoll CR4          WP1           LL_PWR_SetWakeUpPinPolarityHigh\n
 921:hardware/mcu/st/stm32wlxx_hal_driver/Inc/stm32wlxx_ll_pwr.h ****   *         CR4          WP2           LL_PWR_SetWakeUpPinPolarityHigh\n
 922:hardware/mcu/st/stm32wlxx_hal_driver/Inc/stm32wlxx_ll_pwr.h ****   *         CR4          WP3           LL_PWR_SetWakeUpPinPolarityHigh
 923:hardware/mcu/st/stm32wlxx_hal_driver/Inc/stm32wlxx_ll_pwr.h ****   * @param  WakeUpPin This parameter can be one of the following values:
 924:hardware/mcu/st/stm32wlxx_hal_driver/Inc/stm32wlxx_ll_pwr.h ****   *         @arg @ref LL_PWR_WAKEUP_PIN1
 925:hardware/mcu/st/stm32wlxx_hal_driver/Inc/stm32wlxx_ll_pwr.h ****   *         @arg @ref LL_PWR_WAKEUP_PIN2
 926:hardware/mcu/st/stm32wlxx_hal_driver/Inc/stm32wlxx_ll_pwr.h ****   *         @arg @ref LL_PWR_WAKEUP_PIN3
 927:hardware/mcu/st/stm32wlxx_hal_driver/Inc/stm32wlxx_ll_pwr.h ****   * @retval None
 928:hardware/mcu/st/stm32wlxx_hal_driver/Inc/stm32wlxx_ll_pwr.h ****   */
 929:hardware/mcu/st/stm32wlxx_hal_driver/Inc/stm32wlxx_ll_pwr.h **** __STATIC_INLINE void LL_PWR_SetWakeUpPinPolarityHigh(uint32_t WakeUpPin)
 930:hardware/mcu/st/stm32wlxx_hal_driver/Inc/stm32wlxx_ll_pwr.h **** {
 931:hardware/mcu/st/stm32wlxx_hal_driver/Inc/stm32wlxx_ll_pwr.h ****   CLEAR_BIT(PWR->CR4, WakeUpPin);
 932:hardware/mcu/st/stm32wlxx_hal_driver/Inc/stm32wlxx_ll_pwr.h **** }
 933:hardware/mcu/st/stm32wlxx_hal_driver/Inc/stm32wlxx_ll_pwr.h **** 
 934:hardware/mcu/st/stm32wlxx_hal_driver/Inc/stm32wlxx_ll_pwr.h **** /**
 935:hardware/mcu/st/stm32wlxx_hal_driver/Inc/stm32wlxx_ll_pwr.h ****   * @brief  Get the Wake-Up pin polarity for the event detection
 936:hardware/mcu/st/stm32wlxx_hal_driver/Inc/stm32wlxx_ll_pwr.h ****   * @rmtoll CR4          WP1           LL_PWR_IsWakeUpPinPolarityLow\n
 937:hardware/mcu/st/stm32wlxx_hal_driver/Inc/stm32wlxx_ll_pwr.h ****   *         CR4          WP2           LL_PWR_IsWakeUpPinPolarityLow\n
 938:hardware/mcu/st/stm32wlxx_hal_driver/Inc/stm32wlxx_ll_pwr.h ****   *         CR4          WP3           LL_PWR_IsWakeUpPinPolarityLow
 939:hardware/mcu/st/stm32wlxx_hal_driver/Inc/stm32wlxx_ll_pwr.h ****   * @param  WakeUpPin This parameter can be one of the following values:
 940:hardware/mcu/st/stm32wlxx_hal_driver/Inc/stm32wlxx_ll_pwr.h ****   *         @arg @ref LL_PWR_WAKEUP_PIN1
 941:hardware/mcu/st/stm32wlxx_hal_driver/Inc/stm32wlxx_ll_pwr.h ****   *         @arg @ref LL_PWR_WAKEUP_PIN2
 942:hardware/mcu/st/stm32wlxx_hal_driver/Inc/stm32wlxx_ll_pwr.h ****   *         @arg @ref LL_PWR_WAKEUP_PIN3
 943:hardware/mcu/st/stm32wlxx_hal_driver/Inc/stm32wlxx_ll_pwr.h ****   * @retval State of bit (1 or 0).
 944:hardware/mcu/st/stm32wlxx_hal_driver/Inc/stm32wlxx_ll_pwr.h ****   */
 945:hardware/mcu/st/stm32wlxx_hal_driver/Inc/stm32wlxx_ll_pwr.h **** __STATIC_INLINE uint32_t LL_PWR_IsWakeUpPinPolarityLow(uint32_t WakeUpPin)
 946:hardware/mcu/st/stm32wlxx_hal_driver/Inc/stm32wlxx_ll_pwr.h **** {
 947:hardware/mcu/st/stm32wlxx_hal_driver/Inc/stm32wlxx_ll_pwr.h ****   return ((READ_BIT(PWR->CR4, WakeUpPin) == (WakeUpPin)) ? 1UL : 0UL);
 948:hardware/mcu/st/stm32wlxx_hal_driver/Inc/stm32wlxx_ll_pwr.h **** }
 949:hardware/mcu/st/stm32wlxx_hal_driver/Inc/stm32wlxx_ll_pwr.h **** 
 950:hardware/mcu/st/stm32wlxx_hal_driver/Inc/stm32wlxx_ll_pwr.h **** /**
 951:hardware/mcu/st/stm32wlxx_hal_driver/Inc/stm32wlxx_ll_pwr.h ****   * @brief  Enable GPIO pull-up state in Standby and Shutdown modes
 952:hardware/mcu/st/stm32wlxx_hal_driver/Inc/stm32wlxx_ll_pwr.h ****   * @note   Some pins are not configurable for pulling in Standby and Shutdown
 953:hardware/mcu/st/stm32wlxx_hal_driver/Inc/stm32wlxx_ll_pwr.h ****   *         modes. Refer to reference manual for available pins and ports.
 954:hardware/mcu/st/stm32wlxx_hal_driver/Inc/stm32wlxx_ll_pwr.h ****   * @rmtoll PUCRA        PU0-15        LL_PWR_EnableGPIOPullUp\n
 955:hardware/mcu/st/stm32wlxx_hal_driver/Inc/stm32wlxx_ll_pwr.h ****   *         PUCRB        PU0-15        LL_PWR_EnableGPIOPullUp\n
 956:hardware/mcu/st/stm32wlxx_hal_driver/Inc/stm32wlxx_ll_pwr.h ****   *         PUCRC        PU0-15        LL_PWR_EnableGPIOPullUp\n
 957:hardware/mcu/st/stm32wlxx_hal_driver/Inc/stm32wlxx_ll_pwr.h ****   *         PUCRH        PU0-15        LL_PWR_EnableGPIOPullUp
 958:hardware/mcu/st/stm32wlxx_hal_driver/Inc/stm32wlxx_ll_pwr.h ****   * @param  GPIO This parameter can be one of the following values:
 959:hardware/mcu/st/stm32wlxx_hal_driver/Inc/stm32wlxx_ll_pwr.h ****   *         @arg @ref LL_PWR_GPIO_A
 960:hardware/mcu/st/stm32wlxx_hal_driver/Inc/stm32wlxx_ll_pwr.h ****   *         @arg @ref LL_PWR_GPIO_B
 961:hardware/mcu/st/stm32wlxx_hal_driver/Inc/stm32wlxx_ll_pwr.h ****   *         @arg @ref LL_PWR_GPIO_C
 962:hardware/mcu/st/stm32wlxx_hal_driver/Inc/stm32wlxx_ll_pwr.h ****   *         @arg @ref LL_PWR_GPIO_H
 963:hardware/mcu/st/stm32wlxx_hal_driver/Inc/stm32wlxx_ll_pwr.h ****   * @param  GPIONumber This parameter can be one of the following values:
 964:hardware/mcu/st/stm32wlxx_hal_driver/Inc/stm32wlxx_ll_pwr.h ****   *         @arg @ref LL_PWR_GPIO_BIT_0
 965:hardware/mcu/st/stm32wlxx_hal_driver/Inc/stm32wlxx_ll_pwr.h ****   *         @arg @ref LL_PWR_GPIO_BIT_1
 966:hardware/mcu/st/stm32wlxx_hal_driver/Inc/stm32wlxx_ll_pwr.h ****   *         @arg @ref LL_PWR_GPIO_BIT_2
ARM GAS  /var/folders/b4/k4jbz0ms4wg23jtq0w6p483m0000gn/T//ccaHqEcm.s 			page 27


 967:hardware/mcu/st/stm32wlxx_hal_driver/Inc/stm32wlxx_ll_pwr.h ****   *         @arg @ref LL_PWR_GPIO_BIT_3
 968:hardware/mcu/st/stm32wlxx_hal_driver/Inc/stm32wlxx_ll_pwr.h ****   *         @arg @ref LL_PWR_GPIO_BIT_4
 969:hardware/mcu/st/stm32wlxx_hal_driver/Inc/stm32wlxx_ll_pwr.h ****   *         @arg @ref LL_PWR_GPIO_BIT_5
 970:hardware/mcu/st/stm32wlxx_hal_driver/Inc/stm32wlxx_ll_pwr.h ****   *         @arg @ref LL_PWR_GPIO_BIT_6
 971:hardware/mcu/st/stm32wlxx_hal_driver/Inc/stm32wlxx_ll_pwr.h ****   *         @arg @ref LL_PWR_GPIO_BIT_7
 972:hardware/mcu/st/stm32wlxx_hal_driver/Inc/stm32wlxx_ll_pwr.h ****   *         @arg @ref LL_PWR_GPIO_BIT_8
 973:hardware/mcu/st/stm32wlxx_hal_driver/Inc/stm32wlxx_ll_pwr.h ****   *         @arg @ref LL_PWR_GPIO_BIT_9
 974:hardware/mcu/st/stm32wlxx_hal_driver/Inc/stm32wlxx_ll_pwr.h ****   *         @arg @ref LL_PWR_GPIO_BIT_10
 975:hardware/mcu/st/stm32wlxx_hal_driver/Inc/stm32wlxx_ll_pwr.h ****   *         @arg @ref LL_PWR_GPIO_BIT_11
 976:hardware/mcu/st/stm32wlxx_hal_driver/Inc/stm32wlxx_ll_pwr.h ****   *         @arg @ref LL_PWR_GPIO_BIT_12
 977:hardware/mcu/st/stm32wlxx_hal_driver/Inc/stm32wlxx_ll_pwr.h ****   *         @arg @ref LL_PWR_GPIO_BIT_13
 978:hardware/mcu/st/stm32wlxx_hal_driver/Inc/stm32wlxx_ll_pwr.h ****   *         @arg @ref LL_PWR_GPIO_BIT_14
 979:hardware/mcu/st/stm32wlxx_hal_driver/Inc/stm32wlxx_ll_pwr.h ****   *         @arg @ref LL_PWR_GPIO_BIT_15
 980:hardware/mcu/st/stm32wlxx_hal_driver/Inc/stm32wlxx_ll_pwr.h ****   * @retval None
 981:hardware/mcu/st/stm32wlxx_hal_driver/Inc/stm32wlxx_ll_pwr.h ****   */
 982:hardware/mcu/st/stm32wlxx_hal_driver/Inc/stm32wlxx_ll_pwr.h **** __STATIC_INLINE void LL_PWR_EnableGPIOPullUp(uint32_t GPIO, uint32_t GPIONumber)
 983:hardware/mcu/st/stm32wlxx_hal_driver/Inc/stm32wlxx_ll_pwr.h **** {
 984:hardware/mcu/st/stm32wlxx_hal_driver/Inc/stm32wlxx_ll_pwr.h ****   SET_BIT(*((__IO uint32_t *)GPIO), GPIONumber);
 985:hardware/mcu/st/stm32wlxx_hal_driver/Inc/stm32wlxx_ll_pwr.h **** }
 986:hardware/mcu/st/stm32wlxx_hal_driver/Inc/stm32wlxx_ll_pwr.h **** 
 987:hardware/mcu/st/stm32wlxx_hal_driver/Inc/stm32wlxx_ll_pwr.h **** /**
 988:hardware/mcu/st/stm32wlxx_hal_driver/Inc/stm32wlxx_ll_pwr.h ****   * @brief  Disable GPIO pull-up state in Standby and Shutdown modes
 989:hardware/mcu/st/stm32wlxx_hal_driver/Inc/stm32wlxx_ll_pwr.h ****   * @note   Some pins are not configurable for pulling in Standby and Shutdown
 990:hardware/mcu/st/stm32wlxx_hal_driver/Inc/stm32wlxx_ll_pwr.h ****   *         modes. Refer to reference manual for available pins and ports.
 991:hardware/mcu/st/stm32wlxx_hal_driver/Inc/stm32wlxx_ll_pwr.h ****   * @rmtoll PUCRA        PU0-15        LL_PWR_DisableGPIOPullUp\n
 992:hardware/mcu/st/stm32wlxx_hal_driver/Inc/stm32wlxx_ll_pwr.h ****   *         PUCRB        PU0-15        LL_PWR_DisableGPIOPullUp\n
 993:hardware/mcu/st/stm32wlxx_hal_driver/Inc/stm32wlxx_ll_pwr.h ****   *         PUCRC        PU0-15        LL_PWR_DisableGPIOPullUp\n
 994:hardware/mcu/st/stm32wlxx_hal_driver/Inc/stm32wlxx_ll_pwr.h ****   *         PUCRH        PU0-15        LL_PWR_DisableGPIOPullUp
 995:hardware/mcu/st/stm32wlxx_hal_driver/Inc/stm32wlxx_ll_pwr.h ****   * @param  GPIO This parameter can be one of the following values:
 996:hardware/mcu/st/stm32wlxx_hal_driver/Inc/stm32wlxx_ll_pwr.h ****   *         @arg @ref LL_PWR_GPIO_A
 997:hardware/mcu/st/stm32wlxx_hal_driver/Inc/stm32wlxx_ll_pwr.h ****   *         @arg @ref LL_PWR_GPIO_B
 998:hardware/mcu/st/stm32wlxx_hal_driver/Inc/stm32wlxx_ll_pwr.h ****   *         @arg @ref LL_PWR_GPIO_C
 999:hardware/mcu/st/stm32wlxx_hal_driver/Inc/stm32wlxx_ll_pwr.h ****   *         @arg @ref LL_PWR_GPIO_H
1000:hardware/mcu/st/stm32wlxx_hal_driver/Inc/stm32wlxx_ll_pwr.h ****   * @param  GPIONumber This parameter can be one of the following values:
1001:hardware/mcu/st/stm32wlxx_hal_driver/Inc/stm32wlxx_ll_pwr.h ****   *         @arg @ref LL_PWR_GPIO_BIT_0
1002:hardware/mcu/st/stm32wlxx_hal_driver/Inc/stm32wlxx_ll_pwr.h ****   *         @arg @ref LL_PWR_GPIO_BIT_1
1003:hardware/mcu/st/stm32wlxx_hal_driver/Inc/stm32wlxx_ll_pwr.h ****   *         @arg @ref LL_PWR_GPIO_BIT_2
1004:hardware/mcu/st/stm32wlxx_hal_driver/Inc/stm32wlxx_ll_pwr.h ****   *         @arg @ref LL_PWR_GPIO_BIT_3
1005:hardware/mcu/st/stm32wlxx_hal_driver/Inc/stm32wlxx_ll_pwr.h ****   *         @arg @ref LL_PWR_GPIO_BIT_4
1006:hardware/mcu/st/stm32wlxx_hal_driver/Inc/stm32wlxx_ll_pwr.h ****   *         @arg @ref LL_PWR_GPIO_BIT_5
1007:hardware/mcu/st/stm32wlxx_hal_driver/Inc/stm32wlxx_ll_pwr.h ****   *         @arg @ref LL_PWR_GPIO_BIT_6
1008:hardware/mcu/st/stm32wlxx_hal_driver/Inc/stm32wlxx_ll_pwr.h ****   *         @arg @ref LL_PWR_GPIO_BIT_7
1009:hardware/mcu/st/stm32wlxx_hal_driver/Inc/stm32wlxx_ll_pwr.h ****   *         @arg @ref LL_PWR_GPIO_BIT_8
1010:hardware/mcu/st/stm32wlxx_hal_driver/Inc/stm32wlxx_ll_pwr.h ****   *         @arg @ref LL_PWR_GPIO_BIT_9
1011:hardware/mcu/st/stm32wlxx_hal_driver/Inc/stm32wlxx_ll_pwr.h ****   *         @arg @ref LL_PWR_GPIO_BIT_10
1012:hardware/mcu/st/stm32wlxx_hal_driver/Inc/stm32wlxx_ll_pwr.h ****   *         @arg @ref LL_PWR_GPIO_BIT_11
1013:hardware/mcu/st/stm32wlxx_hal_driver/Inc/stm32wlxx_ll_pwr.h ****   *         @arg @ref LL_PWR_GPIO_BIT_12
1014:hardware/mcu/st/stm32wlxx_hal_driver/Inc/stm32wlxx_ll_pwr.h ****   *         @arg @ref LL_PWR_GPIO_BIT_13
1015:hardware/mcu/st/stm32wlxx_hal_driver/Inc/stm32wlxx_ll_pwr.h ****   *         @arg @ref LL_PWR_GPIO_BIT_14
1016:hardware/mcu/st/stm32wlxx_hal_driver/Inc/stm32wlxx_ll_pwr.h ****   *         @arg @ref LL_PWR_GPIO_BIT_15
1017:hardware/mcu/st/stm32wlxx_hal_driver/Inc/stm32wlxx_ll_pwr.h ****   * @retval None
1018:hardware/mcu/st/stm32wlxx_hal_driver/Inc/stm32wlxx_ll_pwr.h ****   */
1019:hardware/mcu/st/stm32wlxx_hal_driver/Inc/stm32wlxx_ll_pwr.h **** __STATIC_INLINE void LL_PWR_DisableGPIOPullUp(uint32_t GPIO, uint32_t GPIONumber)
1020:hardware/mcu/st/stm32wlxx_hal_driver/Inc/stm32wlxx_ll_pwr.h **** {
1021:hardware/mcu/st/stm32wlxx_hal_driver/Inc/stm32wlxx_ll_pwr.h ****   CLEAR_BIT(*((__IO uint32_t *)GPIO), GPIONumber);
1022:hardware/mcu/st/stm32wlxx_hal_driver/Inc/stm32wlxx_ll_pwr.h **** }
1023:hardware/mcu/st/stm32wlxx_hal_driver/Inc/stm32wlxx_ll_pwr.h **** 
ARM GAS  /var/folders/b4/k4jbz0ms4wg23jtq0w6p483m0000gn/T//ccaHqEcm.s 			page 28


1024:hardware/mcu/st/stm32wlxx_hal_driver/Inc/stm32wlxx_ll_pwr.h **** /**
1025:hardware/mcu/st/stm32wlxx_hal_driver/Inc/stm32wlxx_ll_pwr.h ****   * @brief  Check if GPIO pull-up state is enabled
1026:hardware/mcu/st/stm32wlxx_hal_driver/Inc/stm32wlxx_ll_pwr.h ****   * @rmtoll PUCRA        PU0-15        LL_PWR_IsEnabledGPIOPullUp\n
1027:hardware/mcu/st/stm32wlxx_hal_driver/Inc/stm32wlxx_ll_pwr.h ****   *         PUCRB        PU0-15        LL_PWR_IsEnabledGPIOPullUp\n
1028:hardware/mcu/st/stm32wlxx_hal_driver/Inc/stm32wlxx_ll_pwr.h ****   *         PUCRC        PU0-15        LL_PWR_IsEnabledGPIOPullUp\n
1029:hardware/mcu/st/stm32wlxx_hal_driver/Inc/stm32wlxx_ll_pwr.h ****   *         PUCRH        PU0-15        LL_PWR_IsEnabledGPIOPullUp
1030:hardware/mcu/st/stm32wlxx_hal_driver/Inc/stm32wlxx_ll_pwr.h ****   * @param  GPIO This parameter can be one of the following values:
1031:hardware/mcu/st/stm32wlxx_hal_driver/Inc/stm32wlxx_ll_pwr.h ****   *         @arg @ref LL_PWR_GPIO_A
1032:hardware/mcu/st/stm32wlxx_hal_driver/Inc/stm32wlxx_ll_pwr.h ****   *         @arg @ref LL_PWR_GPIO_B
1033:hardware/mcu/st/stm32wlxx_hal_driver/Inc/stm32wlxx_ll_pwr.h ****   *         @arg @ref LL_PWR_GPIO_C
1034:hardware/mcu/st/stm32wlxx_hal_driver/Inc/stm32wlxx_ll_pwr.h ****   *         @arg @ref LL_PWR_GPIO_H
1035:hardware/mcu/st/stm32wlxx_hal_driver/Inc/stm32wlxx_ll_pwr.h ****   * @param  GPIONumber This parameter can be one of the following values:
1036:hardware/mcu/st/stm32wlxx_hal_driver/Inc/stm32wlxx_ll_pwr.h ****   *         @arg @ref LL_PWR_GPIO_BIT_0
1037:hardware/mcu/st/stm32wlxx_hal_driver/Inc/stm32wlxx_ll_pwr.h ****   *         @arg @ref LL_PWR_GPIO_BIT_1
1038:hardware/mcu/st/stm32wlxx_hal_driver/Inc/stm32wlxx_ll_pwr.h ****   *         @arg @ref LL_PWR_GPIO_BIT_2
1039:hardware/mcu/st/stm32wlxx_hal_driver/Inc/stm32wlxx_ll_pwr.h ****   *         @arg @ref LL_PWR_GPIO_BIT_3
1040:hardware/mcu/st/stm32wlxx_hal_driver/Inc/stm32wlxx_ll_pwr.h ****   *         @arg @ref LL_PWR_GPIO_BIT_4
1041:hardware/mcu/st/stm32wlxx_hal_driver/Inc/stm32wlxx_ll_pwr.h ****   *         @arg @ref LL_PWR_GPIO_BIT_5
1042:hardware/mcu/st/stm32wlxx_hal_driver/Inc/stm32wlxx_ll_pwr.h ****   *         @arg @ref LL_PWR_GPIO_BIT_6
1043:hardware/mcu/st/stm32wlxx_hal_driver/Inc/stm32wlxx_ll_pwr.h ****   *         @arg @ref LL_PWR_GPIO_BIT_7
1044:hardware/mcu/st/stm32wlxx_hal_driver/Inc/stm32wlxx_ll_pwr.h ****   *         @arg @ref LL_PWR_GPIO_BIT_8
1045:hardware/mcu/st/stm32wlxx_hal_driver/Inc/stm32wlxx_ll_pwr.h ****   *         @arg @ref LL_PWR_GPIO_BIT_9
1046:hardware/mcu/st/stm32wlxx_hal_driver/Inc/stm32wlxx_ll_pwr.h ****   *         @arg @ref LL_PWR_GPIO_BIT_10
1047:hardware/mcu/st/stm32wlxx_hal_driver/Inc/stm32wlxx_ll_pwr.h ****   *         @arg @ref LL_PWR_GPIO_BIT_11
1048:hardware/mcu/st/stm32wlxx_hal_driver/Inc/stm32wlxx_ll_pwr.h ****   *         @arg @ref LL_PWR_GPIO_BIT_12
1049:hardware/mcu/st/stm32wlxx_hal_driver/Inc/stm32wlxx_ll_pwr.h ****   *         @arg @ref LL_PWR_GPIO_BIT_13
1050:hardware/mcu/st/stm32wlxx_hal_driver/Inc/stm32wlxx_ll_pwr.h ****   *         @arg @ref LL_PWR_GPIO_BIT_14
1051:hardware/mcu/st/stm32wlxx_hal_driver/Inc/stm32wlxx_ll_pwr.h ****   *         @arg @ref LL_PWR_GPIO_BIT_15
1052:hardware/mcu/st/stm32wlxx_hal_driver/Inc/stm32wlxx_ll_pwr.h ****   * @retval State of bit (1 or 0).
1053:hardware/mcu/st/stm32wlxx_hal_driver/Inc/stm32wlxx_ll_pwr.h ****   */
1054:hardware/mcu/st/stm32wlxx_hal_driver/Inc/stm32wlxx_ll_pwr.h **** __STATIC_INLINE uint32_t LL_PWR_IsEnabledGPIOPullUp(uint32_t GPIO, uint32_t GPIONumber)
1055:hardware/mcu/st/stm32wlxx_hal_driver/Inc/stm32wlxx_ll_pwr.h **** {
1056:hardware/mcu/st/stm32wlxx_hal_driver/Inc/stm32wlxx_ll_pwr.h ****   return ((READ_BIT(*((__IO uint32_t *)(GPIO)), GPIONumber) == (GPIONumber)) ? 1UL : 0UL);
1057:hardware/mcu/st/stm32wlxx_hal_driver/Inc/stm32wlxx_ll_pwr.h **** }
1058:hardware/mcu/st/stm32wlxx_hal_driver/Inc/stm32wlxx_ll_pwr.h **** 
1059:hardware/mcu/st/stm32wlxx_hal_driver/Inc/stm32wlxx_ll_pwr.h **** /**
1060:hardware/mcu/st/stm32wlxx_hal_driver/Inc/stm32wlxx_ll_pwr.h ****   * @brief  Enable GPIO pull-down state in Standby and Shutdown modes
1061:hardware/mcu/st/stm32wlxx_hal_driver/Inc/stm32wlxx_ll_pwr.h ****   * @note   Some pins are not configurable for pulling in Standby and Shutdown
1062:hardware/mcu/st/stm32wlxx_hal_driver/Inc/stm32wlxx_ll_pwr.h ****   *         modes. Refer to reference manual for available pins and ports.
1063:hardware/mcu/st/stm32wlxx_hal_driver/Inc/stm32wlxx_ll_pwr.h ****   * @rmtoll PDCRA        PD0-15        LL_PWR_EnableGPIOPullDown\n
1064:hardware/mcu/st/stm32wlxx_hal_driver/Inc/stm32wlxx_ll_pwr.h ****   *         PDCRB        PD0-15        LL_PWR_EnableGPIOPullDown\n
1065:hardware/mcu/st/stm32wlxx_hal_driver/Inc/stm32wlxx_ll_pwr.h ****   *         PDCRC        PD0-15        LL_PWR_EnableGPIOPullDown\n
1066:hardware/mcu/st/stm32wlxx_hal_driver/Inc/stm32wlxx_ll_pwr.h ****   *         PDCRH        PD0-15        LL_PWR_EnableGPIOPullDown
1067:hardware/mcu/st/stm32wlxx_hal_driver/Inc/stm32wlxx_ll_pwr.h ****   * @param  GPIO This parameter can be one of the following values:
1068:hardware/mcu/st/stm32wlxx_hal_driver/Inc/stm32wlxx_ll_pwr.h ****   *         @arg @ref LL_PWR_GPIO_A
1069:hardware/mcu/st/stm32wlxx_hal_driver/Inc/stm32wlxx_ll_pwr.h ****   *         @arg @ref LL_PWR_GPIO_B
1070:hardware/mcu/st/stm32wlxx_hal_driver/Inc/stm32wlxx_ll_pwr.h ****   *         @arg @ref LL_PWR_GPIO_C
1071:hardware/mcu/st/stm32wlxx_hal_driver/Inc/stm32wlxx_ll_pwr.h ****   *         @arg @ref LL_PWR_GPIO_H
1072:hardware/mcu/st/stm32wlxx_hal_driver/Inc/stm32wlxx_ll_pwr.h ****   * @param  GPIONumber This parameter can be one of the following values:
1073:hardware/mcu/st/stm32wlxx_hal_driver/Inc/stm32wlxx_ll_pwr.h ****   *         @arg @ref LL_PWR_GPIO_BIT_0
1074:hardware/mcu/st/stm32wlxx_hal_driver/Inc/stm32wlxx_ll_pwr.h ****   *         @arg @ref LL_PWR_GPIO_BIT_1
1075:hardware/mcu/st/stm32wlxx_hal_driver/Inc/stm32wlxx_ll_pwr.h ****   *         @arg @ref LL_PWR_GPIO_BIT_2
1076:hardware/mcu/st/stm32wlxx_hal_driver/Inc/stm32wlxx_ll_pwr.h ****   *         @arg @ref LL_PWR_GPIO_BIT_3
1077:hardware/mcu/st/stm32wlxx_hal_driver/Inc/stm32wlxx_ll_pwr.h ****   *         @arg @ref LL_PWR_GPIO_BIT_4
1078:hardware/mcu/st/stm32wlxx_hal_driver/Inc/stm32wlxx_ll_pwr.h ****   *         @arg @ref LL_PWR_GPIO_BIT_5
1079:hardware/mcu/st/stm32wlxx_hal_driver/Inc/stm32wlxx_ll_pwr.h ****   *         @arg @ref LL_PWR_GPIO_BIT_6
1080:hardware/mcu/st/stm32wlxx_hal_driver/Inc/stm32wlxx_ll_pwr.h ****   *         @arg @ref LL_PWR_GPIO_BIT_7
ARM GAS  /var/folders/b4/k4jbz0ms4wg23jtq0w6p483m0000gn/T//ccaHqEcm.s 			page 29


1081:hardware/mcu/st/stm32wlxx_hal_driver/Inc/stm32wlxx_ll_pwr.h ****   *         @arg @ref LL_PWR_GPIO_BIT_8
1082:hardware/mcu/st/stm32wlxx_hal_driver/Inc/stm32wlxx_ll_pwr.h ****   *         @arg @ref LL_PWR_GPIO_BIT_9
1083:hardware/mcu/st/stm32wlxx_hal_driver/Inc/stm32wlxx_ll_pwr.h ****   *         @arg @ref LL_PWR_GPIO_BIT_10
1084:hardware/mcu/st/stm32wlxx_hal_driver/Inc/stm32wlxx_ll_pwr.h ****   *         @arg @ref LL_PWR_GPIO_BIT_11
1085:hardware/mcu/st/stm32wlxx_hal_driver/Inc/stm32wlxx_ll_pwr.h ****   *         @arg @ref LL_PWR_GPIO_BIT_12
1086:hardware/mcu/st/stm32wlxx_hal_driver/Inc/stm32wlxx_ll_pwr.h ****   *         @arg @ref LL_PWR_GPIO_BIT_13
1087:hardware/mcu/st/stm32wlxx_hal_driver/Inc/stm32wlxx_ll_pwr.h ****   *         @arg @ref LL_PWR_GPIO_BIT_14
1088:hardware/mcu/st/stm32wlxx_hal_driver/Inc/stm32wlxx_ll_pwr.h ****   *         @arg @ref LL_PWR_GPIO_BIT_15
1089:hardware/mcu/st/stm32wlxx_hal_driver/Inc/stm32wlxx_ll_pwr.h ****   * @retval None
1090:hardware/mcu/st/stm32wlxx_hal_driver/Inc/stm32wlxx_ll_pwr.h ****   */
1091:hardware/mcu/st/stm32wlxx_hal_driver/Inc/stm32wlxx_ll_pwr.h **** __STATIC_INLINE void LL_PWR_EnableGPIOPullDown(uint32_t GPIO, uint32_t GPIONumber)
1092:hardware/mcu/st/stm32wlxx_hal_driver/Inc/stm32wlxx_ll_pwr.h **** {
1093:hardware/mcu/st/stm32wlxx_hal_driver/Inc/stm32wlxx_ll_pwr.h ****   SET_BIT(*((__IO uint32_t *)(GPIO + 4U)), GPIONumber);
1094:hardware/mcu/st/stm32wlxx_hal_driver/Inc/stm32wlxx_ll_pwr.h **** }
1095:hardware/mcu/st/stm32wlxx_hal_driver/Inc/stm32wlxx_ll_pwr.h **** 
1096:hardware/mcu/st/stm32wlxx_hal_driver/Inc/stm32wlxx_ll_pwr.h **** /**
1097:hardware/mcu/st/stm32wlxx_hal_driver/Inc/stm32wlxx_ll_pwr.h ****   * @brief  Disable GPIO pull-down state in Standby and Shutdown modes
1098:hardware/mcu/st/stm32wlxx_hal_driver/Inc/stm32wlxx_ll_pwr.h ****   * @note   Some pins are not configurable for pulling in Standby and Shutdown
1099:hardware/mcu/st/stm32wlxx_hal_driver/Inc/stm32wlxx_ll_pwr.h ****   *         modes. Refer to reference manual for available pins and ports.
1100:hardware/mcu/st/stm32wlxx_hal_driver/Inc/stm32wlxx_ll_pwr.h ****   * @rmtoll PDCRA        PD0-15        LL_PWR_DisableGPIOPullDown\n
1101:hardware/mcu/st/stm32wlxx_hal_driver/Inc/stm32wlxx_ll_pwr.h ****   *         PDCRB        PD0-15        LL_PWR_DisableGPIOPullDown\n
1102:hardware/mcu/st/stm32wlxx_hal_driver/Inc/stm32wlxx_ll_pwr.h ****   *         PDCRC        PD0-15        LL_PWR_DisableGPIOPullDown\n
1103:hardware/mcu/st/stm32wlxx_hal_driver/Inc/stm32wlxx_ll_pwr.h ****   *         PDCRH        PD0-15        LL_PWR_DisableGPIOPullDown
1104:hardware/mcu/st/stm32wlxx_hal_driver/Inc/stm32wlxx_ll_pwr.h ****   * @param  GPIO This parameter can be one of the following values:
1105:hardware/mcu/st/stm32wlxx_hal_driver/Inc/stm32wlxx_ll_pwr.h ****   *         @arg @ref LL_PWR_GPIO_A
1106:hardware/mcu/st/stm32wlxx_hal_driver/Inc/stm32wlxx_ll_pwr.h ****   *         @arg @ref LL_PWR_GPIO_B
1107:hardware/mcu/st/stm32wlxx_hal_driver/Inc/stm32wlxx_ll_pwr.h ****   *         @arg @ref LL_PWR_GPIO_C
1108:hardware/mcu/st/stm32wlxx_hal_driver/Inc/stm32wlxx_ll_pwr.h ****   *         @arg @ref LL_PWR_GPIO_H
1109:hardware/mcu/st/stm32wlxx_hal_driver/Inc/stm32wlxx_ll_pwr.h ****   * @param  GPIONumber This parameter can be one of the following values:
1110:hardware/mcu/st/stm32wlxx_hal_driver/Inc/stm32wlxx_ll_pwr.h ****   *         @arg @ref LL_PWR_GPIO_BIT_0
1111:hardware/mcu/st/stm32wlxx_hal_driver/Inc/stm32wlxx_ll_pwr.h ****   *         @arg @ref LL_PWR_GPIO_BIT_1
1112:hardware/mcu/st/stm32wlxx_hal_driver/Inc/stm32wlxx_ll_pwr.h ****   *         @arg @ref LL_PWR_GPIO_BIT_2
1113:hardware/mcu/st/stm32wlxx_hal_driver/Inc/stm32wlxx_ll_pwr.h ****   *         @arg @ref LL_PWR_GPIO_BIT_3
1114:hardware/mcu/st/stm32wlxx_hal_driver/Inc/stm32wlxx_ll_pwr.h ****   *         @arg @ref LL_PWR_GPIO_BIT_4
1115:hardware/mcu/st/stm32wlxx_hal_driver/Inc/stm32wlxx_ll_pwr.h ****   *         @arg @ref LL_PWR_GPIO_BIT_5
1116:hardware/mcu/st/stm32wlxx_hal_driver/Inc/stm32wlxx_ll_pwr.h ****   *         @arg @ref LL_PWR_GPIO_BIT_6
1117:hardware/mcu/st/stm32wlxx_hal_driver/Inc/stm32wlxx_ll_pwr.h ****   *         @arg @ref LL_PWR_GPIO_BIT_7
1118:hardware/mcu/st/stm32wlxx_hal_driver/Inc/stm32wlxx_ll_pwr.h ****   *         @arg @ref LL_PWR_GPIO_BIT_8
1119:hardware/mcu/st/stm32wlxx_hal_driver/Inc/stm32wlxx_ll_pwr.h ****   *         @arg @ref LL_PWR_GPIO_BIT_9
1120:hardware/mcu/st/stm32wlxx_hal_driver/Inc/stm32wlxx_ll_pwr.h ****   *         @arg @ref LL_PWR_GPIO_BIT_10
1121:hardware/mcu/st/stm32wlxx_hal_driver/Inc/stm32wlxx_ll_pwr.h ****   *         @arg @ref LL_PWR_GPIO_BIT_11
1122:hardware/mcu/st/stm32wlxx_hal_driver/Inc/stm32wlxx_ll_pwr.h ****   *         @arg @ref LL_PWR_GPIO_BIT_12
1123:hardware/mcu/st/stm32wlxx_hal_driver/Inc/stm32wlxx_ll_pwr.h ****   *         @arg @ref LL_PWR_GPIO_BIT_13
1124:hardware/mcu/st/stm32wlxx_hal_driver/Inc/stm32wlxx_ll_pwr.h ****   *         @arg @ref LL_PWR_GPIO_BIT_14
1125:hardware/mcu/st/stm32wlxx_hal_driver/Inc/stm32wlxx_ll_pwr.h ****   *         @arg @ref LL_PWR_GPIO_BIT_15
1126:hardware/mcu/st/stm32wlxx_hal_driver/Inc/stm32wlxx_ll_pwr.h ****   * @retval None
1127:hardware/mcu/st/stm32wlxx_hal_driver/Inc/stm32wlxx_ll_pwr.h ****   */
1128:hardware/mcu/st/stm32wlxx_hal_driver/Inc/stm32wlxx_ll_pwr.h **** __STATIC_INLINE void LL_PWR_DisableGPIOPullDown(uint32_t GPIO, uint32_t GPIONumber)
1129:hardware/mcu/st/stm32wlxx_hal_driver/Inc/stm32wlxx_ll_pwr.h **** {
1130:hardware/mcu/st/stm32wlxx_hal_driver/Inc/stm32wlxx_ll_pwr.h ****   CLEAR_BIT(*((__IO uint32_t *)(GPIO + 4U)), GPIONumber);
1131:hardware/mcu/st/stm32wlxx_hal_driver/Inc/stm32wlxx_ll_pwr.h **** }
1132:hardware/mcu/st/stm32wlxx_hal_driver/Inc/stm32wlxx_ll_pwr.h **** 
1133:hardware/mcu/st/stm32wlxx_hal_driver/Inc/stm32wlxx_ll_pwr.h **** /**
1134:hardware/mcu/st/stm32wlxx_hal_driver/Inc/stm32wlxx_ll_pwr.h ****   * @brief  Check if GPIO pull-down state is enabled
1135:hardware/mcu/st/stm32wlxx_hal_driver/Inc/stm32wlxx_ll_pwr.h ****   * @rmtoll PDCRA        PD0-15        LL_PWR_IsEnabledGPIOPullDown\n
1136:hardware/mcu/st/stm32wlxx_hal_driver/Inc/stm32wlxx_ll_pwr.h ****   *         PDCRB        PD0-15        LL_PWR_IsEnabledGPIOPullDown\n
1137:hardware/mcu/st/stm32wlxx_hal_driver/Inc/stm32wlxx_ll_pwr.h ****   *         PDCRC        PD0-15        LL_PWR_IsEnabledGPIOPullDown\n
ARM GAS  /var/folders/b4/k4jbz0ms4wg23jtq0w6p483m0000gn/T//ccaHqEcm.s 			page 30


1138:hardware/mcu/st/stm32wlxx_hal_driver/Inc/stm32wlxx_ll_pwr.h ****   *         PDCRH        PD0-15        LL_PWR_IsEnabledGPIOPullDown
1139:hardware/mcu/st/stm32wlxx_hal_driver/Inc/stm32wlxx_ll_pwr.h ****   * @param  GPIO This parameter can be one of the following values:
1140:hardware/mcu/st/stm32wlxx_hal_driver/Inc/stm32wlxx_ll_pwr.h ****   *         @arg @ref LL_PWR_GPIO_A
1141:hardware/mcu/st/stm32wlxx_hal_driver/Inc/stm32wlxx_ll_pwr.h ****   *         @arg @ref LL_PWR_GPIO_B
1142:hardware/mcu/st/stm32wlxx_hal_driver/Inc/stm32wlxx_ll_pwr.h ****   *         @arg @ref LL_PWR_GPIO_C
1143:hardware/mcu/st/stm32wlxx_hal_driver/Inc/stm32wlxx_ll_pwr.h ****   *         @arg @ref LL_PWR_GPIO_H
1144:hardware/mcu/st/stm32wlxx_hal_driver/Inc/stm32wlxx_ll_pwr.h ****   * @param  GPIONumber This parameter can be one of the following values:
1145:hardware/mcu/st/stm32wlxx_hal_driver/Inc/stm32wlxx_ll_pwr.h ****   *         @arg @ref LL_PWR_GPIO_BIT_0
1146:hardware/mcu/st/stm32wlxx_hal_driver/Inc/stm32wlxx_ll_pwr.h ****   *         @arg @ref LL_PWR_GPIO_BIT_1
1147:hardware/mcu/st/stm32wlxx_hal_driver/Inc/stm32wlxx_ll_pwr.h ****   *         @arg @ref LL_PWR_GPIO_BIT_2
1148:hardware/mcu/st/stm32wlxx_hal_driver/Inc/stm32wlxx_ll_pwr.h ****   *         @arg @ref LL_PWR_GPIO_BIT_3
1149:hardware/mcu/st/stm32wlxx_hal_driver/Inc/stm32wlxx_ll_pwr.h ****   *         @arg @ref LL_PWR_GPIO_BIT_4
1150:hardware/mcu/st/stm32wlxx_hal_driver/Inc/stm32wlxx_ll_pwr.h ****   *         @arg @ref LL_PWR_GPIO_BIT_5
1151:hardware/mcu/st/stm32wlxx_hal_driver/Inc/stm32wlxx_ll_pwr.h ****   *         @arg @ref LL_PWR_GPIO_BIT_6
1152:hardware/mcu/st/stm32wlxx_hal_driver/Inc/stm32wlxx_ll_pwr.h ****   *         @arg @ref LL_PWR_GPIO_BIT_7
1153:hardware/mcu/st/stm32wlxx_hal_driver/Inc/stm32wlxx_ll_pwr.h ****   *         @arg @ref LL_PWR_GPIO_BIT_8
1154:hardware/mcu/st/stm32wlxx_hal_driver/Inc/stm32wlxx_ll_pwr.h ****   *         @arg @ref LL_PWR_GPIO_BIT_9
1155:hardware/mcu/st/stm32wlxx_hal_driver/Inc/stm32wlxx_ll_pwr.h ****   *         @arg @ref LL_PWR_GPIO_BIT_10
1156:hardware/mcu/st/stm32wlxx_hal_driver/Inc/stm32wlxx_ll_pwr.h ****   *         @arg @ref LL_PWR_GPIO_BIT_11
1157:hardware/mcu/st/stm32wlxx_hal_driver/Inc/stm32wlxx_ll_pwr.h ****   *         @arg @ref LL_PWR_GPIO_BIT_12
1158:hardware/mcu/st/stm32wlxx_hal_driver/Inc/stm32wlxx_ll_pwr.h ****   *         @arg @ref LL_PWR_GPIO_BIT_13
1159:hardware/mcu/st/stm32wlxx_hal_driver/Inc/stm32wlxx_ll_pwr.h ****   *         @arg @ref LL_PWR_GPIO_BIT_14
1160:hardware/mcu/st/stm32wlxx_hal_driver/Inc/stm32wlxx_ll_pwr.h ****   *         @arg @ref LL_PWR_GPIO_BIT_15
1161:hardware/mcu/st/stm32wlxx_hal_driver/Inc/stm32wlxx_ll_pwr.h ****   * @retval State of bit (1 or 0).
1162:hardware/mcu/st/stm32wlxx_hal_driver/Inc/stm32wlxx_ll_pwr.h ****   */
1163:hardware/mcu/st/stm32wlxx_hal_driver/Inc/stm32wlxx_ll_pwr.h **** __STATIC_INLINE uint32_t LL_PWR_IsEnabledGPIOPullDown(uint32_t GPIO, uint32_t GPIONumber)
1164:hardware/mcu/st/stm32wlxx_hal_driver/Inc/stm32wlxx_ll_pwr.h **** {
1165:hardware/mcu/st/stm32wlxx_hal_driver/Inc/stm32wlxx_ll_pwr.h ****   return ((READ_BIT(*((__IO uint32_t *)(GPIO + 4U)), GPIONumber) == (GPIONumber)) ? 1UL : 0UL);
1166:hardware/mcu/st/stm32wlxx_hal_driver/Inc/stm32wlxx_ll_pwr.h **** }
1167:hardware/mcu/st/stm32wlxx_hal_driver/Inc/stm32wlxx_ll_pwr.h **** 
1168:hardware/mcu/st/stm32wlxx_hal_driver/Inc/stm32wlxx_ll_pwr.h **** /**
1169:hardware/mcu/st/stm32wlxx_hal_driver/Inc/stm32wlxx_ll_pwr.h ****   * @}
1170:hardware/mcu/st/stm32wlxx_hal_driver/Inc/stm32wlxx_ll_pwr.h ****   */
1171:hardware/mcu/st/stm32wlxx_hal_driver/Inc/stm32wlxx_ll_pwr.h **** 
1172:hardware/mcu/st/stm32wlxx_hal_driver/Inc/stm32wlxx_ll_pwr.h **** /** @defgroup PWR_LL_EF_Configuration_SMPS Configuration of SMPS
1173:hardware/mcu/st/stm32wlxx_hal_driver/Inc/stm32wlxx_ll_pwr.h ****   * @{
1174:hardware/mcu/st/stm32wlxx_hal_driver/Inc/stm32wlxx_ll_pwr.h ****   */
1175:hardware/mcu/st/stm32wlxx_hal_driver/Inc/stm32wlxx_ll_pwr.h **** 
1176:hardware/mcu/st/stm32wlxx_hal_driver/Inc/stm32wlxx_ll_pwr.h **** /**
1177:hardware/mcu/st/stm32wlxx_hal_driver/Inc/stm32wlxx_ll_pwr.h ****   * @brief  Set SMPS operating mode
1178:hardware/mcu/st/stm32wlxx_hal_driver/Inc/stm32wlxx_ll_pwr.h ****   * @note   In case of a board without SMPS coil mounted, SMPS should not be activated.
1179:hardware/mcu/st/stm32wlxx_hal_driver/Inc/stm32wlxx_ll_pwr.h ****   * @rmtoll CR5          SMPSEN        LL_PWR_SMPS_SetMode
1180:hardware/mcu/st/stm32wlxx_hal_driver/Inc/stm32wlxx_ll_pwr.h ****   * @param  OperatingMode This parameter can be one of the following values:
1181:hardware/mcu/st/stm32wlxx_hal_driver/Inc/stm32wlxx_ll_pwr.h ****   *         @arg @ref LL_PWR_SMPS_BYPASS
1182:hardware/mcu/st/stm32wlxx_hal_driver/Inc/stm32wlxx_ll_pwr.h ****   *         @arg @ref LL_PWR_SMPS_STEP_DOWN
1183:hardware/mcu/st/stm32wlxx_hal_driver/Inc/stm32wlxx_ll_pwr.h ****   * @retval None
1184:hardware/mcu/st/stm32wlxx_hal_driver/Inc/stm32wlxx_ll_pwr.h ****   */
1185:hardware/mcu/st/stm32wlxx_hal_driver/Inc/stm32wlxx_ll_pwr.h **** __STATIC_INLINE void LL_PWR_SMPS_SetMode(uint32_t OperatingMode)
1186:hardware/mcu/st/stm32wlxx_hal_driver/Inc/stm32wlxx_ll_pwr.h **** {
1187:hardware/mcu/st/stm32wlxx_hal_driver/Inc/stm32wlxx_ll_pwr.h ****   MODIFY_REG(PWR->CR5, PWR_CR5_SMPSEN, OperatingMode);
1188:hardware/mcu/st/stm32wlxx_hal_driver/Inc/stm32wlxx_ll_pwr.h **** }
1189:hardware/mcu/st/stm32wlxx_hal_driver/Inc/stm32wlxx_ll_pwr.h **** 
1190:hardware/mcu/st/stm32wlxx_hal_driver/Inc/stm32wlxx_ll_pwr.h **** /**
1191:hardware/mcu/st/stm32wlxx_hal_driver/Inc/stm32wlxx_ll_pwr.h ****   * @brief  Get SMPS operating mode
1192:hardware/mcu/st/stm32wlxx_hal_driver/Inc/stm32wlxx_ll_pwr.h ****   * @rmtoll CR5          SMPSEN        LL_PWR_SMPS_GetMode
1193:hardware/mcu/st/stm32wlxx_hal_driver/Inc/stm32wlxx_ll_pwr.h ****   * @retval Returned value can be one of the following values:
1194:hardware/mcu/st/stm32wlxx_hal_driver/Inc/stm32wlxx_ll_pwr.h ****   *         @arg @ref LL_PWR_SMPS_BYPASS
ARM GAS  /var/folders/b4/k4jbz0ms4wg23jtq0w6p483m0000gn/T//ccaHqEcm.s 			page 31


1195:hardware/mcu/st/stm32wlxx_hal_driver/Inc/stm32wlxx_ll_pwr.h ****   *         @arg @ref LL_PWR_SMPS_STEP_DOWN
1196:hardware/mcu/st/stm32wlxx_hal_driver/Inc/stm32wlxx_ll_pwr.h ****   */
1197:hardware/mcu/st/stm32wlxx_hal_driver/Inc/stm32wlxx_ll_pwr.h **** __STATIC_INLINE uint32_t LL_PWR_SMPS_GetMode(void)
1198:hardware/mcu/st/stm32wlxx_hal_driver/Inc/stm32wlxx_ll_pwr.h **** {
1199:hardware/mcu/st/stm32wlxx_hal_driver/Inc/stm32wlxx_ll_pwr.h ****   return (uint32_t)(READ_BIT(PWR->CR5, PWR_CR5_SMPSEN));
1200:hardware/mcu/st/stm32wlxx_hal_driver/Inc/stm32wlxx_ll_pwr.h **** }
1201:hardware/mcu/st/stm32wlxx_hal_driver/Inc/stm32wlxx_ll_pwr.h **** 
1202:hardware/mcu/st/stm32wlxx_hal_driver/Inc/stm32wlxx_ll_pwr.h **** /**
1203:hardware/mcu/st/stm32wlxx_hal_driver/Inc/stm32wlxx_ll_pwr.h ****   * @brief  Get SMPS effective operating mode
1204:hardware/mcu/st/stm32wlxx_hal_driver/Inc/stm32wlxx_ll_pwr.h ****   * @note   SMPS operating mode can be changed by hardware, therefore
1205:hardware/mcu/st/stm32wlxx_hal_driver/Inc/stm32wlxx_ll_pwr.h ****   *         requested operating mode can differ from effective low power mode.
1206:hardware/mcu/st/stm32wlxx_hal_driver/Inc/stm32wlxx_ll_pwr.h ****   *         - dependency SubGhz Radio IP: can switch SMPS on for radio activity.
1207:hardware/mcu/st/stm32wlxx_hal_driver/Inc/stm32wlxx_ll_pwr.h ****   * @note   In case of a board without SMPS coil mounted, SMPS should not be activated
1208:hardware/mcu/st/stm32wlxx_hal_driver/Inc/stm32wlxx_ll_pwr.h ****   *         and this function is not relevant.
1209:hardware/mcu/st/stm32wlxx_hal_driver/Inc/stm32wlxx_ll_pwr.h ****   * @rmtoll SR2          SMPSRDY       LL_PWR_SMPS_GetEffectiveMode
1210:hardware/mcu/st/stm32wlxx_hal_driver/Inc/stm32wlxx_ll_pwr.h ****   * @retval Returned value can be one of the following values:
1211:hardware/mcu/st/stm32wlxx_hal_driver/Inc/stm32wlxx_ll_pwr.h ****   *         @arg @ref LL_PWR_SMPS_BYPASS
1212:hardware/mcu/st/stm32wlxx_hal_driver/Inc/stm32wlxx_ll_pwr.h ****   *         @arg @ref LL_PWR_SMPS_STEP_DOWN
1213:hardware/mcu/st/stm32wlxx_hal_driver/Inc/stm32wlxx_ll_pwr.h ****   */
1214:hardware/mcu/st/stm32wlxx_hal_driver/Inc/stm32wlxx_ll_pwr.h **** __STATIC_INLINE uint32_t LL_PWR_SMPS_GetEffectiveMode(void)
1215:hardware/mcu/st/stm32wlxx_hal_driver/Inc/stm32wlxx_ll_pwr.h **** {
1216:hardware/mcu/st/stm32wlxx_hal_driver/Inc/stm32wlxx_ll_pwr.h ****   /* Return a value corresponding to definition of literals                   */
1217:hardware/mcu/st/stm32wlxx_hal_driver/Inc/stm32wlxx_ll_pwr.h ****   /* LL_PWR_SMPS_BYPASS or LL_PWR_SMPS_STEP_DOWN.                             */
1218:hardware/mcu/st/stm32wlxx_hal_driver/Inc/stm32wlxx_ll_pwr.h ****   return (uint32_t)(READ_BIT(PWR->SR2, PWR_SR2_SMPSRDY) << (PWR_CR5_SMPSEN_Pos - PWR_SR2_SMPSRDY_Po
1219:hardware/mcu/st/stm32wlxx_hal_driver/Inc/stm32wlxx_ll_pwr.h **** }
1220:hardware/mcu/st/stm32wlxx_hal_driver/Inc/stm32wlxx_ll_pwr.h **** 
1221:hardware/mcu/st/stm32wlxx_hal_driver/Inc/stm32wlxx_ll_pwr.h **** /**
1222:hardware/mcu/st/stm32wlxx_hal_driver/Inc/stm32wlxx_ll_pwr.h ****   * @brief  SMPS step down converter enable
1223:hardware/mcu/st/stm32wlxx_hal_driver/Inc/stm32wlxx_ll_pwr.h ****   * @note   This function can be used for specific usage of the SMPS,
1224:hardware/mcu/st/stm32wlxx_hal_driver/Inc/stm32wlxx_ll_pwr.h ****   *         for general usage of the SMPS the function
1225:hardware/mcu/st/stm32wlxx_hal_driver/Inc/stm32wlxx_ll_pwr.h ****   *         @ref LL_PWR_SMPS_SetMode() should be used instead.
1226:hardware/mcu/st/stm32wlxx_hal_driver/Inc/stm32wlxx_ll_pwr.h ****   * @rmtoll CR5          SMPSEN        LL_PWR_SMPS_Enable
1227:hardware/mcu/st/stm32wlxx_hal_driver/Inc/stm32wlxx_ll_pwr.h ****   * @retval None
1228:hardware/mcu/st/stm32wlxx_hal_driver/Inc/stm32wlxx_ll_pwr.h ****   */
1229:hardware/mcu/st/stm32wlxx_hal_driver/Inc/stm32wlxx_ll_pwr.h **** __STATIC_INLINE void LL_PWR_SMPS_Enable(void)
1230:hardware/mcu/st/stm32wlxx_hal_driver/Inc/stm32wlxx_ll_pwr.h **** {
1231:hardware/mcu/st/stm32wlxx_hal_driver/Inc/stm32wlxx_ll_pwr.h ****   SET_BIT(PWR->CR5, PWR_CR5_SMPSEN);
1232:hardware/mcu/st/stm32wlxx_hal_driver/Inc/stm32wlxx_ll_pwr.h **** }
1233:hardware/mcu/st/stm32wlxx_hal_driver/Inc/stm32wlxx_ll_pwr.h **** 
1234:hardware/mcu/st/stm32wlxx_hal_driver/Inc/stm32wlxx_ll_pwr.h **** /**
1235:hardware/mcu/st/stm32wlxx_hal_driver/Inc/stm32wlxx_ll_pwr.h ****   * @brief  SMPS step down converter enable
1236:hardware/mcu/st/stm32wlxx_hal_driver/Inc/stm32wlxx_ll_pwr.h ****   * @note   This function can be used for specific usage of the SMPS,
1237:hardware/mcu/st/stm32wlxx_hal_driver/Inc/stm32wlxx_ll_pwr.h ****   *         for general usage of the SMPS the function
1238:hardware/mcu/st/stm32wlxx_hal_driver/Inc/stm32wlxx_ll_pwr.h ****   *         @ref LL_PWR_SMPS_SetMode() should be used instead.
1239:hardware/mcu/st/stm32wlxx_hal_driver/Inc/stm32wlxx_ll_pwr.h ****   * @rmtoll CR5          SMPSEN        LL_PWR_SMPS_Disable
1240:hardware/mcu/st/stm32wlxx_hal_driver/Inc/stm32wlxx_ll_pwr.h ****   * @retval None
1241:hardware/mcu/st/stm32wlxx_hal_driver/Inc/stm32wlxx_ll_pwr.h ****   */
1242:hardware/mcu/st/stm32wlxx_hal_driver/Inc/stm32wlxx_ll_pwr.h **** __STATIC_INLINE void LL_PWR_SMPS_Disable(void)
1243:hardware/mcu/st/stm32wlxx_hal_driver/Inc/stm32wlxx_ll_pwr.h **** {
1244:hardware/mcu/st/stm32wlxx_hal_driver/Inc/stm32wlxx_ll_pwr.h ****   CLEAR_BIT(PWR->CR5, PWR_CR5_SMPSEN);
1245:hardware/mcu/st/stm32wlxx_hal_driver/Inc/stm32wlxx_ll_pwr.h **** }
1246:hardware/mcu/st/stm32wlxx_hal_driver/Inc/stm32wlxx_ll_pwr.h **** 
1247:hardware/mcu/st/stm32wlxx_hal_driver/Inc/stm32wlxx_ll_pwr.h **** /**
1248:hardware/mcu/st/stm32wlxx_hal_driver/Inc/stm32wlxx_ll_pwr.h ****   * @brief  Check if the SMPS step down converter is enabled
1249:hardware/mcu/st/stm32wlxx_hal_driver/Inc/stm32wlxx_ll_pwr.h ****   * @rmtoll CR5          SMPSEN        LL_PWR_SMPS_IsEnabled
1250:hardware/mcu/st/stm32wlxx_hal_driver/Inc/stm32wlxx_ll_pwr.h ****   * @retval State of bit (1 or 0).
1251:hardware/mcu/st/stm32wlxx_hal_driver/Inc/stm32wlxx_ll_pwr.h ****   */
ARM GAS  /var/folders/b4/k4jbz0ms4wg23jtq0w6p483m0000gn/T//ccaHqEcm.s 			page 32


1252:hardware/mcu/st/stm32wlxx_hal_driver/Inc/stm32wlxx_ll_pwr.h **** __STATIC_INLINE uint32_t LL_PWR_SMPS_IsEnabled(void)
1253:hardware/mcu/st/stm32wlxx_hal_driver/Inc/stm32wlxx_ll_pwr.h **** {
1254:hardware/mcu/st/stm32wlxx_hal_driver/Inc/stm32wlxx_ll_pwr.h ****   return ((READ_BIT(PWR->CR5, PWR_CR5_SMPSEN) == (PWR_CR5_SMPSEN)) ? 1UL : 0UL);
1255:hardware/mcu/st/stm32wlxx_hal_driver/Inc/stm32wlxx_ll_pwr.h **** }
1256:hardware/mcu/st/stm32wlxx_hal_driver/Inc/stm32wlxx_ll_pwr.h **** 
1257:hardware/mcu/st/stm32wlxx_hal_driver/Inc/stm32wlxx_ll_pwr.h **** /**
1258:hardware/mcu/st/stm32wlxx_hal_driver/Inc/stm32wlxx_ll_pwr.h ****   * @}
1259:hardware/mcu/st/stm32wlxx_hal_driver/Inc/stm32wlxx_ll_pwr.h ****   */
1260:hardware/mcu/st/stm32wlxx_hal_driver/Inc/stm32wlxx_ll_pwr.h **** 
1261:hardware/mcu/st/stm32wlxx_hal_driver/Inc/stm32wlxx_ll_pwr.h **** /** @defgroup PWR_LL_EF_Configuration_Radio Configuration of radio
1262:hardware/mcu/st/stm32wlxx_hal_driver/Inc/stm32wlxx_ll_pwr.h ****   * @{
1263:hardware/mcu/st/stm32wlxx_hal_driver/Inc/stm32wlxx_ll_pwr.h ****   */
1264:hardware/mcu/st/stm32wlxx_hal_driver/Inc/stm32wlxx_ll_pwr.h **** 
1265:hardware/mcu/st/stm32wlxx_hal_driver/Inc/stm32wlxx_ll_pwr.h **** /**
1266:hardware/mcu/st/stm32wlxx_hal_driver/Inc/stm32wlxx_ll_pwr.h ****   * @brief  Set radio busy signal polarity
1267:hardware/mcu/st/stm32wlxx_hal_driver/Inc/stm32wlxx_ll_pwr.h ****   * @rmtoll CR4          RFBUSYP       LL_PWR_SetRadioBusyPolarity
1268:hardware/mcu/st/stm32wlxx_hal_driver/Inc/stm32wlxx_ll_pwr.h ****   * @param  RadioBusyPolarity This parameter can be one of the following values:
1269:hardware/mcu/st/stm32wlxx_hal_driver/Inc/stm32wlxx_ll_pwr.h ****   *         @arg @ref LL_PWR_RADIO_BUSY_POLARITY_RISING
1270:hardware/mcu/st/stm32wlxx_hal_driver/Inc/stm32wlxx_ll_pwr.h ****   *         @arg @ref LL_PWR_RADIO_BUSY_POLARITY_FALLING
1271:hardware/mcu/st/stm32wlxx_hal_driver/Inc/stm32wlxx_ll_pwr.h ****   * @retval None
1272:hardware/mcu/st/stm32wlxx_hal_driver/Inc/stm32wlxx_ll_pwr.h ****   */
1273:hardware/mcu/st/stm32wlxx_hal_driver/Inc/stm32wlxx_ll_pwr.h **** __STATIC_INLINE void LL_PWR_SetRadioBusyPolarity(uint32_t RadioBusyPolarity)
 290              		.loc 2 1273 22 view .LVU53
 291              	.LBB13:
1274:hardware/mcu/st/stm32wlxx_hal_driver/Inc/stm32wlxx_ll_pwr.h **** {
1275:hardware/mcu/st/stm32wlxx_hal_driver/Inc/stm32wlxx_ll_pwr.h ****   MODIFY_REG(PWR->CR4, PWR_CR4_WRFBUSYP, RadioBusyPolarity);
 292              		.loc 2 1275 3 view .LVU54
 293 0000 034A     		ldr	r2, .L35
 294 0002 D368     		ldr	r3, [r2, #12]
 295 0004 23F40063 		bic	r3, r3, #2048
 296 0008 0343     		orrs	r3, r3, r0
 297 000a D360     		str	r3, [r2, #12]
 298              	.LVL10:
 299              		.loc 2 1275 3 is_stmt 0 view .LVU55
 300              	.LBE13:
 301              	.LBE12:
 220:hardware/mcu/st/stm32wlxx_hal_driver/Src/stm32wlxx_hal_pwr_ex.c **** }
 302              		.loc 1 220 1 view .LVU56
 303 000c 7047     		bx	lr
 304              	.L36:
 305 000e 00BF     		.align	2
 306              	.L35:
 307 0010 00040058 		.word	1476396032
 308              		.cfi_endproc
 309              	.LFE727:
 311              		.section	.text.HAL_PWREx_SetRadioBusyTrigger,"ax",%progbits
 312              		.align	1
 313              		.global	HAL_PWREx_SetRadioBusyTrigger
 314              		.syntax unified
 315              		.thumb
 316              		.thumb_func
 318              	HAL_PWREx_SetRadioBusyTrigger:
 319              	.LVL11:
 320              	.LFB728:
 221:hardware/mcu/st/stm32wlxx_hal_driver/Src/stm32wlxx_hal_pwr_ex.c **** 
 222:hardware/mcu/st/stm32wlxx_hal_driver/Src/stm32wlxx_hal_pwr_ex.c **** /**
 223:hardware/mcu/st/stm32wlxx_hal_driver/Src/stm32wlxx_hal_pwr_ex.c ****   * @brief  Set radio busy trigger action: wake-up from low-power mode Standby,
ARM GAS  /var/folders/b4/k4jbz0ms4wg23jtq0w6p483m0000gn/T//ccaHqEcm.s 			page 33


 224:hardware/mcu/st/stm32wlxx_hal_driver/Src/stm32wlxx_hal_pwr_ex.c ****   *         interruption.
 225:hardware/mcu/st/stm32wlxx_hal_driver/Src/stm32wlxx_hal_pwr_ex.c ****   * @note   Signal polarity can be configured using function
 226:hardware/mcu/st/stm32wlxx_hal_driver/Src/stm32wlxx_hal_pwr_ex.c ****   *         @ref HAL_PWREx_SetRadioBusyPolarity().
 227:hardware/mcu/st/stm32wlxx_hal_driver/Src/stm32wlxx_hal_pwr_ex.c ****   * @param  RadioBusyTrigger This parameter can be one of the following values:
 228:hardware/mcu/st/stm32wlxx_hal_driver/Src/stm32wlxx_hal_pwr_ex.c ****   *         @arg @ref PWR_RADIO_BUSY_TRIGGER_NONE
 229:hardware/mcu/st/stm32wlxx_hal_driver/Src/stm32wlxx_hal_pwr_ex.c ****   *         @arg @ref PWR_RADIO_BUSY_TRIGGER_WU_IT
 230:hardware/mcu/st/stm32wlxx_hal_driver/Src/stm32wlxx_hal_pwr_ex.c ****   * @retval None
 231:hardware/mcu/st/stm32wlxx_hal_driver/Src/stm32wlxx_hal_pwr_ex.c ****   */
 232:hardware/mcu/st/stm32wlxx_hal_driver/Src/stm32wlxx_hal_pwr_ex.c **** void HAL_PWREx_SetRadioBusyTrigger(uint32_t RadioBusyTrigger)
 233:hardware/mcu/st/stm32wlxx_hal_driver/Src/stm32wlxx_hal_pwr_ex.c **** {
 321              		.loc 1 233 1 is_stmt 1 view -0
 322              		.cfi_startproc
 323              		@ args = 0, pretend = 0, frame = 0
 324              		@ frame_needed = 0, uses_anonymous_args = 0
 325              		@ link register save eliminated.
 234:hardware/mcu/st/stm32wlxx_hal_driver/Src/stm32wlxx_hal_pwr_ex.c ****   /* Check the parameters */
 235:hardware/mcu/st/stm32wlxx_hal_driver/Src/stm32wlxx_hal_pwr_ex.c ****   assert_param(IS_PWR_RADIO_BUSY_TRIGGER(RadioBusyTrigger));
 326              		.loc 1 235 3 view .LVU58
 236:hardware/mcu/st/stm32wlxx_hal_driver/Src/stm32wlxx_hal_pwr_ex.c **** 
 237:hardware/mcu/st/stm32wlxx_hal_driver/Src/stm32wlxx_hal_pwr_ex.c **** #ifdef CORE_CM0PLUS
 238:hardware/mcu/st/stm32wlxx_hal_driver/Src/stm32wlxx_hal_pwr_ex.c ****   LL_C2_PWR_SetRadioBusyTrigger(RadioBusyTrigger);
 239:hardware/mcu/st/stm32wlxx_hal_driver/Src/stm32wlxx_hal_pwr_ex.c **** #else
 240:hardware/mcu/st/stm32wlxx_hal_driver/Src/stm32wlxx_hal_pwr_ex.c ****   LL_PWR_SetRadioBusyTrigger(RadioBusyTrigger);
 327              		.loc 1 240 3 view .LVU59
 328              	.LBB16:
 329              	.LBI16:
1276:hardware/mcu/st/stm32wlxx_hal_driver/Inc/stm32wlxx_ll_pwr.h **** }
1277:hardware/mcu/st/stm32wlxx_hal_driver/Inc/stm32wlxx_ll_pwr.h **** 
1278:hardware/mcu/st/stm32wlxx_hal_driver/Inc/stm32wlxx_ll_pwr.h **** /**
1279:hardware/mcu/st/stm32wlxx_hal_driver/Inc/stm32wlxx_ll_pwr.h ****   * @brief  Get radio busy signal polarity
1280:hardware/mcu/st/stm32wlxx_hal_driver/Inc/stm32wlxx_ll_pwr.h ****   * @rmtoll CR4          RFBUSYP       LL_PWR_GetRadioBusyPolarity
1281:hardware/mcu/st/stm32wlxx_hal_driver/Inc/stm32wlxx_ll_pwr.h ****   * @retval Returned value can be one of the following values:
1282:hardware/mcu/st/stm32wlxx_hal_driver/Inc/stm32wlxx_ll_pwr.h ****   *         @arg @ref LL_PWR_RADIO_BUSY_POLARITY_RISING
1283:hardware/mcu/st/stm32wlxx_hal_driver/Inc/stm32wlxx_ll_pwr.h ****   *         @arg @ref LL_PWR_RADIO_BUSY_POLARITY_FALLING
1284:hardware/mcu/st/stm32wlxx_hal_driver/Inc/stm32wlxx_ll_pwr.h ****   */
1285:hardware/mcu/st/stm32wlxx_hal_driver/Inc/stm32wlxx_ll_pwr.h **** __STATIC_INLINE uint32_t LL_PWR_GetRadioBusyPolarity(void)
1286:hardware/mcu/st/stm32wlxx_hal_driver/Inc/stm32wlxx_ll_pwr.h **** {
1287:hardware/mcu/st/stm32wlxx_hal_driver/Inc/stm32wlxx_ll_pwr.h ****   return (uint32_t)(READ_BIT(PWR->CR4, PWR_CR4_WRFBUSYP));
1288:hardware/mcu/st/stm32wlxx_hal_driver/Inc/stm32wlxx_ll_pwr.h **** }
1289:hardware/mcu/st/stm32wlxx_hal_driver/Inc/stm32wlxx_ll_pwr.h **** 
1290:hardware/mcu/st/stm32wlxx_hal_driver/Inc/stm32wlxx_ll_pwr.h **** /**
1291:hardware/mcu/st/stm32wlxx_hal_driver/Inc/stm32wlxx_ll_pwr.h ****   * @brief  Set radio busy trigger action for CPU1: wake-up from low-power mode
1292:hardware/mcu/st/stm32wlxx_hal_driver/Inc/stm32wlxx_ll_pwr.h ****   *         Standby.
1293:hardware/mcu/st/stm32wlxx_hal_driver/Inc/stm32wlxx_ll_pwr.h ****   * @note   Signal polarity can be configured using function
1294:hardware/mcu/st/stm32wlxx_hal_driver/Inc/stm32wlxx_ll_pwr.h ****   *         @ref LL_PWR_SetRadioBusyPolarity().
1295:hardware/mcu/st/stm32wlxx_hal_driver/Inc/stm32wlxx_ll_pwr.h ****   * @rmtoll CR3          ERFBUSY       LL_PWR_SetRadioBusyTrigger
1296:hardware/mcu/st/stm32wlxx_hal_driver/Inc/stm32wlxx_ll_pwr.h ****   * @param  RadioBusyTrigger This parameter can be one of the following values:
1297:hardware/mcu/st/stm32wlxx_hal_driver/Inc/stm32wlxx_ll_pwr.h ****   *         @arg @ref LL_PWR_RADIO_BUSY_TRIGGER_NONE
1298:hardware/mcu/st/stm32wlxx_hal_driver/Inc/stm32wlxx_ll_pwr.h ****   *         @arg @ref LL_PWR_RADIO_BUSY_TRIGGER_WU_IT
1299:hardware/mcu/st/stm32wlxx_hal_driver/Inc/stm32wlxx_ll_pwr.h ****   * @retval None
1300:hardware/mcu/st/stm32wlxx_hal_driver/Inc/stm32wlxx_ll_pwr.h ****   */
1301:hardware/mcu/st/stm32wlxx_hal_driver/Inc/stm32wlxx_ll_pwr.h **** __STATIC_INLINE void LL_PWR_SetRadioBusyTrigger(uint32_t RadioBusyTrigger)
 330              		.loc 2 1301 22 view .LVU60
 331              	.LBB17:
1302:hardware/mcu/st/stm32wlxx_hal_driver/Inc/stm32wlxx_ll_pwr.h **** {
1303:hardware/mcu/st/stm32wlxx_hal_driver/Inc/stm32wlxx_ll_pwr.h ****   MODIFY_REG(PWR->CR3, PWR_CR3_EWRFBUSY, RadioBusyTrigger);
 332              		.loc 2 1303 3 view .LVU61
ARM GAS  /var/folders/b4/k4jbz0ms4wg23jtq0w6p483m0000gn/T//ccaHqEcm.s 			page 34


 333 0000 034A     		ldr	r2, .L38
 334 0002 9368     		ldr	r3, [r2, #8]
 335 0004 23F40063 		bic	r3, r3, #2048
 336 0008 0343     		orrs	r3, r3, r0
 337 000a 9360     		str	r3, [r2, #8]
 338              	.LVL12:
 339              		.loc 2 1303 3 is_stmt 0 view .LVU62
 340              	.LBE17:
 341              	.LBE16:
 241:hardware/mcu/st/stm32wlxx_hal_driver/Src/stm32wlxx_hal_pwr_ex.c **** #endif
 242:hardware/mcu/st/stm32wlxx_hal_driver/Src/stm32wlxx_hal_pwr_ex.c **** }
 342              		.loc 1 242 1 view .LVU63
 343 000c 7047     		bx	lr
 344              	.L39:
 345 000e 00BF     		.align	2
 346              	.L38:
 347 0010 00040058 		.word	1476396032
 348              		.cfi_endproc
 349              	.LFE728:
 351              		.section	.text.HAL_PWREx_SetRadioIRQTrigger,"ax",%progbits
 352              		.align	1
 353              		.global	HAL_PWREx_SetRadioIRQTrigger
 354              		.syntax unified
 355              		.thumb
 356              		.thumb_func
 358              	HAL_PWREx_SetRadioIRQTrigger:
 359              	.LVL13:
 360              	.LFB729:
 243:hardware/mcu/st/stm32wlxx_hal_driver/Src/stm32wlxx_hal_pwr_ex.c **** 
 244:hardware/mcu/st/stm32wlxx_hal_driver/Src/stm32wlxx_hal_pwr_ex.c **** /**
 245:hardware/mcu/st/stm32wlxx_hal_driver/Src/stm32wlxx_hal_pwr_ex.c ****   * @brief  Set radio IRQ trigger action: wake-up from low-power mode Standby,
 246:hardware/mcu/st/stm32wlxx_hal_driver/Src/stm32wlxx_hal_pwr_ex.c ****   *         interruption.
 247:hardware/mcu/st/stm32wlxx_hal_driver/Src/stm32wlxx_hal_pwr_ex.c ****   * @param  RadioIRQTrigger This parameter can be one of the following values:
 248:hardware/mcu/st/stm32wlxx_hal_driver/Src/stm32wlxx_hal_pwr_ex.c ****   *         @arg @ref PWR_RADIO_IRQ_TRIGGER_NONE
 249:hardware/mcu/st/stm32wlxx_hal_driver/Src/stm32wlxx_hal_pwr_ex.c ****   *         @arg @ref PWR_RADIO_IRQ_TRIGGER_WU_IT
 250:hardware/mcu/st/stm32wlxx_hal_driver/Src/stm32wlxx_hal_pwr_ex.c ****   * @retval None
 251:hardware/mcu/st/stm32wlxx_hal_driver/Src/stm32wlxx_hal_pwr_ex.c ****   */
 252:hardware/mcu/st/stm32wlxx_hal_driver/Src/stm32wlxx_hal_pwr_ex.c **** void HAL_PWREx_SetRadioIRQTrigger(uint32_t RadioIRQTrigger)
 253:hardware/mcu/st/stm32wlxx_hal_driver/Src/stm32wlxx_hal_pwr_ex.c **** {
 361              		.loc 1 253 1 is_stmt 1 view -0
 362              		.cfi_startproc
 363              		@ args = 0, pretend = 0, frame = 0
 364              		@ frame_needed = 0, uses_anonymous_args = 0
 365              		@ link register save eliminated.
 254:hardware/mcu/st/stm32wlxx_hal_driver/Src/stm32wlxx_hal_pwr_ex.c ****   /* Check the parameters */
 255:hardware/mcu/st/stm32wlxx_hal_driver/Src/stm32wlxx_hal_pwr_ex.c ****   assert_param(IS_RADIO_IRQ_TRIGGER(RadioIRQTrigger));
 366              		.loc 1 255 3 view .LVU65
 256:hardware/mcu/st/stm32wlxx_hal_driver/Src/stm32wlxx_hal_pwr_ex.c **** 
 257:hardware/mcu/st/stm32wlxx_hal_driver/Src/stm32wlxx_hal_pwr_ex.c **** #ifdef CORE_CM0PLUS
 258:hardware/mcu/st/stm32wlxx_hal_driver/Src/stm32wlxx_hal_pwr_ex.c ****   LL_C2_PWR_SetRadioIRQTrigger(RadioIRQTrigger);
 259:hardware/mcu/st/stm32wlxx_hal_driver/Src/stm32wlxx_hal_pwr_ex.c **** #else
 260:hardware/mcu/st/stm32wlxx_hal_driver/Src/stm32wlxx_hal_pwr_ex.c ****   LL_PWR_SetRadioIRQTrigger(RadioIRQTrigger);
 367              		.loc 1 260 3 view .LVU66
 368              	.LBB20:
 369              	.LBI20:
1304:hardware/mcu/st/stm32wlxx_hal_driver/Inc/stm32wlxx_ll_pwr.h **** }
1305:hardware/mcu/st/stm32wlxx_hal_driver/Inc/stm32wlxx_ll_pwr.h **** 
ARM GAS  /var/folders/b4/k4jbz0ms4wg23jtq0w6p483m0000gn/T//ccaHqEcm.s 			page 35


1306:hardware/mcu/st/stm32wlxx_hal_driver/Inc/stm32wlxx_ll_pwr.h **** /**
1307:hardware/mcu/st/stm32wlxx_hal_driver/Inc/stm32wlxx_ll_pwr.h ****   * @brief  Get radio busy trigger action for CPU1: wake-up from low-power mode
1308:hardware/mcu/st/stm32wlxx_hal_driver/Inc/stm32wlxx_ll_pwr.h ****   *         Standby.
1309:hardware/mcu/st/stm32wlxx_hal_driver/Inc/stm32wlxx_ll_pwr.h ****   * @rmtoll CR3          ERFBUSY       LL_PWR_GetRadioBusyTrigger
1310:hardware/mcu/st/stm32wlxx_hal_driver/Inc/stm32wlxx_ll_pwr.h ****   * @retval Returned value can be one of the following values:
1311:hardware/mcu/st/stm32wlxx_hal_driver/Inc/stm32wlxx_ll_pwr.h ****   *         @arg @ref LL_PWR_RADIO_BUSY_TRIGGER_NONE
1312:hardware/mcu/st/stm32wlxx_hal_driver/Inc/stm32wlxx_ll_pwr.h ****   *         @arg @ref LL_PWR_RADIO_BUSY_TRIGGER_WU_IT
1313:hardware/mcu/st/stm32wlxx_hal_driver/Inc/stm32wlxx_ll_pwr.h ****   */
1314:hardware/mcu/st/stm32wlxx_hal_driver/Inc/stm32wlxx_ll_pwr.h **** __STATIC_INLINE uint32_t LL_PWR_GetRadioBusyTrigger(void)
1315:hardware/mcu/st/stm32wlxx_hal_driver/Inc/stm32wlxx_ll_pwr.h **** {
1316:hardware/mcu/st/stm32wlxx_hal_driver/Inc/stm32wlxx_ll_pwr.h ****   return (uint32_t)(READ_BIT(PWR->CR3, PWR_CR3_EWRFBUSY));
1317:hardware/mcu/st/stm32wlxx_hal_driver/Inc/stm32wlxx_ll_pwr.h **** }
1318:hardware/mcu/st/stm32wlxx_hal_driver/Inc/stm32wlxx_ll_pwr.h **** 
1319:hardware/mcu/st/stm32wlxx_hal_driver/Inc/stm32wlxx_ll_pwr.h **** /**
1320:hardware/mcu/st/stm32wlxx_hal_driver/Inc/stm32wlxx_ll_pwr.h ****   * @brief  Set radio IRQ trigger action for CPU1: wake-up from low-power mode
1321:hardware/mcu/st/stm32wlxx_hal_driver/Inc/stm32wlxx_ll_pwr.h ****   *         Standby.
1322:hardware/mcu/st/stm32wlxx_hal_driver/Inc/stm32wlxx_ll_pwr.h ****   * @rmtoll CR3          ERFIRQ        LL_PWR_SetRadioIRQTrigger
1323:hardware/mcu/st/stm32wlxx_hal_driver/Inc/stm32wlxx_ll_pwr.h ****   * @param  RadioIRQTrigger This parameter can be one of the following values:
1324:hardware/mcu/st/stm32wlxx_hal_driver/Inc/stm32wlxx_ll_pwr.h ****   *         @arg @ref LL_PWR_RADIO_IRQ_TRIGGER_NONE
1325:hardware/mcu/st/stm32wlxx_hal_driver/Inc/stm32wlxx_ll_pwr.h ****   *         @arg @ref LL_PWR_RADIO_IRQ_TRIGGER_WU_IT
1326:hardware/mcu/st/stm32wlxx_hal_driver/Inc/stm32wlxx_ll_pwr.h ****   * @retval None
1327:hardware/mcu/st/stm32wlxx_hal_driver/Inc/stm32wlxx_ll_pwr.h ****   */
1328:hardware/mcu/st/stm32wlxx_hal_driver/Inc/stm32wlxx_ll_pwr.h **** __STATIC_INLINE void LL_PWR_SetRadioIRQTrigger(uint32_t RadioIRQTrigger)
 370              		.loc 2 1328 22 view .LVU67
 371              	.LBB21:
1329:hardware/mcu/st/stm32wlxx_hal_driver/Inc/stm32wlxx_ll_pwr.h **** {
1330:hardware/mcu/st/stm32wlxx_hal_driver/Inc/stm32wlxx_ll_pwr.h ****   MODIFY_REG(PWR->CR3, PWR_CR3_EWRFIRQ, RadioIRQTrigger);
 372              		.loc 2 1330 3 view .LVU68
 373 0000 034A     		ldr	r2, .L41
 374 0002 9368     		ldr	r3, [r2, #8]
 375 0004 23F40053 		bic	r3, r3, #8192
 376 0008 0343     		orrs	r3, r3, r0
 377 000a 9360     		str	r3, [r2, #8]
 378              	.LVL14:
 379              		.loc 2 1330 3 is_stmt 0 view .LVU69
 380              	.LBE21:
 381              	.LBE20:
 261:hardware/mcu/st/stm32wlxx_hal_driver/Src/stm32wlxx_hal_pwr_ex.c **** #endif
 262:hardware/mcu/st/stm32wlxx_hal_driver/Src/stm32wlxx_hal_pwr_ex.c **** }
 382              		.loc 1 262 1 view .LVU70
 383 000c 7047     		bx	lr
 384              	.L42:
 385 000e 00BF     		.align	2
 386              	.L41:
 387 0010 00040058 		.word	1476396032
 388              		.cfi_endproc
 389              	.LFE729:
 391              		.section	.text.HAL_PWREx_EnableGPIOPullUp,"ax",%progbits
 392              		.align	1
 393              		.global	HAL_PWREx_EnableGPIOPullUp
 394              		.syntax unified
 395              		.thumb
 396              		.thumb_func
 398              	HAL_PWREx_EnableGPIOPullUp:
 399              	.LVL15:
 400              	.LFB730:
 263:hardware/mcu/st/stm32wlxx_hal_driver/Src/stm32wlxx_hal_pwr_ex.c **** 
ARM GAS  /var/folders/b4/k4jbz0ms4wg23jtq0w6p483m0000gn/T//ccaHqEcm.s 			page 36


 264:hardware/mcu/st/stm32wlxx_hal_driver/Src/stm32wlxx_hal_pwr_ex.c **** #if defined(DUAL_CORE)
 265:hardware/mcu/st/stm32wlxx_hal_driver/Src/stm32wlxx_hal_pwr_ex.c **** /**
 266:hardware/mcu/st/stm32wlxx_hal_driver/Src/stm32wlxx_hal_pwr_ex.c ****   * @brief Enable CPU2 on-Hold interrupt.
 267:hardware/mcu/st/stm32wlxx_hal_driver/Src/stm32wlxx_hal_pwr_ex.c ****   * @retval None
 268:hardware/mcu/st/stm32wlxx_hal_driver/Src/stm32wlxx_hal_pwr_ex.c ****   */
 269:hardware/mcu/st/stm32wlxx_hal_driver/Src/stm32wlxx_hal_pwr_ex.c **** void HAL_PWREx_EnableHOLDC2IT(void)
 270:hardware/mcu/st/stm32wlxx_hal_driver/Src/stm32wlxx_hal_pwr_ex.c **** {
 271:hardware/mcu/st/stm32wlxx_hal_driver/Src/stm32wlxx_hal_pwr_ex.c ****   SET_BIT(PWR->CR3, PWR_CR3_EC2H);
 272:hardware/mcu/st/stm32wlxx_hal_driver/Src/stm32wlxx_hal_pwr_ex.c **** }
 273:hardware/mcu/st/stm32wlxx_hal_driver/Src/stm32wlxx_hal_pwr_ex.c **** 
 274:hardware/mcu/st/stm32wlxx_hal_driver/Src/stm32wlxx_hal_pwr_ex.c **** /**
 275:hardware/mcu/st/stm32wlxx_hal_driver/Src/stm32wlxx_hal_pwr_ex.c ****   * @brief Disable CPU2 on-Hold interrupt.
 276:hardware/mcu/st/stm32wlxx_hal_driver/Src/stm32wlxx_hal_pwr_ex.c ****   * @retval None
 277:hardware/mcu/st/stm32wlxx_hal_driver/Src/stm32wlxx_hal_pwr_ex.c ****   */
 278:hardware/mcu/st/stm32wlxx_hal_driver/Src/stm32wlxx_hal_pwr_ex.c **** void HAL_PWREx_DisableHOLDC2IT(void)
 279:hardware/mcu/st/stm32wlxx_hal_driver/Src/stm32wlxx_hal_pwr_ex.c **** {
 280:hardware/mcu/st/stm32wlxx_hal_driver/Src/stm32wlxx_hal_pwr_ex.c ****   CLEAR_BIT(PWR->CR3, PWR_CR3_EC2H);
 281:hardware/mcu/st/stm32wlxx_hal_driver/Src/stm32wlxx_hal_pwr_ex.c **** }
 282:hardware/mcu/st/stm32wlxx_hal_driver/Src/stm32wlxx_hal_pwr_ex.c **** #endif
 283:hardware/mcu/st/stm32wlxx_hal_driver/Src/stm32wlxx_hal_pwr_ex.c **** 
 284:hardware/mcu/st/stm32wlxx_hal_driver/Src/stm32wlxx_hal_pwr_ex.c **** /****************************************************************************/
 285:hardware/mcu/st/stm32wlxx_hal_driver/Src/stm32wlxx_hal_pwr_ex.c **** 
 286:hardware/mcu/st/stm32wlxx_hal_driver/Src/stm32wlxx_hal_pwr_ex.c **** /**
 287:hardware/mcu/st/stm32wlxx_hal_driver/Src/stm32wlxx_hal_pwr_ex.c ****   * @brief Enable GPIO pull-up state in Standby and Shutdown modes.
 288:hardware/mcu/st/stm32wlxx_hal_driver/Src/stm32wlxx_hal_pwr_ex.c ****   * @note  Set the relevant PUy bits of PWR_PUCRx register to configure the I/O in
 289:hardware/mcu/st/stm32wlxx_hal_driver/Src/stm32wlxx_hal_pwr_ex.c ****   *        pull-up state in Standby and Shutdown modes.
 290:hardware/mcu/st/stm32wlxx_hal_driver/Src/stm32wlxx_hal_pwr_ex.c ****   * @note  This state is effective in Standby and Shutdown modes only if APC bit
 291:hardware/mcu/st/stm32wlxx_hal_driver/Src/stm32wlxx_hal_pwr_ex.c ****   *        is set through HAL_PWREx_EnablePullUpPullDownConfig() API.
 292:hardware/mcu/st/stm32wlxx_hal_driver/Src/stm32wlxx_hal_pwr_ex.c ****   * @note  The configuration is lost when exiting the Shutdown mode due to the
 293:hardware/mcu/st/stm32wlxx_hal_driver/Src/stm32wlxx_hal_pwr_ex.c ****   *        power-on reset, maintained when exiting the Standby mode.
 294:hardware/mcu/st/stm32wlxx_hal_driver/Src/stm32wlxx_hal_pwr_ex.c ****   * @note  To avoid any conflict at Standby and Shutdown modes exits, the corresponding
 295:hardware/mcu/st/stm32wlxx_hal_driver/Src/stm32wlxx_hal_pwr_ex.c ****   *        PDy bit of PWR_PDCRx register is cleared unless it is reserved.
 296:hardware/mcu/st/stm32wlxx_hal_driver/Src/stm32wlxx_hal_pwr_ex.c ****   * @note  Even if a PUy bit to set is reserved, the other PUy bits entered as input
 297:hardware/mcu/st/stm32wlxx_hal_driver/Src/stm32wlxx_hal_pwr_ex.c ****   *        parameter at the same time are set.
 298:hardware/mcu/st/stm32wlxx_hal_driver/Src/stm32wlxx_hal_pwr_ex.c ****   * @param GPIO Specify the IO port. This parameter can be PWR_GPIO_A, ..., PWR_GPIO_H
 299:hardware/mcu/st/stm32wlxx_hal_driver/Src/stm32wlxx_hal_pwr_ex.c ****   *         to select the GPIO peripheral.
 300:hardware/mcu/st/stm32wlxx_hal_driver/Src/stm32wlxx_hal_pwr_ex.c ****   * @param GPIONumber Specify the I/O pins numbers.
 301:hardware/mcu/st/stm32wlxx_hal_driver/Src/stm32wlxx_hal_pwr_ex.c ****   *         This parameter can be one of the following values:
 302:hardware/mcu/st/stm32wlxx_hal_driver/Src/stm32wlxx_hal_pwr_ex.c ****   *         PWR_GPIO_BIT_0, ..., PWR_GPIO_BIT_15 (except for PORTH where less
 303:hardware/mcu/st/stm32wlxx_hal_driver/Src/stm32wlxx_hal_pwr_ex.c ****   *         I/O pins are available) or the logical OR of several of them to set
 304:hardware/mcu/st/stm32wlxx_hal_driver/Src/stm32wlxx_hal_pwr_ex.c ****   *         several bits for a given port in a single API call.
 305:hardware/mcu/st/stm32wlxx_hal_driver/Src/stm32wlxx_hal_pwr_ex.c ****   * @retval HAL Status
 306:hardware/mcu/st/stm32wlxx_hal_driver/Src/stm32wlxx_hal_pwr_ex.c ****   */
 307:hardware/mcu/st/stm32wlxx_hal_driver/Src/stm32wlxx_hal_pwr_ex.c **** HAL_StatusTypeDef HAL_PWREx_EnableGPIOPullUp(uint32_t GPIO, uint32_t GPIONumber)
 308:hardware/mcu/st/stm32wlxx_hal_driver/Src/stm32wlxx_hal_pwr_ex.c **** {
 401              		.loc 1 308 1 is_stmt 1 view -0
 402              		.cfi_startproc
 403              		@ args = 0, pretend = 0, frame = 0
 404              		@ frame_needed = 0, uses_anonymous_args = 0
 405              		@ link register save eliminated.
 309:hardware/mcu/st/stm32wlxx_hal_driver/Src/stm32wlxx_hal_pwr_ex.c ****   HAL_StatusTypeDef status = HAL_OK;
 406              		.loc 1 309 3 view .LVU72
 310:hardware/mcu/st/stm32wlxx_hal_driver/Src/stm32wlxx_hal_pwr_ex.c **** 
 311:hardware/mcu/st/stm32wlxx_hal_driver/Src/stm32wlxx_hal_pwr_ex.c ****   assert_param(IS_PWR_GPIO(GPIO));
 407              		.loc 1 311 3 view .LVU73
 312:hardware/mcu/st/stm32wlxx_hal_driver/Src/stm32wlxx_hal_pwr_ex.c ****   assert_param(IS_PWR_GPIO_BIT_NUMBER(GPIONumber));
 408              		.loc 1 312 3 view .LVU74
ARM GAS  /var/folders/b4/k4jbz0ms4wg23jtq0w6p483m0000gn/T//ccaHqEcm.s 			page 37


 313:hardware/mcu/st/stm32wlxx_hal_driver/Src/stm32wlxx_hal_pwr_ex.c **** 
 314:hardware/mcu/st/stm32wlxx_hal_driver/Src/stm32wlxx_hal_pwr_ex.c ****   switch (GPIO)
 409              		.loc 1 314 3 view .LVU75
 410 0000 0728     		cmp	r0, #7
 411 0002 30D8     		bhi	.L50
 412 0004 DFE800F0 		tbb	[pc, r0]
 413              	.L46:
 414 0008 04       		.byte	(.L49-.L46)/2
 415 0009 0E       		.byte	(.L48-.L46)/2
 416 000a 17       		.byte	(.L47-.L46)/2
 417 000b 2F       		.byte	(.L50-.L46)/2
 418 000c 2F       		.byte	(.L50-.L46)/2
 419 000d 2F       		.byte	(.L50-.L46)/2
 420 000e 2F       		.byte	(.L50-.L46)/2
 421 000f 24       		.byte	(.L45-.L46)/2
 422              		.p2align 1
 423              	.L49:
 315:hardware/mcu/st/stm32wlxx_hal_driver/Src/stm32wlxx_hal_pwr_ex.c ****   {
 316:hardware/mcu/st/stm32wlxx_hal_driver/Src/stm32wlxx_hal_pwr_ex.c ****     case PWR_GPIO_A:
 317:hardware/mcu/st/stm32wlxx_hal_driver/Src/stm32wlxx_hal_pwr_ex.c ****       SET_BIT(PWR->PUCRA, GPIONumber);
 424              		.loc 1 317 7 view .LVU76
 425 0010 164B     		ldr	r3, .L52
 426 0012 1A6A     		ldr	r2, [r3, #32]
 427 0014 0A43     		orrs	r2, r2, r1
 428 0016 1A62     		str	r2, [r3, #32]
 318:hardware/mcu/st/stm32wlxx_hal_driver/Src/stm32wlxx_hal_pwr_ex.c ****       CLEAR_BIT(PWR->PDCRA, GPIONumber);
 429              		.loc 1 318 7 view .LVU77
 430 0018 5A6A     		ldr	r2, [r3, #36]
 431 001a 22EA0101 		bic	r1, r2, r1
 432              	.LVL16:
 433              		.loc 1 318 7 is_stmt 0 view .LVU78
 434 001e 5962     		str	r1, [r3, #36]
 319:hardware/mcu/st/stm32wlxx_hal_driver/Src/stm32wlxx_hal_pwr_ex.c ****       break;
 435              		.loc 1 319 7 is_stmt 1 view .LVU79
 436              	.L51:
 320:hardware/mcu/st/stm32wlxx_hal_driver/Src/stm32wlxx_hal_pwr_ex.c ****     case PWR_GPIO_B:
 321:hardware/mcu/st/stm32wlxx_hal_driver/Src/stm32wlxx_hal_pwr_ex.c ****       SET_BIT(PWR->PUCRB, GPIONumber);
 322:hardware/mcu/st/stm32wlxx_hal_driver/Src/stm32wlxx_hal_pwr_ex.c ****       CLEAR_BIT(PWR->PDCRB, GPIONumber);
 323:hardware/mcu/st/stm32wlxx_hal_driver/Src/stm32wlxx_hal_pwr_ex.c ****       break;
 437              		.loc 1 323 7 view .LVU80
 309:hardware/mcu/st/stm32wlxx_hal_driver/Src/stm32wlxx_hal_pwr_ex.c **** 
 438              		.loc 1 309 21 is_stmt 0 view .LVU81
 439 0020 0020     		movs	r0, #0
 440              	.LVL17:
 441              		.loc 1 323 7 view .LVU82
 442 0022 7047     		bx	lr
 443              	.LVL18:
 444              	.L48:
 321:hardware/mcu/st/stm32wlxx_hal_driver/Src/stm32wlxx_hal_pwr_ex.c ****       CLEAR_BIT(PWR->PDCRB, GPIONumber);
 445              		.loc 1 321 7 is_stmt 1 view .LVU83
 446 0024 114B     		ldr	r3, .L52
 447 0026 9A6A     		ldr	r2, [r3, #40]
 448 0028 0A43     		orrs	r2, r2, r1
 449 002a 9A62     		str	r2, [r3, #40]
 322:hardware/mcu/st/stm32wlxx_hal_driver/Src/stm32wlxx_hal_pwr_ex.c ****       break;
 450              		.loc 1 322 7 view .LVU84
 451 002c DA6A     		ldr	r2, [r3, #44]
ARM GAS  /var/folders/b4/k4jbz0ms4wg23jtq0w6p483m0000gn/T//ccaHqEcm.s 			page 38


 452 002e 22EA0101 		bic	r1, r2, r1
 453              	.LVL19:
 322:hardware/mcu/st/stm32wlxx_hal_driver/Src/stm32wlxx_hal_pwr_ex.c ****       break;
 454              		.loc 1 322 7 is_stmt 0 view .LVU85
 455 0032 D962     		str	r1, [r3, #44]
 456 0034 F4E7     		b	.L51
 457              	.LVL20:
 458              	.L47:
 324:hardware/mcu/st/stm32wlxx_hal_driver/Src/stm32wlxx_hal_pwr_ex.c ****     case PWR_GPIO_C:
 325:hardware/mcu/st/stm32wlxx_hal_driver/Src/stm32wlxx_hal_pwr_ex.c ****       SET_BIT(PWR->PUCRC, (GPIONumber & PWR_PORTC_AVAILABLE_PINS));
 459              		.loc 1 325 7 is_stmt 1 view .LVU86
 460 0036 0D4B     		ldr	r3, .L52
 461 0038 21F4FC51 		bic	r1, r1, #8064
 462              	.LVL21:
 463              		.loc 1 325 7 is_stmt 0 view .LVU87
 464 003c 1A6B     		ldr	r2, [r3, #48]
 465 003e 0904     		lsls	r1, r1, #16
 466 0040 090C     		lsrs	r1, r1, #16
 467 0042 0A43     		orrs	r2, r2, r1
 468 0044 1A63     		str	r2, [r3, #48]
 326:hardware/mcu/st/stm32wlxx_hal_driver/Src/stm32wlxx_hal_pwr_ex.c ****       CLEAR_BIT(PWR->PDCRC, (GPIONumber & PWR_PORTC_AVAILABLE_PINS));
 469              		.loc 1 326 7 is_stmt 1 view .LVU88
 470 0046 5A6B     		ldr	r2, [r3, #52]
 471 0048 22EA0101 		bic	r1, r2, r1
 472 004c 5963     		str	r1, [r3, #52]
 327:hardware/mcu/st/stm32wlxx_hal_driver/Src/stm32wlxx_hal_pwr_ex.c ****       break;
 473              		.loc 1 327 7 view .LVU89
 474 004e E7E7     		b	.L51
 475              	.LVL22:
 476              	.L45:
 328:hardware/mcu/st/stm32wlxx_hal_driver/Src/stm32wlxx_hal_pwr_ex.c ****     case PWR_GPIO_H:
 329:hardware/mcu/st/stm32wlxx_hal_driver/Src/stm32wlxx_hal_pwr_ex.c ****       SET_BIT(PWR->PUCRH, (GPIONumber & PWR_PORTH_AVAILABLE_PINS));
 477              		.loc 1 329 7 view .LVU90
 478 0050 064B     		ldr	r3, .L52
 479 0052 9A6D     		ldr	r2, [r3, #88]
 480 0054 01F00801 		and	r1, r1, #8
 481              	.LVL23:
 482              		.loc 1 329 7 is_stmt 0 view .LVU91
 483 0058 0A43     		orrs	r2, r2, r1
 484 005a 9A65     		str	r2, [r3, #88]
 330:hardware/mcu/st/stm32wlxx_hal_driver/Src/stm32wlxx_hal_pwr_ex.c ****       CLEAR_BIT(PWR->PDCRH, (GPIONumber & PWR_PORTH_AVAILABLE_PINS));
 485              		.loc 1 330 7 is_stmt 1 view .LVU92
 486 005c DA6D     		ldr	r2, [r3, #92]
 487 005e 22EA0101 		bic	r1, r2, r1
 488 0062 D965     		str	r1, [r3, #92]
 331:hardware/mcu/st/stm32wlxx_hal_driver/Src/stm32wlxx_hal_pwr_ex.c ****       break;
 489              		.loc 1 331 7 view .LVU93
 490 0064 DCE7     		b	.L51
 491              	.LVL24:
 492              	.L50:
 314:hardware/mcu/st/stm32wlxx_hal_driver/Src/stm32wlxx_hal_pwr_ex.c ****   {
 493              		.loc 1 314 3 is_stmt 0 view .LVU94
 494 0066 0120     		movs	r0, #1
 495              	.LVL25:
 332:hardware/mcu/st/stm32wlxx_hal_driver/Src/stm32wlxx_hal_pwr_ex.c ****     default:
 333:hardware/mcu/st/stm32wlxx_hal_driver/Src/stm32wlxx_hal_pwr_ex.c ****       status = HAL_ERROR;
 334:hardware/mcu/st/stm32wlxx_hal_driver/Src/stm32wlxx_hal_pwr_ex.c ****       break;
ARM GAS  /var/folders/b4/k4jbz0ms4wg23jtq0w6p483m0000gn/T//ccaHqEcm.s 			page 39


 335:hardware/mcu/st/stm32wlxx_hal_driver/Src/stm32wlxx_hal_pwr_ex.c ****   }
 336:hardware/mcu/st/stm32wlxx_hal_driver/Src/stm32wlxx_hal_pwr_ex.c **** 
 337:hardware/mcu/st/stm32wlxx_hal_driver/Src/stm32wlxx_hal_pwr_ex.c ****   return status;
 496              		.loc 1 337 3 is_stmt 1 view .LVU95
 338:hardware/mcu/st/stm32wlxx_hal_driver/Src/stm32wlxx_hal_pwr_ex.c **** }
 497              		.loc 1 338 1 is_stmt 0 view .LVU96
 498 0068 7047     		bx	lr
 499              	.L53:
 500 006a 00BF     		.align	2
 501              	.L52:
 502 006c 00040058 		.word	1476396032
 503              		.cfi_endproc
 504              	.LFE730:
 506              		.section	.text.HAL_PWREx_DisableGPIOPullUp,"ax",%progbits
 507              		.align	1
 508              		.global	HAL_PWREx_DisableGPIOPullUp
 509              		.syntax unified
 510              		.thumb
 511              		.thumb_func
 513              	HAL_PWREx_DisableGPIOPullUp:
 514              	.LVL26:
 515              	.LFB731:
 339:hardware/mcu/st/stm32wlxx_hal_driver/Src/stm32wlxx_hal_pwr_ex.c **** 
 340:hardware/mcu/st/stm32wlxx_hal_driver/Src/stm32wlxx_hal_pwr_ex.c **** /**
 341:hardware/mcu/st/stm32wlxx_hal_driver/Src/stm32wlxx_hal_pwr_ex.c ****   * @brief Disable GPIO pull-up state in Standby mode and Shutdown modes.
 342:hardware/mcu/st/stm32wlxx_hal_driver/Src/stm32wlxx_hal_pwr_ex.c ****   * @note  Reset the relevant PUy bits of PWR_PUCRx register used to configure the I/O
 343:hardware/mcu/st/stm32wlxx_hal_driver/Src/stm32wlxx_hal_pwr_ex.c ****   *        in pull-up state in Standby and Shutdown modes.
 344:hardware/mcu/st/stm32wlxx_hal_driver/Src/stm32wlxx_hal_pwr_ex.c ****   * @note  Even if a PUy bit to reset is reserved, the other PUy bits entered as input
 345:hardware/mcu/st/stm32wlxx_hal_driver/Src/stm32wlxx_hal_pwr_ex.c ****   *        parameter at the same time are reset.
 346:hardware/mcu/st/stm32wlxx_hal_driver/Src/stm32wlxx_hal_pwr_ex.c ****   * @param GPIO Specifies the IO port. This parameter can be PWR_GPIO_A, ..., PWR_GPIO_H
 347:hardware/mcu/st/stm32wlxx_hal_driver/Src/stm32wlxx_hal_pwr_ex.c ****   *         to select the GPIO peripheral.
 348:hardware/mcu/st/stm32wlxx_hal_driver/Src/stm32wlxx_hal_pwr_ex.c ****   * @param GPIONumber Specify the I/O pins numbers.
 349:hardware/mcu/st/stm32wlxx_hal_driver/Src/stm32wlxx_hal_pwr_ex.c ****   *         This parameter can be one of the following values:
 350:hardware/mcu/st/stm32wlxx_hal_driver/Src/stm32wlxx_hal_pwr_ex.c ****   *         PWR_GPIO_BIT_0, ..., PWR_GPIO_BIT_15 (except for PORTH where less
 351:hardware/mcu/st/stm32wlxx_hal_driver/Src/stm32wlxx_hal_pwr_ex.c ****   *         I/O pins are available) or the logical OR of several of them to reset
 352:hardware/mcu/st/stm32wlxx_hal_driver/Src/stm32wlxx_hal_pwr_ex.c ****   *         several bits for a given port in a single API call.
 353:hardware/mcu/st/stm32wlxx_hal_driver/Src/stm32wlxx_hal_pwr_ex.c ****   * @retval HAL Status
 354:hardware/mcu/st/stm32wlxx_hal_driver/Src/stm32wlxx_hal_pwr_ex.c ****   */
 355:hardware/mcu/st/stm32wlxx_hal_driver/Src/stm32wlxx_hal_pwr_ex.c **** HAL_StatusTypeDef HAL_PWREx_DisableGPIOPullUp(uint32_t GPIO, uint32_t GPIONumber)
 356:hardware/mcu/st/stm32wlxx_hal_driver/Src/stm32wlxx_hal_pwr_ex.c **** {
 516              		.loc 1 356 1 is_stmt 1 view -0
 517              		.cfi_startproc
 518              		@ args = 0, pretend = 0, frame = 0
 519              		@ frame_needed = 0, uses_anonymous_args = 0
 520              		@ link register save eliminated.
 357:hardware/mcu/st/stm32wlxx_hal_driver/Src/stm32wlxx_hal_pwr_ex.c ****   HAL_StatusTypeDef status = HAL_OK;
 521              		.loc 1 357 3 view .LVU98
 358:hardware/mcu/st/stm32wlxx_hal_driver/Src/stm32wlxx_hal_pwr_ex.c **** 
 359:hardware/mcu/st/stm32wlxx_hal_driver/Src/stm32wlxx_hal_pwr_ex.c ****   assert_param(IS_PWR_GPIO(GPIO));
 522              		.loc 1 359 3 view .LVU99
 360:hardware/mcu/st/stm32wlxx_hal_driver/Src/stm32wlxx_hal_pwr_ex.c ****   assert_param(IS_PWR_GPIO_BIT_NUMBER(GPIONumber));
 523              		.loc 1 360 3 view .LVU100
 361:hardware/mcu/st/stm32wlxx_hal_driver/Src/stm32wlxx_hal_pwr_ex.c **** 
 362:hardware/mcu/st/stm32wlxx_hal_driver/Src/stm32wlxx_hal_pwr_ex.c ****   switch (GPIO)
 524              		.loc 1 362 3 view .LVU101
 525 0000 0728     		cmp	r0, #7
 526 0002 24D8     		bhi	.L61
ARM GAS  /var/folders/b4/k4jbz0ms4wg23jtq0w6p483m0000gn/T//ccaHqEcm.s 			page 40


 527 0004 DFE800F0 		tbb	[pc, r0]
 528              	.L57:
 529 0008 04       		.byte	(.L60-.L57)/2
 530 0009 0B       		.byte	(.L59-.L57)/2
 531 000a 11       		.byte	(.L58-.L57)/2
 532 000b 23       		.byte	(.L61-.L57)/2
 533 000c 23       		.byte	(.L61-.L57)/2
 534 000d 23       		.byte	(.L61-.L57)/2
 535 000e 23       		.byte	(.L61-.L57)/2
 536 000f 1B       		.byte	(.L56-.L57)/2
 537              		.p2align 1
 538              	.L60:
 363:hardware/mcu/st/stm32wlxx_hal_driver/Src/stm32wlxx_hal_pwr_ex.c ****   {
 364:hardware/mcu/st/stm32wlxx_hal_driver/Src/stm32wlxx_hal_pwr_ex.c ****     case PWR_GPIO_A:
 365:hardware/mcu/st/stm32wlxx_hal_driver/Src/stm32wlxx_hal_pwr_ex.c ****       CLEAR_BIT(PWR->PUCRA, GPIONumber);
 539              		.loc 1 365 7 view .LVU102
 540 0010 104A     		ldr	r2, .L63
 541 0012 136A     		ldr	r3, [r2, #32]
 542 0014 23EA0101 		bic	r1, r3, r1
 543              	.LVL27:
 544              		.loc 1 365 7 is_stmt 0 view .LVU103
 545 0018 1162     		str	r1, [r2, #32]
 366:hardware/mcu/st/stm32wlxx_hal_driver/Src/stm32wlxx_hal_pwr_ex.c ****       break;
 546              		.loc 1 366 7 is_stmt 1 view .LVU104
 547              	.L62:
 367:hardware/mcu/st/stm32wlxx_hal_driver/Src/stm32wlxx_hal_pwr_ex.c ****     case PWR_GPIO_B:
 368:hardware/mcu/st/stm32wlxx_hal_driver/Src/stm32wlxx_hal_pwr_ex.c ****       CLEAR_BIT(PWR->PUCRB, GPIONumber);
 369:hardware/mcu/st/stm32wlxx_hal_driver/Src/stm32wlxx_hal_pwr_ex.c ****       break;
 548              		.loc 1 369 7 view .LVU105
 357:hardware/mcu/st/stm32wlxx_hal_driver/Src/stm32wlxx_hal_pwr_ex.c **** 
 549              		.loc 1 357 21 is_stmt 0 view .LVU106
 550 001a 0020     		movs	r0, #0
 551              	.LVL28:
 552              		.loc 1 369 7 view .LVU107
 553 001c 7047     		bx	lr
 554              	.LVL29:
 555              	.L59:
 368:hardware/mcu/st/stm32wlxx_hal_driver/Src/stm32wlxx_hal_pwr_ex.c ****       break;
 556              		.loc 1 368 7 is_stmt 1 view .LVU108
 557 001e 0D4A     		ldr	r2, .L63
 558 0020 936A     		ldr	r3, [r2, #40]
 559 0022 23EA0101 		bic	r1, r3, r1
 560              	.LVL30:
 368:hardware/mcu/st/stm32wlxx_hal_driver/Src/stm32wlxx_hal_pwr_ex.c ****       break;
 561              		.loc 1 368 7 is_stmt 0 view .LVU109
 562 0026 9162     		str	r1, [r2, #40]
 563 0028 F7E7     		b	.L62
 564              	.LVL31:
 565              	.L58:
 370:hardware/mcu/st/stm32wlxx_hal_driver/Src/stm32wlxx_hal_pwr_ex.c ****     case PWR_GPIO_C:
 371:hardware/mcu/st/stm32wlxx_hal_driver/Src/stm32wlxx_hal_pwr_ex.c ****       CLEAR_BIT(PWR->PUCRC, (GPIONumber & PWR_PORTC_AVAILABLE_PINS));
 566              		.loc 1 371 7 is_stmt 1 view .LVU110
 567 002a 0A4A     		ldr	r2, .L63
 568 002c 21F4FC51 		bic	r1, r1, #8064
 569              	.LVL32:
 570              		.loc 1 371 7 is_stmt 0 view .LVU111
 571 0030 136B     		ldr	r3, [r2, #48]
ARM GAS  /var/folders/b4/k4jbz0ms4wg23jtq0w6p483m0000gn/T//ccaHqEcm.s 			page 41


 572 0032 0904     		lsls	r1, r1, #16
 573 0034 090C     		lsrs	r1, r1, #16
 574 0036 23EA0101 		bic	r1, r3, r1
 575 003a 1163     		str	r1, [r2, #48]
 372:hardware/mcu/st/stm32wlxx_hal_driver/Src/stm32wlxx_hal_pwr_ex.c ****       break;
 576              		.loc 1 372 7 is_stmt 1 view .LVU112
 577 003c EDE7     		b	.L62
 578              	.LVL33:
 579              	.L56:
 373:hardware/mcu/st/stm32wlxx_hal_driver/Src/stm32wlxx_hal_pwr_ex.c ****     case PWR_GPIO_H:
 374:hardware/mcu/st/stm32wlxx_hal_driver/Src/stm32wlxx_hal_pwr_ex.c ****       CLEAR_BIT(PWR->PUCRH, (GPIONumber & PWR_PORTH_AVAILABLE_PINS));
 580              		.loc 1 374 7 view .LVU113
 581 003e 054A     		ldr	r2, .L63
 582 0040 936D     		ldr	r3, [r2, #88]
 583 0042 01F00801 		and	r1, r1, #8
 584              	.LVL34:
 585              		.loc 1 374 7 is_stmt 0 view .LVU114
 586 0046 23EA0101 		bic	r1, r3, r1
 587 004a 9165     		str	r1, [r2, #88]
 375:hardware/mcu/st/stm32wlxx_hal_driver/Src/stm32wlxx_hal_pwr_ex.c ****       break;
 588              		.loc 1 375 7 is_stmt 1 view .LVU115
 589 004c E5E7     		b	.L62
 590              	.LVL35:
 591              	.L61:
 362:hardware/mcu/st/stm32wlxx_hal_driver/Src/stm32wlxx_hal_pwr_ex.c ****   {
 592              		.loc 1 362 3 is_stmt 0 view .LVU116
 593 004e 0120     		movs	r0, #1
 594              	.LVL36:
 376:hardware/mcu/st/stm32wlxx_hal_driver/Src/stm32wlxx_hal_pwr_ex.c ****     default:
 377:hardware/mcu/st/stm32wlxx_hal_driver/Src/stm32wlxx_hal_pwr_ex.c ****       status = HAL_ERROR;
 378:hardware/mcu/st/stm32wlxx_hal_driver/Src/stm32wlxx_hal_pwr_ex.c ****       break;
 379:hardware/mcu/st/stm32wlxx_hal_driver/Src/stm32wlxx_hal_pwr_ex.c ****   }
 380:hardware/mcu/st/stm32wlxx_hal_driver/Src/stm32wlxx_hal_pwr_ex.c **** 
 381:hardware/mcu/st/stm32wlxx_hal_driver/Src/stm32wlxx_hal_pwr_ex.c ****   return status;
 595              		.loc 1 381 3 is_stmt 1 view .LVU117
 382:hardware/mcu/st/stm32wlxx_hal_driver/Src/stm32wlxx_hal_pwr_ex.c **** }
 596              		.loc 1 382 1 is_stmt 0 view .LVU118
 597 0050 7047     		bx	lr
 598              	.L64:
 599 0052 00BF     		.align	2
 600              	.L63:
 601 0054 00040058 		.word	1476396032
 602              		.cfi_endproc
 603              	.LFE731:
 605              		.section	.text.HAL_PWREx_EnableGPIOPullDown,"ax",%progbits
 606              		.align	1
 607              		.global	HAL_PWREx_EnableGPIOPullDown
 608              		.syntax unified
 609              		.thumb
 610              		.thumb_func
 612              	HAL_PWREx_EnableGPIOPullDown:
 613              	.LVL37:
 614              	.LFB732:
 383:hardware/mcu/st/stm32wlxx_hal_driver/Src/stm32wlxx_hal_pwr_ex.c **** 
 384:hardware/mcu/st/stm32wlxx_hal_driver/Src/stm32wlxx_hal_pwr_ex.c **** /**
 385:hardware/mcu/st/stm32wlxx_hal_driver/Src/stm32wlxx_hal_pwr_ex.c ****   * @brief Enable GPIO pull-down state in Standby and Shutdown modes.
 386:hardware/mcu/st/stm32wlxx_hal_driver/Src/stm32wlxx_hal_pwr_ex.c ****   * @note  Set the relevant PDy bits of PWR_PDCRx register to configure the I/O in
ARM GAS  /var/folders/b4/k4jbz0ms4wg23jtq0w6p483m0000gn/T//ccaHqEcm.s 			page 42


 387:hardware/mcu/st/stm32wlxx_hal_driver/Src/stm32wlxx_hal_pwr_ex.c ****   *        pull-down state in Standby and Shutdown modes.
 388:hardware/mcu/st/stm32wlxx_hal_driver/Src/stm32wlxx_hal_pwr_ex.c ****   * @note  This state is effective in Standby and Shutdown modes only if APC bit
 389:hardware/mcu/st/stm32wlxx_hal_driver/Src/stm32wlxx_hal_pwr_ex.c ****   *        is set through HAL_PWREx_EnablePullUpPullDownConfig() API.
 390:hardware/mcu/st/stm32wlxx_hal_driver/Src/stm32wlxx_hal_pwr_ex.c ****   * @note  The configuration is lost when exiting the Shutdown mode due to the
 391:hardware/mcu/st/stm32wlxx_hal_driver/Src/stm32wlxx_hal_pwr_ex.c ****   *        power-on reset, maintained when exiting the Standby mode.
 392:hardware/mcu/st/stm32wlxx_hal_driver/Src/stm32wlxx_hal_pwr_ex.c ****   * @note  To avoid any conflict at Standby and Shutdown modes exits, the corresponding
 393:hardware/mcu/st/stm32wlxx_hal_driver/Src/stm32wlxx_hal_pwr_ex.c ****   *        PUy bit of PWR_PUCRx register is cleared unless it is reserved.
 394:hardware/mcu/st/stm32wlxx_hal_driver/Src/stm32wlxx_hal_pwr_ex.c ****   * @note  Even if a PDy bit to set is reserved, the other PDy bits entered as input
 395:hardware/mcu/st/stm32wlxx_hal_driver/Src/stm32wlxx_hal_pwr_ex.c ****   *        parameter at the same time are set.
 396:hardware/mcu/st/stm32wlxx_hal_driver/Src/stm32wlxx_hal_pwr_ex.c ****   * @param GPIO Specify the IO port. This parameter can be PWR_GPIO_A..PWR_GPIO_H
 397:hardware/mcu/st/stm32wlxx_hal_driver/Src/stm32wlxx_hal_pwr_ex.c ****   *         to select the GPIO peripheral.
 398:hardware/mcu/st/stm32wlxx_hal_driver/Src/stm32wlxx_hal_pwr_ex.c ****   * @param GPIONumber Specify the I/O pins numbers.
 399:hardware/mcu/st/stm32wlxx_hal_driver/Src/stm32wlxx_hal_pwr_ex.c ****   *         This parameter can be one of the following values:
 400:hardware/mcu/st/stm32wlxx_hal_driver/Src/stm32wlxx_hal_pwr_ex.c ****   *         PWR_GPIO_BIT_0, ..., PWR_GPIO_BIT_15 (except for PORTH where less
 401:hardware/mcu/st/stm32wlxx_hal_driver/Src/stm32wlxx_hal_pwr_ex.c ****   *         I/O pins are available) or the logical OR of several of them to set
 402:hardware/mcu/st/stm32wlxx_hal_driver/Src/stm32wlxx_hal_pwr_ex.c ****   *         several bits for a given port in a single API call.
 403:hardware/mcu/st/stm32wlxx_hal_driver/Src/stm32wlxx_hal_pwr_ex.c ****   * @retval HAL Status
 404:hardware/mcu/st/stm32wlxx_hal_driver/Src/stm32wlxx_hal_pwr_ex.c ****   */
 405:hardware/mcu/st/stm32wlxx_hal_driver/Src/stm32wlxx_hal_pwr_ex.c **** HAL_StatusTypeDef HAL_PWREx_EnableGPIOPullDown(uint32_t GPIO, uint32_t GPIONumber)
 406:hardware/mcu/st/stm32wlxx_hal_driver/Src/stm32wlxx_hal_pwr_ex.c **** {
 615              		.loc 1 406 1 is_stmt 1 view -0
 616              		.cfi_startproc
 617              		@ args = 0, pretend = 0, frame = 0
 618              		@ frame_needed = 0, uses_anonymous_args = 0
 619              		@ link register save eliminated.
 407:hardware/mcu/st/stm32wlxx_hal_driver/Src/stm32wlxx_hal_pwr_ex.c ****   HAL_StatusTypeDef status = HAL_OK;
 620              		.loc 1 407 3 view .LVU120
 408:hardware/mcu/st/stm32wlxx_hal_driver/Src/stm32wlxx_hal_pwr_ex.c **** 
 409:hardware/mcu/st/stm32wlxx_hal_driver/Src/stm32wlxx_hal_pwr_ex.c ****   assert_param(IS_PWR_GPIO(GPIO));
 621              		.loc 1 409 3 view .LVU121
 410:hardware/mcu/st/stm32wlxx_hal_driver/Src/stm32wlxx_hal_pwr_ex.c ****   assert_param(IS_PWR_GPIO_BIT_NUMBER(GPIONumber));
 622              		.loc 1 410 3 view .LVU122
 411:hardware/mcu/st/stm32wlxx_hal_driver/Src/stm32wlxx_hal_pwr_ex.c **** 
 412:hardware/mcu/st/stm32wlxx_hal_driver/Src/stm32wlxx_hal_pwr_ex.c ****   switch (GPIO)
 623              		.loc 1 412 3 view .LVU123
 624 0000 0728     		cmp	r0, #7
 625 0002 30D8     		bhi	.L72
 626 0004 DFE800F0 		tbb	[pc, r0]
 627              	.L68:
 628 0008 04       		.byte	(.L71-.L68)/2
 629 0009 0E       		.byte	(.L70-.L68)/2
 630 000a 17       		.byte	(.L69-.L68)/2
 631 000b 2F       		.byte	(.L72-.L68)/2
 632 000c 2F       		.byte	(.L72-.L68)/2
 633 000d 2F       		.byte	(.L72-.L68)/2
 634 000e 2F       		.byte	(.L72-.L68)/2
 635 000f 24       		.byte	(.L67-.L68)/2
 636              		.p2align 1
 637              	.L71:
 413:hardware/mcu/st/stm32wlxx_hal_driver/Src/stm32wlxx_hal_pwr_ex.c ****   {
 414:hardware/mcu/st/stm32wlxx_hal_driver/Src/stm32wlxx_hal_pwr_ex.c ****     case PWR_GPIO_A:
 415:hardware/mcu/st/stm32wlxx_hal_driver/Src/stm32wlxx_hal_pwr_ex.c ****       SET_BIT(PWR->PDCRA, GPIONumber);
 638              		.loc 1 415 7 view .LVU124
 639 0010 164B     		ldr	r3, .L74
 640 0012 5A6A     		ldr	r2, [r3, #36]
 641 0014 0A43     		orrs	r2, r2, r1
 642 0016 5A62     		str	r2, [r3, #36]
ARM GAS  /var/folders/b4/k4jbz0ms4wg23jtq0w6p483m0000gn/T//ccaHqEcm.s 			page 43


 416:hardware/mcu/st/stm32wlxx_hal_driver/Src/stm32wlxx_hal_pwr_ex.c ****       CLEAR_BIT(PWR->PUCRA, GPIONumber);
 643              		.loc 1 416 7 view .LVU125
 644 0018 1A6A     		ldr	r2, [r3, #32]
 645 001a 22EA0101 		bic	r1, r2, r1
 646              	.LVL38:
 647              		.loc 1 416 7 is_stmt 0 view .LVU126
 648 001e 1962     		str	r1, [r3, #32]
 417:hardware/mcu/st/stm32wlxx_hal_driver/Src/stm32wlxx_hal_pwr_ex.c ****       break;
 649              		.loc 1 417 7 is_stmt 1 view .LVU127
 650              	.L73:
 418:hardware/mcu/st/stm32wlxx_hal_driver/Src/stm32wlxx_hal_pwr_ex.c ****     case PWR_GPIO_B:
 419:hardware/mcu/st/stm32wlxx_hal_driver/Src/stm32wlxx_hal_pwr_ex.c ****       SET_BIT(PWR->PDCRB, GPIONumber);
 420:hardware/mcu/st/stm32wlxx_hal_driver/Src/stm32wlxx_hal_pwr_ex.c ****       CLEAR_BIT(PWR->PUCRB, GPIONumber);
 421:hardware/mcu/st/stm32wlxx_hal_driver/Src/stm32wlxx_hal_pwr_ex.c ****       break;
 651              		.loc 1 421 7 view .LVU128
 407:hardware/mcu/st/stm32wlxx_hal_driver/Src/stm32wlxx_hal_pwr_ex.c **** 
 652              		.loc 1 407 21 is_stmt 0 view .LVU129
 653 0020 0020     		movs	r0, #0
 654              	.LVL39:
 655              		.loc 1 421 7 view .LVU130
 656 0022 7047     		bx	lr
 657              	.LVL40:
 658              	.L70:
 419:hardware/mcu/st/stm32wlxx_hal_driver/Src/stm32wlxx_hal_pwr_ex.c ****       CLEAR_BIT(PWR->PUCRB, GPIONumber);
 659              		.loc 1 419 7 is_stmt 1 view .LVU131
 660 0024 114B     		ldr	r3, .L74
 661 0026 DA6A     		ldr	r2, [r3, #44]
 662 0028 0A43     		orrs	r2, r2, r1
 663 002a DA62     		str	r2, [r3, #44]
 420:hardware/mcu/st/stm32wlxx_hal_driver/Src/stm32wlxx_hal_pwr_ex.c ****       break;
 664              		.loc 1 420 7 view .LVU132
 665 002c 9A6A     		ldr	r2, [r3, #40]
 666 002e 22EA0101 		bic	r1, r2, r1
 667              	.LVL41:
 420:hardware/mcu/st/stm32wlxx_hal_driver/Src/stm32wlxx_hal_pwr_ex.c ****       break;
 668              		.loc 1 420 7 is_stmt 0 view .LVU133
 669 0032 9962     		str	r1, [r3, #40]
 670 0034 F4E7     		b	.L73
 671              	.LVL42:
 672              	.L69:
 422:hardware/mcu/st/stm32wlxx_hal_driver/Src/stm32wlxx_hal_pwr_ex.c ****     case PWR_GPIO_C:
 423:hardware/mcu/st/stm32wlxx_hal_driver/Src/stm32wlxx_hal_pwr_ex.c ****       SET_BIT(PWR->PDCRC, (GPIONumber & PWR_PORTC_AVAILABLE_PINS));
 673              		.loc 1 423 7 is_stmt 1 view .LVU134
 674 0036 0D4B     		ldr	r3, .L74
 675 0038 21F4FC51 		bic	r1, r1, #8064
 676              	.LVL43:
 677              		.loc 1 423 7 is_stmt 0 view .LVU135
 678 003c 5A6B     		ldr	r2, [r3, #52]
 679 003e 0904     		lsls	r1, r1, #16
 680 0040 090C     		lsrs	r1, r1, #16
 681 0042 0A43     		orrs	r2, r2, r1
 682 0044 5A63     		str	r2, [r3, #52]
 424:hardware/mcu/st/stm32wlxx_hal_driver/Src/stm32wlxx_hal_pwr_ex.c ****       CLEAR_BIT(PWR->PUCRC, (GPIONumber & PWR_PORTC_AVAILABLE_PINS));
 683              		.loc 1 424 7 is_stmt 1 view .LVU136
 684 0046 1A6B     		ldr	r2, [r3, #48]
 685 0048 22EA0101 		bic	r1, r2, r1
 686 004c 1963     		str	r1, [r3, #48]
ARM GAS  /var/folders/b4/k4jbz0ms4wg23jtq0w6p483m0000gn/T//ccaHqEcm.s 			page 44


 425:hardware/mcu/st/stm32wlxx_hal_driver/Src/stm32wlxx_hal_pwr_ex.c ****       break;
 687              		.loc 1 425 7 view .LVU137
 688 004e E7E7     		b	.L73
 689              	.LVL44:
 690              	.L67:
 426:hardware/mcu/st/stm32wlxx_hal_driver/Src/stm32wlxx_hal_pwr_ex.c ****     case PWR_GPIO_H:
 427:hardware/mcu/st/stm32wlxx_hal_driver/Src/stm32wlxx_hal_pwr_ex.c ****       SET_BIT(PWR->PDCRH, (GPIONumber & PWR_PORTH_AVAILABLE_PINS));
 691              		.loc 1 427 7 view .LVU138
 692 0050 064B     		ldr	r3, .L74
 693 0052 DA6D     		ldr	r2, [r3, #92]
 694 0054 01F00801 		and	r1, r1, #8
 695              	.LVL45:
 696              		.loc 1 427 7 is_stmt 0 view .LVU139
 697 0058 0A43     		orrs	r2, r2, r1
 698 005a DA65     		str	r2, [r3, #92]
 428:hardware/mcu/st/stm32wlxx_hal_driver/Src/stm32wlxx_hal_pwr_ex.c ****       CLEAR_BIT(PWR->PUCRH, (GPIONumber & PWR_PORTH_AVAILABLE_PINS));
 699              		.loc 1 428 7 is_stmt 1 view .LVU140
 700 005c 9A6D     		ldr	r2, [r3, #88]
 701 005e 22EA0101 		bic	r1, r2, r1
 702 0062 9965     		str	r1, [r3, #88]
 429:hardware/mcu/st/stm32wlxx_hal_driver/Src/stm32wlxx_hal_pwr_ex.c ****       break;
 703              		.loc 1 429 7 view .LVU141
 704 0064 DCE7     		b	.L73
 705              	.LVL46:
 706              	.L72:
 412:hardware/mcu/st/stm32wlxx_hal_driver/Src/stm32wlxx_hal_pwr_ex.c ****   {
 707              		.loc 1 412 3 is_stmt 0 view .LVU142
 708 0066 0120     		movs	r0, #1
 709              	.LVL47:
 430:hardware/mcu/st/stm32wlxx_hal_driver/Src/stm32wlxx_hal_pwr_ex.c ****     default:
 431:hardware/mcu/st/stm32wlxx_hal_driver/Src/stm32wlxx_hal_pwr_ex.c ****       status = HAL_ERROR;
 432:hardware/mcu/st/stm32wlxx_hal_driver/Src/stm32wlxx_hal_pwr_ex.c ****       break;
 433:hardware/mcu/st/stm32wlxx_hal_driver/Src/stm32wlxx_hal_pwr_ex.c ****   }
 434:hardware/mcu/st/stm32wlxx_hal_driver/Src/stm32wlxx_hal_pwr_ex.c **** 
 435:hardware/mcu/st/stm32wlxx_hal_driver/Src/stm32wlxx_hal_pwr_ex.c ****   return status;
 710              		.loc 1 435 3 is_stmt 1 view .LVU143
 436:hardware/mcu/st/stm32wlxx_hal_driver/Src/stm32wlxx_hal_pwr_ex.c **** }
 711              		.loc 1 436 1 is_stmt 0 view .LVU144
 712 0068 7047     		bx	lr
 713              	.L75:
 714 006a 00BF     		.align	2
 715              	.L74:
 716 006c 00040058 		.word	1476396032
 717              		.cfi_endproc
 718              	.LFE732:
 720              		.section	.text.HAL_PWREx_DisableGPIOPullDown,"ax",%progbits
 721              		.align	1
 722              		.global	HAL_PWREx_DisableGPIOPullDown
 723              		.syntax unified
 724              		.thumb
 725              		.thumb_func
 727              	HAL_PWREx_DisableGPIOPullDown:
 728              	.LVL48:
 729              	.LFB733:
 437:hardware/mcu/st/stm32wlxx_hal_driver/Src/stm32wlxx_hal_pwr_ex.c **** 
 438:hardware/mcu/st/stm32wlxx_hal_driver/Src/stm32wlxx_hal_pwr_ex.c **** /**
 439:hardware/mcu/st/stm32wlxx_hal_driver/Src/stm32wlxx_hal_pwr_ex.c ****   * @brief Disable GPIO pull-down state in Standby and Shutdown modes.
ARM GAS  /var/folders/b4/k4jbz0ms4wg23jtq0w6p483m0000gn/T//ccaHqEcm.s 			page 45


 440:hardware/mcu/st/stm32wlxx_hal_driver/Src/stm32wlxx_hal_pwr_ex.c ****   * @note  Reset the relevant PDy bits of PWR_PDCRx register used to configure the I/O
 441:hardware/mcu/st/stm32wlxx_hal_driver/Src/stm32wlxx_hal_pwr_ex.c ****   *        in pull-down state in Standby and Shutdown modes.
 442:hardware/mcu/st/stm32wlxx_hal_driver/Src/stm32wlxx_hal_pwr_ex.c ****   * @note  Even if a PDy bit to reset is reserved, the other PDy bits entered as input
 443:hardware/mcu/st/stm32wlxx_hal_driver/Src/stm32wlxx_hal_pwr_ex.c ****   *        parameter at the same time are reset.
 444:hardware/mcu/st/stm32wlxx_hal_driver/Src/stm32wlxx_hal_pwr_ex.c ****   * @param GPIO Specifies the IO port. This parameter can be PWR_GPIO_A..PWR_GPIO_H
 445:hardware/mcu/st/stm32wlxx_hal_driver/Src/stm32wlxx_hal_pwr_ex.c ****   *         to select the GPIO peripheral.
 446:hardware/mcu/st/stm32wlxx_hal_driver/Src/stm32wlxx_hal_pwr_ex.c ****   * @param GPIONumber Specify the I/O pins numbers.
 447:hardware/mcu/st/stm32wlxx_hal_driver/Src/stm32wlxx_hal_pwr_ex.c ****   *         This parameter can be one of the following values:
 448:hardware/mcu/st/stm32wlxx_hal_driver/Src/stm32wlxx_hal_pwr_ex.c ****   *         PWR_GPIO_BIT_0, ..., PWR_GPIO_BIT_15 (except for PORTH where less
 449:hardware/mcu/st/stm32wlxx_hal_driver/Src/stm32wlxx_hal_pwr_ex.c ****   *         I/O pins are available) or the logical OR of several of them to reset
 450:hardware/mcu/st/stm32wlxx_hal_driver/Src/stm32wlxx_hal_pwr_ex.c ****   *         several bits for a given port in a single API call.
 451:hardware/mcu/st/stm32wlxx_hal_driver/Src/stm32wlxx_hal_pwr_ex.c ****   * @retval HAL Status
 452:hardware/mcu/st/stm32wlxx_hal_driver/Src/stm32wlxx_hal_pwr_ex.c ****   */
 453:hardware/mcu/st/stm32wlxx_hal_driver/Src/stm32wlxx_hal_pwr_ex.c **** HAL_StatusTypeDef HAL_PWREx_DisableGPIOPullDown(uint32_t GPIO, uint32_t GPIONumber)
 454:hardware/mcu/st/stm32wlxx_hal_driver/Src/stm32wlxx_hal_pwr_ex.c **** {
 730              		.loc 1 454 1 is_stmt 1 view -0
 731              		.cfi_startproc
 732              		@ args = 0, pretend = 0, frame = 0
 733              		@ frame_needed = 0, uses_anonymous_args = 0
 734              		@ link register save eliminated.
 455:hardware/mcu/st/stm32wlxx_hal_driver/Src/stm32wlxx_hal_pwr_ex.c ****   HAL_StatusTypeDef status = HAL_OK;
 735              		.loc 1 455 3 view .LVU146
 456:hardware/mcu/st/stm32wlxx_hal_driver/Src/stm32wlxx_hal_pwr_ex.c **** 
 457:hardware/mcu/st/stm32wlxx_hal_driver/Src/stm32wlxx_hal_pwr_ex.c ****   assert_param(IS_PWR_GPIO(GPIO));
 736              		.loc 1 457 3 view .LVU147
 458:hardware/mcu/st/stm32wlxx_hal_driver/Src/stm32wlxx_hal_pwr_ex.c ****   assert_param(IS_PWR_GPIO_BIT_NUMBER(GPIONumber));
 737              		.loc 1 458 3 view .LVU148
 459:hardware/mcu/st/stm32wlxx_hal_driver/Src/stm32wlxx_hal_pwr_ex.c **** 
 460:hardware/mcu/st/stm32wlxx_hal_driver/Src/stm32wlxx_hal_pwr_ex.c ****   switch (GPIO)
 738              		.loc 1 460 3 view .LVU149
 739 0000 0728     		cmp	r0, #7
 740 0002 24D8     		bhi	.L83
 741 0004 DFE800F0 		tbb	[pc, r0]
 742              	.L79:
 743 0008 04       		.byte	(.L82-.L79)/2
 744 0009 0B       		.byte	(.L81-.L79)/2
 745 000a 11       		.byte	(.L80-.L79)/2
 746 000b 23       		.byte	(.L83-.L79)/2
 747 000c 23       		.byte	(.L83-.L79)/2
 748 000d 23       		.byte	(.L83-.L79)/2
 749 000e 23       		.byte	(.L83-.L79)/2
 750 000f 1B       		.byte	(.L78-.L79)/2
 751              		.p2align 1
 752              	.L82:
 461:hardware/mcu/st/stm32wlxx_hal_driver/Src/stm32wlxx_hal_pwr_ex.c ****   {
 462:hardware/mcu/st/stm32wlxx_hal_driver/Src/stm32wlxx_hal_pwr_ex.c ****     case PWR_GPIO_A:
 463:hardware/mcu/st/stm32wlxx_hal_driver/Src/stm32wlxx_hal_pwr_ex.c ****       CLEAR_BIT(PWR->PDCRA, GPIONumber);
 753              		.loc 1 463 7 view .LVU150
 754 0010 104A     		ldr	r2, .L85
 755 0012 536A     		ldr	r3, [r2, #36]
 756 0014 23EA0101 		bic	r1, r3, r1
 757              	.LVL49:
 758              		.loc 1 463 7 is_stmt 0 view .LVU151
 759 0018 5162     		str	r1, [r2, #36]
 464:hardware/mcu/st/stm32wlxx_hal_driver/Src/stm32wlxx_hal_pwr_ex.c ****       break;
 760              		.loc 1 464 7 is_stmt 1 view .LVU152
 761              	.L84:
ARM GAS  /var/folders/b4/k4jbz0ms4wg23jtq0w6p483m0000gn/T//ccaHqEcm.s 			page 46


 465:hardware/mcu/st/stm32wlxx_hal_driver/Src/stm32wlxx_hal_pwr_ex.c ****     case PWR_GPIO_B:
 466:hardware/mcu/st/stm32wlxx_hal_driver/Src/stm32wlxx_hal_pwr_ex.c ****       CLEAR_BIT(PWR->PDCRB, GPIONumber);
 467:hardware/mcu/st/stm32wlxx_hal_driver/Src/stm32wlxx_hal_pwr_ex.c ****       break;
 762              		.loc 1 467 7 view .LVU153
 455:hardware/mcu/st/stm32wlxx_hal_driver/Src/stm32wlxx_hal_pwr_ex.c **** 
 763              		.loc 1 455 21 is_stmt 0 view .LVU154
 764 001a 0020     		movs	r0, #0
 765              	.LVL50:
 766              		.loc 1 467 7 view .LVU155
 767 001c 7047     		bx	lr
 768              	.LVL51:
 769              	.L81:
 466:hardware/mcu/st/stm32wlxx_hal_driver/Src/stm32wlxx_hal_pwr_ex.c ****       break;
 770              		.loc 1 466 7 is_stmt 1 view .LVU156
 771 001e 0D4A     		ldr	r2, .L85
 772 0020 D36A     		ldr	r3, [r2, #44]
 773 0022 23EA0101 		bic	r1, r3, r1
 774              	.LVL52:
 466:hardware/mcu/st/stm32wlxx_hal_driver/Src/stm32wlxx_hal_pwr_ex.c ****       break;
 775              		.loc 1 466 7 is_stmt 0 view .LVU157
 776 0026 D162     		str	r1, [r2, #44]
 777 0028 F7E7     		b	.L84
 778              	.LVL53:
 779              	.L80:
 468:hardware/mcu/st/stm32wlxx_hal_driver/Src/stm32wlxx_hal_pwr_ex.c ****     case PWR_GPIO_C:
 469:hardware/mcu/st/stm32wlxx_hal_driver/Src/stm32wlxx_hal_pwr_ex.c ****       CLEAR_BIT(PWR->PDCRC, (GPIONumber & PWR_PORTC_AVAILABLE_PINS));
 780              		.loc 1 469 7 is_stmt 1 view .LVU158
 781 002a 0A4A     		ldr	r2, .L85
 782 002c 21F4FC51 		bic	r1, r1, #8064
 783              	.LVL54:
 784              		.loc 1 469 7 is_stmt 0 view .LVU159
 785 0030 536B     		ldr	r3, [r2, #52]
 786 0032 0904     		lsls	r1, r1, #16
 787 0034 090C     		lsrs	r1, r1, #16
 788 0036 23EA0101 		bic	r1, r3, r1
 789 003a 5163     		str	r1, [r2, #52]
 470:hardware/mcu/st/stm32wlxx_hal_driver/Src/stm32wlxx_hal_pwr_ex.c ****       break;
 790              		.loc 1 470 7 is_stmt 1 view .LVU160
 791 003c EDE7     		b	.L84
 792              	.LVL55:
 793              	.L78:
 471:hardware/mcu/st/stm32wlxx_hal_driver/Src/stm32wlxx_hal_pwr_ex.c ****     case PWR_GPIO_H:
 472:hardware/mcu/st/stm32wlxx_hal_driver/Src/stm32wlxx_hal_pwr_ex.c ****       CLEAR_BIT(PWR->PDCRH, (GPIONumber & PWR_PORTH_AVAILABLE_PINS));
 794              		.loc 1 472 7 view .LVU161
 795 003e 054A     		ldr	r2, .L85
 796 0040 D36D     		ldr	r3, [r2, #92]
 797 0042 01F00801 		and	r1, r1, #8
 798              	.LVL56:
 799              		.loc 1 472 7 is_stmt 0 view .LVU162
 800 0046 23EA0101 		bic	r1, r3, r1
 801 004a D165     		str	r1, [r2, #92]
 473:hardware/mcu/st/stm32wlxx_hal_driver/Src/stm32wlxx_hal_pwr_ex.c ****       break;
 802              		.loc 1 473 7 is_stmt 1 view .LVU163
 803 004c E5E7     		b	.L84
 804              	.LVL57:
 805              	.L83:
 460:hardware/mcu/st/stm32wlxx_hal_driver/Src/stm32wlxx_hal_pwr_ex.c ****   {
ARM GAS  /var/folders/b4/k4jbz0ms4wg23jtq0w6p483m0000gn/T//ccaHqEcm.s 			page 47


 806              		.loc 1 460 3 is_stmt 0 view .LVU164
 807 004e 0120     		movs	r0, #1
 808              	.LVL58:
 474:hardware/mcu/st/stm32wlxx_hal_driver/Src/stm32wlxx_hal_pwr_ex.c ****     default:
 475:hardware/mcu/st/stm32wlxx_hal_driver/Src/stm32wlxx_hal_pwr_ex.c ****       status = HAL_ERROR;
 476:hardware/mcu/st/stm32wlxx_hal_driver/Src/stm32wlxx_hal_pwr_ex.c ****       break;
 477:hardware/mcu/st/stm32wlxx_hal_driver/Src/stm32wlxx_hal_pwr_ex.c ****   }
 478:hardware/mcu/st/stm32wlxx_hal_driver/Src/stm32wlxx_hal_pwr_ex.c **** 
 479:hardware/mcu/st/stm32wlxx_hal_driver/Src/stm32wlxx_hal_pwr_ex.c ****   return status;
 809              		.loc 1 479 3 is_stmt 1 view .LVU165
 480:hardware/mcu/st/stm32wlxx_hal_driver/Src/stm32wlxx_hal_pwr_ex.c **** }
 810              		.loc 1 480 1 is_stmt 0 view .LVU166
 811 0050 7047     		bx	lr
 812              	.L86:
 813 0052 00BF     		.align	2
 814              	.L85:
 815 0054 00040058 		.word	1476396032
 816              		.cfi_endproc
 817              	.LFE733:
 819              		.section	.text.HAL_PWREx_EnablePullUpPullDownConfig,"ax",%progbits
 820              		.align	1
 821              		.global	HAL_PWREx_EnablePullUpPullDownConfig
 822              		.syntax unified
 823              		.thumb
 824              		.thumb_func
 826              	HAL_PWREx_EnablePullUpPullDownConfig:
 827              	.LFB734:
 481:hardware/mcu/st/stm32wlxx_hal_driver/Src/stm32wlxx_hal_pwr_ex.c **** 
 482:hardware/mcu/st/stm32wlxx_hal_driver/Src/stm32wlxx_hal_pwr_ex.c **** /**
 483:hardware/mcu/st/stm32wlxx_hal_driver/Src/stm32wlxx_hal_pwr_ex.c ****   * @brief Enable pull-up and pull-down configuration.
 484:hardware/mcu/st/stm32wlxx_hal_driver/Src/stm32wlxx_hal_pwr_ex.c ****   * @note  When APC bit is set, the I/O pull-up and pull-down configurations defined in
 485:hardware/mcu/st/stm32wlxx_hal_driver/Src/stm32wlxx_hal_pwr_ex.c ****   *        PWR_PUCRx and PWR_PDCRx registers are applied in Standby and Shutdown modes.
 486:hardware/mcu/st/stm32wlxx_hal_driver/Src/stm32wlxx_hal_pwr_ex.c ****   * @note  Pull-up set by PUy bit of PWR_PUCRx register is not activated if the corresponding
 487:hardware/mcu/st/stm32wlxx_hal_driver/Src/stm32wlxx_hal_pwr_ex.c ****   *        PDy bit of PWR_PDCRx register is also set (pull-down configuration priority is higher).
 488:hardware/mcu/st/stm32wlxx_hal_driver/Src/stm32wlxx_hal_pwr_ex.c ****   *        HAL_PWREx_EnableGPIOPullUp() and HAL_PWREx_EnableGPIOPullDown() API's ensure there
 489:hardware/mcu/st/stm32wlxx_hal_driver/Src/stm32wlxx_hal_pwr_ex.c ****   *        is no conflict when setting PUy or PDy bit.
 490:hardware/mcu/st/stm32wlxx_hal_driver/Src/stm32wlxx_hal_pwr_ex.c ****   * @retval None
 491:hardware/mcu/st/stm32wlxx_hal_driver/Src/stm32wlxx_hal_pwr_ex.c ****   */
 492:hardware/mcu/st/stm32wlxx_hal_driver/Src/stm32wlxx_hal_pwr_ex.c **** void HAL_PWREx_EnablePullUpPullDownConfig(void)
 493:hardware/mcu/st/stm32wlxx_hal_driver/Src/stm32wlxx_hal_pwr_ex.c **** {
 828              		.loc 1 493 1 is_stmt 1 view -0
 829              		.cfi_startproc
 830              		@ args = 0, pretend = 0, frame = 0
 831              		@ frame_needed = 0, uses_anonymous_args = 0
 832              		@ link register save eliminated.
 494:hardware/mcu/st/stm32wlxx_hal_driver/Src/stm32wlxx_hal_pwr_ex.c **** #ifdef CORE_CM0PLUS
 495:hardware/mcu/st/stm32wlxx_hal_driver/Src/stm32wlxx_hal_pwr_ex.c ****   SET_BIT(PWR->C2CR3, PWR_C2CR3_APC);
 496:hardware/mcu/st/stm32wlxx_hal_driver/Src/stm32wlxx_hal_pwr_ex.c **** #else
 497:hardware/mcu/st/stm32wlxx_hal_driver/Src/stm32wlxx_hal_pwr_ex.c ****   SET_BIT(PWR->CR3, PWR_CR3_APC);
 833              		.loc 1 497 3 view .LVU168
 834 0000 024A     		ldr	r2, .L88
 835 0002 9368     		ldr	r3, [r2, #8]
 836 0004 43F48063 		orr	r3, r3, #1024
 837 0008 9360     		str	r3, [r2, #8]
 498:hardware/mcu/st/stm32wlxx_hal_driver/Src/stm32wlxx_hal_pwr_ex.c **** #endif
 499:hardware/mcu/st/stm32wlxx_hal_driver/Src/stm32wlxx_hal_pwr_ex.c **** }
 838              		.loc 1 499 1 is_stmt 0 view .LVU169
ARM GAS  /var/folders/b4/k4jbz0ms4wg23jtq0w6p483m0000gn/T//ccaHqEcm.s 			page 48


 839 000a 7047     		bx	lr
 840              	.L89:
 841              		.align	2
 842              	.L88:
 843 000c 00040058 		.word	1476396032
 844              		.cfi_endproc
 845              	.LFE734:
 847              		.section	.text.HAL_PWREx_DisablePullUpPullDownConfig,"ax",%progbits
 848              		.align	1
 849              		.global	HAL_PWREx_DisablePullUpPullDownConfig
 850              		.syntax unified
 851              		.thumb
 852              		.thumb_func
 854              	HAL_PWREx_DisablePullUpPullDownConfig:
 855              	.LFB735:
 500:hardware/mcu/st/stm32wlxx_hal_driver/Src/stm32wlxx_hal_pwr_ex.c **** 
 501:hardware/mcu/st/stm32wlxx_hal_driver/Src/stm32wlxx_hal_pwr_ex.c **** /**
 502:hardware/mcu/st/stm32wlxx_hal_driver/Src/stm32wlxx_hal_pwr_ex.c ****   * @brief Disable pull-up and pull-down configuration.
 503:hardware/mcu/st/stm32wlxx_hal_driver/Src/stm32wlxx_hal_pwr_ex.c ****   * @note  When APC bit is cleared, the I/O pull-up and pull-down configurations defined in
 504:hardware/mcu/st/stm32wlxx_hal_driver/Src/stm32wlxx_hal_pwr_ex.c ****   *        PWR_PUCRx and PWR_PDCRx registers are not applied in Standby and Shutdown modes.
 505:hardware/mcu/st/stm32wlxx_hal_driver/Src/stm32wlxx_hal_pwr_ex.c ****   * @retval None
 506:hardware/mcu/st/stm32wlxx_hal_driver/Src/stm32wlxx_hal_pwr_ex.c ****   */
 507:hardware/mcu/st/stm32wlxx_hal_driver/Src/stm32wlxx_hal_pwr_ex.c **** void HAL_PWREx_DisablePullUpPullDownConfig(void)
 508:hardware/mcu/st/stm32wlxx_hal_driver/Src/stm32wlxx_hal_pwr_ex.c **** {
 856              		.loc 1 508 1 is_stmt 1 view -0
 857              		.cfi_startproc
 858              		@ args = 0, pretend = 0, frame = 0
 859              		@ frame_needed = 0, uses_anonymous_args = 0
 860              		@ link register save eliminated.
 509:hardware/mcu/st/stm32wlxx_hal_driver/Src/stm32wlxx_hal_pwr_ex.c **** #ifdef CORE_CM0PLUS
 510:hardware/mcu/st/stm32wlxx_hal_driver/Src/stm32wlxx_hal_pwr_ex.c ****   CLEAR_BIT(PWR->C2CR3, PWR_C2CR3_APC);
 511:hardware/mcu/st/stm32wlxx_hal_driver/Src/stm32wlxx_hal_pwr_ex.c **** #else
 512:hardware/mcu/st/stm32wlxx_hal_driver/Src/stm32wlxx_hal_pwr_ex.c ****   CLEAR_BIT(PWR->CR3, PWR_CR3_APC);
 861              		.loc 1 512 3 view .LVU171
 862 0000 024A     		ldr	r2, .L91
 863 0002 9368     		ldr	r3, [r2, #8]
 864 0004 23F48063 		bic	r3, r3, #1024
 865 0008 9360     		str	r3, [r2, #8]
 513:hardware/mcu/st/stm32wlxx_hal_driver/Src/stm32wlxx_hal_pwr_ex.c **** #endif
 514:hardware/mcu/st/stm32wlxx_hal_driver/Src/stm32wlxx_hal_pwr_ex.c **** }
 866              		.loc 1 514 1 is_stmt 0 view .LVU172
 867 000a 7047     		bx	lr
 868              	.L92:
 869              		.align	2
 870              	.L91:
 871 000c 00040058 		.word	1476396032
 872              		.cfi_endproc
 873              	.LFE735:
 875              		.section	.text.HAL_PWREx_EnableSRAMRetention,"ax",%progbits
 876              		.align	1
 877              		.global	HAL_PWREx_EnableSRAMRetention
 878              		.syntax unified
 879              		.thumb
 880              		.thumb_func
 882              	HAL_PWREx_EnableSRAMRetention:
 883              	.LFB736:
 515:hardware/mcu/st/stm32wlxx_hal_driver/Src/stm32wlxx_hal_pwr_ex.c **** 
ARM GAS  /var/folders/b4/k4jbz0ms4wg23jtq0w6p483m0000gn/T//ccaHqEcm.s 			page 49


 516:hardware/mcu/st/stm32wlxx_hal_driver/Src/stm32wlxx_hal_pwr_ex.c **** /****************************************************************************/
 517:hardware/mcu/st/stm32wlxx_hal_driver/Src/stm32wlxx_hal_pwr_ex.c **** 
 518:hardware/mcu/st/stm32wlxx_hal_driver/Src/stm32wlxx_hal_pwr_ex.c **** #if defined(DUAL_CORE)
 519:hardware/mcu/st/stm32wlxx_hal_driver/Src/stm32wlxx_hal_pwr_ex.c **** /**
 520:hardware/mcu/st/stm32wlxx_hal_driver/Src/stm32wlxx_hal_pwr_ex.c ****   * @brief  Hold CPU and allocated peripherals after reset or wakeup from Stop or Standby.
 521:hardware/mcu/st/stm32wlxx_hal_driver/Src/stm32wlxx_hal_pwr_ex.c ****   * @param  CPU Specifies the core to be held.
 522:hardware/mcu/st/stm32wlxx_hal_driver/Src/stm32wlxx_hal_pwr_ex.c ****   *             This parameter can be one of the following values:
 523:hardware/mcu/st/stm32wlxx_hal_driver/Src/stm32wlxx_hal_pwr_ex.c ****   *             @arg PWR_CORE_CPU2: Hold CPU2.
 524:hardware/mcu/st/stm32wlxx_hal_driver/Src/stm32wlxx_hal_pwr_ex.c ****   * @note   Hold CPU2 with CPU1 as master by default.
 525:hardware/mcu/st/stm32wlxx_hal_driver/Src/stm32wlxx_hal_pwr_ex.c ****   * @retval None
 526:hardware/mcu/st/stm32wlxx_hal_driver/Src/stm32wlxx_hal_pwr_ex.c ****   */
 527:hardware/mcu/st/stm32wlxx_hal_driver/Src/stm32wlxx_hal_pwr_ex.c **** void HAL_PWREx_HoldCore(uint32_t CPU)
 528:hardware/mcu/st/stm32wlxx_hal_driver/Src/stm32wlxx_hal_pwr_ex.c **** {
 529:hardware/mcu/st/stm32wlxx_hal_driver/Src/stm32wlxx_hal_pwr_ex.c ****   /* Check the parameters */
 530:hardware/mcu/st/stm32wlxx_hal_driver/Src/stm32wlxx_hal_pwr_ex.c ****   assert_param(IS_PWR_CORE_HOLD_RELEASE(CPU));
 531:hardware/mcu/st/stm32wlxx_hal_driver/Src/stm32wlxx_hal_pwr_ex.c **** 
 532:hardware/mcu/st/stm32wlxx_hal_driver/Src/stm32wlxx_hal_pwr_ex.c ****   LL_PWR_DisableBootC2();
 533:hardware/mcu/st/stm32wlxx_hal_driver/Src/stm32wlxx_hal_pwr_ex.c **** }
 534:hardware/mcu/st/stm32wlxx_hal_driver/Src/stm32wlxx_hal_pwr_ex.c **** 
 535:hardware/mcu/st/stm32wlxx_hal_driver/Src/stm32wlxx_hal_pwr_ex.c **** /**
 536:hardware/mcu/st/stm32wlxx_hal_driver/Src/stm32wlxx_hal_pwr_ex.c ****   * @brief  Release CPU and allocated peripherals after reset or wakeup from Stop or Standby.
 537:hardware/mcu/st/stm32wlxx_hal_driver/Src/stm32wlxx_hal_pwr_ex.c ****   * @param  CPU Specifies the core to be released.
 538:hardware/mcu/st/stm32wlxx_hal_driver/Src/stm32wlxx_hal_pwr_ex.c ****   *             This parameter can be one of the following values:
 539:hardware/mcu/st/stm32wlxx_hal_driver/Src/stm32wlxx_hal_pwr_ex.c ****   *             @arg PWR_CORE_CPU2: Release the CPU2 from holding.
 540:hardware/mcu/st/stm32wlxx_hal_driver/Src/stm32wlxx_hal_pwr_ex.c ****   * @retval None
 541:hardware/mcu/st/stm32wlxx_hal_driver/Src/stm32wlxx_hal_pwr_ex.c ****   */
 542:hardware/mcu/st/stm32wlxx_hal_driver/Src/stm32wlxx_hal_pwr_ex.c **** void HAL_PWREx_ReleaseCore(uint32_t CPU)
 543:hardware/mcu/st/stm32wlxx_hal_driver/Src/stm32wlxx_hal_pwr_ex.c **** {
 544:hardware/mcu/st/stm32wlxx_hal_driver/Src/stm32wlxx_hal_pwr_ex.c ****   /* Check the parameters */
 545:hardware/mcu/st/stm32wlxx_hal_driver/Src/stm32wlxx_hal_pwr_ex.c ****   assert_param(IS_PWR_CORE_HOLD_RELEASE(CPU));
 546:hardware/mcu/st/stm32wlxx_hal_driver/Src/stm32wlxx_hal_pwr_ex.c **** 
 547:hardware/mcu/st/stm32wlxx_hal_driver/Src/stm32wlxx_hal_pwr_ex.c ****   LL_PWR_EnableBootC2();
 548:hardware/mcu/st/stm32wlxx_hal_driver/Src/stm32wlxx_hal_pwr_ex.c **** }
 549:hardware/mcu/st/stm32wlxx_hal_driver/Src/stm32wlxx_hal_pwr_ex.c **** 
 550:hardware/mcu/st/stm32wlxx_hal_driver/Src/stm32wlxx_hal_pwr_ex.c **** /****************************************************************************/
 551:hardware/mcu/st/stm32wlxx_hal_driver/Src/stm32wlxx_hal_pwr_ex.c **** #ifdef CORE_CM0PLUS
 552:hardware/mcu/st/stm32wlxx_hal_driver/Src/stm32wlxx_hal_pwr_ex.c **** /**
 553:hardware/mcu/st/stm32wlxx_hal_driver/Src/stm32wlxx_hal_pwr_ex.c ****   * @brief  Enable CPU2 wake-up from low-power mode on illegal access occurrence
 554:hardware/mcu/st/stm32wlxx_hal_driver/Src/stm32wlxx_hal_pwr_ex.c ****   * @note   Can be configured from CPU2 only
 555:hardware/mcu/st/stm32wlxx_hal_driver/Src/stm32wlxx_hal_pwr_ex.c ****   * @retval None
 556:hardware/mcu/st/stm32wlxx_hal_driver/Src/stm32wlxx_hal_pwr_ex.c ****   */
 557:hardware/mcu/st/stm32wlxx_hal_driver/Src/stm32wlxx_hal_pwr_ex.c **** void HAL_PWREx_EnableWakeUp_ILAC(void)
 558:hardware/mcu/st/stm32wlxx_hal_driver/Src/stm32wlxx_hal_pwr_ex.c **** {
 559:hardware/mcu/st/stm32wlxx_hal_driver/Src/stm32wlxx_hal_pwr_ex.c ****   LL_PWR_C2_EnableWakeUp_ILAC();
 560:hardware/mcu/st/stm32wlxx_hal_driver/Src/stm32wlxx_hal_pwr_ex.c **** }
 561:hardware/mcu/st/stm32wlxx_hal_driver/Src/stm32wlxx_hal_pwr_ex.c **** 
 562:hardware/mcu/st/stm32wlxx_hal_driver/Src/stm32wlxx_hal_pwr_ex.c **** /**
 563:hardware/mcu/st/stm32wlxx_hal_driver/Src/stm32wlxx_hal_pwr_ex.c ****   * @brief  Disable CPU2 wake-up from low-power mode on illegal access occurrence
 564:hardware/mcu/st/stm32wlxx_hal_driver/Src/stm32wlxx_hal_pwr_ex.c ****   * @note   Can be configured from CPU2 only
 565:hardware/mcu/st/stm32wlxx_hal_driver/Src/stm32wlxx_hal_pwr_ex.c ****   * @retval None
 566:hardware/mcu/st/stm32wlxx_hal_driver/Src/stm32wlxx_hal_pwr_ex.c ****   */
 567:hardware/mcu/st/stm32wlxx_hal_driver/Src/stm32wlxx_hal_pwr_ex.c **** void HAL_PWREx_DisableWakeUp_ILAC(void)
 568:hardware/mcu/st/stm32wlxx_hal_driver/Src/stm32wlxx_hal_pwr_ex.c **** {
 569:hardware/mcu/st/stm32wlxx_hal_driver/Src/stm32wlxx_hal_pwr_ex.c ****   LL_PWR_C2_DisableWakeUp_ILAC();
 570:hardware/mcu/st/stm32wlxx_hal_driver/Src/stm32wlxx_hal_pwr_ex.c **** }
 571:hardware/mcu/st/stm32wlxx_hal_driver/Src/stm32wlxx_hal_pwr_ex.c **** 
 572:hardware/mcu/st/stm32wlxx_hal_driver/Src/stm32wlxx_hal_pwr_ex.c **** /**
ARM GAS  /var/folders/b4/k4jbz0ms4wg23jtq0w6p483m0000gn/T//ccaHqEcm.s 			page 50


 573:hardware/mcu/st/stm32wlxx_hal_driver/Src/stm32wlxx_hal_pwr_ex.c ****   * @brief  Check if bit to wake-up CPU2 from low-power mode on illegal access
 574:hardware/mcu/st/stm32wlxx_hal_driver/Src/stm32wlxx_hal_pwr_ex.c ****   *         occurrence is set
 575:hardware/mcu/st/stm32wlxx_hal_driver/Src/stm32wlxx_hal_pwr_ex.c ****   * @note   Can be used from CPU2 only
 576:hardware/mcu/st/stm32wlxx_hal_driver/Src/stm32wlxx_hal_pwr_ex.c ****   * @retval State of bit (1 or 0)
 577:hardware/mcu/st/stm32wlxx_hal_driver/Src/stm32wlxx_hal_pwr_ex.c ****   */
 578:hardware/mcu/st/stm32wlxx_hal_driver/Src/stm32wlxx_hal_pwr_ex.c **** uint32_t HAL_PWREx_IsEnabledWakeUp_ILAC(void)
 579:hardware/mcu/st/stm32wlxx_hal_driver/Src/stm32wlxx_hal_pwr_ex.c **** {
 580:hardware/mcu/st/stm32wlxx_hal_driver/Src/stm32wlxx_hal_pwr_ex.c ****   return LL_PWR_C2_IsEnabledWakeUp_ILAC();
 581:hardware/mcu/st/stm32wlxx_hal_driver/Src/stm32wlxx_hal_pwr_ex.c **** }
 582:hardware/mcu/st/stm32wlxx_hal_driver/Src/stm32wlxx_hal_pwr_ex.c **** #endif
 583:hardware/mcu/st/stm32wlxx_hal_driver/Src/stm32wlxx_hal_pwr_ex.c **** #endif
 584:hardware/mcu/st/stm32wlxx_hal_driver/Src/stm32wlxx_hal_pwr_ex.c **** 
 585:hardware/mcu/st/stm32wlxx_hal_driver/Src/stm32wlxx_hal_pwr_ex.c **** /****************************************************************************/
 586:hardware/mcu/st/stm32wlxx_hal_driver/Src/stm32wlxx_hal_pwr_ex.c **** /**
 587:hardware/mcu/st/stm32wlxx_hal_driver/Src/stm32wlxx_hal_pwr_ex.c ****   * @brief Enable SRAM2 content retention in Standby mode.
 588:hardware/mcu/st/stm32wlxx_hal_driver/Src/stm32wlxx_hal_pwr_ex.c ****   * @note  When RRS bit is set, SRAM is powered by the low-power regulator in
 589:hardware/mcu/st/stm32wlxx_hal_driver/Src/stm32wlxx_hal_pwr_ex.c ****   *         Standby mode and its content is kept.
 590:hardware/mcu/st/stm32wlxx_hal_driver/Src/stm32wlxx_hal_pwr_ex.c ****   * @retval None
 591:hardware/mcu/st/stm32wlxx_hal_driver/Src/stm32wlxx_hal_pwr_ex.c ****   */
 592:hardware/mcu/st/stm32wlxx_hal_driver/Src/stm32wlxx_hal_pwr_ex.c **** void HAL_PWREx_EnableSRAMRetention(void)
 593:hardware/mcu/st/stm32wlxx_hal_driver/Src/stm32wlxx_hal_pwr_ex.c **** {
 884              		.loc 1 593 1 is_stmt 1 view -0
 885              		.cfi_startproc
 886              		@ args = 0, pretend = 0, frame = 0
 887              		@ frame_needed = 0, uses_anonymous_args = 0
 888              		@ link register save eliminated.
 594:hardware/mcu/st/stm32wlxx_hal_driver/Src/stm32wlxx_hal_pwr_ex.c ****   LL_PWR_EnableSRAM2Retention();
 889              		.loc 1 594 3 view .LVU174
 890              	.LBB24:
 891              	.LBI24:
 706:hardware/mcu/st/stm32wlxx_hal_driver/Inc/stm32wlxx_ll_pwr.h **** {
 892              		.loc 2 706 22 view .LVU175
 893              	.LBB25:
 708:hardware/mcu/st/stm32wlxx_hal_driver/Inc/stm32wlxx_ll_pwr.h **** }
 894              		.loc 2 708 3 view .LVU176
 895 0000 024A     		ldr	r2, .L94
 896 0002 9368     		ldr	r3, [r2, #8]
 897 0004 43F40073 		orr	r3, r3, #512
 898 0008 9360     		str	r3, [r2, #8]
 899              	.LBE25:
 900              	.LBE24:
 595:hardware/mcu/st/stm32wlxx_hal_driver/Src/stm32wlxx_hal_pwr_ex.c **** }
 901              		.loc 1 595 1 is_stmt 0 view .LVU177
 902 000a 7047     		bx	lr
 903              	.L95:
 904              		.align	2
 905              	.L94:
 906 000c 00040058 		.word	1476396032
 907              		.cfi_endproc
 908              	.LFE736:
 910              		.section	.text.HAL_PWREx_DisableSRAMRetention,"ax",%progbits
 911              		.align	1
 912              		.global	HAL_PWREx_DisableSRAMRetention
 913              		.syntax unified
 914              		.thumb
 915              		.thumb_func
 917              	HAL_PWREx_DisableSRAMRetention:
ARM GAS  /var/folders/b4/k4jbz0ms4wg23jtq0w6p483m0000gn/T//ccaHqEcm.s 			page 51


 918              	.LFB737:
 596:hardware/mcu/st/stm32wlxx_hal_driver/Src/stm32wlxx_hal_pwr_ex.c **** 
 597:hardware/mcu/st/stm32wlxx_hal_driver/Src/stm32wlxx_hal_pwr_ex.c **** /**
 598:hardware/mcu/st/stm32wlxx_hal_driver/Src/stm32wlxx_hal_pwr_ex.c ****   * @brief Disable SRAM2 content retention in Standby mode.
 599:hardware/mcu/st/stm32wlxx_hal_driver/Src/stm32wlxx_hal_pwr_ex.c ****   * @note  When RRS bit is reset, SRAM is powered off in Standby mode
 600:hardware/mcu/st/stm32wlxx_hal_driver/Src/stm32wlxx_hal_pwr_ex.c ****   *        and its content is lost.
 601:hardware/mcu/st/stm32wlxx_hal_driver/Src/stm32wlxx_hal_pwr_ex.c ****   * @retval None
 602:hardware/mcu/st/stm32wlxx_hal_driver/Src/stm32wlxx_hal_pwr_ex.c ****   */
 603:hardware/mcu/st/stm32wlxx_hal_driver/Src/stm32wlxx_hal_pwr_ex.c **** void HAL_PWREx_DisableSRAMRetention(void)
 604:hardware/mcu/st/stm32wlxx_hal_driver/Src/stm32wlxx_hal_pwr_ex.c **** {
 919              		.loc 1 604 1 is_stmt 1 view -0
 920              		.cfi_startproc
 921              		@ args = 0, pretend = 0, frame = 0
 922              		@ frame_needed = 0, uses_anonymous_args = 0
 923              		@ link register save eliminated.
 605:hardware/mcu/st/stm32wlxx_hal_driver/Src/stm32wlxx_hal_pwr_ex.c ****   LL_PWR_DisableSRAM2Retention();
 924              		.loc 1 605 3 view .LVU179
 925              	.LBB28:
 926              	.LBI28:
 716:hardware/mcu/st/stm32wlxx_hal_driver/Inc/stm32wlxx_ll_pwr.h **** {
 927              		.loc 2 716 22 view .LVU180
 928              	.LBB29:
 718:hardware/mcu/st/stm32wlxx_hal_driver/Inc/stm32wlxx_ll_pwr.h **** }
 929              		.loc 2 718 3 view .LVU181
 930 0000 024A     		ldr	r2, .L97
 931 0002 9368     		ldr	r3, [r2, #8]
 932 0004 23F40073 		bic	r3, r3, #512
 933 0008 9360     		str	r3, [r2, #8]
 934              	.LBE29:
 935              	.LBE28:
 606:hardware/mcu/st/stm32wlxx_hal_driver/Src/stm32wlxx_hal_pwr_ex.c **** }
 936              		.loc 1 606 1 is_stmt 0 view .LVU182
 937 000a 7047     		bx	lr
 938              	.L98:
 939              		.align	2
 940              	.L97:
 941 000c 00040058 		.word	1476396032
 942              		.cfi_endproc
 943              	.LFE737:
 945              		.section	.text.HAL_PWREx_EnableFlashPowerDown,"ax",%progbits
 946              		.align	1
 947              		.global	HAL_PWREx_EnableFlashPowerDown
 948              		.syntax unified
 949              		.thumb
 950              		.thumb_func
 952              	HAL_PWREx_EnableFlashPowerDown:
 953              	.LVL59:
 954              	.LFB738:
 607:hardware/mcu/st/stm32wlxx_hal_driver/Src/stm32wlxx_hal_pwr_ex.c **** 
 608:hardware/mcu/st/stm32wlxx_hal_driver/Src/stm32wlxx_hal_pwr_ex.c **** /****************************************************************************/
 609:hardware/mcu/st/stm32wlxx_hal_driver/Src/stm32wlxx_hal_pwr_ex.c **** /**
 610:hardware/mcu/st/stm32wlxx_hal_driver/Src/stm32wlxx_hal_pwr_ex.c ****   * @brief  Enable Flash Power Down.
 611:hardware/mcu/st/stm32wlxx_hal_driver/Src/stm32wlxx_hal_pwr_ex.c ****   * @note   This API allows to enable flash power down capabilities in low power
 612:hardware/mcu/st/stm32wlxx_hal_driver/Src/stm32wlxx_hal_pwr_ex.c ****   *         run and low power sleep modes.
 613:hardware/mcu/st/stm32wlxx_hal_driver/Src/stm32wlxx_hal_pwr_ex.c ****   * @note   This configuration is effective when both CPU have selected it.
 614:hardware/mcu/st/stm32wlxx_hal_driver/Src/stm32wlxx_hal_pwr_ex.c ****   * @param  PowerMode this can be a combination of following values:
 615:hardware/mcu/st/stm32wlxx_hal_driver/Src/stm32wlxx_hal_pwr_ex.c ****   *           @arg @ref PWR_FLASHPD_LPRUN
ARM GAS  /var/folders/b4/k4jbz0ms4wg23jtq0w6p483m0000gn/T//ccaHqEcm.s 			page 52


