ARM GAS  /var/folders/b4/k4jbz0ms4wg23jtq0w6p483m0000gn/T//cc3EDpXC.s 			page 1


   1              		.cpu cortex-m4
   2              		.arch armv7e-m
   3              		.fpu softvfp
   4              		.eabi_attribute 20, 1
   5              		.eabi_attribute 21, 1
   6              		.eabi_attribute 23, 3
   7              		.eabi_attribute 24, 1
   8              		.eabi_attribute 25, 1
   9              		.eabi_attribute 26, 1
  10              		.eabi_attribute 30, 4
  11              		.eabi_attribute 34, 1
  12              		.eabi_attribute 18, 4
  13              		.file	"stm32wlxx_hal_dma.c"
  14              		.text
  15              	.Ltext0:
  16              		.cfi_sections	.debug_frame
  17              		.section	.text.DMA_SetConfig,"ax",%progbits
  18              		.align	1
  19              		.syntax unified
  20              		.thumb
  21              		.thumb_func
  23              	DMA_SetConfig:
  24              	.LVL0:
  25              	.LFB733:
  26              		.file 1 "hardware/mcu/st/stm32wlxx_hal_driver/Src/stm32wlxx_hal_dma.c"
   1:hardware/mcu/st/stm32wlxx_hal_driver/Src/stm32wlxx_hal_dma.c **** /**
   2:hardware/mcu/st/stm32wlxx_hal_driver/Src/stm32wlxx_hal_dma.c ****   ******************************************************************************
   3:hardware/mcu/st/stm32wlxx_hal_driver/Src/stm32wlxx_hal_dma.c ****   * @file    stm32wlxx_hal_dma.c
   4:hardware/mcu/st/stm32wlxx_hal_driver/Src/stm32wlxx_hal_dma.c ****   * @author  MCD Application Team
   5:hardware/mcu/st/stm32wlxx_hal_driver/Src/stm32wlxx_hal_dma.c ****   * @brief   DMA HAL module driver.
   6:hardware/mcu/st/stm32wlxx_hal_driver/Src/stm32wlxx_hal_dma.c ****   *          This file provides firmware functions to manage the following
   7:hardware/mcu/st/stm32wlxx_hal_driver/Src/stm32wlxx_hal_dma.c ****   *          functionalities of the Direct Memory Access (DMA) peripheral:
   8:hardware/mcu/st/stm32wlxx_hal_driver/Src/stm32wlxx_hal_dma.c ****   *           + Initialization and de-initialization functions
   9:hardware/mcu/st/stm32wlxx_hal_driver/Src/stm32wlxx_hal_dma.c ****   *           + IO operation functions
  10:hardware/mcu/st/stm32wlxx_hal_driver/Src/stm32wlxx_hal_dma.c ****   *           + Peripheral State and errors functions
  11:hardware/mcu/st/stm32wlxx_hal_driver/Src/stm32wlxx_hal_dma.c ****   @verbatim
  12:hardware/mcu/st/stm32wlxx_hal_driver/Src/stm32wlxx_hal_dma.c ****   ==============================================================================
  13:hardware/mcu/st/stm32wlxx_hal_driver/Src/stm32wlxx_hal_dma.c ****                         ##### How to use this driver #####
  14:hardware/mcu/st/stm32wlxx_hal_driver/Src/stm32wlxx_hal_dma.c ****   ==============================================================================
  15:hardware/mcu/st/stm32wlxx_hal_driver/Src/stm32wlxx_hal_dma.c ****   [..]
  16:hardware/mcu/st/stm32wlxx_hal_driver/Src/stm32wlxx_hal_dma.c ****    (#) Enable and configure the peripheral to be connected to the DMA Channel
  17:hardware/mcu/st/stm32wlxx_hal_driver/Src/stm32wlxx_hal_dma.c ****        (except for internal SRAM / FLASH memories: no initialization is
  18:hardware/mcu/st/stm32wlxx_hal_driver/Src/stm32wlxx_hal_dma.c ****        necessary). Please refer to the Reference manual for connection between peripherals
  19:hardware/mcu/st/stm32wlxx_hal_driver/Src/stm32wlxx_hal_dma.c ****        and DMA requests.
  20:hardware/mcu/st/stm32wlxx_hal_driver/Src/stm32wlxx_hal_dma.c **** 
  21:hardware/mcu/st/stm32wlxx_hal_driver/Src/stm32wlxx_hal_dma.c ****    (#) For a given Channel, program the required configuration through the following parameters:
  22:hardware/mcu/st/stm32wlxx_hal_driver/Src/stm32wlxx_hal_dma.c ****        Channel request, Transfer Direction, Source and Destination data formats,
  23:hardware/mcu/st/stm32wlxx_hal_driver/Src/stm32wlxx_hal_dma.c ****        Circular or Normal mode, Channel Priority level, Source and Destination Increment mode
  24:hardware/mcu/st/stm32wlxx_hal_driver/Src/stm32wlxx_hal_dma.c ****        using HAL_DMA_Init() function.
  25:hardware/mcu/st/stm32wlxx_hal_driver/Src/stm32wlxx_hal_dma.c **** 
  26:hardware/mcu/st/stm32wlxx_hal_driver/Src/stm32wlxx_hal_dma.c ****        Prior to HAL_DMA_Init the peripheral clock shall be enabled for both DMA & DMAMUX
  27:hardware/mcu/st/stm32wlxx_hal_driver/Src/stm32wlxx_hal_dma.c ****        thanks to:
  28:hardware/mcu/st/stm32wlxx_hal_driver/Src/stm32wlxx_hal_dma.c ****       (##) DMA1 or DMA2: __HAL_RCC_DMA1_CLK_ENABLE() or  __HAL_RCC_DMA2_CLK_ENABLE();
  29:hardware/mcu/st/stm32wlxx_hal_driver/Src/stm32wlxx_hal_dma.c ****       (##) DMAMUX1:      __HAL_RCC_DMAMUX1_CLK_ENABLE();
  30:hardware/mcu/st/stm32wlxx_hal_driver/Src/stm32wlxx_hal_dma.c **** 
  31:hardware/mcu/st/stm32wlxx_hal_driver/Src/stm32wlxx_hal_dma.c ****    (#) Use HAL_DMA_GetState() function to return the DMA state and HAL_DMA_GetError() in case of er
  32:hardware/mcu/st/stm32wlxx_hal_driver/Src/stm32wlxx_hal_dma.c ****        detection.
ARM GAS  /var/folders/b4/k4jbz0ms4wg23jtq0w6p483m0000gn/T//cc3EDpXC.s 			page 2


  33:hardware/mcu/st/stm32wlxx_hal_driver/Src/stm32wlxx_hal_dma.c **** 
  34:hardware/mcu/st/stm32wlxx_hal_driver/Src/stm32wlxx_hal_dma.c ****    (#) Use HAL_DMA_Abort() function to abort the current transfer
  35:hardware/mcu/st/stm32wlxx_hal_driver/Src/stm32wlxx_hal_dma.c **** 
  36:hardware/mcu/st/stm32wlxx_hal_driver/Src/stm32wlxx_hal_dma.c ****      -@-   In Memory-to-Memory transfer mode, Circular mode is not allowed.
  37:hardware/mcu/st/stm32wlxx_hal_driver/Src/stm32wlxx_hal_dma.c **** 
  38:hardware/mcu/st/stm32wlxx_hal_driver/Src/stm32wlxx_hal_dma.c ****      *** Polling mode IO operation ***
  39:hardware/mcu/st/stm32wlxx_hal_driver/Src/stm32wlxx_hal_dma.c ****      =================================
  40:hardware/mcu/st/stm32wlxx_hal_driver/Src/stm32wlxx_hal_dma.c ****      [..]
  41:hardware/mcu/st/stm32wlxx_hal_driver/Src/stm32wlxx_hal_dma.c ****        (+) Use HAL_DMA_Start() to start DMA transfer after the configuration of Source
  42:hardware/mcu/st/stm32wlxx_hal_driver/Src/stm32wlxx_hal_dma.c ****            address and destination address and the Length of data to be transferred
  43:hardware/mcu/st/stm32wlxx_hal_driver/Src/stm32wlxx_hal_dma.c ****        (+) Use HAL_DMA_PollForTransfer() to poll for the end of current transfer, in this
  44:hardware/mcu/st/stm32wlxx_hal_driver/Src/stm32wlxx_hal_dma.c ****            case a fixed Timeout can be configured by User depending from his application.
  45:hardware/mcu/st/stm32wlxx_hal_driver/Src/stm32wlxx_hal_dma.c **** 
  46:hardware/mcu/st/stm32wlxx_hal_driver/Src/stm32wlxx_hal_dma.c ****      *** Interrupt mode IO operation ***
  47:hardware/mcu/st/stm32wlxx_hal_driver/Src/stm32wlxx_hal_dma.c ****      ===================================
  48:hardware/mcu/st/stm32wlxx_hal_driver/Src/stm32wlxx_hal_dma.c ****      [..]
  49:hardware/mcu/st/stm32wlxx_hal_driver/Src/stm32wlxx_hal_dma.c ****        (+) Configure the DMA interrupt priority using HAL_NVIC_SetPriority()
  50:hardware/mcu/st/stm32wlxx_hal_driver/Src/stm32wlxx_hal_dma.c ****        (+) Enable the DMA IRQ handler using HAL_NVIC_EnableIRQ()
  51:hardware/mcu/st/stm32wlxx_hal_driver/Src/stm32wlxx_hal_dma.c ****        (+) Use HAL_DMA_Start_IT() to start DMA transfer after the configuration of
  52:hardware/mcu/st/stm32wlxx_hal_driver/Src/stm32wlxx_hal_dma.c ****            Source address and destination address and the Length of data to be transferred.
  53:hardware/mcu/st/stm32wlxx_hal_driver/Src/stm32wlxx_hal_dma.c ****            In this case the DMA interrupt is configured
  54:hardware/mcu/st/stm32wlxx_hal_driver/Src/stm32wlxx_hal_dma.c ****        (+) Use HAL_DMA_IRQHandler() called under DMA_IRQHandler() Interrupt subroutine
  55:hardware/mcu/st/stm32wlxx_hal_driver/Src/stm32wlxx_hal_dma.c ****        (+) At the end of data transfer HAL_DMA_IRQHandler() function is executed and user can
  56:hardware/mcu/st/stm32wlxx_hal_driver/Src/stm32wlxx_hal_dma.c ****               add his own function to register callbacks with HAL_DMA_RegisterCallback().
  57:hardware/mcu/st/stm32wlxx_hal_driver/Src/stm32wlxx_hal_dma.c **** 
  58:hardware/mcu/st/stm32wlxx_hal_driver/Src/stm32wlxx_hal_dma.c ****      *** DMA HAL driver macros list ***
  59:hardware/mcu/st/stm32wlxx_hal_driver/Src/stm32wlxx_hal_dma.c ****      =============================================
  60:hardware/mcu/st/stm32wlxx_hal_driver/Src/stm32wlxx_hal_dma.c ****      [..]
  61:hardware/mcu/st/stm32wlxx_hal_driver/Src/stm32wlxx_hal_dma.c ****        Below the list of macros in DMA HAL driver.
  62:hardware/mcu/st/stm32wlxx_hal_driver/Src/stm32wlxx_hal_dma.c **** 
  63:hardware/mcu/st/stm32wlxx_hal_driver/Src/stm32wlxx_hal_dma.c ****        (+) __HAL_DMA_ENABLE: Enable the specified DMA Channel.
  64:hardware/mcu/st/stm32wlxx_hal_driver/Src/stm32wlxx_hal_dma.c ****        (+) __HAL_DMA_DISABLE: Disable the specified DMA Channel.
  65:hardware/mcu/st/stm32wlxx_hal_driver/Src/stm32wlxx_hal_dma.c ****        (+) __HAL_DMA_GET_FLAG: Get the DMA Channel pending flags.
  66:hardware/mcu/st/stm32wlxx_hal_driver/Src/stm32wlxx_hal_dma.c ****        (+) __HAL_DMA_CLEAR_FLAG: Clear the DMA Channel pending flags.
  67:hardware/mcu/st/stm32wlxx_hal_driver/Src/stm32wlxx_hal_dma.c ****        (+) __HAL_DMA_ENABLE_IT: Enable the specified DMA Channel interrupts.
  68:hardware/mcu/st/stm32wlxx_hal_driver/Src/stm32wlxx_hal_dma.c ****        (+) __HAL_DMA_DISABLE_IT: Disable the specified DMA Channel interrupts.
  69:hardware/mcu/st/stm32wlxx_hal_driver/Src/stm32wlxx_hal_dma.c ****        (+) __HAL_DMA_GET_IT_SOURCE: Check whether the specified DMA Channel interrupt is enabled or
  70:hardware/mcu/st/stm32wlxx_hal_driver/Src/stm32wlxx_hal_dma.c **** 
  71:hardware/mcu/st/stm32wlxx_hal_driver/Src/stm32wlxx_hal_dma.c ****      [..]
  72:hardware/mcu/st/stm32wlxx_hal_driver/Src/stm32wlxx_hal_dma.c ****       (@) You can refer to the DMA HAL driver header file for more useful macros
  73:hardware/mcu/st/stm32wlxx_hal_driver/Src/stm32wlxx_hal_dma.c **** 
  74:hardware/mcu/st/stm32wlxx_hal_driver/Src/stm32wlxx_hal_dma.c ****   @endverbatim
  75:hardware/mcu/st/stm32wlxx_hal_driver/Src/stm32wlxx_hal_dma.c ****   ******************************************************************************
  76:hardware/mcu/st/stm32wlxx_hal_driver/Src/stm32wlxx_hal_dma.c ****   * @attention
  77:hardware/mcu/st/stm32wlxx_hal_driver/Src/stm32wlxx_hal_dma.c ****   *
  78:hardware/mcu/st/stm32wlxx_hal_driver/Src/stm32wlxx_hal_dma.c ****   * <h2><center>&copy; Copyright (c) 2020 STMicroelectronics.
  79:hardware/mcu/st/stm32wlxx_hal_driver/Src/stm32wlxx_hal_dma.c ****   * All rights reserved.</center></h2>
  80:hardware/mcu/st/stm32wlxx_hal_driver/Src/stm32wlxx_hal_dma.c ****   *
  81:hardware/mcu/st/stm32wlxx_hal_driver/Src/stm32wlxx_hal_dma.c ****   * This software component is licensed by ST under BSD 3-Clause license,
  82:hardware/mcu/st/stm32wlxx_hal_driver/Src/stm32wlxx_hal_dma.c ****   * the "License"; You may not use this file except in compliance with the
  83:hardware/mcu/st/stm32wlxx_hal_driver/Src/stm32wlxx_hal_dma.c ****   * License. You may obtain a copy of the License at:
  84:hardware/mcu/st/stm32wlxx_hal_driver/Src/stm32wlxx_hal_dma.c ****   *                        opensource.org/licenses/BSD-3-Clause
  85:hardware/mcu/st/stm32wlxx_hal_driver/Src/stm32wlxx_hal_dma.c ****   *
  86:hardware/mcu/st/stm32wlxx_hal_driver/Src/stm32wlxx_hal_dma.c ****   ******************************************************************************
  87:hardware/mcu/st/stm32wlxx_hal_driver/Src/stm32wlxx_hal_dma.c ****   */
  88:hardware/mcu/st/stm32wlxx_hal_driver/Src/stm32wlxx_hal_dma.c **** 
  89:hardware/mcu/st/stm32wlxx_hal_driver/Src/stm32wlxx_hal_dma.c **** /* Includes ------------------------------------------------------------------*/
ARM GAS  /var/folders/b4/k4jbz0ms4wg23jtq0w6p483m0000gn/T//cc3EDpXC.s 			page 3


  90:hardware/mcu/st/stm32wlxx_hal_driver/Src/stm32wlxx_hal_dma.c **** #include "stm32wlxx_hal.h"
  91:hardware/mcu/st/stm32wlxx_hal_driver/Src/stm32wlxx_hal_dma.c **** 
  92:hardware/mcu/st/stm32wlxx_hal_driver/Src/stm32wlxx_hal_dma.c **** /** @addtogroup STM32WLxx_HAL_Driver
  93:hardware/mcu/st/stm32wlxx_hal_driver/Src/stm32wlxx_hal_dma.c ****   * @{
  94:hardware/mcu/st/stm32wlxx_hal_driver/Src/stm32wlxx_hal_dma.c ****   */
  95:hardware/mcu/st/stm32wlxx_hal_driver/Src/stm32wlxx_hal_dma.c **** 
  96:hardware/mcu/st/stm32wlxx_hal_driver/Src/stm32wlxx_hal_dma.c **** /** @defgroup DMA DMA
  97:hardware/mcu/st/stm32wlxx_hal_driver/Src/stm32wlxx_hal_dma.c ****   * @brief DMA HAL module driver
  98:hardware/mcu/st/stm32wlxx_hal_driver/Src/stm32wlxx_hal_dma.c ****   * @{
  99:hardware/mcu/st/stm32wlxx_hal_driver/Src/stm32wlxx_hal_dma.c ****   */
 100:hardware/mcu/st/stm32wlxx_hal_driver/Src/stm32wlxx_hal_dma.c **** 
 101:hardware/mcu/st/stm32wlxx_hal_driver/Src/stm32wlxx_hal_dma.c **** #ifdef HAL_DMA_MODULE_ENABLED
 102:hardware/mcu/st/stm32wlxx_hal_driver/Src/stm32wlxx_hal_dma.c **** 
 103:hardware/mcu/st/stm32wlxx_hal_driver/Src/stm32wlxx_hal_dma.c **** /* Private typedef -----------------------------------------------------------*/
 104:hardware/mcu/st/stm32wlxx_hal_driver/Src/stm32wlxx_hal_dma.c **** /* Private define ------------------------------------------------------------*/
 105:hardware/mcu/st/stm32wlxx_hal_driver/Src/stm32wlxx_hal_dma.c **** /* Private macro -------------------------------------------------------------*/
 106:hardware/mcu/st/stm32wlxx_hal_driver/Src/stm32wlxx_hal_dma.c **** /* Private variables ---------------------------------------------------------*/
 107:hardware/mcu/st/stm32wlxx_hal_driver/Src/stm32wlxx_hal_dma.c **** /* Private function prototypes -----------------------------------------------*/
 108:hardware/mcu/st/stm32wlxx_hal_driver/Src/stm32wlxx_hal_dma.c **** 
 109:hardware/mcu/st/stm32wlxx_hal_driver/Src/stm32wlxx_hal_dma.c **** /** @defgroup DMA_Private_Functions DMA Private Functions
 110:hardware/mcu/st/stm32wlxx_hal_driver/Src/stm32wlxx_hal_dma.c ****   * @{
 111:hardware/mcu/st/stm32wlxx_hal_driver/Src/stm32wlxx_hal_dma.c ****   */
 112:hardware/mcu/st/stm32wlxx_hal_driver/Src/stm32wlxx_hal_dma.c **** static void DMA_SetConfig(DMA_HandleTypeDef *hdma, uint32_t SrcAddress, uint32_t DstAddress, uint32
 113:hardware/mcu/st/stm32wlxx_hal_driver/Src/stm32wlxx_hal_dma.c **** static void DMA_CalcDMAMUXChannelBaseAndMask(DMA_HandleTypeDef *hdma);
 114:hardware/mcu/st/stm32wlxx_hal_driver/Src/stm32wlxx_hal_dma.c **** static void DMA_CalcDMAMUXRequestGenBaseAndMask(DMA_HandleTypeDef *hdma);
 115:hardware/mcu/st/stm32wlxx_hal_driver/Src/stm32wlxx_hal_dma.c **** 
 116:hardware/mcu/st/stm32wlxx_hal_driver/Src/stm32wlxx_hal_dma.c **** /**
 117:hardware/mcu/st/stm32wlxx_hal_driver/Src/stm32wlxx_hal_dma.c ****   * @}
 118:hardware/mcu/st/stm32wlxx_hal_driver/Src/stm32wlxx_hal_dma.c ****   */
 119:hardware/mcu/st/stm32wlxx_hal_driver/Src/stm32wlxx_hal_dma.c **** 
 120:hardware/mcu/st/stm32wlxx_hal_driver/Src/stm32wlxx_hal_dma.c **** /* Exported functions ---------------------------------------------------------*/
 121:hardware/mcu/st/stm32wlxx_hal_driver/Src/stm32wlxx_hal_dma.c **** 
 122:hardware/mcu/st/stm32wlxx_hal_driver/Src/stm32wlxx_hal_dma.c **** /** @defgroup DMA_Exported_Functions DMA Exported Functions
 123:hardware/mcu/st/stm32wlxx_hal_driver/Src/stm32wlxx_hal_dma.c ****   * @{
 124:hardware/mcu/st/stm32wlxx_hal_driver/Src/stm32wlxx_hal_dma.c ****   */
 125:hardware/mcu/st/stm32wlxx_hal_driver/Src/stm32wlxx_hal_dma.c **** 
 126:hardware/mcu/st/stm32wlxx_hal_driver/Src/stm32wlxx_hal_dma.c **** /** @defgroup DMA_Exported_Functions_Group1 Initialization and de-initialization functions
 127:hardware/mcu/st/stm32wlxx_hal_driver/Src/stm32wlxx_hal_dma.c ****  *  @brief   Initialization and de-initialization functions
 128:hardware/mcu/st/stm32wlxx_hal_driver/Src/stm32wlxx_hal_dma.c ****  *
 129:hardware/mcu/st/stm32wlxx_hal_driver/Src/stm32wlxx_hal_dma.c **** @verbatim
 130:hardware/mcu/st/stm32wlxx_hal_driver/Src/stm32wlxx_hal_dma.c ****  ===============================================================================
 131:hardware/mcu/st/stm32wlxx_hal_driver/Src/stm32wlxx_hal_dma.c ****              ##### Initialization and de-initialization functions  #####
 132:hardware/mcu/st/stm32wlxx_hal_driver/Src/stm32wlxx_hal_dma.c ****  ===============================================================================
 133:hardware/mcu/st/stm32wlxx_hal_driver/Src/stm32wlxx_hal_dma.c ****     [..]
 134:hardware/mcu/st/stm32wlxx_hal_driver/Src/stm32wlxx_hal_dma.c ****     This section provides functions allowing to initialize the DMA Channel source
 135:hardware/mcu/st/stm32wlxx_hal_driver/Src/stm32wlxx_hal_dma.c ****     and destination addresses, incrementation and data sizes, transfer direction,
 136:hardware/mcu/st/stm32wlxx_hal_driver/Src/stm32wlxx_hal_dma.c ****     circular/normal mode selection, memory-to-memory mode selection and Channel priority value.
 137:hardware/mcu/st/stm32wlxx_hal_driver/Src/stm32wlxx_hal_dma.c ****     [..]
 138:hardware/mcu/st/stm32wlxx_hal_driver/Src/stm32wlxx_hal_dma.c ****     The HAL_DMA_Init() function follows the DMA configuration procedures as described in
 139:hardware/mcu/st/stm32wlxx_hal_driver/Src/stm32wlxx_hal_dma.c ****     reference manual.
 140:hardware/mcu/st/stm32wlxx_hal_driver/Src/stm32wlxx_hal_dma.c **** 
 141:hardware/mcu/st/stm32wlxx_hal_driver/Src/stm32wlxx_hal_dma.c **** @endverbatim
 142:hardware/mcu/st/stm32wlxx_hal_driver/Src/stm32wlxx_hal_dma.c ****   * @{
 143:hardware/mcu/st/stm32wlxx_hal_driver/Src/stm32wlxx_hal_dma.c ****   */
 144:hardware/mcu/st/stm32wlxx_hal_driver/Src/stm32wlxx_hal_dma.c **** 
 145:hardware/mcu/st/stm32wlxx_hal_driver/Src/stm32wlxx_hal_dma.c **** /**
 146:hardware/mcu/st/stm32wlxx_hal_driver/Src/stm32wlxx_hal_dma.c ****   * @brief Initialize the DMA according to the specified
ARM GAS  /var/folders/b4/k4jbz0ms4wg23jtq0w6p483m0000gn/T//cc3EDpXC.s 			page 4


 147:hardware/mcu/st/stm32wlxx_hal_driver/Src/stm32wlxx_hal_dma.c ****   *        parameters in the DMA_InitTypeDef and initialize the associated handle.
 148:hardware/mcu/st/stm32wlxx_hal_driver/Src/stm32wlxx_hal_dma.c ****   * @param hdma Pointer to a DMA_HandleTypeDef structure that contains
 149:hardware/mcu/st/stm32wlxx_hal_driver/Src/stm32wlxx_hal_dma.c ****   *             the configuration information for the specified DMA Channel.
 150:hardware/mcu/st/stm32wlxx_hal_driver/Src/stm32wlxx_hal_dma.c ****   * @retval HAL status
 151:hardware/mcu/st/stm32wlxx_hal_driver/Src/stm32wlxx_hal_dma.c ****   */
 152:hardware/mcu/st/stm32wlxx_hal_driver/Src/stm32wlxx_hal_dma.c **** HAL_StatusTypeDef HAL_DMA_Init(DMA_HandleTypeDef *hdma)
 153:hardware/mcu/st/stm32wlxx_hal_driver/Src/stm32wlxx_hal_dma.c **** {
 154:hardware/mcu/st/stm32wlxx_hal_driver/Src/stm32wlxx_hal_dma.c ****   /* Check the DMA handle allocation */
 155:hardware/mcu/st/stm32wlxx_hal_driver/Src/stm32wlxx_hal_dma.c ****   if (hdma == NULL)
 156:hardware/mcu/st/stm32wlxx_hal_driver/Src/stm32wlxx_hal_dma.c ****   {
 157:hardware/mcu/st/stm32wlxx_hal_driver/Src/stm32wlxx_hal_dma.c ****     return HAL_ERROR;
 158:hardware/mcu/st/stm32wlxx_hal_driver/Src/stm32wlxx_hal_dma.c ****   }
 159:hardware/mcu/st/stm32wlxx_hal_driver/Src/stm32wlxx_hal_dma.c **** 
 160:hardware/mcu/st/stm32wlxx_hal_driver/Src/stm32wlxx_hal_dma.c ****   /* Check the parameters */
 161:hardware/mcu/st/stm32wlxx_hal_driver/Src/stm32wlxx_hal_dma.c ****   assert_param(IS_DMA_ALL_INSTANCE(hdma->Instance));
 162:hardware/mcu/st/stm32wlxx_hal_driver/Src/stm32wlxx_hal_dma.c ****   assert_param(IS_DMA_DIRECTION(hdma->Init.Direction));
 163:hardware/mcu/st/stm32wlxx_hal_driver/Src/stm32wlxx_hal_dma.c ****   assert_param(IS_DMA_PERIPHERAL_INC_STATE(hdma->Init.PeriphInc));
 164:hardware/mcu/st/stm32wlxx_hal_driver/Src/stm32wlxx_hal_dma.c ****   assert_param(IS_DMA_MEMORY_INC_STATE(hdma->Init.MemInc));
 165:hardware/mcu/st/stm32wlxx_hal_driver/Src/stm32wlxx_hal_dma.c ****   assert_param(IS_DMA_PERIPHERAL_DATA_SIZE(hdma->Init.PeriphDataAlignment));
 166:hardware/mcu/st/stm32wlxx_hal_driver/Src/stm32wlxx_hal_dma.c ****   assert_param(IS_DMA_MEMORY_DATA_SIZE(hdma->Init.MemDataAlignment));
 167:hardware/mcu/st/stm32wlxx_hal_driver/Src/stm32wlxx_hal_dma.c ****   assert_param(IS_DMA_MODE(hdma->Init.Mode));
 168:hardware/mcu/st/stm32wlxx_hal_driver/Src/stm32wlxx_hal_dma.c ****   assert_param(IS_DMA_PRIORITY(hdma->Init.Priority));
 169:hardware/mcu/st/stm32wlxx_hal_driver/Src/stm32wlxx_hal_dma.c **** 
 170:hardware/mcu/st/stm32wlxx_hal_driver/Src/stm32wlxx_hal_dma.c ****   assert_param(IS_DMA_ALL_REQUEST(hdma->Init.Request));
 171:hardware/mcu/st/stm32wlxx_hal_driver/Src/stm32wlxx_hal_dma.c **** 
 172:hardware/mcu/st/stm32wlxx_hal_driver/Src/stm32wlxx_hal_dma.c ****   /* Compute the channel index */
 173:hardware/mcu/st/stm32wlxx_hal_driver/Src/stm32wlxx_hal_dma.c ****   if ((uint32_t)(hdma->Instance) < (uint32_t)(DMA2_Channel1))
 174:hardware/mcu/st/stm32wlxx_hal_driver/Src/stm32wlxx_hal_dma.c ****   {
 175:hardware/mcu/st/stm32wlxx_hal_driver/Src/stm32wlxx_hal_dma.c ****     /* DMA1 */
 176:hardware/mcu/st/stm32wlxx_hal_driver/Src/stm32wlxx_hal_dma.c ****     hdma->ChannelIndex = (((uint32_t)hdma->Instance - (uint32_t)DMA1_Channel1) / ((uint32_t)DMA1_Ch
 177:hardware/mcu/st/stm32wlxx_hal_driver/Src/stm32wlxx_hal_dma.c ****     hdma->DmaBaseAddress = DMA1;
 178:hardware/mcu/st/stm32wlxx_hal_driver/Src/stm32wlxx_hal_dma.c ****   }
 179:hardware/mcu/st/stm32wlxx_hal_driver/Src/stm32wlxx_hal_dma.c ****   else
 180:hardware/mcu/st/stm32wlxx_hal_driver/Src/stm32wlxx_hal_dma.c ****   {
 181:hardware/mcu/st/stm32wlxx_hal_driver/Src/stm32wlxx_hal_dma.c ****     /* DMA2 */
 182:hardware/mcu/st/stm32wlxx_hal_driver/Src/stm32wlxx_hal_dma.c ****     hdma->ChannelIndex = (((uint32_t)hdma->Instance - (uint32_t)DMA2_Channel1) / ((uint32_t)DMA2_Ch
 183:hardware/mcu/st/stm32wlxx_hal_driver/Src/stm32wlxx_hal_dma.c ****     hdma->DmaBaseAddress = DMA2;
 184:hardware/mcu/st/stm32wlxx_hal_driver/Src/stm32wlxx_hal_dma.c ****   }
 185:hardware/mcu/st/stm32wlxx_hal_driver/Src/stm32wlxx_hal_dma.c **** 
 186:hardware/mcu/st/stm32wlxx_hal_driver/Src/stm32wlxx_hal_dma.c ****   /* Change DMA peripheral state */
 187:hardware/mcu/st/stm32wlxx_hal_driver/Src/stm32wlxx_hal_dma.c ****   hdma->State = HAL_DMA_STATE_BUSY;
 188:hardware/mcu/st/stm32wlxx_hal_driver/Src/stm32wlxx_hal_dma.c **** 
 189:hardware/mcu/st/stm32wlxx_hal_driver/Src/stm32wlxx_hal_dma.c ****   /* Clear PL, MSIZE, PSIZE, MINC, PINC, CIRC, DIR and MEM2MEM bits */
 190:hardware/mcu/st/stm32wlxx_hal_driver/Src/stm32wlxx_hal_dma.c ****   CLEAR_BIT(hdma->Instance->CCR, (DMA_CCR_PL    | DMA_CCR_MSIZE  | DMA_CCR_PSIZE  | \
 191:hardware/mcu/st/stm32wlxx_hal_driver/Src/stm32wlxx_hal_dma.c ****                                   DMA_CCR_MINC  | DMA_CCR_PINC   | DMA_CCR_CIRC   | \
 192:hardware/mcu/st/stm32wlxx_hal_driver/Src/stm32wlxx_hal_dma.c ****                                   DMA_CCR_DIR   | DMA_CCR_MEM2MEM));
 193:hardware/mcu/st/stm32wlxx_hal_driver/Src/stm32wlxx_hal_dma.c **** 
 194:hardware/mcu/st/stm32wlxx_hal_driver/Src/stm32wlxx_hal_dma.c ****   /* Set the DMA Channel configuration */
 195:hardware/mcu/st/stm32wlxx_hal_driver/Src/stm32wlxx_hal_dma.c ****   SET_BIT(hdma->Instance->CCR, (hdma->Init.Direction           |                               \
 196:hardware/mcu/st/stm32wlxx_hal_driver/Src/stm32wlxx_hal_dma.c ****                                 hdma->Init.PeriphInc           | hdma->Init.MemInc           | \
 197:hardware/mcu/st/stm32wlxx_hal_driver/Src/stm32wlxx_hal_dma.c ****                                 hdma->Init.PeriphDataAlignment | hdma->Init.MemDataAlignment | \
 198:hardware/mcu/st/stm32wlxx_hal_driver/Src/stm32wlxx_hal_dma.c ****                                 hdma->Init.Mode                | hdma->Init.Priority));
 199:hardware/mcu/st/stm32wlxx_hal_driver/Src/stm32wlxx_hal_dma.c **** 
 200:hardware/mcu/st/stm32wlxx_hal_driver/Src/stm32wlxx_hal_dma.c ****   /* Initialize parameters for DMAMUX channel :
 201:hardware/mcu/st/stm32wlxx_hal_driver/Src/stm32wlxx_hal_dma.c ****      DMAmuxChannel, DMAmuxChannelStatus and DMAmuxChannelStatusMask
 202:hardware/mcu/st/stm32wlxx_hal_driver/Src/stm32wlxx_hal_dma.c ****   */
 203:hardware/mcu/st/stm32wlxx_hal_driver/Src/stm32wlxx_hal_dma.c ****   DMA_CalcDMAMUXChannelBaseAndMask(hdma);
ARM GAS  /var/folders/b4/k4jbz0ms4wg23jtq0w6p483m0000gn/T//cc3EDpXC.s 			page 5


 204:hardware/mcu/st/stm32wlxx_hal_driver/Src/stm32wlxx_hal_dma.c **** 
 205:hardware/mcu/st/stm32wlxx_hal_driver/Src/stm32wlxx_hal_dma.c ****   if (hdma->Init.Direction == DMA_MEMORY_TO_MEMORY)
 206:hardware/mcu/st/stm32wlxx_hal_driver/Src/stm32wlxx_hal_dma.c ****   {
 207:hardware/mcu/st/stm32wlxx_hal_driver/Src/stm32wlxx_hal_dma.c ****     /* if memory to memory force the request to 0*/
 208:hardware/mcu/st/stm32wlxx_hal_driver/Src/stm32wlxx_hal_dma.c ****     hdma->Init.Request = DMA_REQUEST_MEM2MEM;
 209:hardware/mcu/st/stm32wlxx_hal_driver/Src/stm32wlxx_hal_dma.c ****   }
 210:hardware/mcu/st/stm32wlxx_hal_driver/Src/stm32wlxx_hal_dma.c **** 
 211:hardware/mcu/st/stm32wlxx_hal_driver/Src/stm32wlxx_hal_dma.c ****   /* Set peripheral request  to DMAMUX channel */
 212:hardware/mcu/st/stm32wlxx_hal_driver/Src/stm32wlxx_hal_dma.c ****   hdma->DMAmuxChannel->CCR = (hdma->Init.Request & DMAMUX_CxCR_DMAREQ_ID);
 213:hardware/mcu/st/stm32wlxx_hal_driver/Src/stm32wlxx_hal_dma.c **** 
 214:hardware/mcu/st/stm32wlxx_hal_driver/Src/stm32wlxx_hal_dma.c ****   /* Clear the DMAMUX synchro overrun flag */
 215:hardware/mcu/st/stm32wlxx_hal_driver/Src/stm32wlxx_hal_dma.c ****   hdma->DMAmuxChannelStatus->CFR = hdma->DMAmuxChannelStatusMask;
 216:hardware/mcu/st/stm32wlxx_hal_driver/Src/stm32wlxx_hal_dma.c **** 
 217:hardware/mcu/st/stm32wlxx_hal_driver/Src/stm32wlxx_hal_dma.c ****   if (((hdma->Init.Request >  0UL) && (hdma->Init.Request <= DMA_REQUEST_GENERATOR3)))
 218:hardware/mcu/st/stm32wlxx_hal_driver/Src/stm32wlxx_hal_dma.c ****   {
 219:hardware/mcu/st/stm32wlxx_hal_driver/Src/stm32wlxx_hal_dma.c ****     /* Initialize parameters for DMAMUX request generator :
 220:hardware/mcu/st/stm32wlxx_hal_driver/Src/stm32wlxx_hal_dma.c ****        DMAmuxRequestGen, DMAmuxRequestGenStatus and DMAmuxRequestGenStatusMask
 221:hardware/mcu/st/stm32wlxx_hal_driver/Src/stm32wlxx_hal_dma.c ****     */
 222:hardware/mcu/st/stm32wlxx_hal_driver/Src/stm32wlxx_hal_dma.c ****     DMA_CalcDMAMUXRequestGenBaseAndMask(hdma);
 223:hardware/mcu/st/stm32wlxx_hal_driver/Src/stm32wlxx_hal_dma.c **** 
 224:hardware/mcu/st/stm32wlxx_hal_driver/Src/stm32wlxx_hal_dma.c ****     /* Reset the DMAMUX request generator register*/
 225:hardware/mcu/st/stm32wlxx_hal_driver/Src/stm32wlxx_hal_dma.c ****     hdma->DMAmuxRequestGen->RGCR = 0U;
 226:hardware/mcu/st/stm32wlxx_hal_driver/Src/stm32wlxx_hal_dma.c **** 
 227:hardware/mcu/st/stm32wlxx_hal_driver/Src/stm32wlxx_hal_dma.c ****     /* Clear the DMAMUX request generator overrun flag */
 228:hardware/mcu/st/stm32wlxx_hal_driver/Src/stm32wlxx_hal_dma.c ****     hdma->DMAmuxRequestGenStatus->RGCFR = hdma->DMAmuxRequestGenStatusMask;
 229:hardware/mcu/st/stm32wlxx_hal_driver/Src/stm32wlxx_hal_dma.c ****   }
 230:hardware/mcu/st/stm32wlxx_hal_driver/Src/stm32wlxx_hal_dma.c ****   else
 231:hardware/mcu/st/stm32wlxx_hal_driver/Src/stm32wlxx_hal_dma.c ****   {
 232:hardware/mcu/st/stm32wlxx_hal_driver/Src/stm32wlxx_hal_dma.c ****     hdma->DMAmuxRequestGen = 0U;
 233:hardware/mcu/st/stm32wlxx_hal_driver/Src/stm32wlxx_hal_dma.c ****     hdma->DMAmuxRequestGenStatus = 0U;
 234:hardware/mcu/st/stm32wlxx_hal_driver/Src/stm32wlxx_hal_dma.c ****     hdma->DMAmuxRequestGenStatusMask = 0U;
 235:hardware/mcu/st/stm32wlxx_hal_driver/Src/stm32wlxx_hal_dma.c ****   }
 236:hardware/mcu/st/stm32wlxx_hal_driver/Src/stm32wlxx_hal_dma.c **** 
 237:hardware/mcu/st/stm32wlxx_hal_driver/Src/stm32wlxx_hal_dma.c ****   /* Initialize the error code */
 238:hardware/mcu/st/stm32wlxx_hal_driver/Src/stm32wlxx_hal_dma.c ****   hdma->ErrorCode = HAL_DMA_ERROR_NONE;
 239:hardware/mcu/st/stm32wlxx_hal_driver/Src/stm32wlxx_hal_dma.c **** 
 240:hardware/mcu/st/stm32wlxx_hal_driver/Src/stm32wlxx_hal_dma.c ****   /* Initialize the DMA state*/
 241:hardware/mcu/st/stm32wlxx_hal_driver/Src/stm32wlxx_hal_dma.c ****   hdma->State = HAL_DMA_STATE_READY;
 242:hardware/mcu/st/stm32wlxx_hal_driver/Src/stm32wlxx_hal_dma.c **** 
 243:hardware/mcu/st/stm32wlxx_hal_driver/Src/stm32wlxx_hal_dma.c ****   /* Release Lock */
 244:hardware/mcu/st/stm32wlxx_hal_driver/Src/stm32wlxx_hal_dma.c ****   __HAL_UNLOCK(hdma);
 245:hardware/mcu/st/stm32wlxx_hal_driver/Src/stm32wlxx_hal_dma.c **** 
 246:hardware/mcu/st/stm32wlxx_hal_driver/Src/stm32wlxx_hal_dma.c ****   return HAL_OK;
 247:hardware/mcu/st/stm32wlxx_hal_driver/Src/stm32wlxx_hal_dma.c **** }
 248:hardware/mcu/st/stm32wlxx_hal_driver/Src/stm32wlxx_hal_dma.c **** 
 249:hardware/mcu/st/stm32wlxx_hal_driver/Src/stm32wlxx_hal_dma.c **** /**
 250:hardware/mcu/st/stm32wlxx_hal_driver/Src/stm32wlxx_hal_dma.c ****   * @brief DeInitialize the DMA peripheral.
 251:hardware/mcu/st/stm32wlxx_hal_driver/Src/stm32wlxx_hal_dma.c ****   * @param hdma Pointer to a DMA_HandleTypeDef structure that contains
 252:hardware/mcu/st/stm32wlxx_hal_driver/Src/stm32wlxx_hal_dma.c ****   *             the configuration information for the specified DMA Channel.
 253:hardware/mcu/st/stm32wlxx_hal_driver/Src/stm32wlxx_hal_dma.c ****   * @retval HAL status
 254:hardware/mcu/st/stm32wlxx_hal_driver/Src/stm32wlxx_hal_dma.c ****   */
 255:hardware/mcu/st/stm32wlxx_hal_driver/Src/stm32wlxx_hal_dma.c **** HAL_StatusTypeDef HAL_DMA_DeInit(DMA_HandleTypeDef *hdma)
 256:hardware/mcu/st/stm32wlxx_hal_driver/Src/stm32wlxx_hal_dma.c **** {
 257:hardware/mcu/st/stm32wlxx_hal_driver/Src/stm32wlxx_hal_dma.c ****   /* Check the DMA handle allocation */
 258:hardware/mcu/st/stm32wlxx_hal_driver/Src/stm32wlxx_hal_dma.c ****   if (NULL == hdma)
 259:hardware/mcu/st/stm32wlxx_hal_driver/Src/stm32wlxx_hal_dma.c ****   {
 260:hardware/mcu/st/stm32wlxx_hal_driver/Src/stm32wlxx_hal_dma.c ****     return HAL_ERROR;
ARM GAS  /var/folders/b4/k4jbz0ms4wg23jtq0w6p483m0000gn/T//cc3EDpXC.s 			page 6


 261:hardware/mcu/st/stm32wlxx_hal_driver/Src/stm32wlxx_hal_dma.c ****   }
 262:hardware/mcu/st/stm32wlxx_hal_driver/Src/stm32wlxx_hal_dma.c **** 
 263:hardware/mcu/st/stm32wlxx_hal_driver/Src/stm32wlxx_hal_dma.c ****   /* Check the parameters */
 264:hardware/mcu/st/stm32wlxx_hal_driver/Src/stm32wlxx_hal_dma.c ****   assert_param(IS_DMA_ALL_INSTANCE(hdma->Instance));
 265:hardware/mcu/st/stm32wlxx_hal_driver/Src/stm32wlxx_hal_dma.c **** 
 266:hardware/mcu/st/stm32wlxx_hal_driver/Src/stm32wlxx_hal_dma.c ****   /* Disable the selected DMA Channelx */
 267:hardware/mcu/st/stm32wlxx_hal_driver/Src/stm32wlxx_hal_dma.c ****   __HAL_DMA_DISABLE(hdma);
 268:hardware/mcu/st/stm32wlxx_hal_driver/Src/stm32wlxx_hal_dma.c **** 
 269:hardware/mcu/st/stm32wlxx_hal_driver/Src/stm32wlxx_hal_dma.c ****   /* Compute the channel index */
 270:hardware/mcu/st/stm32wlxx_hal_driver/Src/stm32wlxx_hal_dma.c ****   if ((uint32_t)(hdma->Instance) < (uint32_t)(DMA2_Channel1))
 271:hardware/mcu/st/stm32wlxx_hal_driver/Src/stm32wlxx_hal_dma.c ****   {
 272:hardware/mcu/st/stm32wlxx_hal_driver/Src/stm32wlxx_hal_dma.c ****     /* DMA1 */
 273:hardware/mcu/st/stm32wlxx_hal_driver/Src/stm32wlxx_hal_dma.c ****     hdma->ChannelIndex = (((uint32_t)hdma->Instance - (uint32_t)DMA1_Channel1) / ((uint32_t)DMA1_Ch
 274:hardware/mcu/st/stm32wlxx_hal_driver/Src/stm32wlxx_hal_dma.c ****     hdma->DmaBaseAddress = DMA1;
 275:hardware/mcu/st/stm32wlxx_hal_driver/Src/stm32wlxx_hal_dma.c ****   }
 276:hardware/mcu/st/stm32wlxx_hal_driver/Src/stm32wlxx_hal_dma.c ****   else
 277:hardware/mcu/st/stm32wlxx_hal_driver/Src/stm32wlxx_hal_dma.c ****   {
 278:hardware/mcu/st/stm32wlxx_hal_driver/Src/stm32wlxx_hal_dma.c ****     /* DMA2 */
 279:hardware/mcu/st/stm32wlxx_hal_driver/Src/stm32wlxx_hal_dma.c ****     hdma->ChannelIndex = (((uint32_t)hdma->Instance - (uint32_t)DMA2_Channel1) / ((uint32_t)DMA2_Ch
 280:hardware/mcu/st/stm32wlxx_hal_driver/Src/stm32wlxx_hal_dma.c ****     hdma->DmaBaseAddress = DMA2;
 281:hardware/mcu/st/stm32wlxx_hal_driver/Src/stm32wlxx_hal_dma.c ****   }
 282:hardware/mcu/st/stm32wlxx_hal_driver/Src/stm32wlxx_hal_dma.c **** 
 283:hardware/mcu/st/stm32wlxx_hal_driver/Src/stm32wlxx_hal_dma.c ****   /* Reset DMA Channel control register */
 284:hardware/mcu/st/stm32wlxx_hal_driver/Src/stm32wlxx_hal_dma.c ****   hdma->Instance->CCR = 0U;
 285:hardware/mcu/st/stm32wlxx_hal_driver/Src/stm32wlxx_hal_dma.c **** 
 286:hardware/mcu/st/stm32wlxx_hal_driver/Src/stm32wlxx_hal_dma.c ****   /* Clear all flags */
 287:hardware/mcu/st/stm32wlxx_hal_driver/Src/stm32wlxx_hal_dma.c ****   hdma->DmaBaseAddress->IFCR = (DMA_ISR_GIF1 << (hdma->ChannelIndex & 0x1CU));
 288:hardware/mcu/st/stm32wlxx_hal_driver/Src/stm32wlxx_hal_dma.c **** 
 289:hardware/mcu/st/stm32wlxx_hal_driver/Src/stm32wlxx_hal_dma.c ****   /* Initialize parameters for DMAMUX channel :
 290:hardware/mcu/st/stm32wlxx_hal_driver/Src/stm32wlxx_hal_dma.c ****      DMAmuxChannel, DMAmuxChannelStatus and DMAmuxChannelStatusMask */
 291:hardware/mcu/st/stm32wlxx_hal_driver/Src/stm32wlxx_hal_dma.c **** 
 292:hardware/mcu/st/stm32wlxx_hal_driver/Src/stm32wlxx_hal_dma.c ****   DMA_CalcDMAMUXChannelBaseAndMask(hdma);
 293:hardware/mcu/st/stm32wlxx_hal_driver/Src/stm32wlxx_hal_dma.c **** 
 294:hardware/mcu/st/stm32wlxx_hal_driver/Src/stm32wlxx_hal_dma.c ****   /* Reset the DMAMUX channel that corresponds to the DMA channel */
 295:hardware/mcu/st/stm32wlxx_hal_driver/Src/stm32wlxx_hal_dma.c ****   hdma->DMAmuxChannel->CCR = 0U;
 296:hardware/mcu/st/stm32wlxx_hal_driver/Src/stm32wlxx_hal_dma.c **** 
 297:hardware/mcu/st/stm32wlxx_hal_driver/Src/stm32wlxx_hal_dma.c ****   /* Clear the DMAMUX synchro overrun flag */
 298:hardware/mcu/st/stm32wlxx_hal_driver/Src/stm32wlxx_hal_dma.c ****   hdma->DMAmuxChannelStatus->CFR = hdma->DMAmuxChannelStatusMask;
 299:hardware/mcu/st/stm32wlxx_hal_driver/Src/stm32wlxx_hal_dma.c **** 
 300:hardware/mcu/st/stm32wlxx_hal_driver/Src/stm32wlxx_hal_dma.c ****   /* Reset Request generator parameters if any */
 301:hardware/mcu/st/stm32wlxx_hal_driver/Src/stm32wlxx_hal_dma.c ****   if (((hdma->Init.Request >  0UL) && (hdma->Init.Request <= DMA_REQUEST_GENERATOR3)))
 302:hardware/mcu/st/stm32wlxx_hal_driver/Src/stm32wlxx_hal_dma.c ****   {
 303:hardware/mcu/st/stm32wlxx_hal_driver/Src/stm32wlxx_hal_dma.c ****     /* Initialize parameters for DMAMUX request generator :
 304:hardware/mcu/st/stm32wlxx_hal_driver/Src/stm32wlxx_hal_dma.c ****        DMAmuxRequestGen, DMAmuxRequestGenStatus and DMAmuxRequestGenStatusMask
 305:hardware/mcu/st/stm32wlxx_hal_driver/Src/stm32wlxx_hal_dma.c ****     */
 306:hardware/mcu/st/stm32wlxx_hal_driver/Src/stm32wlxx_hal_dma.c ****     DMA_CalcDMAMUXRequestGenBaseAndMask(hdma);
 307:hardware/mcu/st/stm32wlxx_hal_driver/Src/stm32wlxx_hal_dma.c **** 
 308:hardware/mcu/st/stm32wlxx_hal_driver/Src/stm32wlxx_hal_dma.c ****     /* Reset the DMAMUX request generator register*/
 309:hardware/mcu/st/stm32wlxx_hal_driver/Src/stm32wlxx_hal_dma.c ****     hdma->DMAmuxRequestGen->RGCR = 0U;
 310:hardware/mcu/st/stm32wlxx_hal_driver/Src/stm32wlxx_hal_dma.c **** 
 311:hardware/mcu/st/stm32wlxx_hal_driver/Src/stm32wlxx_hal_dma.c ****     /* Clear the DMAMUX request generator overrun flag */
 312:hardware/mcu/st/stm32wlxx_hal_driver/Src/stm32wlxx_hal_dma.c ****     hdma->DMAmuxRequestGenStatus->RGCFR = hdma->DMAmuxRequestGenStatusMask;
 313:hardware/mcu/st/stm32wlxx_hal_driver/Src/stm32wlxx_hal_dma.c ****   }
 314:hardware/mcu/st/stm32wlxx_hal_driver/Src/stm32wlxx_hal_dma.c **** 
 315:hardware/mcu/st/stm32wlxx_hal_driver/Src/stm32wlxx_hal_dma.c ****   hdma->DMAmuxRequestGen = 0U;
 316:hardware/mcu/st/stm32wlxx_hal_driver/Src/stm32wlxx_hal_dma.c ****   hdma->DMAmuxRequestGenStatus = 0U;
 317:hardware/mcu/st/stm32wlxx_hal_driver/Src/stm32wlxx_hal_dma.c ****   hdma->DMAmuxRequestGenStatusMask = 0U;
ARM GAS  /var/folders/b4/k4jbz0ms4wg23jtq0w6p483m0000gn/T//cc3EDpXC.s 			page 7


 318:hardware/mcu/st/stm32wlxx_hal_driver/Src/stm32wlxx_hal_dma.c **** 
 319:hardware/mcu/st/stm32wlxx_hal_driver/Src/stm32wlxx_hal_dma.c ****   /* Clean callbacks */
 320:hardware/mcu/st/stm32wlxx_hal_driver/Src/stm32wlxx_hal_dma.c ****   hdma->XferCpltCallback = NULL;
 321:hardware/mcu/st/stm32wlxx_hal_driver/Src/stm32wlxx_hal_dma.c ****   hdma->XferHalfCpltCallback = NULL;
 322:hardware/mcu/st/stm32wlxx_hal_driver/Src/stm32wlxx_hal_dma.c ****   hdma->XferErrorCallback = NULL;
 323:hardware/mcu/st/stm32wlxx_hal_driver/Src/stm32wlxx_hal_dma.c ****   hdma->XferAbortCallback = NULL;
 324:hardware/mcu/st/stm32wlxx_hal_driver/Src/stm32wlxx_hal_dma.c **** 
 325:hardware/mcu/st/stm32wlxx_hal_driver/Src/stm32wlxx_hal_dma.c ****   /* Initialize the error code */
 326:hardware/mcu/st/stm32wlxx_hal_driver/Src/stm32wlxx_hal_dma.c ****   hdma->ErrorCode = HAL_DMA_ERROR_NONE;
 327:hardware/mcu/st/stm32wlxx_hal_driver/Src/stm32wlxx_hal_dma.c **** 
 328:hardware/mcu/st/stm32wlxx_hal_driver/Src/stm32wlxx_hal_dma.c ****   /* Initialize the DMA state */
 329:hardware/mcu/st/stm32wlxx_hal_driver/Src/stm32wlxx_hal_dma.c ****   hdma->State = HAL_DMA_STATE_RESET;
 330:hardware/mcu/st/stm32wlxx_hal_driver/Src/stm32wlxx_hal_dma.c **** 
 331:hardware/mcu/st/stm32wlxx_hal_driver/Src/stm32wlxx_hal_dma.c ****   /* Release Lock */
 332:hardware/mcu/st/stm32wlxx_hal_driver/Src/stm32wlxx_hal_dma.c ****   __HAL_UNLOCK(hdma);
 333:hardware/mcu/st/stm32wlxx_hal_driver/Src/stm32wlxx_hal_dma.c **** 
 334:hardware/mcu/st/stm32wlxx_hal_driver/Src/stm32wlxx_hal_dma.c ****   return HAL_OK;
 335:hardware/mcu/st/stm32wlxx_hal_driver/Src/stm32wlxx_hal_dma.c **** }
 336:hardware/mcu/st/stm32wlxx_hal_driver/Src/stm32wlxx_hal_dma.c **** 
 337:hardware/mcu/st/stm32wlxx_hal_driver/Src/stm32wlxx_hal_dma.c **** /**
 338:hardware/mcu/st/stm32wlxx_hal_driver/Src/stm32wlxx_hal_dma.c ****   * @}
 339:hardware/mcu/st/stm32wlxx_hal_driver/Src/stm32wlxx_hal_dma.c ****   */
 340:hardware/mcu/st/stm32wlxx_hal_driver/Src/stm32wlxx_hal_dma.c **** 
 341:hardware/mcu/st/stm32wlxx_hal_driver/Src/stm32wlxx_hal_dma.c **** /** @defgroup DMA_Exported_Functions_Group2 Input and Output operation functions
 342:hardware/mcu/st/stm32wlxx_hal_driver/Src/stm32wlxx_hal_dma.c ****  *  @brief   Input and Output operation functions
 343:hardware/mcu/st/stm32wlxx_hal_driver/Src/stm32wlxx_hal_dma.c ****  *
 344:hardware/mcu/st/stm32wlxx_hal_driver/Src/stm32wlxx_hal_dma.c **** @verbatim
 345:hardware/mcu/st/stm32wlxx_hal_driver/Src/stm32wlxx_hal_dma.c ****  ===============================================================================
 346:hardware/mcu/st/stm32wlxx_hal_driver/Src/stm32wlxx_hal_dma.c ****                       #####  IO operation functions  #####
 347:hardware/mcu/st/stm32wlxx_hal_driver/Src/stm32wlxx_hal_dma.c ****  ===============================================================================
 348:hardware/mcu/st/stm32wlxx_hal_driver/Src/stm32wlxx_hal_dma.c ****     [..]  This section provides functions allowing to:
 349:hardware/mcu/st/stm32wlxx_hal_driver/Src/stm32wlxx_hal_dma.c ****       (+) Configure the source, destination address and data length and Start DMA transfer
 350:hardware/mcu/st/stm32wlxx_hal_driver/Src/stm32wlxx_hal_dma.c ****       (+) Configure the source, destination address and data length and
 351:hardware/mcu/st/stm32wlxx_hal_driver/Src/stm32wlxx_hal_dma.c ****           Start DMA transfer with interrupt
 352:hardware/mcu/st/stm32wlxx_hal_driver/Src/stm32wlxx_hal_dma.c ****       (+) Abort DMA transfer
 353:hardware/mcu/st/stm32wlxx_hal_driver/Src/stm32wlxx_hal_dma.c ****       (+) Poll for transfer complete
 354:hardware/mcu/st/stm32wlxx_hal_driver/Src/stm32wlxx_hal_dma.c ****       (+) Handle DMA interrupt request
 355:hardware/mcu/st/stm32wlxx_hal_driver/Src/stm32wlxx_hal_dma.c ****       (+) Register and Unregister DMA callbacks
 356:hardware/mcu/st/stm32wlxx_hal_driver/Src/stm32wlxx_hal_dma.c **** 
 357:hardware/mcu/st/stm32wlxx_hal_driver/Src/stm32wlxx_hal_dma.c **** @endverbatim
 358:hardware/mcu/st/stm32wlxx_hal_driver/Src/stm32wlxx_hal_dma.c ****   * @{
 359:hardware/mcu/st/stm32wlxx_hal_driver/Src/stm32wlxx_hal_dma.c ****   */
 360:hardware/mcu/st/stm32wlxx_hal_driver/Src/stm32wlxx_hal_dma.c **** 
 361:hardware/mcu/st/stm32wlxx_hal_driver/Src/stm32wlxx_hal_dma.c **** /**
 362:hardware/mcu/st/stm32wlxx_hal_driver/Src/stm32wlxx_hal_dma.c ****   * @brief Start the DMA Transfer.
 363:hardware/mcu/st/stm32wlxx_hal_driver/Src/stm32wlxx_hal_dma.c ****   * @param hdma Pointer to a DMA_HandleTypeDef structure that contains
 364:hardware/mcu/st/stm32wlxx_hal_driver/Src/stm32wlxx_hal_dma.c ****   *             the configuration information for the specified DMA Channel.
 365:hardware/mcu/st/stm32wlxx_hal_driver/Src/stm32wlxx_hal_dma.c ****   * @param SrcAddress The source memory Buffer address
 366:hardware/mcu/st/stm32wlxx_hal_driver/Src/stm32wlxx_hal_dma.c ****   * @param DstAddress The destination memory Buffer address
 367:hardware/mcu/st/stm32wlxx_hal_driver/Src/stm32wlxx_hal_dma.c ****   * @param DataLength The length of data to be transferred from source to destination
 368:hardware/mcu/st/stm32wlxx_hal_driver/Src/stm32wlxx_hal_dma.c ****   * @retval HAL status
 369:hardware/mcu/st/stm32wlxx_hal_driver/Src/stm32wlxx_hal_dma.c ****   */
 370:hardware/mcu/st/stm32wlxx_hal_driver/Src/stm32wlxx_hal_dma.c **** HAL_StatusTypeDef HAL_DMA_Start(DMA_HandleTypeDef *hdma, uint32_t SrcAddress, uint32_t DstAddress, 
 371:hardware/mcu/st/stm32wlxx_hal_driver/Src/stm32wlxx_hal_dma.c **** {
 372:hardware/mcu/st/stm32wlxx_hal_driver/Src/stm32wlxx_hal_dma.c ****   HAL_StatusTypeDef status = HAL_OK;
 373:hardware/mcu/st/stm32wlxx_hal_driver/Src/stm32wlxx_hal_dma.c **** 
 374:hardware/mcu/st/stm32wlxx_hal_driver/Src/stm32wlxx_hal_dma.c ****   /* Check the parameters */
ARM GAS  /var/folders/b4/k4jbz0ms4wg23jtq0w6p483m0000gn/T//cc3EDpXC.s 			page 8


 375:hardware/mcu/st/stm32wlxx_hal_driver/Src/stm32wlxx_hal_dma.c ****   assert_param(IS_DMA_BUFFER_SIZE(DataLength));
 376:hardware/mcu/st/stm32wlxx_hal_driver/Src/stm32wlxx_hal_dma.c **** 
 377:hardware/mcu/st/stm32wlxx_hal_driver/Src/stm32wlxx_hal_dma.c ****   /* Process locked */
 378:hardware/mcu/st/stm32wlxx_hal_driver/Src/stm32wlxx_hal_dma.c ****   __HAL_LOCK(hdma);
 379:hardware/mcu/st/stm32wlxx_hal_driver/Src/stm32wlxx_hal_dma.c **** 
 380:hardware/mcu/st/stm32wlxx_hal_driver/Src/stm32wlxx_hal_dma.c ****   if (hdma->State == HAL_DMA_STATE_READY)
 381:hardware/mcu/st/stm32wlxx_hal_driver/Src/stm32wlxx_hal_dma.c ****   {
 382:hardware/mcu/st/stm32wlxx_hal_driver/Src/stm32wlxx_hal_dma.c ****     /* Change DMA peripheral state */
 383:hardware/mcu/st/stm32wlxx_hal_driver/Src/stm32wlxx_hal_dma.c ****     hdma->State = HAL_DMA_STATE_BUSY;
 384:hardware/mcu/st/stm32wlxx_hal_driver/Src/stm32wlxx_hal_dma.c **** 
 385:hardware/mcu/st/stm32wlxx_hal_driver/Src/stm32wlxx_hal_dma.c ****     /* Initialize the error code */
 386:hardware/mcu/st/stm32wlxx_hal_driver/Src/stm32wlxx_hal_dma.c ****     hdma->ErrorCode = HAL_DMA_ERROR_NONE;
 387:hardware/mcu/st/stm32wlxx_hal_driver/Src/stm32wlxx_hal_dma.c **** 
 388:hardware/mcu/st/stm32wlxx_hal_driver/Src/stm32wlxx_hal_dma.c ****     /* Disable the peripheral */
 389:hardware/mcu/st/stm32wlxx_hal_driver/Src/stm32wlxx_hal_dma.c ****     __HAL_DMA_DISABLE(hdma);
 390:hardware/mcu/st/stm32wlxx_hal_driver/Src/stm32wlxx_hal_dma.c **** 
 391:hardware/mcu/st/stm32wlxx_hal_driver/Src/stm32wlxx_hal_dma.c ****     /* Configure the source, destination address and the data length & clear flags*/
 392:hardware/mcu/st/stm32wlxx_hal_driver/Src/stm32wlxx_hal_dma.c ****     DMA_SetConfig(hdma, SrcAddress, DstAddress, DataLength);
 393:hardware/mcu/st/stm32wlxx_hal_driver/Src/stm32wlxx_hal_dma.c **** 
 394:hardware/mcu/st/stm32wlxx_hal_driver/Src/stm32wlxx_hal_dma.c ****     /* Enable the Peripheral */
 395:hardware/mcu/st/stm32wlxx_hal_driver/Src/stm32wlxx_hal_dma.c ****     __HAL_DMA_ENABLE(hdma);
 396:hardware/mcu/st/stm32wlxx_hal_driver/Src/stm32wlxx_hal_dma.c ****   }
 397:hardware/mcu/st/stm32wlxx_hal_driver/Src/stm32wlxx_hal_dma.c ****   else
 398:hardware/mcu/st/stm32wlxx_hal_driver/Src/stm32wlxx_hal_dma.c ****   {
 399:hardware/mcu/st/stm32wlxx_hal_driver/Src/stm32wlxx_hal_dma.c ****     /* Change the error code */
 400:hardware/mcu/st/stm32wlxx_hal_driver/Src/stm32wlxx_hal_dma.c ****     hdma->ErrorCode = HAL_DMA_ERROR_BUSY;
 401:hardware/mcu/st/stm32wlxx_hal_driver/Src/stm32wlxx_hal_dma.c **** 
 402:hardware/mcu/st/stm32wlxx_hal_driver/Src/stm32wlxx_hal_dma.c ****     /* Process Unlocked */
 403:hardware/mcu/st/stm32wlxx_hal_driver/Src/stm32wlxx_hal_dma.c ****     __HAL_UNLOCK(hdma);
 404:hardware/mcu/st/stm32wlxx_hal_driver/Src/stm32wlxx_hal_dma.c **** 
 405:hardware/mcu/st/stm32wlxx_hal_driver/Src/stm32wlxx_hal_dma.c ****     /* Return error status */
 406:hardware/mcu/st/stm32wlxx_hal_driver/Src/stm32wlxx_hal_dma.c ****     status = HAL_ERROR;
 407:hardware/mcu/st/stm32wlxx_hal_driver/Src/stm32wlxx_hal_dma.c ****   }
 408:hardware/mcu/st/stm32wlxx_hal_driver/Src/stm32wlxx_hal_dma.c **** 
 409:hardware/mcu/st/stm32wlxx_hal_driver/Src/stm32wlxx_hal_dma.c ****   return status;
 410:hardware/mcu/st/stm32wlxx_hal_driver/Src/stm32wlxx_hal_dma.c **** }
 411:hardware/mcu/st/stm32wlxx_hal_driver/Src/stm32wlxx_hal_dma.c **** 
 412:hardware/mcu/st/stm32wlxx_hal_driver/Src/stm32wlxx_hal_dma.c **** /**
 413:hardware/mcu/st/stm32wlxx_hal_driver/Src/stm32wlxx_hal_dma.c ****   * @brief Start the DMA Transfer with interrupt enabled.
 414:hardware/mcu/st/stm32wlxx_hal_driver/Src/stm32wlxx_hal_dma.c ****   * @param hdma Pointer to a DMA_HandleTypeDef structure that contains
 415:hardware/mcu/st/stm32wlxx_hal_driver/Src/stm32wlxx_hal_dma.c ****   *             the configuration information for the specified DMA Channel.
 416:hardware/mcu/st/stm32wlxx_hal_driver/Src/stm32wlxx_hal_dma.c ****   * @param SrcAddress The source memory Buffer address
 417:hardware/mcu/st/stm32wlxx_hal_driver/Src/stm32wlxx_hal_dma.c ****   * @param DstAddress The destination memory Buffer address
 418:hardware/mcu/st/stm32wlxx_hal_driver/Src/stm32wlxx_hal_dma.c ****   * @param DataLength The length of data to be transferred from source to destination
 419:hardware/mcu/st/stm32wlxx_hal_driver/Src/stm32wlxx_hal_dma.c ****   * @retval HAL status
 420:hardware/mcu/st/stm32wlxx_hal_driver/Src/stm32wlxx_hal_dma.c ****   */
 421:hardware/mcu/st/stm32wlxx_hal_driver/Src/stm32wlxx_hal_dma.c **** HAL_StatusTypeDef HAL_DMA_Start_IT(DMA_HandleTypeDef *hdma, uint32_t SrcAddress, uint32_t DstAddres
 422:hardware/mcu/st/stm32wlxx_hal_driver/Src/stm32wlxx_hal_dma.c **** {
 423:hardware/mcu/st/stm32wlxx_hal_driver/Src/stm32wlxx_hal_dma.c ****   HAL_StatusTypeDef status = HAL_OK;
 424:hardware/mcu/st/stm32wlxx_hal_driver/Src/stm32wlxx_hal_dma.c **** 
 425:hardware/mcu/st/stm32wlxx_hal_driver/Src/stm32wlxx_hal_dma.c ****   /* Check the parameters */
 426:hardware/mcu/st/stm32wlxx_hal_driver/Src/stm32wlxx_hal_dma.c ****   assert_param(IS_DMA_BUFFER_SIZE(DataLength));
 427:hardware/mcu/st/stm32wlxx_hal_driver/Src/stm32wlxx_hal_dma.c **** 
 428:hardware/mcu/st/stm32wlxx_hal_driver/Src/stm32wlxx_hal_dma.c ****   /* Process locked */
 429:hardware/mcu/st/stm32wlxx_hal_driver/Src/stm32wlxx_hal_dma.c ****   __HAL_LOCK(hdma);
 430:hardware/mcu/st/stm32wlxx_hal_driver/Src/stm32wlxx_hal_dma.c **** 
 431:hardware/mcu/st/stm32wlxx_hal_driver/Src/stm32wlxx_hal_dma.c ****   if (hdma->State == HAL_DMA_STATE_READY)
ARM GAS  /var/folders/b4/k4jbz0ms4wg23jtq0w6p483m0000gn/T//cc3EDpXC.s 			page 9


 432:hardware/mcu/st/stm32wlxx_hal_driver/Src/stm32wlxx_hal_dma.c ****   {
 433:hardware/mcu/st/stm32wlxx_hal_driver/Src/stm32wlxx_hal_dma.c ****     /* Change DMA peripheral state */
 434:hardware/mcu/st/stm32wlxx_hal_driver/Src/stm32wlxx_hal_dma.c ****     hdma->State = HAL_DMA_STATE_BUSY;
 435:hardware/mcu/st/stm32wlxx_hal_driver/Src/stm32wlxx_hal_dma.c ****     hdma->ErrorCode = HAL_DMA_ERROR_NONE;
 436:hardware/mcu/st/stm32wlxx_hal_driver/Src/stm32wlxx_hal_dma.c **** 
 437:hardware/mcu/st/stm32wlxx_hal_driver/Src/stm32wlxx_hal_dma.c ****     /* Disable the peripheral */
 438:hardware/mcu/st/stm32wlxx_hal_driver/Src/stm32wlxx_hal_dma.c ****     __HAL_DMA_DISABLE(hdma);
 439:hardware/mcu/st/stm32wlxx_hal_driver/Src/stm32wlxx_hal_dma.c **** 
 440:hardware/mcu/st/stm32wlxx_hal_driver/Src/stm32wlxx_hal_dma.c ****     /* Configure the source, destination address and the data length & clear flags*/
 441:hardware/mcu/st/stm32wlxx_hal_driver/Src/stm32wlxx_hal_dma.c ****     DMA_SetConfig(hdma, SrcAddress, DstAddress, DataLength);
 442:hardware/mcu/st/stm32wlxx_hal_driver/Src/stm32wlxx_hal_dma.c **** 
 443:hardware/mcu/st/stm32wlxx_hal_driver/Src/stm32wlxx_hal_dma.c ****     /* Enable the transfer complete interrupt */
 444:hardware/mcu/st/stm32wlxx_hal_driver/Src/stm32wlxx_hal_dma.c ****     /* Enable the transfer Error interrupt */
 445:hardware/mcu/st/stm32wlxx_hal_driver/Src/stm32wlxx_hal_dma.c ****     if (NULL != hdma->XferHalfCpltCallback)
 446:hardware/mcu/st/stm32wlxx_hal_driver/Src/stm32wlxx_hal_dma.c ****     {
 447:hardware/mcu/st/stm32wlxx_hal_driver/Src/stm32wlxx_hal_dma.c ****       /* Enable the Half transfer complete interrupt as well */
 448:hardware/mcu/st/stm32wlxx_hal_driver/Src/stm32wlxx_hal_dma.c ****       __HAL_DMA_ENABLE_IT(hdma, (DMA_IT_TC | DMA_IT_HT | DMA_IT_TE));
 449:hardware/mcu/st/stm32wlxx_hal_driver/Src/stm32wlxx_hal_dma.c ****     }
 450:hardware/mcu/st/stm32wlxx_hal_driver/Src/stm32wlxx_hal_dma.c ****     else
 451:hardware/mcu/st/stm32wlxx_hal_driver/Src/stm32wlxx_hal_dma.c ****     {
 452:hardware/mcu/st/stm32wlxx_hal_driver/Src/stm32wlxx_hal_dma.c ****       __HAL_DMA_DISABLE_IT(hdma, DMA_IT_HT);
 453:hardware/mcu/st/stm32wlxx_hal_driver/Src/stm32wlxx_hal_dma.c ****       __HAL_DMA_ENABLE_IT(hdma, (DMA_IT_TC | DMA_IT_TE));
 454:hardware/mcu/st/stm32wlxx_hal_driver/Src/stm32wlxx_hal_dma.c ****     }
 455:hardware/mcu/st/stm32wlxx_hal_driver/Src/stm32wlxx_hal_dma.c **** 
 456:hardware/mcu/st/stm32wlxx_hal_driver/Src/stm32wlxx_hal_dma.c ****     /* Check if DMAMUX Synchronization is enabled*/
 457:hardware/mcu/st/stm32wlxx_hal_driver/Src/stm32wlxx_hal_dma.c ****     if ((hdma->DMAmuxChannel->CCR & DMAMUX_CxCR_SE) != 0U)
 458:hardware/mcu/st/stm32wlxx_hal_driver/Src/stm32wlxx_hal_dma.c ****     {
 459:hardware/mcu/st/stm32wlxx_hal_driver/Src/stm32wlxx_hal_dma.c ****       /* Enable DMAMUX sync overrun IT*/
 460:hardware/mcu/st/stm32wlxx_hal_driver/Src/stm32wlxx_hal_dma.c ****       hdma->DMAmuxChannel->CCR |= DMAMUX_CxCR_SOIE;
 461:hardware/mcu/st/stm32wlxx_hal_driver/Src/stm32wlxx_hal_dma.c ****     }
 462:hardware/mcu/st/stm32wlxx_hal_driver/Src/stm32wlxx_hal_dma.c **** 
 463:hardware/mcu/st/stm32wlxx_hal_driver/Src/stm32wlxx_hal_dma.c ****     if (hdma->DMAmuxRequestGen != 0U)
 464:hardware/mcu/st/stm32wlxx_hal_driver/Src/stm32wlxx_hal_dma.c ****     {
 465:hardware/mcu/st/stm32wlxx_hal_driver/Src/stm32wlxx_hal_dma.c ****       /* if using DMAMUX request generator, enable the DMAMUX request generator overrun IT*/
 466:hardware/mcu/st/stm32wlxx_hal_driver/Src/stm32wlxx_hal_dma.c ****       /* enable the request gen overrun IT*/
 467:hardware/mcu/st/stm32wlxx_hal_driver/Src/stm32wlxx_hal_dma.c ****       hdma->DMAmuxRequestGen->RGCR |= DMAMUX_RGxCR_OIE;
 468:hardware/mcu/st/stm32wlxx_hal_driver/Src/stm32wlxx_hal_dma.c ****     }
 469:hardware/mcu/st/stm32wlxx_hal_driver/Src/stm32wlxx_hal_dma.c **** 
 470:hardware/mcu/st/stm32wlxx_hal_driver/Src/stm32wlxx_hal_dma.c ****     /* Enable the Peripheral */
 471:hardware/mcu/st/stm32wlxx_hal_driver/Src/stm32wlxx_hal_dma.c ****     __HAL_DMA_ENABLE(hdma);
 472:hardware/mcu/st/stm32wlxx_hal_driver/Src/stm32wlxx_hal_dma.c ****   }
 473:hardware/mcu/st/stm32wlxx_hal_driver/Src/stm32wlxx_hal_dma.c ****   else
 474:hardware/mcu/st/stm32wlxx_hal_driver/Src/stm32wlxx_hal_dma.c ****   {
 475:hardware/mcu/st/stm32wlxx_hal_driver/Src/stm32wlxx_hal_dma.c ****     /* Change the error code */
 476:hardware/mcu/st/stm32wlxx_hal_driver/Src/stm32wlxx_hal_dma.c ****     hdma->ErrorCode = HAL_DMA_ERROR_BUSY;
 477:hardware/mcu/st/stm32wlxx_hal_driver/Src/stm32wlxx_hal_dma.c **** 
 478:hardware/mcu/st/stm32wlxx_hal_driver/Src/stm32wlxx_hal_dma.c ****     /* Process Unlocked */
 479:hardware/mcu/st/stm32wlxx_hal_driver/Src/stm32wlxx_hal_dma.c ****     __HAL_UNLOCK(hdma);
 480:hardware/mcu/st/stm32wlxx_hal_driver/Src/stm32wlxx_hal_dma.c **** 
 481:hardware/mcu/st/stm32wlxx_hal_driver/Src/stm32wlxx_hal_dma.c ****     /* Return error status */
 482:hardware/mcu/st/stm32wlxx_hal_driver/Src/stm32wlxx_hal_dma.c ****     status = HAL_ERROR;
 483:hardware/mcu/st/stm32wlxx_hal_driver/Src/stm32wlxx_hal_dma.c ****   }
 484:hardware/mcu/st/stm32wlxx_hal_driver/Src/stm32wlxx_hal_dma.c **** 
 485:hardware/mcu/st/stm32wlxx_hal_driver/Src/stm32wlxx_hal_dma.c ****   return status;
 486:hardware/mcu/st/stm32wlxx_hal_driver/Src/stm32wlxx_hal_dma.c **** }
 487:hardware/mcu/st/stm32wlxx_hal_driver/Src/stm32wlxx_hal_dma.c **** 
 488:hardware/mcu/st/stm32wlxx_hal_driver/Src/stm32wlxx_hal_dma.c **** /**
ARM GAS  /var/folders/b4/k4jbz0ms4wg23jtq0w6p483m0000gn/T//cc3EDpXC.s 			page 10


 489:hardware/mcu/st/stm32wlxx_hal_driver/Src/stm32wlxx_hal_dma.c ****   * @brief Abort the DMA Transfer.
 490:hardware/mcu/st/stm32wlxx_hal_driver/Src/stm32wlxx_hal_dma.c ****   * @param hdma Pointer to a DMA_HandleTypeDef structure that contains
 491:hardware/mcu/st/stm32wlxx_hal_driver/Src/stm32wlxx_hal_dma.c ****   *             the configuration information for the specified DMA Channel.
 492:hardware/mcu/st/stm32wlxx_hal_driver/Src/stm32wlxx_hal_dma.c ****   * @retval HAL status
 493:hardware/mcu/st/stm32wlxx_hal_driver/Src/stm32wlxx_hal_dma.c ****   */
 494:hardware/mcu/st/stm32wlxx_hal_driver/Src/stm32wlxx_hal_dma.c **** HAL_StatusTypeDef HAL_DMA_Abort(DMA_HandleTypeDef *hdma)
 495:hardware/mcu/st/stm32wlxx_hal_driver/Src/stm32wlxx_hal_dma.c **** {
 496:hardware/mcu/st/stm32wlxx_hal_driver/Src/stm32wlxx_hal_dma.c ****   /* Check the DMA peripheral handle */
 497:hardware/mcu/st/stm32wlxx_hal_driver/Src/stm32wlxx_hal_dma.c ****   if (NULL == hdma)
 498:hardware/mcu/st/stm32wlxx_hal_driver/Src/stm32wlxx_hal_dma.c ****   {
 499:hardware/mcu/st/stm32wlxx_hal_driver/Src/stm32wlxx_hal_dma.c ****     return HAL_ERROR;
 500:hardware/mcu/st/stm32wlxx_hal_driver/Src/stm32wlxx_hal_dma.c ****   }
 501:hardware/mcu/st/stm32wlxx_hal_driver/Src/stm32wlxx_hal_dma.c **** 
 502:hardware/mcu/st/stm32wlxx_hal_driver/Src/stm32wlxx_hal_dma.c ****   /* Check the DMA peripheral state */
 503:hardware/mcu/st/stm32wlxx_hal_driver/Src/stm32wlxx_hal_dma.c ****   if (hdma->State != HAL_DMA_STATE_BUSY)
 504:hardware/mcu/st/stm32wlxx_hal_driver/Src/stm32wlxx_hal_dma.c ****   {
 505:hardware/mcu/st/stm32wlxx_hal_driver/Src/stm32wlxx_hal_dma.c ****     hdma->ErrorCode = HAL_DMA_ERROR_NO_XFER;
 506:hardware/mcu/st/stm32wlxx_hal_driver/Src/stm32wlxx_hal_dma.c **** 
 507:hardware/mcu/st/stm32wlxx_hal_driver/Src/stm32wlxx_hal_dma.c ****     /* Process Unlocked */
 508:hardware/mcu/st/stm32wlxx_hal_driver/Src/stm32wlxx_hal_dma.c ****     __HAL_UNLOCK(hdma);
 509:hardware/mcu/st/stm32wlxx_hal_driver/Src/stm32wlxx_hal_dma.c **** 
 510:hardware/mcu/st/stm32wlxx_hal_driver/Src/stm32wlxx_hal_dma.c ****     return HAL_ERROR;
 511:hardware/mcu/st/stm32wlxx_hal_driver/Src/stm32wlxx_hal_dma.c ****   }
 512:hardware/mcu/st/stm32wlxx_hal_driver/Src/stm32wlxx_hal_dma.c ****   else
 513:hardware/mcu/st/stm32wlxx_hal_driver/Src/stm32wlxx_hal_dma.c ****   {
 514:hardware/mcu/st/stm32wlxx_hal_driver/Src/stm32wlxx_hal_dma.c ****     /* Disable DMA IT */
 515:hardware/mcu/st/stm32wlxx_hal_driver/Src/stm32wlxx_hal_dma.c ****     __HAL_DMA_DISABLE_IT(hdma, (DMA_IT_TC | DMA_IT_HT | DMA_IT_TE));
 516:hardware/mcu/st/stm32wlxx_hal_driver/Src/stm32wlxx_hal_dma.c **** 
 517:hardware/mcu/st/stm32wlxx_hal_driver/Src/stm32wlxx_hal_dma.c ****     /* disable the DMAMUX sync overrun IT*/
 518:hardware/mcu/st/stm32wlxx_hal_driver/Src/stm32wlxx_hal_dma.c ****     hdma->DMAmuxChannel->CCR &= ~DMAMUX_CxCR_SOIE;
 519:hardware/mcu/st/stm32wlxx_hal_driver/Src/stm32wlxx_hal_dma.c **** 
 520:hardware/mcu/st/stm32wlxx_hal_driver/Src/stm32wlxx_hal_dma.c ****     /* Disable the channel */
 521:hardware/mcu/st/stm32wlxx_hal_driver/Src/stm32wlxx_hal_dma.c ****     __HAL_DMA_DISABLE(hdma);
 522:hardware/mcu/st/stm32wlxx_hal_driver/Src/stm32wlxx_hal_dma.c **** 
 523:hardware/mcu/st/stm32wlxx_hal_driver/Src/stm32wlxx_hal_dma.c ****     /* Clear all flags */
 524:hardware/mcu/st/stm32wlxx_hal_driver/Src/stm32wlxx_hal_dma.c ****     hdma->DmaBaseAddress->IFCR = (DMA_ISR_GIF1 << (hdma->ChannelIndex & 0x1CU));
 525:hardware/mcu/st/stm32wlxx_hal_driver/Src/stm32wlxx_hal_dma.c **** 
 526:hardware/mcu/st/stm32wlxx_hal_driver/Src/stm32wlxx_hal_dma.c ****     /* Clear the DMAMUX synchro overrun flag */
 527:hardware/mcu/st/stm32wlxx_hal_driver/Src/stm32wlxx_hal_dma.c ****     hdma->DMAmuxChannelStatus->CFR = hdma->DMAmuxChannelStatusMask;
 528:hardware/mcu/st/stm32wlxx_hal_driver/Src/stm32wlxx_hal_dma.c **** 
 529:hardware/mcu/st/stm32wlxx_hal_driver/Src/stm32wlxx_hal_dma.c ****     if (hdma->DMAmuxRequestGen != 0U)
 530:hardware/mcu/st/stm32wlxx_hal_driver/Src/stm32wlxx_hal_dma.c ****     {
 531:hardware/mcu/st/stm32wlxx_hal_driver/Src/stm32wlxx_hal_dma.c ****       /* if using DMAMUX request generator, disable the DMAMUX request generator overrun IT*/
 532:hardware/mcu/st/stm32wlxx_hal_driver/Src/stm32wlxx_hal_dma.c ****       /* disable the request gen overrun IT*/
 533:hardware/mcu/st/stm32wlxx_hal_driver/Src/stm32wlxx_hal_dma.c ****       hdma->DMAmuxRequestGen->RGCR &= ~DMAMUX_RGxCR_OIE;
 534:hardware/mcu/st/stm32wlxx_hal_driver/Src/stm32wlxx_hal_dma.c **** 
 535:hardware/mcu/st/stm32wlxx_hal_driver/Src/stm32wlxx_hal_dma.c ****       /* Clear the DMAMUX request generator overrun flag */
 536:hardware/mcu/st/stm32wlxx_hal_driver/Src/stm32wlxx_hal_dma.c ****       hdma->DMAmuxRequestGenStatus->RGCFR = hdma->DMAmuxRequestGenStatusMask;
 537:hardware/mcu/st/stm32wlxx_hal_driver/Src/stm32wlxx_hal_dma.c ****     }
 538:hardware/mcu/st/stm32wlxx_hal_driver/Src/stm32wlxx_hal_dma.c **** 
 539:hardware/mcu/st/stm32wlxx_hal_driver/Src/stm32wlxx_hal_dma.c ****     /* Change the DMA state */
 540:hardware/mcu/st/stm32wlxx_hal_driver/Src/stm32wlxx_hal_dma.c ****     hdma->State = HAL_DMA_STATE_READY;
 541:hardware/mcu/st/stm32wlxx_hal_driver/Src/stm32wlxx_hal_dma.c **** 
 542:hardware/mcu/st/stm32wlxx_hal_driver/Src/stm32wlxx_hal_dma.c ****     /* Process Unlocked */
 543:hardware/mcu/st/stm32wlxx_hal_driver/Src/stm32wlxx_hal_dma.c ****     __HAL_UNLOCK(hdma);
 544:hardware/mcu/st/stm32wlxx_hal_driver/Src/stm32wlxx_hal_dma.c ****   }
 545:hardware/mcu/st/stm32wlxx_hal_driver/Src/stm32wlxx_hal_dma.c **** 
ARM GAS  /var/folders/b4/k4jbz0ms4wg23jtq0w6p483m0000gn/T//cc3EDpXC.s 			page 11


 546:hardware/mcu/st/stm32wlxx_hal_driver/Src/stm32wlxx_hal_dma.c ****   return HAL_OK;
 547:hardware/mcu/st/stm32wlxx_hal_driver/Src/stm32wlxx_hal_dma.c **** }
 548:hardware/mcu/st/stm32wlxx_hal_driver/Src/stm32wlxx_hal_dma.c **** 
 549:hardware/mcu/st/stm32wlxx_hal_driver/Src/stm32wlxx_hal_dma.c **** /**
 550:hardware/mcu/st/stm32wlxx_hal_driver/Src/stm32wlxx_hal_dma.c ****   * @brief Aborts the DMA Transfer in Interrupt mode.
 551:hardware/mcu/st/stm32wlxx_hal_driver/Src/stm32wlxx_hal_dma.c ****   * @param hdma Pointer to a DMA_HandleTypeDef structure that contains
 552:hardware/mcu/st/stm32wlxx_hal_driver/Src/stm32wlxx_hal_dma.c ****   *             the configuration information for the specified DMA Channel.
 553:hardware/mcu/st/stm32wlxx_hal_driver/Src/stm32wlxx_hal_dma.c ****   * @retval HAL status
 554:hardware/mcu/st/stm32wlxx_hal_driver/Src/stm32wlxx_hal_dma.c ****   */
 555:hardware/mcu/st/stm32wlxx_hal_driver/Src/stm32wlxx_hal_dma.c **** HAL_StatusTypeDef HAL_DMA_Abort_IT(DMA_HandleTypeDef *hdma)
 556:hardware/mcu/st/stm32wlxx_hal_driver/Src/stm32wlxx_hal_dma.c **** {
 557:hardware/mcu/st/stm32wlxx_hal_driver/Src/stm32wlxx_hal_dma.c ****   HAL_StatusTypeDef status = HAL_OK;
 558:hardware/mcu/st/stm32wlxx_hal_driver/Src/stm32wlxx_hal_dma.c **** 
 559:hardware/mcu/st/stm32wlxx_hal_driver/Src/stm32wlxx_hal_dma.c ****   if (hdma->State != HAL_DMA_STATE_BUSY)
 560:hardware/mcu/st/stm32wlxx_hal_driver/Src/stm32wlxx_hal_dma.c ****   {
 561:hardware/mcu/st/stm32wlxx_hal_driver/Src/stm32wlxx_hal_dma.c ****     /* no transfer ongoing */
 562:hardware/mcu/st/stm32wlxx_hal_driver/Src/stm32wlxx_hal_dma.c ****     hdma->ErrorCode = HAL_DMA_ERROR_NO_XFER;
 563:hardware/mcu/st/stm32wlxx_hal_driver/Src/stm32wlxx_hal_dma.c **** 
 564:hardware/mcu/st/stm32wlxx_hal_driver/Src/stm32wlxx_hal_dma.c ****     status = HAL_ERROR;
 565:hardware/mcu/st/stm32wlxx_hal_driver/Src/stm32wlxx_hal_dma.c ****   }
 566:hardware/mcu/st/stm32wlxx_hal_driver/Src/stm32wlxx_hal_dma.c ****   else
 567:hardware/mcu/st/stm32wlxx_hal_driver/Src/stm32wlxx_hal_dma.c ****   {
 568:hardware/mcu/st/stm32wlxx_hal_driver/Src/stm32wlxx_hal_dma.c ****     /* Disable DMA IT */
 569:hardware/mcu/st/stm32wlxx_hal_driver/Src/stm32wlxx_hal_dma.c ****     __HAL_DMA_DISABLE_IT(hdma, (DMA_IT_TC | DMA_IT_HT | DMA_IT_TE));
 570:hardware/mcu/st/stm32wlxx_hal_driver/Src/stm32wlxx_hal_dma.c **** 
 571:hardware/mcu/st/stm32wlxx_hal_driver/Src/stm32wlxx_hal_dma.c ****     /* Disable the channel */
 572:hardware/mcu/st/stm32wlxx_hal_driver/Src/stm32wlxx_hal_dma.c ****     __HAL_DMA_DISABLE(hdma);
 573:hardware/mcu/st/stm32wlxx_hal_driver/Src/stm32wlxx_hal_dma.c **** 
 574:hardware/mcu/st/stm32wlxx_hal_driver/Src/stm32wlxx_hal_dma.c ****     /* disable the DMAMUX sync overrun IT*/
 575:hardware/mcu/st/stm32wlxx_hal_driver/Src/stm32wlxx_hal_dma.c ****     hdma->DMAmuxChannel->CCR &= ~DMAMUX_CxCR_SOIE;
 576:hardware/mcu/st/stm32wlxx_hal_driver/Src/stm32wlxx_hal_dma.c **** 
 577:hardware/mcu/st/stm32wlxx_hal_driver/Src/stm32wlxx_hal_dma.c ****     /* Clear all flags */
 578:hardware/mcu/st/stm32wlxx_hal_driver/Src/stm32wlxx_hal_dma.c ****     hdma->DmaBaseAddress->IFCR = (DMA_ISR_GIF1 << (hdma->ChannelIndex & 0x1CU));
 579:hardware/mcu/st/stm32wlxx_hal_driver/Src/stm32wlxx_hal_dma.c **** 
 580:hardware/mcu/st/stm32wlxx_hal_driver/Src/stm32wlxx_hal_dma.c ****     /* Clear the DMAMUX synchro overrun flag */
 581:hardware/mcu/st/stm32wlxx_hal_driver/Src/stm32wlxx_hal_dma.c ****     hdma->DMAmuxChannelStatus->CFR = hdma->DMAmuxChannelStatusMask;
 582:hardware/mcu/st/stm32wlxx_hal_driver/Src/stm32wlxx_hal_dma.c **** 
 583:hardware/mcu/st/stm32wlxx_hal_driver/Src/stm32wlxx_hal_dma.c ****     if (hdma->DMAmuxRequestGen != 0U)
 584:hardware/mcu/st/stm32wlxx_hal_driver/Src/stm32wlxx_hal_dma.c ****     {
 585:hardware/mcu/st/stm32wlxx_hal_driver/Src/stm32wlxx_hal_dma.c ****       /* if using DMAMUX request generator, disable the DMAMUX request generator overrun IT*/
 586:hardware/mcu/st/stm32wlxx_hal_driver/Src/stm32wlxx_hal_dma.c ****       /* disable the request gen overrun IT*/
 587:hardware/mcu/st/stm32wlxx_hal_driver/Src/stm32wlxx_hal_dma.c ****       hdma->DMAmuxRequestGen->RGCR &= ~DMAMUX_RGxCR_OIE;
 588:hardware/mcu/st/stm32wlxx_hal_driver/Src/stm32wlxx_hal_dma.c **** 
 589:hardware/mcu/st/stm32wlxx_hal_driver/Src/stm32wlxx_hal_dma.c ****       /* Clear the DMAMUX request generator overrun flag */
 590:hardware/mcu/st/stm32wlxx_hal_driver/Src/stm32wlxx_hal_dma.c ****       hdma->DMAmuxRequestGenStatus->RGCFR = hdma->DMAmuxRequestGenStatusMask;
 591:hardware/mcu/st/stm32wlxx_hal_driver/Src/stm32wlxx_hal_dma.c ****     }
 592:hardware/mcu/st/stm32wlxx_hal_driver/Src/stm32wlxx_hal_dma.c **** 
 593:hardware/mcu/st/stm32wlxx_hal_driver/Src/stm32wlxx_hal_dma.c ****     /* Change the DMA state */
 594:hardware/mcu/st/stm32wlxx_hal_driver/Src/stm32wlxx_hal_dma.c ****     hdma->State = HAL_DMA_STATE_READY;
 595:hardware/mcu/st/stm32wlxx_hal_driver/Src/stm32wlxx_hal_dma.c **** 
 596:hardware/mcu/st/stm32wlxx_hal_driver/Src/stm32wlxx_hal_dma.c ****     /* Process Unlocked */
 597:hardware/mcu/st/stm32wlxx_hal_driver/Src/stm32wlxx_hal_dma.c ****     __HAL_UNLOCK(hdma);
 598:hardware/mcu/st/stm32wlxx_hal_driver/Src/stm32wlxx_hal_dma.c **** 
 599:hardware/mcu/st/stm32wlxx_hal_driver/Src/stm32wlxx_hal_dma.c ****     /* Call User Abort callback */
 600:hardware/mcu/st/stm32wlxx_hal_driver/Src/stm32wlxx_hal_dma.c ****     if (hdma->XferAbortCallback != NULL)
 601:hardware/mcu/st/stm32wlxx_hal_driver/Src/stm32wlxx_hal_dma.c ****     {
 602:hardware/mcu/st/stm32wlxx_hal_driver/Src/stm32wlxx_hal_dma.c ****       hdma->XferAbortCallback(hdma);
ARM GAS  /var/folders/b4/k4jbz0ms4wg23jtq0w6p483m0000gn/T//cc3EDpXC.s 			page 12


 603:hardware/mcu/st/stm32wlxx_hal_driver/Src/stm32wlxx_hal_dma.c ****     }
 604:hardware/mcu/st/stm32wlxx_hal_driver/Src/stm32wlxx_hal_dma.c ****   }
 605:hardware/mcu/st/stm32wlxx_hal_driver/Src/stm32wlxx_hal_dma.c ****   return status;
 606:hardware/mcu/st/stm32wlxx_hal_driver/Src/stm32wlxx_hal_dma.c **** }
 607:hardware/mcu/st/stm32wlxx_hal_driver/Src/stm32wlxx_hal_dma.c **** 
 608:hardware/mcu/st/stm32wlxx_hal_driver/Src/stm32wlxx_hal_dma.c **** /**
 609:hardware/mcu/st/stm32wlxx_hal_driver/Src/stm32wlxx_hal_dma.c ****   * @brief Polling for transfer complete.
 610:hardware/mcu/st/stm32wlxx_hal_driver/Src/stm32wlxx_hal_dma.c ****   * @param hdma Pointer to a DMA_HandleTypeDef structure that contains
 611:hardware/mcu/st/stm32wlxx_hal_driver/Src/stm32wlxx_hal_dma.c ****   *             the configuration information for the specified DMA Channel.
 612:hardware/mcu/st/stm32wlxx_hal_driver/Src/stm32wlxx_hal_dma.c ****   * @param CompleteLevel Specifies the DMA level complete.
 613:hardware/mcu/st/stm32wlxx_hal_driver/Src/stm32wlxx_hal_dma.c ****   * @param Timeout Timeout duration.
 614:hardware/mcu/st/stm32wlxx_hal_driver/Src/stm32wlxx_hal_dma.c ****   * @retval HAL status
 615:hardware/mcu/st/stm32wlxx_hal_driver/Src/stm32wlxx_hal_dma.c ****   */
 616:hardware/mcu/st/stm32wlxx_hal_driver/Src/stm32wlxx_hal_dma.c **** HAL_StatusTypeDef HAL_DMA_PollForTransfer(DMA_HandleTypeDef *hdma, HAL_DMA_LevelCompleteTypeDef Com
 617:hardware/mcu/st/stm32wlxx_hal_driver/Src/stm32wlxx_hal_dma.c **** {
 618:hardware/mcu/st/stm32wlxx_hal_driver/Src/stm32wlxx_hal_dma.c ****   uint32_t temp;
 619:hardware/mcu/st/stm32wlxx_hal_driver/Src/stm32wlxx_hal_dma.c ****   uint32_t tickstart;
 620:hardware/mcu/st/stm32wlxx_hal_driver/Src/stm32wlxx_hal_dma.c **** 
 621:hardware/mcu/st/stm32wlxx_hal_driver/Src/stm32wlxx_hal_dma.c ****   if (hdma->State != HAL_DMA_STATE_BUSY)
 622:hardware/mcu/st/stm32wlxx_hal_driver/Src/stm32wlxx_hal_dma.c ****   {
 623:hardware/mcu/st/stm32wlxx_hal_driver/Src/stm32wlxx_hal_dma.c ****     /* no transfer ongoing */
 624:hardware/mcu/st/stm32wlxx_hal_driver/Src/stm32wlxx_hal_dma.c ****     hdma->ErrorCode = HAL_DMA_ERROR_NO_XFER;
 625:hardware/mcu/st/stm32wlxx_hal_driver/Src/stm32wlxx_hal_dma.c ****     __HAL_UNLOCK(hdma);
 626:hardware/mcu/st/stm32wlxx_hal_driver/Src/stm32wlxx_hal_dma.c ****     return HAL_ERROR;
 627:hardware/mcu/st/stm32wlxx_hal_driver/Src/stm32wlxx_hal_dma.c ****   }
 628:hardware/mcu/st/stm32wlxx_hal_driver/Src/stm32wlxx_hal_dma.c **** 
 629:hardware/mcu/st/stm32wlxx_hal_driver/Src/stm32wlxx_hal_dma.c ****   /* Polling mode not supported in circular mode */
 630:hardware/mcu/st/stm32wlxx_hal_driver/Src/stm32wlxx_hal_dma.c ****   if ((hdma->Instance->CCR & DMA_CCR_CIRC) != 0U)
 631:hardware/mcu/st/stm32wlxx_hal_driver/Src/stm32wlxx_hal_dma.c ****   {
 632:hardware/mcu/st/stm32wlxx_hal_driver/Src/stm32wlxx_hal_dma.c ****     hdma->ErrorCode = HAL_DMA_ERROR_NOT_SUPPORTED;
 633:hardware/mcu/st/stm32wlxx_hal_driver/Src/stm32wlxx_hal_dma.c ****     return HAL_ERROR;
 634:hardware/mcu/st/stm32wlxx_hal_driver/Src/stm32wlxx_hal_dma.c ****   }
 635:hardware/mcu/st/stm32wlxx_hal_driver/Src/stm32wlxx_hal_dma.c **** 
 636:hardware/mcu/st/stm32wlxx_hal_driver/Src/stm32wlxx_hal_dma.c ****   /* Get the level transfer complete flag */
 637:hardware/mcu/st/stm32wlxx_hal_driver/Src/stm32wlxx_hal_dma.c ****   if (HAL_DMA_FULL_TRANSFER == CompleteLevel)
 638:hardware/mcu/st/stm32wlxx_hal_driver/Src/stm32wlxx_hal_dma.c ****   {
 639:hardware/mcu/st/stm32wlxx_hal_driver/Src/stm32wlxx_hal_dma.c ****     /* Transfer Complete flag */
 640:hardware/mcu/st/stm32wlxx_hal_driver/Src/stm32wlxx_hal_dma.c ****     temp = DMA_FLAG_TC1 << (hdma->ChannelIndex & 0x1CU);
 641:hardware/mcu/st/stm32wlxx_hal_driver/Src/stm32wlxx_hal_dma.c ****   }
 642:hardware/mcu/st/stm32wlxx_hal_driver/Src/stm32wlxx_hal_dma.c ****   else
 643:hardware/mcu/st/stm32wlxx_hal_driver/Src/stm32wlxx_hal_dma.c ****   {
 644:hardware/mcu/st/stm32wlxx_hal_driver/Src/stm32wlxx_hal_dma.c ****     /* Half Transfer Complete flag */
 645:hardware/mcu/st/stm32wlxx_hal_driver/Src/stm32wlxx_hal_dma.c ****     temp = DMA_FLAG_HT1 << (hdma->ChannelIndex & 0x1CU);
 646:hardware/mcu/st/stm32wlxx_hal_driver/Src/stm32wlxx_hal_dma.c ****   }
 647:hardware/mcu/st/stm32wlxx_hal_driver/Src/stm32wlxx_hal_dma.c **** 
 648:hardware/mcu/st/stm32wlxx_hal_driver/Src/stm32wlxx_hal_dma.c ****   /* Get tick */
 649:hardware/mcu/st/stm32wlxx_hal_driver/Src/stm32wlxx_hal_dma.c ****   tickstart = HAL_GetTick();
 650:hardware/mcu/st/stm32wlxx_hal_driver/Src/stm32wlxx_hal_dma.c **** 
 651:hardware/mcu/st/stm32wlxx_hal_driver/Src/stm32wlxx_hal_dma.c ****   while ((hdma->DmaBaseAddress->ISR & temp) == 0U)
 652:hardware/mcu/st/stm32wlxx_hal_driver/Src/stm32wlxx_hal_dma.c ****   {
 653:hardware/mcu/st/stm32wlxx_hal_driver/Src/stm32wlxx_hal_dma.c ****     if ((hdma->DmaBaseAddress->ISR & (DMA_FLAG_TE1 << (hdma->ChannelIndex & 0x1CU))) != 0U)
 654:hardware/mcu/st/stm32wlxx_hal_driver/Src/stm32wlxx_hal_dma.c ****     {
 655:hardware/mcu/st/stm32wlxx_hal_driver/Src/stm32wlxx_hal_dma.c ****       /* When a DMA transfer error occurs */
 656:hardware/mcu/st/stm32wlxx_hal_driver/Src/stm32wlxx_hal_dma.c ****       /* A hardware clear of its EN bits is performed */
 657:hardware/mcu/st/stm32wlxx_hal_driver/Src/stm32wlxx_hal_dma.c ****       /* Clear all flags */
 658:hardware/mcu/st/stm32wlxx_hal_driver/Src/stm32wlxx_hal_dma.c ****       hdma->DmaBaseAddress->IFCR = (DMA_ISR_GIF1 << (hdma->ChannelIndex & 0x1CU));
 659:hardware/mcu/st/stm32wlxx_hal_driver/Src/stm32wlxx_hal_dma.c **** 
ARM GAS  /var/folders/b4/k4jbz0ms4wg23jtq0w6p483m0000gn/T//cc3EDpXC.s 			page 13


 660:hardware/mcu/st/stm32wlxx_hal_driver/Src/stm32wlxx_hal_dma.c ****       /* Update error code */
 661:hardware/mcu/st/stm32wlxx_hal_driver/Src/stm32wlxx_hal_dma.c ****       hdma->ErrorCode = HAL_DMA_ERROR_TE;
 662:hardware/mcu/st/stm32wlxx_hal_driver/Src/stm32wlxx_hal_dma.c **** 
 663:hardware/mcu/st/stm32wlxx_hal_driver/Src/stm32wlxx_hal_dma.c ****       /* Change the DMA state */
 664:hardware/mcu/st/stm32wlxx_hal_driver/Src/stm32wlxx_hal_dma.c ****       hdma->State = HAL_DMA_STATE_READY;
 665:hardware/mcu/st/stm32wlxx_hal_driver/Src/stm32wlxx_hal_dma.c **** 
 666:hardware/mcu/st/stm32wlxx_hal_driver/Src/stm32wlxx_hal_dma.c ****       /* Process Unlocked */
 667:hardware/mcu/st/stm32wlxx_hal_driver/Src/stm32wlxx_hal_dma.c ****       __HAL_UNLOCK(hdma);
 668:hardware/mcu/st/stm32wlxx_hal_driver/Src/stm32wlxx_hal_dma.c **** 
 669:hardware/mcu/st/stm32wlxx_hal_driver/Src/stm32wlxx_hal_dma.c ****       return HAL_ERROR;
 670:hardware/mcu/st/stm32wlxx_hal_driver/Src/stm32wlxx_hal_dma.c ****     }
 671:hardware/mcu/st/stm32wlxx_hal_driver/Src/stm32wlxx_hal_dma.c ****     /* Check for the Timeout */
 672:hardware/mcu/st/stm32wlxx_hal_driver/Src/stm32wlxx_hal_dma.c ****     if (Timeout != HAL_MAX_DELAY)
 673:hardware/mcu/st/stm32wlxx_hal_driver/Src/stm32wlxx_hal_dma.c ****     {
 674:hardware/mcu/st/stm32wlxx_hal_driver/Src/stm32wlxx_hal_dma.c ****       if (((HAL_GetTick() - tickstart) > Timeout) || (Timeout == 0U))
 675:hardware/mcu/st/stm32wlxx_hal_driver/Src/stm32wlxx_hal_dma.c ****       {
 676:hardware/mcu/st/stm32wlxx_hal_driver/Src/stm32wlxx_hal_dma.c ****         /* Update error code */
 677:hardware/mcu/st/stm32wlxx_hal_driver/Src/stm32wlxx_hal_dma.c ****         hdma->ErrorCode = HAL_DMA_ERROR_TIMEOUT;
 678:hardware/mcu/st/stm32wlxx_hal_driver/Src/stm32wlxx_hal_dma.c **** 
 679:hardware/mcu/st/stm32wlxx_hal_driver/Src/stm32wlxx_hal_dma.c ****         /* Change the DMA state */
 680:hardware/mcu/st/stm32wlxx_hal_driver/Src/stm32wlxx_hal_dma.c ****         hdma->State = HAL_DMA_STATE_READY;
 681:hardware/mcu/st/stm32wlxx_hal_driver/Src/stm32wlxx_hal_dma.c **** 
 682:hardware/mcu/st/stm32wlxx_hal_driver/Src/stm32wlxx_hal_dma.c ****         /* Process Unlocked */
 683:hardware/mcu/st/stm32wlxx_hal_driver/Src/stm32wlxx_hal_dma.c ****         __HAL_UNLOCK(hdma);
 684:hardware/mcu/st/stm32wlxx_hal_driver/Src/stm32wlxx_hal_dma.c **** 
 685:hardware/mcu/st/stm32wlxx_hal_driver/Src/stm32wlxx_hal_dma.c ****         return HAL_ERROR;
 686:hardware/mcu/st/stm32wlxx_hal_driver/Src/stm32wlxx_hal_dma.c ****       }
 687:hardware/mcu/st/stm32wlxx_hal_driver/Src/stm32wlxx_hal_dma.c ****     }
 688:hardware/mcu/st/stm32wlxx_hal_driver/Src/stm32wlxx_hal_dma.c ****   }
 689:hardware/mcu/st/stm32wlxx_hal_driver/Src/stm32wlxx_hal_dma.c **** 
 690:hardware/mcu/st/stm32wlxx_hal_driver/Src/stm32wlxx_hal_dma.c ****   /*Check for DMAMUX Request generator (if used) overrun status */
 691:hardware/mcu/st/stm32wlxx_hal_driver/Src/stm32wlxx_hal_dma.c ****   if (hdma->DMAmuxRequestGen != 0U)
 692:hardware/mcu/st/stm32wlxx_hal_driver/Src/stm32wlxx_hal_dma.c ****   {
 693:hardware/mcu/st/stm32wlxx_hal_driver/Src/stm32wlxx_hal_dma.c ****     /* if using DMAMUX request generator Check for DMAMUX request generator overrun */
 694:hardware/mcu/st/stm32wlxx_hal_driver/Src/stm32wlxx_hal_dma.c ****     if ((hdma->DMAmuxRequestGenStatus->RGSR & hdma->DMAmuxRequestGenStatusMask) != 0U)
 695:hardware/mcu/st/stm32wlxx_hal_driver/Src/stm32wlxx_hal_dma.c ****     {
 696:hardware/mcu/st/stm32wlxx_hal_driver/Src/stm32wlxx_hal_dma.c ****       /* Disable the request gen overrun interrupt */
 697:hardware/mcu/st/stm32wlxx_hal_driver/Src/stm32wlxx_hal_dma.c ****       hdma->DMAmuxRequestGen->RGCR |= DMAMUX_RGxCR_OIE;
 698:hardware/mcu/st/stm32wlxx_hal_driver/Src/stm32wlxx_hal_dma.c **** 
 699:hardware/mcu/st/stm32wlxx_hal_driver/Src/stm32wlxx_hal_dma.c ****       /* Clear the DMAMUX request generator overrun flag */
 700:hardware/mcu/st/stm32wlxx_hal_driver/Src/stm32wlxx_hal_dma.c ****       hdma->DMAmuxRequestGenStatus->RGCFR = hdma->DMAmuxRequestGenStatusMask;
 701:hardware/mcu/st/stm32wlxx_hal_driver/Src/stm32wlxx_hal_dma.c **** 
 702:hardware/mcu/st/stm32wlxx_hal_driver/Src/stm32wlxx_hal_dma.c ****       /* Update error code */
 703:hardware/mcu/st/stm32wlxx_hal_driver/Src/stm32wlxx_hal_dma.c ****       hdma->ErrorCode |= HAL_DMA_ERROR_REQGEN;
 704:hardware/mcu/st/stm32wlxx_hal_driver/Src/stm32wlxx_hal_dma.c ****     }
 705:hardware/mcu/st/stm32wlxx_hal_driver/Src/stm32wlxx_hal_dma.c ****   }
 706:hardware/mcu/st/stm32wlxx_hal_driver/Src/stm32wlxx_hal_dma.c **** 
 707:hardware/mcu/st/stm32wlxx_hal_driver/Src/stm32wlxx_hal_dma.c ****   /* Check for DMAMUX Synchronization overrun */
 708:hardware/mcu/st/stm32wlxx_hal_driver/Src/stm32wlxx_hal_dma.c ****   if ((hdma->DMAmuxChannelStatus->CSR & hdma->DMAmuxChannelStatusMask) != 0U)
 709:hardware/mcu/st/stm32wlxx_hal_driver/Src/stm32wlxx_hal_dma.c ****   {
 710:hardware/mcu/st/stm32wlxx_hal_driver/Src/stm32wlxx_hal_dma.c ****     /* Clear the DMAMUX synchro overrun flag */
 711:hardware/mcu/st/stm32wlxx_hal_driver/Src/stm32wlxx_hal_dma.c ****     hdma->DMAmuxChannelStatus->CFR = hdma->DMAmuxChannelStatusMask;
 712:hardware/mcu/st/stm32wlxx_hal_driver/Src/stm32wlxx_hal_dma.c **** 
 713:hardware/mcu/st/stm32wlxx_hal_driver/Src/stm32wlxx_hal_dma.c ****     /* Update error code */
 714:hardware/mcu/st/stm32wlxx_hal_driver/Src/stm32wlxx_hal_dma.c ****     hdma->ErrorCode |= HAL_DMA_ERROR_SYNC;
 715:hardware/mcu/st/stm32wlxx_hal_driver/Src/stm32wlxx_hal_dma.c ****   }
 716:hardware/mcu/st/stm32wlxx_hal_driver/Src/stm32wlxx_hal_dma.c **** 
ARM GAS  /var/folders/b4/k4jbz0ms4wg23jtq0w6p483m0000gn/T//cc3EDpXC.s 			page 14


 717:hardware/mcu/st/stm32wlxx_hal_driver/Src/stm32wlxx_hal_dma.c ****   if (HAL_DMA_FULL_TRANSFER == CompleteLevel)
 718:hardware/mcu/st/stm32wlxx_hal_driver/Src/stm32wlxx_hal_dma.c ****   {
 719:hardware/mcu/st/stm32wlxx_hal_driver/Src/stm32wlxx_hal_dma.c ****     /* Clear the transfer complete flag */
 720:hardware/mcu/st/stm32wlxx_hal_driver/Src/stm32wlxx_hal_dma.c ****     hdma->DmaBaseAddress->IFCR = (DMA_FLAG_TC1 << (hdma->ChannelIndex & 0x1CU));
 721:hardware/mcu/st/stm32wlxx_hal_driver/Src/stm32wlxx_hal_dma.c **** 
 722:hardware/mcu/st/stm32wlxx_hal_driver/Src/stm32wlxx_hal_dma.c ****     /* Process unlocked */
 723:hardware/mcu/st/stm32wlxx_hal_driver/Src/stm32wlxx_hal_dma.c ****     __HAL_UNLOCK(hdma);
 724:hardware/mcu/st/stm32wlxx_hal_driver/Src/stm32wlxx_hal_dma.c **** 
 725:hardware/mcu/st/stm32wlxx_hal_driver/Src/stm32wlxx_hal_dma.c ****     /* The selected Channelx EN bit is cleared (DMA is disabled and
 726:hardware/mcu/st/stm32wlxx_hal_driver/Src/stm32wlxx_hal_dma.c ****     all transfers are complete) */
 727:hardware/mcu/st/stm32wlxx_hal_driver/Src/stm32wlxx_hal_dma.c ****     hdma->State = HAL_DMA_STATE_READY;
 728:hardware/mcu/st/stm32wlxx_hal_driver/Src/stm32wlxx_hal_dma.c ****   }
 729:hardware/mcu/st/stm32wlxx_hal_driver/Src/stm32wlxx_hal_dma.c ****   else
 730:hardware/mcu/st/stm32wlxx_hal_driver/Src/stm32wlxx_hal_dma.c ****   {
 731:hardware/mcu/st/stm32wlxx_hal_driver/Src/stm32wlxx_hal_dma.c ****     /* Clear the half transfer complete flag */
 732:hardware/mcu/st/stm32wlxx_hal_driver/Src/stm32wlxx_hal_dma.c ****     hdma->DmaBaseAddress->IFCR = (DMA_FLAG_HT1 << (hdma->ChannelIndex & 0x1CU));
 733:hardware/mcu/st/stm32wlxx_hal_driver/Src/stm32wlxx_hal_dma.c ****   }
 734:hardware/mcu/st/stm32wlxx_hal_driver/Src/stm32wlxx_hal_dma.c **** 
 735:hardware/mcu/st/stm32wlxx_hal_driver/Src/stm32wlxx_hal_dma.c ****   return HAL_OK;
 736:hardware/mcu/st/stm32wlxx_hal_driver/Src/stm32wlxx_hal_dma.c **** }
 737:hardware/mcu/st/stm32wlxx_hal_driver/Src/stm32wlxx_hal_dma.c **** 
 738:hardware/mcu/st/stm32wlxx_hal_driver/Src/stm32wlxx_hal_dma.c **** /**
 739:hardware/mcu/st/stm32wlxx_hal_driver/Src/stm32wlxx_hal_dma.c ****   * @brief Handle DMA interrupt request.
 740:hardware/mcu/st/stm32wlxx_hal_driver/Src/stm32wlxx_hal_dma.c ****   * @param hdma Pointer to a DMA_HandleTypeDef structure that contains
 741:hardware/mcu/st/stm32wlxx_hal_driver/Src/stm32wlxx_hal_dma.c ****   *             the configuration information for the specified DMA Channel.
 742:hardware/mcu/st/stm32wlxx_hal_driver/Src/stm32wlxx_hal_dma.c ****   * @retval None
 743:hardware/mcu/st/stm32wlxx_hal_driver/Src/stm32wlxx_hal_dma.c ****   */
 744:hardware/mcu/st/stm32wlxx_hal_driver/Src/stm32wlxx_hal_dma.c **** void HAL_DMA_IRQHandler(DMA_HandleTypeDef *hdma)
 745:hardware/mcu/st/stm32wlxx_hal_driver/Src/stm32wlxx_hal_dma.c **** {
 746:hardware/mcu/st/stm32wlxx_hal_driver/Src/stm32wlxx_hal_dma.c ****   uint32_t flag_it = hdma->DmaBaseAddress->ISR;
 747:hardware/mcu/st/stm32wlxx_hal_driver/Src/stm32wlxx_hal_dma.c ****   uint32_t source_it = hdma->Instance->CCR;
 748:hardware/mcu/st/stm32wlxx_hal_driver/Src/stm32wlxx_hal_dma.c **** 
 749:hardware/mcu/st/stm32wlxx_hal_driver/Src/stm32wlxx_hal_dma.c ****   /* Half Transfer Complete Interrupt management ******************************/
 750:hardware/mcu/st/stm32wlxx_hal_driver/Src/stm32wlxx_hal_dma.c ****   if (((flag_it & (DMA_FLAG_HT1 << (hdma->ChannelIndex & 0x1CU))) != 0U) && ((source_it & DMA_IT_HT
 751:hardware/mcu/st/stm32wlxx_hal_driver/Src/stm32wlxx_hal_dma.c ****   {
 752:hardware/mcu/st/stm32wlxx_hal_driver/Src/stm32wlxx_hal_dma.c ****       /* Disable the half transfer interrupt if the DMA mode is not CIRCULAR */
 753:hardware/mcu/st/stm32wlxx_hal_driver/Src/stm32wlxx_hal_dma.c ****       if ((hdma->Instance->CCR & DMA_CCR_CIRC) == 0U)
 754:hardware/mcu/st/stm32wlxx_hal_driver/Src/stm32wlxx_hal_dma.c ****       {
 755:hardware/mcu/st/stm32wlxx_hal_driver/Src/stm32wlxx_hal_dma.c ****         /* Disable the half transfer interrupt */
 756:hardware/mcu/st/stm32wlxx_hal_driver/Src/stm32wlxx_hal_dma.c ****         __HAL_DMA_DISABLE_IT(hdma, DMA_IT_HT);
 757:hardware/mcu/st/stm32wlxx_hal_driver/Src/stm32wlxx_hal_dma.c ****       }
 758:hardware/mcu/st/stm32wlxx_hal_driver/Src/stm32wlxx_hal_dma.c ****       /* Clear the half transfer complete flag */
 759:hardware/mcu/st/stm32wlxx_hal_driver/Src/stm32wlxx_hal_dma.c ****       hdma->DmaBaseAddress->IFCR = DMA_ISR_HTIF1 << (hdma->ChannelIndex & 0x1CU);
 760:hardware/mcu/st/stm32wlxx_hal_driver/Src/stm32wlxx_hal_dma.c **** 
 761:hardware/mcu/st/stm32wlxx_hal_driver/Src/stm32wlxx_hal_dma.c ****       /* DMA peripheral state is not updated in Half Transfer */
 762:hardware/mcu/st/stm32wlxx_hal_driver/Src/stm32wlxx_hal_dma.c ****       /* but in Transfer Complete case */
 763:hardware/mcu/st/stm32wlxx_hal_driver/Src/stm32wlxx_hal_dma.c **** 
 764:hardware/mcu/st/stm32wlxx_hal_driver/Src/stm32wlxx_hal_dma.c ****       if (hdma->XferHalfCpltCallback != NULL)
 765:hardware/mcu/st/stm32wlxx_hal_driver/Src/stm32wlxx_hal_dma.c ****       {
 766:hardware/mcu/st/stm32wlxx_hal_driver/Src/stm32wlxx_hal_dma.c ****         /* Half transfer callback */
 767:hardware/mcu/st/stm32wlxx_hal_driver/Src/stm32wlxx_hal_dma.c ****         hdma->XferHalfCpltCallback(hdma);
 768:hardware/mcu/st/stm32wlxx_hal_driver/Src/stm32wlxx_hal_dma.c ****       }
 769:hardware/mcu/st/stm32wlxx_hal_driver/Src/stm32wlxx_hal_dma.c ****   }
 770:hardware/mcu/st/stm32wlxx_hal_driver/Src/stm32wlxx_hal_dma.c **** 
 771:hardware/mcu/st/stm32wlxx_hal_driver/Src/stm32wlxx_hal_dma.c ****   /* Transfer Complete Interrupt management ***********************************/
 772:hardware/mcu/st/stm32wlxx_hal_driver/Src/stm32wlxx_hal_dma.c ****   else if ((0U != (flag_it & (DMA_FLAG_TC1 << (hdma->ChannelIndex & 0x1CU)))) && (0U != (source_it 
 773:hardware/mcu/st/stm32wlxx_hal_driver/Src/stm32wlxx_hal_dma.c ****   {
ARM GAS  /var/folders/b4/k4jbz0ms4wg23jtq0w6p483m0000gn/T//cc3EDpXC.s 			page 15


 774:hardware/mcu/st/stm32wlxx_hal_driver/Src/stm32wlxx_hal_dma.c ****       if ((hdma->Instance->CCR & DMA_CCR_CIRC) == 0U)
 775:hardware/mcu/st/stm32wlxx_hal_driver/Src/stm32wlxx_hal_dma.c ****       {
 776:hardware/mcu/st/stm32wlxx_hal_driver/Src/stm32wlxx_hal_dma.c ****         /* Disable the transfer complete and error interrupt */
 777:hardware/mcu/st/stm32wlxx_hal_driver/Src/stm32wlxx_hal_dma.c ****         __HAL_DMA_DISABLE_IT(hdma, DMA_IT_TE | DMA_IT_TC);
 778:hardware/mcu/st/stm32wlxx_hal_driver/Src/stm32wlxx_hal_dma.c **** 
 779:hardware/mcu/st/stm32wlxx_hal_driver/Src/stm32wlxx_hal_dma.c ****         /* Change the DMA state */
 780:hardware/mcu/st/stm32wlxx_hal_driver/Src/stm32wlxx_hal_dma.c ****         hdma->State = HAL_DMA_STATE_READY;
 781:hardware/mcu/st/stm32wlxx_hal_driver/Src/stm32wlxx_hal_dma.c ****       }
 782:hardware/mcu/st/stm32wlxx_hal_driver/Src/stm32wlxx_hal_dma.c ****       /* Clear the transfer complete flag */
 783:hardware/mcu/st/stm32wlxx_hal_driver/Src/stm32wlxx_hal_dma.c ****       __HAL_DMA_CLEAR_FLAG(hdma, (DMA_FLAG_TC1 << (hdma->ChannelIndex & 0x1CU)));
 784:hardware/mcu/st/stm32wlxx_hal_driver/Src/stm32wlxx_hal_dma.c **** 
 785:hardware/mcu/st/stm32wlxx_hal_driver/Src/stm32wlxx_hal_dma.c ****       /* Process Unlocked */
 786:hardware/mcu/st/stm32wlxx_hal_driver/Src/stm32wlxx_hal_dma.c ****       __HAL_UNLOCK(hdma);
 787:hardware/mcu/st/stm32wlxx_hal_driver/Src/stm32wlxx_hal_dma.c **** 
 788:hardware/mcu/st/stm32wlxx_hal_driver/Src/stm32wlxx_hal_dma.c ****       if (hdma->XferCpltCallback != NULL)
 789:hardware/mcu/st/stm32wlxx_hal_driver/Src/stm32wlxx_hal_dma.c ****       {
 790:hardware/mcu/st/stm32wlxx_hal_driver/Src/stm32wlxx_hal_dma.c ****         /* Transfer complete callback */
 791:hardware/mcu/st/stm32wlxx_hal_driver/Src/stm32wlxx_hal_dma.c ****         hdma->XferCpltCallback(hdma);
 792:hardware/mcu/st/stm32wlxx_hal_driver/Src/stm32wlxx_hal_dma.c ****       }
 793:hardware/mcu/st/stm32wlxx_hal_driver/Src/stm32wlxx_hal_dma.c ****   }
 794:hardware/mcu/st/stm32wlxx_hal_driver/Src/stm32wlxx_hal_dma.c **** 
 795:hardware/mcu/st/stm32wlxx_hal_driver/Src/stm32wlxx_hal_dma.c ****   /* Transfer Error Interrupt management **************************************/
 796:hardware/mcu/st/stm32wlxx_hal_driver/Src/stm32wlxx_hal_dma.c ****   else if (((flag_it & (DMA_FLAG_TE1 << (hdma->ChannelIndex & 0x1CU))) != 0U) && ((source_it & DMA_
 797:hardware/mcu/st/stm32wlxx_hal_driver/Src/stm32wlxx_hal_dma.c ****   {
 798:hardware/mcu/st/stm32wlxx_hal_driver/Src/stm32wlxx_hal_dma.c ****     /* When a DMA transfer error occurs */
 799:hardware/mcu/st/stm32wlxx_hal_driver/Src/stm32wlxx_hal_dma.c ****     /* A hardware clear of its EN bits is performed */
 800:hardware/mcu/st/stm32wlxx_hal_driver/Src/stm32wlxx_hal_dma.c ****     /* Disable ALL DMA IT */
 801:hardware/mcu/st/stm32wlxx_hal_driver/Src/stm32wlxx_hal_dma.c ****     __HAL_DMA_DISABLE_IT(hdma, (DMA_IT_TC | DMA_IT_HT | DMA_IT_TE));
 802:hardware/mcu/st/stm32wlxx_hal_driver/Src/stm32wlxx_hal_dma.c **** 
 803:hardware/mcu/st/stm32wlxx_hal_driver/Src/stm32wlxx_hal_dma.c ****     /* Clear all flags */
 804:hardware/mcu/st/stm32wlxx_hal_driver/Src/stm32wlxx_hal_dma.c ****     hdma->DmaBaseAddress->IFCR = (DMA_ISR_GIF1 << (hdma->ChannelIndex & 0x1CU));
 805:hardware/mcu/st/stm32wlxx_hal_driver/Src/stm32wlxx_hal_dma.c **** 
 806:hardware/mcu/st/stm32wlxx_hal_driver/Src/stm32wlxx_hal_dma.c ****     /* Update error code */
 807:hardware/mcu/st/stm32wlxx_hal_driver/Src/stm32wlxx_hal_dma.c ****     hdma->ErrorCode = HAL_DMA_ERROR_TE;
 808:hardware/mcu/st/stm32wlxx_hal_driver/Src/stm32wlxx_hal_dma.c **** 
 809:hardware/mcu/st/stm32wlxx_hal_driver/Src/stm32wlxx_hal_dma.c ****     /* Change the DMA state */
 810:hardware/mcu/st/stm32wlxx_hal_driver/Src/stm32wlxx_hal_dma.c ****     hdma->State = HAL_DMA_STATE_READY;
 811:hardware/mcu/st/stm32wlxx_hal_driver/Src/stm32wlxx_hal_dma.c **** 
 812:hardware/mcu/st/stm32wlxx_hal_driver/Src/stm32wlxx_hal_dma.c ****     /* Process Unlocked */
 813:hardware/mcu/st/stm32wlxx_hal_driver/Src/stm32wlxx_hal_dma.c ****     __HAL_UNLOCK(hdma);
 814:hardware/mcu/st/stm32wlxx_hal_driver/Src/stm32wlxx_hal_dma.c **** 
 815:hardware/mcu/st/stm32wlxx_hal_driver/Src/stm32wlxx_hal_dma.c ****     if (hdma->XferErrorCallback != NULL)
 816:hardware/mcu/st/stm32wlxx_hal_driver/Src/stm32wlxx_hal_dma.c ****     {
 817:hardware/mcu/st/stm32wlxx_hal_driver/Src/stm32wlxx_hal_dma.c ****       /* Transfer error callback */
 818:hardware/mcu/st/stm32wlxx_hal_driver/Src/stm32wlxx_hal_dma.c ****       hdma->XferErrorCallback(hdma);
 819:hardware/mcu/st/stm32wlxx_hal_driver/Src/stm32wlxx_hal_dma.c ****     }
 820:hardware/mcu/st/stm32wlxx_hal_driver/Src/stm32wlxx_hal_dma.c ****   }
 821:hardware/mcu/st/stm32wlxx_hal_driver/Src/stm32wlxx_hal_dma.c ****   else
 822:hardware/mcu/st/stm32wlxx_hal_driver/Src/stm32wlxx_hal_dma.c ****   {
 823:hardware/mcu/st/stm32wlxx_hal_driver/Src/stm32wlxx_hal_dma.c ****     /* Nothing To Do */
 824:hardware/mcu/st/stm32wlxx_hal_driver/Src/stm32wlxx_hal_dma.c ****   }
 825:hardware/mcu/st/stm32wlxx_hal_driver/Src/stm32wlxx_hal_dma.c ****   return;
 826:hardware/mcu/st/stm32wlxx_hal_driver/Src/stm32wlxx_hal_dma.c **** }
 827:hardware/mcu/st/stm32wlxx_hal_driver/Src/stm32wlxx_hal_dma.c **** 
 828:hardware/mcu/st/stm32wlxx_hal_driver/Src/stm32wlxx_hal_dma.c **** /**
 829:hardware/mcu/st/stm32wlxx_hal_driver/Src/stm32wlxx_hal_dma.c ****   * @brief Register callbacks
 830:hardware/mcu/st/stm32wlxx_hal_driver/Src/stm32wlxx_hal_dma.c ****   * @param hdma Pointer to a DMA_HandleTypeDef structure that contains
ARM GAS  /var/folders/b4/k4jbz0ms4wg23jtq0w6p483m0000gn/T//cc3EDpXC.s 			page 16


 831:hardware/mcu/st/stm32wlxx_hal_driver/Src/stm32wlxx_hal_dma.c ****   *             the configuration information for the specified DMA Channel.
 832:hardware/mcu/st/stm32wlxx_hal_driver/Src/stm32wlxx_hal_dma.c ****   * @param CallbackID User Callback identifier
 833:hardware/mcu/st/stm32wlxx_hal_driver/Src/stm32wlxx_hal_dma.c ****   *                   a HAL_DMA_CallbackIDTypeDef ENUM as parameter.
 834:hardware/mcu/st/stm32wlxx_hal_driver/Src/stm32wlxx_hal_dma.c ****   * @param pCallback Pointer to private callbacsk function which has pointer to
 835:hardware/mcu/st/stm32wlxx_hal_driver/Src/stm32wlxx_hal_dma.c ****   *                  a DMA_HandleTypeDef structure as parameter.
 836:hardware/mcu/st/stm32wlxx_hal_driver/Src/stm32wlxx_hal_dma.c ****   * @retval HAL status
 837:hardware/mcu/st/stm32wlxx_hal_driver/Src/stm32wlxx_hal_dma.c ****   */
 838:hardware/mcu/st/stm32wlxx_hal_driver/Src/stm32wlxx_hal_dma.c **** HAL_StatusTypeDef HAL_DMA_RegisterCallback(DMA_HandleTypeDef *hdma, HAL_DMA_CallbackIDTypeDef Callb
 839:hardware/mcu/st/stm32wlxx_hal_driver/Src/stm32wlxx_hal_dma.c **** {
 840:hardware/mcu/st/stm32wlxx_hal_driver/Src/stm32wlxx_hal_dma.c ****   HAL_StatusTypeDef status = HAL_OK;
 841:hardware/mcu/st/stm32wlxx_hal_driver/Src/stm32wlxx_hal_dma.c **** 
 842:hardware/mcu/st/stm32wlxx_hal_driver/Src/stm32wlxx_hal_dma.c ****   /* Process locked */
 843:hardware/mcu/st/stm32wlxx_hal_driver/Src/stm32wlxx_hal_dma.c ****   __HAL_LOCK(hdma);
 844:hardware/mcu/st/stm32wlxx_hal_driver/Src/stm32wlxx_hal_dma.c **** 
 845:hardware/mcu/st/stm32wlxx_hal_driver/Src/stm32wlxx_hal_dma.c ****   if (hdma->State == HAL_DMA_STATE_READY)
 846:hardware/mcu/st/stm32wlxx_hal_driver/Src/stm32wlxx_hal_dma.c ****   {
 847:hardware/mcu/st/stm32wlxx_hal_driver/Src/stm32wlxx_hal_dma.c ****     switch (CallbackID)
 848:hardware/mcu/st/stm32wlxx_hal_driver/Src/stm32wlxx_hal_dma.c ****     {
 849:hardware/mcu/st/stm32wlxx_hal_driver/Src/stm32wlxx_hal_dma.c ****       case  HAL_DMA_XFER_CPLT_CB_ID:
 850:hardware/mcu/st/stm32wlxx_hal_driver/Src/stm32wlxx_hal_dma.c ****         hdma->XferCpltCallback = pCallback;
 851:hardware/mcu/st/stm32wlxx_hal_driver/Src/stm32wlxx_hal_dma.c ****         break;
 852:hardware/mcu/st/stm32wlxx_hal_driver/Src/stm32wlxx_hal_dma.c **** 
 853:hardware/mcu/st/stm32wlxx_hal_driver/Src/stm32wlxx_hal_dma.c ****       case  HAL_DMA_XFER_HALFCPLT_CB_ID:
 854:hardware/mcu/st/stm32wlxx_hal_driver/Src/stm32wlxx_hal_dma.c ****         hdma->XferHalfCpltCallback = pCallback;
 855:hardware/mcu/st/stm32wlxx_hal_driver/Src/stm32wlxx_hal_dma.c ****         break;
 856:hardware/mcu/st/stm32wlxx_hal_driver/Src/stm32wlxx_hal_dma.c **** 
 857:hardware/mcu/st/stm32wlxx_hal_driver/Src/stm32wlxx_hal_dma.c ****       case  HAL_DMA_XFER_ERROR_CB_ID:
 858:hardware/mcu/st/stm32wlxx_hal_driver/Src/stm32wlxx_hal_dma.c ****         hdma->XferErrorCallback = pCallback;
 859:hardware/mcu/st/stm32wlxx_hal_driver/Src/stm32wlxx_hal_dma.c ****         break;
 860:hardware/mcu/st/stm32wlxx_hal_driver/Src/stm32wlxx_hal_dma.c **** 
 861:hardware/mcu/st/stm32wlxx_hal_driver/Src/stm32wlxx_hal_dma.c ****       case  HAL_DMA_XFER_ABORT_CB_ID:
 862:hardware/mcu/st/stm32wlxx_hal_driver/Src/stm32wlxx_hal_dma.c ****         hdma->XferAbortCallback = pCallback;
 863:hardware/mcu/st/stm32wlxx_hal_driver/Src/stm32wlxx_hal_dma.c ****         break;
 864:hardware/mcu/st/stm32wlxx_hal_driver/Src/stm32wlxx_hal_dma.c **** 
 865:hardware/mcu/st/stm32wlxx_hal_driver/Src/stm32wlxx_hal_dma.c ****       default:
 866:hardware/mcu/st/stm32wlxx_hal_driver/Src/stm32wlxx_hal_dma.c ****         status = HAL_ERROR;
 867:hardware/mcu/st/stm32wlxx_hal_driver/Src/stm32wlxx_hal_dma.c ****         break;
 868:hardware/mcu/st/stm32wlxx_hal_driver/Src/stm32wlxx_hal_dma.c ****     }
 869:hardware/mcu/st/stm32wlxx_hal_driver/Src/stm32wlxx_hal_dma.c ****   }
 870:hardware/mcu/st/stm32wlxx_hal_driver/Src/stm32wlxx_hal_dma.c ****   else
 871:hardware/mcu/st/stm32wlxx_hal_driver/Src/stm32wlxx_hal_dma.c ****   {
 872:hardware/mcu/st/stm32wlxx_hal_driver/Src/stm32wlxx_hal_dma.c ****     status = HAL_ERROR;
 873:hardware/mcu/st/stm32wlxx_hal_driver/Src/stm32wlxx_hal_dma.c ****   }
 874:hardware/mcu/st/stm32wlxx_hal_driver/Src/stm32wlxx_hal_dma.c **** 
 875:hardware/mcu/st/stm32wlxx_hal_driver/Src/stm32wlxx_hal_dma.c ****   /* Release Lock */
 876:hardware/mcu/st/stm32wlxx_hal_driver/Src/stm32wlxx_hal_dma.c ****   __HAL_UNLOCK(hdma);
 877:hardware/mcu/st/stm32wlxx_hal_driver/Src/stm32wlxx_hal_dma.c **** 
 878:hardware/mcu/st/stm32wlxx_hal_driver/Src/stm32wlxx_hal_dma.c ****   return status;
 879:hardware/mcu/st/stm32wlxx_hal_driver/Src/stm32wlxx_hal_dma.c **** }
 880:hardware/mcu/st/stm32wlxx_hal_driver/Src/stm32wlxx_hal_dma.c **** 
 881:hardware/mcu/st/stm32wlxx_hal_driver/Src/stm32wlxx_hal_dma.c **** /**
 882:hardware/mcu/st/stm32wlxx_hal_driver/Src/stm32wlxx_hal_dma.c ****   * @brief UnRegister callbacks
 883:hardware/mcu/st/stm32wlxx_hal_driver/Src/stm32wlxx_hal_dma.c ****   * @param hdma Pointer to a DMA_HandleTypeDef structure that contains
 884:hardware/mcu/st/stm32wlxx_hal_driver/Src/stm32wlxx_hal_dma.c ****   *             the configuration information for the specified DMA Channel.
 885:hardware/mcu/st/stm32wlxx_hal_driver/Src/stm32wlxx_hal_dma.c ****   * @param CallbackID User Callback identifier
 886:hardware/mcu/st/stm32wlxx_hal_driver/Src/stm32wlxx_hal_dma.c ****   *                   a HAL_DMA_CallbackIDTypeDef ENUM as parameter.
 887:hardware/mcu/st/stm32wlxx_hal_driver/Src/stm32wlxx_hal_dma.c ****   * @retval HAL status
ARM GAS  /var/folders/b4/k4jbz0ms4wg23jtq0w6p483m0000gn/T//cc3EDpXC.s 			page 17


 888:hardware/mcu/st/stm32wlxx_hal_driver/Src/stm32wlxx_hal_dma.c ****   */
 889:hardware/mcu/st/stm32wlxx_hal_driver/Src/stm32wlxx_hal_dma.c **** HAL_StatusTypeDef HAL_DMA_UnRegisterCallback(DMA_HandleTypeDef *hdma, HAL_DMA_CallbackIDTypeDef Cal
 890:hardware/mcu/st/stm32wlxx_hal_driver/Src/stm32wlxx_hal_dma.c **** {
 891:hardware/mcu/st/stm32wlxx_hal_driver/Src/stm32wlxx_hal_dma.c ****   HAL_StatusTypeDef status = HAL_OK;
 892:hardware/mcu/st/stm32wlxx_hal_driver/Src/stm32wlxx_hal_dma.c **** 
 893:hardware/mcu/st/stm32wlxx_hal_driver/Src/stm32wlxx_hal_dma.c ****   /* Process locked */
 894:hardware/mcu/st/stm32wlxx_hal_driver/Src/stm32wlxx_hal_dma.c ****   __HAL_LOCK(hdma);
 895:hardware/mcu/st/stm32wlxx_hal_driver/Src/stm32wlxx_hal_dma.c **** 
 896:hardware/mcu/st/stm32wlxx_hal_driver/Src/stm32wlxx_hal_dma.c ****   if (hdma->State == HAL_DMA_STATE_READY)
 897:hardware/mcu/st/stm32wlxx_hal_driver/Src/stm32wlxx_hal_dma.c ****   {
 898:hardware/mcu/st/stm32wlxx_hal_driver/Src/stm32wlxx_hal_dma.c ****     switch (CallbackID)
 899:hardware/mcu/st/stm32wlxx_hal_driver/Src/stm32wlxx_hal_dma.c ****     {
 900:hardware/mcu/st/stm32wlxx_hal_driver/Src/stm32wlxx_hal_dma.c ****       case  HAL_DMA_XFER_CPLT_CB_ID:
 901:hardware/mcu/st/stm32wlxx_hal_driver/Src/stm32wlxx_hal_dma.c ****         hdma->XferCpltCallback = NULL;
 902:hardware/mcu/st/stm32wlxx_hal_driver/Src/stm32wlxx_hal_dma.c ****         break;
 903:hardware/mcu/st/stm32wlxx_hal_driver/Src/stm32wlxx_hal_dma.c **** 
 904:hardware/mcu/st/stm32wlxx_hal_driver/Src/stm32wlxx_hal_dma.c ****       case  HAL_DMA_XFER_HALFCPLT_CB_ID:
 905:hardware/mcu/st/stm32wlxx_hal_driver/Src/stm32wlxx_hal_dma.c ****         hdma->XferHalfCpltCallback = NULL;
 906:hardware/mcu/st/stm32wlxx_hal_driver/Src/stm32wlxx_hal_dma.c ****         break;
 907:hardware/mcu/st/stm32wlxx_hal_driver/Src/stm32wlxx_hal_dma.c **** 
 908:hardware/mcu/st/stm32wlxx_hal_driver/Src/stm32wlxx_hal_dma.c ****       case  HAL_DMA_XFER_ERROR_CB_ID:
 909:hardware/mcu/st/stm32wlxx_hal_driver/Src/stm32wlxx_hal_dma.c ****         hdma->XferErrorCallback = NULL;
 910:hardware/mcu/st/stm32wlxx_hal_driver/Src/stm32wlxx_hal_dma.c ****         break;
 911:hardware/mcu/st/stm32wlxx_hal_driver/Src/stm32wlxx_hal_dma.c **** 
 912:hardware/mcu/st/stm32wlxx_hal_driver/Src/stm32wlxx_hal_dma.c ****       case  HAL_DMA_XFER_ABORT_CB_ID:
 913:hardware/mcu/st/stm32wlxx_hal_driver/Src/stm32wlxx_hal_dma.c ****         hdma->XferAbortCallback = NULL;
 914:hardware/mcu/st/stm32wlxx_hal_driver/Src/stm32wlxx_hal_dma.c ****         break;
 915:hardware/mcu/st/stm32wlxx_hal_driver/Src/stm32wlxx_hal_dma.c **** 
 916:hardware/mcu/st/stm32wlxx_hal_driver/Src/stm32wlxx_hal_dma.c ****       case   HAL_DMA_XFER_ALL_CB_ID:
 917:hardware/mcu/st/stm32wlxx_hal_driver/Src/stm32wlxx_hal_dma.c ****         hdma->XferCpltCallback = NULL;
 918:hardware/mcu/st/stm32wlxx_hal_driver/Src/stm32wlxx_hal_dma.c ****         hdma->XferHalfCpltCallback = NULL;
 919:hardware/mcu/st/stm32wlxx_hal_driver/Src/stm32wlxx_hal_dma.c ****         hdma->XferErrorCallback = NULL;
 920:hardware/mcu/st/stm32wlxx_hal_driver/Src/stm32wlxx_hal_dma.c ****         hdma->XferAbortCallback = NULL;
 921:hardware/mcu/st/stm32wlxx_hal_driver/Src/stm32wlxx_hal_dma.c ****         break;
 922:hardware/mcu/st/stm32wlxx_hal_driver/Src/stm32wlxx_hal_dma.c **** 
 923:hardware/mcu/st/stm32wlxx_hal_driver/Src/stm32wlxx_hal_dma.c ****       default:
 924:hardware/mcu/st/stm32wlxx_hal_driver/Src/stm32wlxx_hal_dma.c ****         status = HAL_ERROR;
 925:hardware/mcu/st/stm32wlxx_hal_driver/Src/stm32wlxx_hal_dma.c ****         break;
 926:hardware/mcu/st/stm32wlxx_hal_driver/Src/stm32wlxx_hal_dma.c ****     }
 927:hardware/mcu/st/stm32wlxx_hal_driver/Src/stm32wlxx_hal_dma.c ****   }
 928:hardware/mcu/st/stm32wlxx_hal_driver/Src/stm32wlxx_hal_dma.c ****   else
 929:hardware/mcu/st/stm32wlxx_hal_driver/Src/stm32wlxx_hal_dma.c ****   {
 930:hardware/mcu/st/stm32wlxx_hal_driver/Src/stm32wlxx_hal_dma.c ****     status = HAL_ERROR;
 931:hardware/mcu/st/stm32wlxx_hal_driver/Src/stm32wlxx_hal_dma.c ****   }
 932:hardware/mcu/st/stm32wlxx_hal_driver/Src/stm32wlxx_hal_dma.c **** 
 933:hardware/mcu/st/stm32wlxx_hal_driver/Src/stm32wlxx_hal_dma.c ****   /* Release Lock */
 934:hardware/mcu/st/stm32wlxx_hal_driver/Src/stm32wlxx_hal_dma.c ****   __HAL_UNLOCK(hdma);
 935:hardware/mcu/st/stm32wlxx_hal_driver/Src/stm32wlxx_hal_dma.c **** 
 936:hardware/mcu/st/stm32wlxx_hal_driver/Src/stm32wlxx_hal_dma.c ****   return status;
 937:hardware/mcu/st/stm32wlxx_hal_driver/Src/stm32wlxx_hal_dma.c **** }
 938:hardware/mcu/st/stm32wlxx_hal_driver/Src/stm32wlxx_hal_dma.c **** 
 939:hardware/mcu/st/stm32wlxx_hal_driver/Src/stm32wlxx_hal_dma.c **** /**
 940:hardware/mcu/st/stm32wlxx_hal_driver/Src/stm32wlxx_hal_dma.c ****   * @}
 941:hardware/mcu/st/stm32wlxx_hal_driver/Src/stm32wlxx_hal_dma.c ****   */
 942:hardware/mcu/st/stm32wlxx_hal_driver/Src/stm32wlxx_hal_dma.c **** 
 943:hardware/mcu/st/stm32wlxx_hal_driver/Src/stm32wlxx_hal_dma.c **** 
 944:hardware/mcu/st/stm32wlxx_hal_driver/Src/stm32wlxx_hal_dma.c **** 
ARM GAS  /var/folders/b4/k4jbz0ms4wg23jtq0w6p483m0000gn/T//cc3EDpXC.s 			page 18


 945:hardware/mcu/st/stm32wlxx_hal_driver/Src/stm32wlxx_hal_dma.c **** /** @defgroup DMA_Exported_Functions_Group3 Peripheral State and Errors functions
 946:hardware/mcu/st/stm32wlxx_hal_driver/Src/stm32wlxx_hal_dma.c ****  *  @brief    Peripheral State and Errors functions
 947:hardware/mcu/st/stm32wlxx_hal_driver/Src/stm32wlxx_hal_dma.c ****  *
 948:hardware/mcu/st/stm32wlxx_hal_driver/Src/stm32wlxx_hal_dma.c **** @verbatim
 949:hardware/mcu/st/stm32wlxx_hal_driver/Src/stm32wlxx_hal_dma.c ****  ===============================================================================
 950:hardware/mcu/st/stm32wlxx_hal_driver/Src/stm32wlxx_hal_dma.c ****             ##### Peripheral State and Errors functions #####
 951:hardware/mcu/st/stm32wlxx_hal_driver/Src/stm32wlxx_hal_dma.c ****  ===============================================================================
 952:hardware/mcu/st/stm32wlxx_hal_driver/Src/stm32wlxx_hal_dma.c ****     [..]
 953:hardware/mcu/st/stm32wlxx_hal_driver/Src/stm32wlxx_hal_dma.c ****     This subsection provides functions allowing to
 954:hardware/mcu/st/stm32wlxx_hal_driver/Src/stm32wlxx_hal_dma.c ****       (+) Check the DMA state
 955:hardware/mcu/st/stm32wlxx_hal_driver/Src/stm32wlxx_hal_dma.c ****       (+) Get error code
 956:hardware/mcu/st/stm32wlxx_hal_driver/Src/stm32wlxx_hal_dma.c **** 
 957:hardware/mcu/st/stm32wlxx_hal_driver/Src/stm32wlxx_hal_dma.c **** @endverbatim
 958:hardware/mcu/st/stm32wlxx_hal_driver/Src/stm32wlxx_hal_dma.c ****   * @{
 959:hardware/mcu/st/stm32wlxx_hal_driver/Src/stm32wlxx_hal_dma.c ****   */
 960:hardware/mcu/st/stm32wlxx_hal_driver/Src/stm32wlxx_hal_dma.c **** 
 961:hardware/mcu/st/stm32wlxx_hal_driver/Src/stm32wlxx_hal_dma.c **** /**
 962:hardware/mcu/st/stm32wlxx_hal_driver/Src/stm32wlxx_hal_dma.c ****   * @brief Return the DMA handle state.
 963:hardware/mcu/st/stm32wlxx_hal_driver/Src/stm32wlxx_hal_dma.c ****   * @param hdma Pointer to a DMA_HandleTypeDef structure that contains
 964:hardware/mcu/st/stm32wlxx_hal_driver/Src/stm32wlxx_hal_dma.c ****   *             the configuration information for the specified DMA Channel.
 965:hardware/mcu/st/stm32wlxx_hal_driver/Src/stm32wlxx_hal_dma.c ****   * @retval HAL state
 966:hardware/mcu/st/stm32wlxx_hal_driver/Src/stm32wlxx_hal_dma.c ****   */
 967:hardware/mcu/st/stm32wlxx_hal_driver/Src/stm32wlxx_hal_dma.c **** HAL_DMA_StateTypeDef HAL_DMA_GetState(DMA_HandleTypeDef *hdma)
 968:hardware/mcu/st/stm32wlxx_hal_driver/Src/stm32wlxx_hal_dma.c **** {
 969:hardware/mcu/st/stm32wlxx_hal_driver/Src/stm32wlxx_hal_dma.c ****   /* Return DMA handle state */
 970:hardware/mcu/st/stm32wlxx_hal_driver/Src/stm32wlxx_hal_dma.c ****   return hdma->State;
 971:hardware/mcu/st/stm32wlxx_hal_driver/Src/stm32wlxx_hal_dma.c **** }
 972:hardware/mcu/st/stm32wlxx_hal_driver/Src/stm32wlxx_hal_dma.c **** 
 973:hardware/mcu/st/stm32wlxx_hal_driver/Src/stm32wlxx_hal_dma.c **** /**
 974:hardware/mcu/st/stm32wlxx_hal_driver/Src/stm32wlxx_hal_dma.c ****   * @brief Return the DMA error code.
 975:hardware/mcu/st/stm32wlxx_hal_driver/Src/stm32wlxx_hal_dma.c ****   * @param hdma Pointer to a DMA_HandleTypeDef structure that contains
 976:hardware/mcu/st/stm32wlxx_hal_driver/Src/stm32wlxx_hal_dma.c ****   *             the configuration information for the specified DMA Channel.
 977:hardware/mcu/st/stm32wlxx_hal_driver/Src/stm32wlxx_hal_dma.c ****   * @retval DMA Error Code
 978:hardware/mcu/st/stm32wlxx_hal_driver/Src/stm32wlxx_hal_dma.c ****   */
 979:hardware/mcu/st/stm32wlxx_hal_driver/Src/stm32wlxx_hal_dma.c **** uint32_t HAL_DMA_GetError(DMA_HandleTypeDef *hdma)
 980:hardware/mcu/st/stm32wlxx_hal_driver/Src/stm32wlxx_hal_dma.c **** {
 981:hardware/mcu/st/stm32wlxx_hal_driver/Src/stm32wlxx_hal_dma.c ****   /* Return the DMA error code */
 982:hardware/mcu/st/stm32wlxx_hal_driver/Src/stm32wlxx_hal_dma.c ****   return hdma->ErrorCode;
 983:hardware/mcu/st/stm32wlxx_hal_driver/Src/stm32wlxx_hal_dma.c **** }
 984:hardware/mcu/st/stm32wlxx_hal_driver/Src/stm32wlxx_hal_dma.c **** 
 985:hardware/mcu/st/stm32wlxx_hal_driver/Src/stm32wlxx_hal_dma.c **** /**
 986:hardware/mcu/st/stm32wlxx_hal_driver/Src/stm32wlxx_hal_dma.c ****   * @}
 987:hardware/mcu/st/stm32wlxx_hal_driver/Src/stm32wlxx_hal_dma.c ****   */
 988:hardware/mcu/st/stm32wlxx_hal_driver/Src/stm32wlxx_hal_dma.c **** 
 989:hardware/mcu/st/stm32wlxx_hal_driver/Src/stm32wlxx_hal_dma.c **** /**
 990:hardware/mcu/st/stm32wlxx_hal_driver/Src/stm32wlxx_hal_dma.c ****   * @}
 991:hardware/mcu/st/stm32wlxx_hal_driver/Src/stm32wlxx_hal_dma.c ****   */
 992:hardware/mcu/st/stm32wlxx_hal_driver/Src/stm32wlxx_hal_dma.c **** 
 993:hardware/mcu/st/stm32wlxx_hal_driver/Src/stm32wlxx_hal_dma.c **** #if defined(DMA_CCR_SECM) && defined(DMA_CCR_PRIV)
 994:hardware/mcu/st/stm32wlxx_hal_driver/Src/stm32wlxx_hal_dma.c **** /** @defgroup DMA_Exported_Functions_Group4 Attributes management functions
 995:hardware/mcu/st/stm32wlxx_hal_driver/Src/stm32wlxx_hal_dma.c ****  *  @brief    Attributes management functions
 996:hardware/mcu/st/stm32wlxx_hal_driver/Src/stm32wlxx_hal_dma.c ****  *
 997:hardware/mcu/st/stm32wlxx_hal_driver/Src/stm32wlxx_hal_dma.c **** @verbatim
 998:hardware/mcu/st/stm32wlxx_hal_driver/Src/stm32wlxx_hal_dma.c ****  ===============================================================================
 999:hardware/mcu/st/stm32wlxx_hal_driver/Src/stm32wlxx_hal_dma.c ****             ##### Attributes management functions #####
1000:hardware/mcu/st/stm32wlxx_hal_driver/Src/stm32wlxx_hal_dma.c ****  ===============================================================================
1001:hardware/mcu/st/stm32wlxx_hal_driver/Src/stm32wlxx_hal_dma.c ****     [..]
ARM GAS  /var/folders/b4/k4jbz0ms4wg23jtq0w6p483m0000gn/T//cc3EDpXC.s 			page 19


1002:hardware/mcu/st/stm32wlxx_hal_driver/Src/stm32wlxx_hal_dma.c ****     This subsection provides functions allowing to
1003:hardware/mcu/st/stm32wlxx_hal_driver/Src/stm32wlxx_hal_dma.c ****       (+) Configure the DMA channel(s) privilege and non-privilege attributes
1004:hardware/mcu/st/stm32wlxx_hal_driver/Src/stm32wlxx_hal_dma.c ****       (+) Configure the DMA channel(s) secure and non-secure attributes from
1005:hardware/mcu/st/stm32wlxx_hal_driver/Src/stm32wlxx_hal_dma.c ****           secure world when the system implements the security (ESE=1)
1006:hardware/mcu/st/stm32wlxx_hal_driver/Src/stm32wlxx_hal_dma.c ****       (+) Get the DMA channel(s) attributes
1007:hardware/mcu/st/stm32wlxx_hal_driver/Src/stm32wlxx_hal_dma.c **** 
1008:hardware/mcu/st/stm32wlxx_hal_driver/Src/stm32wlxx_hal_dma.c **** @endverbatim
1009:hardware/mcu/st/stm32wlxx_hal_driver/Src/stm32wlxx_hal_dma.c ****   * @{
1010:hardware/mcu/st/stm32wlxx_hal_driver/Src/stm32wlxx_hal_dma.c ****   */
1011:hardware/mcu/st/stm32wlxx_hal_driver/Src/stm32wlxx_hal_dma.c **** 
1012:hardware/mcu/st/stm32wlxx_hal_driver/Src/stm32wlxx_hal_dma.c **** /**
1013:hardware/mcu/st/stm32wlxx_hal_driver/Src/stm32wlxx_hal_dma.c ****   * @brief Configure the DMA channel attribute(s).
1014:hardware/mcu/st/stm32wlxx_hal_driver/Src/stm32wlxx_hal_dma.c ****   * @note  Available attributes are security and privilege protection.
1015:hardware/mcu/st/stm32wlxx_hal_driver/Src/stm32wlxx_hal_dma.c ****   *        Each field can be set independently. Not allowed configurations
1016:hardware/mcu/st/stm32wlxx_hal_driver/Src/stm32wlxx_hal_dma.c ****   *        are not taken into account & HAL_ERROR returned.
1017:hardware/mcu/st/stm32wlxx_hal_driver/Src/stm32wlxx_hal_dma.c ****   * @param hdma Pointer to a DMA_HandleTypeDef structure that contains
1018:hardware/mcu/st/stm32wlxx_hal_driver/Src/stm32wlxx_hal_dma.c ****   *             the configuration information for the specified DMA Channel.
1019:hardware/mcu/st/stm32wlxx_hal_driver/Src/stm32wlxx_hal_dma.c ****   * @param ChannelAttributes specifies the DMA channel secure/privilege attributes.
1020:hardware/mcu/st/stm32wlxx_hal_driver/Src/stm32wlxx_hal_dma.c ****   *        This parameter can be a one or a combination of @ref DMA_Channel_Attributes
1021:hardware/mcu/st/stm32wlxx_hal_driver/Src/stm32wlxx_hal_dma.c ****   * @retval HAL Status
1022:hardware/mcu/st/stm32wlxx_hal_driver/Src/stm32wlxx_hal_dma.c ****   */
1023:hardware/mcu/st/stm32wlxx_hal_driver/Src/stm32wlxx_hal_dma.c **** HAL_StatusTypeDef HAL_DMA_ConfigChannelAttributes(DMA_HandleTypeDef *hdma, uint32_t ChannelAttribut
1024:hardware/mcu/st/stm32wlxx_hal_driver/Src/stm32wlxx_hal_dma.c **** {
1025:hardware/mcu/st/stm32wlxx_hal_driver/Src/stm32wlxx_hal_dma.c ****   HAL_StatusTypeDef status = HAL_OK;
1026:hardware/mcu/st/stm32wlxx_hal_driver/Src/stm32wlxx_hal_dma.c ****   uint32_t ccr;
1027:hardware/mcu/st/stm32wlxx_hal_driver/Src/stm32wlxx_hal_dma.c **** 
1028:hardware/mcu/st/stm32wlxx_hal_driver/Src/stm32wlxx_hal_dma.c **** #if defined (CORE_CM0PLUS)
1029:hardware/mcu/st/stm32wlxx_hal_driver/Src/stm32wlxx_hal_dma.c ****   uint32_t ccr_SECM;
1030:hardware/mcu/st/stm32wlxx_hal_driver/Src/stm32wlxx_hal_dma.c **** #endif /* CORE_CM0PLUS */
1031:hardware/mcu/st/stm32wlxx_hal_driver/Src/stm32wlxx_hal_dma.c **** 
1032:hardware/mcu/st/stm32wlxx_hal_driver/Src/stm32wlxx_hal_dma.c ****   /* Check the DMA peripheral handle */
1033:hardware/mcu/st/stm32wlxx_hal_driver/Src/stm32wlxx_hal_dma.c ****   if (hdma == NULL)
1034:hardware/mcu/st/stm32wlxx_hal_driver/Src/stm32wlxx_hal_dma.c ****   {
1035:hardware/mcu/st/stm32wlxx_hal_driver/Src/stm32wlxx_hal_dma.c ****     status = HAL_ERROR;
1036:hardware/mcu/st/stm32wlxx_hal_driver/Src/stm32wlxx_hal_dma.c ****     return status;
1037:hardware/mcu/st/stm32wlxx_hal_driver/Src/stm32wlxx_hal_dma.c ****   }
1038:hardware/mcu/st/stm32wlxx_hal_driver/Src/stm32wlxx_hal_dma.c **** 
1039:hardware/mcu/st/stm32wlxx_hal_driver/Src/stm32wlxx_hal_dma.c ****   /* Check the parameters */
1040:hardware/mcu/st/stm32wlxx_hal_driver/Src/stm32wlxx_hal_dma.c ****   assert_param(IS_DMA_ATTRIBUTES(ChannelAttributes));
1041:hardware/mcu/st/stm32wlxx_hal_driver/Src/stm32wlxx_hal_dma.c **** 
1042:hardware/mcu/st/stm32wlxx_hal_driver/Src/stm32wlxx_hal_dma.c ****   /* Read CCR register */
1043:hardware/mcu/st/stm32wlxx_hal_driver/Src/stm32wlxx_hal_dma.c ****   ccr = READ_REG(hdma->Instance->CCR);
1044:hardware/mcu/st/stm32wlxx_hal_driver/Src/stm32wlxx_hal_dma.c **** 
1045:hardware/mcu/st/stm32wlxx_hal_driver/Src/stm32wlxx_hal_dma.c ****   /* Apply any requested privilege/non-privilege attributes */
1046:hardware/mcu/st/stm32wlxx_hal_driver/Src/stm32wlxx_hal_dma.c ****   if ((ChannelAttributes & DMA_CHANNEL_ATTR_PRIV_MASK) != 0U)
1047:hardware/mcu/st/stm32wlxx_hal_driver/Src/stm32wlxx_hal_dma.c ****   {
1048:hardware/mcu/st/stm32wlxx_hal_driver/Src/stm32wlxx_hal_dma.c ****     if ((ChannelAttributes & DMA_CCR_PRIV) != 0U)
1049:hardware/mcu/st/stm32wlxx_hal_driver/Src/stm32wlxx_hal_dma.c ****     {
1050:hardware/mcu/st/stm32wlxx_hal_driver/Src/stm32wlxx_hal_dma.c ****       SET_BIT(ccr, DMA_CCR_PRIV);
1051:hardware/mcu/st/stm32wlxx_hal_driver/Src/stm32wlxx_hal_dma.c ****     }
1052:hardware/mcu/st/stm32wlxx_hal_driver/Src/stm32wlxx_hal_dma.c ****     else
1053:hardware/mcu/st/stm32wlxx_hal_driver/Src/stm32wlxx_hal_dma.c ****     {
1054:hardware/mcu/st/stm32wlxx_hal_driver/Src/stm32wlxx_hal_dma.c ****       CLEAR_BIT(ccr, DMA_CCR_PRIV);
1055:hardware/mcu/st/stm32wlxx_hal_driver/Src/stm32wlxx_hal_dma.c ****     }
1056:hardware/mcu/st/stm32wlxx_hal_driver/Src/stm32wlxx_hal_dma.c ****   }
1057:hardware/mcu/st/stm32wlxx_hal_driver/Src/stm32wlxx_hal_dma.c **** 
1058:hardware/mcu/st/stm32wlxx_hal_driver/Src/stm32wlxx_hal_dma.c **** #if defined (CORE_CM0PLUS)
ARM GAS  /var/folders/b4/k4jbz0ms4wg23jtq0w6p483m0000gn/T//cc3EDpXC.s 			page 20


1059:hardware/mcu/st/stm32wlxx_hal_driver/Src/stm32wlxx_hal_dma.c ****   /* Channel */
1060:hardware/mcu/st/stm32wlxx_hal_driver/Src/stm32wlxx_hal_dma.c ****   /* Check what is the current SECM status */
1061:hardware/mcu/st/stm32wlxx_hal_driver/Src/stm32wlxx_hal_dma.c ****   if ((hdma->Instance->CCR & DMA_CCR_SECM) == DMA_CCR_SECM)
1062:hardware/mcu/st/stm32wlxx_hal_driver/Src/stm32wlxx_hal_dma.c ****   {
1063:hardware/mcu/st/stm32wlxx_hal_driver/Src/stm32wlxx_hal_dma.c ****     /* Channel is currently secure */
1064:hardware/mcu/st/stm32wlxx_hal_driver/Src/stm32wlxx_hal_dma.c ****     ccr_SECM = DMA_CCR_SECM;
1065:hardware/mcu/st/stm32wlxx_hal_driver/Src/stm32wlxx_hal_dma.c ****   }
1066:hardware/mcu/st/stm32wlxx_hal_driver/Src/stm32wlxx_hal_dma.c ****   else
1067:hardware/mcu/st/stm32wlxx_hal_driver/Src/stm32wlxx_hal_dma.c ****   {
1068:hardware/mcu/st/stm32wlxx_hal_driver/Src/stm32wlxx_hal_dma.c ****     /* Channel is currently non-secure */
1069:hardware/mcu/st/stm32wlxx_hal_driver/Src/stm32wlxx_hal_dma.c ****     ccr_SECM = 0U;
1070:hardware/mcu/st/stm32wlxx_hal_driver/Src/stm32wlxx_hal_dma.c ****   }
1071:hardware/mcu/st/stm32wlxx_hal_driver/Src/stm32wlxx_hal_dma.c **** 
1072:hardware/mcu/st/stm32wlxx_hal_driver/Src/stm32wlxx_hal_dma.c ****   if ((ChannelAttributes & DMA_CHANNEL_ATTR_SEC_MASK) != 0U)
1073:hardware/mcu/st/stm32wlxx_hal_driver/Src/stm32wlxx_hal_dma.c ****   {
1074:hardware/mcu/st/stm32wlxx_hal_driver/Src/stm32wlxx_hal_dma.c ****     if ((ChannelAttributes & DMA_CCR_SECM) != 0U)
1075:hardware/mcu/st/stm32wlxx_hal_driver/Src/stm32wlxx_hal_dma.c ****     {
1076:hardware/mcu/st/stm32wlxx_hal_driver/Src/stm32wlxx_hal_dma.c ****       SET_BIT(ccr, DMA_CCR_SECM);
1077:hardware/mcu/st/stm32wlxx_hal_driver/Src/stm32wlxx_hal_dma.c ****       /* Channel changed to secure */
1078:hardware/mcu/st/stm32wlxx_hal_driver/Src/stm32wlxx_hal_dma.c ****       ccr_SECM = DMA_CCR_SECM;
1079:hardware/mcu/st/stm32wlxx_hal_driver/Src/stm32wlxx_hal_dma.c ****     }
1080:hardware/mcu/st/stm32wlxx_hal_driver/Src/stm32wlxx_hal_dma.c ****     else
1081:hardware/mcu/st/stm32wlxx_hal_driver/Src/stm32wlxx_hal_dma.c ****     {
1082:hardware/mcu/st/stm32wlxx_hal_driver/Src/stm32wlxx_hal_dma.c ****       CLEAR_BIT(ccr, DMA_CCR_SECM);
1083:hardware/mcu/st/stm32wlxx_hal_driver/Src/stm32wlxx_hal_dma.c ****       /* Channel changed to non-secure */
1084:hardware/mcu/st/stm32wlxx_hal_driver/Src/stm32wlxx_hal_dma.c ****       ccr_SECM = 0U;
1085:hardware/mcu/st/stm32wlxx_hal_driver/Src/stm32wlxx_hal_dma.c ****     }
1086:hardware/mcu/st/stm32wlxx_hal_driver/Src/stm32wlxx_hal_dma.c ****   }
1087:hardware/mcu/st/stm32wlxx_hal_driver/Src/stm32wlxx_hal_dma.c **** 
1088:hardware/mcu/st/stm32wlxx_hal_driver/Src/stm32wlxx_hal_dma.c ****   /* Channel source */
1089:hardware/mcu/st/stm32wlxx_hal_driver/Src/stm32wlxx_hal_dma.c ****   if ((ChannelAttributes & DMA_CHANNEL_ATTR_SEC_SRC_MASK) != 0U)
1090:hardware/mcu/st/stm32wlxx_hal_driver/Src/stm32wlxx_hal_dma.c ****   {
1091:hardware/mcu/st/stm32wlxx_hal_driver/Src/stm32wlxx_hal_dma.c ****     /* Configure Source security attributes */
1092:hardware/mcu/st/stm32wlxx_hal_driver/Src/stm32wlxx_hal_dma.c ****     if ((ChannelAttributes & DMA_CCR_SSEC) != 0x0U)
1093:hardware/mcu/st/stm32wlxx_hal_driver/Src/stm32wlxx_hal_dma.c ****     {
1094:hardware/mcu/st/stm32wlxx_hal_driver/Src/stm32wlxx_hal_dma.c ****       /* SSEC can only be set if channel is secure */
1095:hardware/mcu/st/stm32wlxx_hal_driver/Src/stm32wlxx_hal_dma.c ****       /* Otherwise configuration is not taken into account */
1096:hardware/mcu/st/stm32wlxx_hal_driver/Src/stm32wlxx_hal_dma.c ****       if (ccr_SECM == 0U)
1097:hardware/mcu/st/stm32wlxx_hal_driver/Src/stm32wlxx_hal_dma.c ****       {
1098:hardware/mcu/st/stm32wlxx_hal_driver/Src/stm32wlxx_hal_dma.c ****         status = HAL_ERROR;
1099:hardware/mcu/st/stm32wlxx_hal_driver/Src/stm32wlxx_hal_dma.c ****       }
1100:hardware/mcu/st/stm32wlxx_hal_driver/Src/stm32wlxx_hal_dma.c ****       else
1101:hardware/mcu/st/stm32wlxx_hal_driver/Src/stm32wlxx_hal_dma.c ****       {
1102:hardware/mcu/st/stm32wlxx_hal_driver/Src/stm32wlxx_hal_dma.c ****         SET_BIT(ccr, DMA_CCR_SSEC);
1103:hardware/mcu/st/stm32wlxx_hal_driver/Src/stm32wlxx_hal_dma.c ****       }
1104:hardware/mcu/st/stm32wlxx_hal_driver/Src/stm32wlxx_hal_dma.c ****     }
1105:hardware/mcu/st/stm32wlxx_hal_driver/Src/stm32wlxx_hal_dma.c ****     else
1106:hardware/mcu/st/stm32wlxx_hal_driver/Src/stm32wlxx_hal_dma.c ****     {
1107:hardware/mcu/st/stm32wlxx_hal_driver/Src/stm32wlxx_hal_dma.c ****       CLEAR_BIT(ccr, DMA_CCR_SSEC);
1108:hardware/mcu/st/stm32wlxx_hal_driver/Src/stm32wlxx_hal_dma.c ****     }
1109:hardware/mcu/st/stm32wlxx_hal_driver/Src/stm32wlxx_hal_dma.c ****   }
1110:hardware/mcu/st/stm32wlxx_hal_driver/Src/stm32wlxx_hal_dma.c **** 
1111:hardware/mcu/st/stm32wlxx_hal_driver/Src/stm32wlxx_hal_dma.c ****   /* Channel destination */
1112:hardware/mcu/st/stm32wlxx_hal_driver/Src/stm32wlxx_hal_dma.c ****   if ((ChannelAttributes & DMA_CHANNEL_ATTR_SEC_DEST_MASK) != 0U)
1113:hardware/mcu/st/stm32wlxx_hal_driver/Src/stm32wlxx_hal_dma.c ****   {
1114:hardware/mcu/st/stm32wlxx_hal_driver/Src/stm32wlxx_hal_dma.c ****     /* Configure Destination security attributes */
1115:hardware/mcu/st/stm32wlxx_hal_driver/Src/stm32wlxx_hal_dma.c ****     if ((ChannelAttributes & DMA_CCR_DSEC) != 0U)
ARM GAS  /var/folders/b4/k4jbz0ms4wg23jtq0w6p483m0000gn/T//cc3EDpXC.s 			page 21


1116:hardware/mcu/st/stm32wlxx_hal_driver/Src/stm32wlxx_hal_dma.c ****     {
1117:hardware/mcu/st/stm32wlxx_hal_driver/Src/stm32wlxx_hal_dma.c ****       if (ccr_SECM == 0U)
1118:hardware/mcu/st/stm32wlxx_hal_driver/Src/stm32wlxx_hal_dma.c ****       {
1119:hardware/mcu/st/stm32wlxx_hal_driver/Src/stm32wlxx_hal_dma.c ****         /* DSEC can only be set if channel is secure */
1120:hardware/mcu/st/stm32wlxx_hal_driver/Src/stm32wlxx_hal_dma.c ****         /* Destination channel is non secure */
1121:hardware/mcu/st/stm32wlxx_hal_driver/Src/stm32wlxx_hal_dma.c ****         status = HAL_ERROR;
1122:hardware/mcu/st/stm32wlxx_hal_driver/Src/stm32wlxx_hal_dma.c ****       }
1123:hardware/mcu/st/stm32wlxx_hal_driver/Src/stm32wlxx_hal_dma.c ****       else
1124:hardware/mcu/st/stm32wlxx_hal_driver/Src/stm32wlxx_hal_dma.c ****       {
1125:hardware/mcu/st/stm32wlxx_hal_driver/Src/stm32wlxx_hal_dma.c ****         SET_BIT(ccr, DMA_CCR_DSEC);
1126:hardware/mcu/st/stm32wlxx_hal_driver/Src/stm32wlxx_hal_dma.c ****       }
1127:hardware/mcu/st/stm32wlxx_hal_driver/Src/stm32wlxx_hal_dma.c ****     }
1128:hardware/mcu/st/stm32wlxx_hal_driver/Src/stm32wlxx_hal_dma.c ****     else
1129:hardware/mcu/st/stm32wlxx_hal_driver/Src/stm32wlxx_hal_dma.c ****     {
1130:hardware/mcu/st/stm32wlxx_hal_driver/Src/stm32wlxx_hal_dma.c ****       CLEAR_BIT(ccr, DMA_CCR_DSEC);
1131:hardware/mcu/st/stm32wlxx_hal_driver/Src/stm32wlxx_hal_dma.c ****     }
1132:hardware/mcu/st/stm32wlxx_hal_driver/Src/stm32wlxx_hal_dma.c ****   }
1133:hardware/mcu/st/stm32wlxx_hal_driver/Src/stm32wlxx_hal_dma.c **** 
1134:hardware/mcu/st/stm32wlxx_hal_driver/Src/stm32wlxx_hal_dma.c **** #endif /* CORE_CM0PLUS */
1135:hardware/mcu/st/stm32wlxx_hal_driver/Src/stm32wlxx_hal_dma.c **** 
1136:hardware/mcu/st/stm32wlxx_hal_driver/Src/stm32wlxx_hal_dma.c ****   /* Update CCR Register: PRIV, SECM, SCEC, DSEC bits */
1137:hardware/mcu/st/stm32wlxx_hal_driver/Src/stm32wlxx_hal_dma.c ****   WRITE_REG(hdma->Instance->CCR, ccr);
1138:hardware/mcu/st/stm32wlxx_hal_driver/Src/stm32wlxx_hal_dma.c **** 
1139:hardware/mcu/st/stm32wlxx_hal_driver/Src/stm32wlxx_hal_dma.c ****   return status;
1140:hardware/mcu/st/stm32wlxx_hal_driver/Src/stm32wlxx_hal_dma.c **** }
1141:hardware/mcu/st/stm32wlxx_hal_driver/Src/stm32wlxx_hal_dma.c **** 
1142:hardware/mcu/st/stm32wlxx_hal_driver/Src/stm32wlxx_hal_dma.c **** /**
1143:hardware/mcu/st/stm32wlxx_hal_driver/Src/stm32wlxx_hal_dma.c ****   * @brief Get the attribute of a DMA channel.
1144:hardware/mcu/st/stm32wlxx_hal_driver/Src/stm32wlxx_hal_dma.c ****   * @note  Secure and non-secure attributes are only available from secure state
1145:hardware/mcu/st/stm32wlxx_hal_driver/Src/stm32wlxx_hal_dma.c ****   *        when the system implements the security (ESE=1)
1146:hardware/mcu/st/stm32wlxx_hal_driver/Src/stm32wlxx_hal_dma.c ****   * @param hdma Pointer to a DMA_HandleTypeDef structure that contains
1147:hardware/mcu/st/stm32wlxx_hal_driver/Src/stm32wlxx_hal_dma.c ****   *             the configuration information for the specified DMA Channel.
1148:hardware/mcu/st/stm32wlxx_hal_driver/Src/stm32wlxx_hal_dma.c ****   * @param ChannelAttributes pointer to return the attributes.
1149:hardware/mcu/st/stm32wlxx_hal_driver/Src/stm32wlxx_hal_dma.c ****   * @retval HAL Status.
1150:hardware/mcu/st/stm32wlxx_hal_driver/Src/stm32wlxx_hal_dma.c ****   */
1151:hardware/mcu/st/stm32wlxx_hal_driver/Src/stm32wlxx_hal_dma.c **** HAL_StatusTypeDef HAL_DMA_GetConfigChannelAttributes(DMA_HandleTypeDef *hdma, uint32_t *ChannelAttr
1152:hardware/mcu/st/stm32wlxx_hal_driver/Src/stm32wlxx_hal_dma.c **** {
1153:hardware/mcu/st/stm32wlxx_hal_driver/Src/stm32wlxx_hal_dma.c ****   uint32_t read_attributes;
1154:hardware/mcu/st/stm32wlxx_hal_driver/Src/stm32wlxx_hal_dma.c ****   uint32_t attributes;
1155:hardware/mcu/st/stm32wlxx_hal_driver/Src/stm32wlxx_hal_dma.c **** 
1156:hardware/mcu/st/stm32wlxx_hal_driver/Src/stm32wlxx_hal_dma.c ****   /* Check the DMA peripheral handle and pointer to returned value */
1157:hardware/mcu/st/stm32wlxx_hal_driver/Src/stm32wlxx_hal_dma.c ****   if ((hdma == NULL) || (ChannelAttributes == NULL))
1158:hardware/mcu/st/stm32wlxx_hal_driver/Src/stm32wlxx_hal_dma.c ****   {
1159:hardware/mcu/st/stm32wlxx_hal_driver/Src/stm32wlxx_hal_dma.c ****     return HAL_ERROR;
1160:hardware/mcu/st/stm32wlxx_hal_driver/Src/stm32wlxx_hal_dma.c ****   }
1161:hardware/mcu/st/stm32wlxx_hal_driver/Src/stm32wlxx_hal_dma.c **** 
1162:hardware/mcu/st/stm32wlxx_hal_driver/Src/stm32wlxx_hal_dma.c **** #if defined (CORE_CM0PLUS)
1163:hardware/mcu/st/stm32wlxx_hal_driver/Src/stm32wlxx_hal_dma.c ****   /* Get secure or non-secure attributes */
1164:hardware/mcu/st/stm32wlxx_hal_driver/Src/stm32wlxx_hal_dma.c ****   read_attributes = READ_BIT(hdma->Instance->CCR, DMA_CCR_PRIV | DMA_CCR_SECM | DMA_CCR_SSEC | DMA_
1165:hardware/mcu/st/stm32wlxx_hal_driver/Src/stm32wlxx_hal_dma.c **** 
1166:hardware/mcu/st/stm32wlxx_hal_driver/Src/stm32wlxx_hal_dma.c ****   /* Get privilege attributes */
1167:hardware/mcu/st/stm32wlxx_hal_driver/Src/stm32wlxx_hal_dma.c ****   attributes = ((read_attributes & DMA_CCR_PRIV) == 0U) ? DMA_CHANNEL_NPRIV : DMA_CHANNEL_PRIV;
1168:hardware/mcu/st/stm32wlxx_hal_driver/Src/stm32wlxx_hal_dma.c **** 
1169:hardware/mcu/st/stm32wlxx_hal_driver/Src/stm32wlxx_hal_dma.c ****   /* Get security attributes */
1170:hardware/mcu/st/stm32wlxx_hal_driver/Src/stm32wlxx_hal_dma.c ****   attributes |= ((read_attributes & DMA_CCR_SECM) == 0U) ? DMA_CHANNEL_NSEC : DMA_CHANNEL_SEC;
1171:hardware/mcu/st/stm32wlxx_hal_driver/Src/stm32wlxx_hal_dma.c **** 
1172:hardware/mcu/st/stm32wlxx_hal_driver/Src/stm32wlxx_hal_dma.c ****   /* Get security attributes of the source */
ARM GAS  /var/folders/b4/k4jbz0ms4wg23jtq0w6p483m0000gn/T//cc3EDpXC.s 			page 22


1173:hardware/mcu/st/stm32wlxx_hal_driver/Src/stm32wlxx_hal_dma.c ****   attributes |= ((read_attributes & DMA_CCR_SSEC) == 0U) ? DMA_CHANNEL_SRC_NSEC : DMA_CHANNEL_SRC_S
1174:hardware/mcu/st/stm32wlxx_hal_driver/Src/stm32wlxx_hal_dma.c **** 
1175:hardware/mcu/st/stm32wlxx_hal_driver/Src/stm32wlxx_hal_dma.c ****   /* Get security attributes of the destination */
1176:hardware/mcu/st/stm32wlxx_hal_driver/Src/stm32wlxx_hal_dma.c ****   attributes |= ((read_attributes & DMA_CCR_DSEC) == 0U) ? DMA_CHANNEL_DEST_NSEC : DMA_CHANNEL_DEST
1177:hardware/mcu/st/stm32wlxx_hal_driver/Src/stm32wlxx_hal_dma.c **** 
1178:hardware/mcu/st/stm32wlxx_hal_driver/Src/stm32wlxx_hal_dma.c **** #else
1179:hardware/mcu/st/stm32wlxx_hal_driver/Src/stm32wlxx_hal_dma.c **** 
1180:hardware/mcu/st/stm32wlxx_hal_driver/Src/stm32wlxx_hal_dma.c ****   /* Get secure or non-secure attributes */
1181:hardware/mcu/st/stm32wlxx_hal_driver/Src/stm32wlxx_hal_dma.c ****   read_attributes = READ_BIT(hdma->Instance->CCR, DMA_CCR_PRIV | DMA_CCR_SECM);
1182:hardware/mcu/st/stm32wlxx_hal_driver/Src/stm32wlxx_hal_dma.c **** 
1183:hardware/mcu/st/stm32wlxx_hal_driver/Src/stm32wlxx_hal_dma.c ****   /* Get privilege attributes */
1184:hardware/mcu/st/stm32wlxx_hal_driver/Src/stm32wlxx_hal_dma.c ****   attributes = ((read_attributes & DMA_CCR_PRIV) == 0U) ? DMA_CHANNEL_NPRIV : DMA_CHANNEL_PRIV;
1185:hardware/mcu/st/stm32wlxx_hal_driver/Src/stm32wlxx_hal_dma.c **** 
1186:hardware/mcu/st/stm32wlxx_hal_driver/Src/stm32wlxx_hal_dma.c ****   /* Get security attributes */
1187:hardware/mcu/st/stm32wlxx_hal_driver/Src/stm32wlxx_hal_dma.c ****   attributes |= ((read_attributes & DMA_CCR_SECM) == 0U) ? DMA_CHANNEL_NSEC : DMA_CHANNEL_SEC;
1188:hardware/mcu/st/stm32wlxx_hal_driver/Src/stm32wlxx_hal_dma.c **** #endif /* CORE_CM0PLUS */
1189:hardware/mcu/st/stm32wlxx_hal_driver/Src/stm32wlxx_hal_dma.c **** 
1190:hardware/mcu/st/stm32wlxx_hal_driver/Src/stm32wlxx_hal_dma.c ****   /* return value */
1191:hardware/mcu/st/stm32wlxx_hal_driver/Src/stm32wlxx_hal_dma.c ****   *ChannelAttributes = attributes;
1192:hardware/mcu/st/stm32wlxx_hal_driver/Src/stm32wlxx_hal_dma.c **** 
1193:hardware/mcu/st/stm32wlxx_hal_driver/Src/stm32wlxx_hal_dma.c ****   return HAL_OK;
1194:hardware/mcu/st/stm32wlxx_hal_driver/Src/stm32wlxx_hal_dma.c **** }
1195:hardware/mcu/st/stm32wlxx_hal_driver/Src/stm32wlxx_hal_dma.c **** #endif /* DMA_SECURE_SWITCH */
1196:hardware/mcu/st/stm32wlxx_hal_driver/Src/stm32wlxx_hal_dma.c **** /** @addtogroup DMA_Private_Functions
1197:hardware/mcu/st/stm32wlxx_hal_driver/Src/stm32wlxx_hal_dma.c ****   * @{
1198:hardware/mcu/st/stm32wlxx_hal_driver/Src/stm32wlxx_hal_dma.c ****   */
1199:hardware/mcu/st/stm32wlxx_hal_driver/Src/stm32wlxx_hal_dma.c **** 
1200:hardware/mcu/st/stm32wlxx_hal_driver/Src/stm32wlxx_hal_dma.c **** /**
1201:hardware/mcu/st/stm32wlxx_hal_driver/Src/stm32wlxx_hal_dma.c ****   * @brief Sets the DMA Transfer parameter.
1202:hardware/mcu/st/stm32wlxx_hal_driver/Src/stm32wlxx_hal_dma.c ****   * @param hdma Pointer to a DMA_HandleTypeDef structure that contains
1203:hardware/mcu/st/stm32wlxx_hal_driver/Src/stm32wlxx_hal_dma.c ****   *             the configuration information for the specified DMA Channel.
1204:hardware/mcu/st/stm32wlxx_hal_driver/Src/stm32wlxx_hal_dma.c ****   * @param SrcAddress The source memory Buffer address
1205:hardware/mcu/st/stm32wlxx_hal_driver/Src/stm32wlxx_hal_dma.c ****   * @param DstAddress The destination memory Buffer address
1206:hardware/mcu/st/stm32wlxx_hal_driver/Src/stm32wlxx_hal_dma.c ****   * @param DataLength The length of data to be transferred from source to destination
1207:hardware/mcu/st/stm32wlxx_hal_driver/Src/stm32wlxx_hal_dma.c ****   * @retval HAL status
1208:hardware/mcu/st/stm32wlxx_hal_driver/Src/stm32wlxx_hal_dma.c ****   */
1209:hardware/mcu/st/stm32wlxx_hal_driver/Src/stm32wlxx_hal_dma.c **** static void DMA_SetConfig(DMA_HandleTypeDef *hdma, uint32_t SrcAddress, uint32_t DstAddress, uint32
1210:hardware/mcu/st/stm32wlxx_hal_driver/Src/stm32wlxx_hal_dma.c **** {
  27              		.loc 1 1210 1 view -0
  28              		.cfi_startproc
  29              		@ args = 0, pretend = 0, frame = 0
  30              		@ frame_needed = 0, uses_anonymous_args = 0
1211:hardware/mcu/st/stm32wlxx_hal_driver/Src/stm32wlxx_hal_dma.c ****   /* Clear the DMAMUX synchro overrun flag */
1212:hardware/mcu/st/stm32wlxx_hal_driver/Src/stm32wlxx_hal_dma.c ****   hdma->DMAmuxChannelStatus->CFR = hdma->DMAmuxChannelStatusMask;
  31              		.loc 1 1212 3 view .LVU1
1210:hardware/mcu/st/stm32wlxx_hal_driver/Src/stm32wlxx_hal_dma.c ****   /* Clear the DMAMUX synchro overrun flag */
  32              		.loc 1 1210 1 is_stmt 0 view .LVU2
  33 0000 70B5     		push	{r4, r5, r6, lr}
  34              	.LCFI0:
  35              		.cfi_def_cfa_offset 16
  36              		.cfi_offset 4, -16
  37              		.cfi_offset 5, -12
  38              		.cfi_offset 6, -8
  39              		.cfi_offset 14, -4
  40              		.loc 1 1212 40 view .LVU3
  41 0002 D0E91345 		ldrd	r4, r5, [r0, #76]
  42              		.loc 1 1212 34 view .LVU4
ARM GAS  /var/folders/b4/k4jbz0ms4wg23jtq0w6p483m0000gn/T//cc3EDpXC.s 			page 23


  43 0006 6560     		str	r5, [r4, #4]
1213:hardware/mcu/st/stm32wlxx_hal_driver/Src/stm32wlxx_hal_dma.c **** 
1214:hardware/mcu/st/stm32wlxx_hal_driver/Src/stm32wlxx_hal_dma.c ****   if (hdma->DMAmuxRequestGen != 0U)
  44              		.loc 1 1214 3 is_stmt 1 view .LVU5
  45              		.loc 1 1214 6 is_stmt 0 view .LVU6
  46 0008 446D     		ldr	r4, [r0, #84]
  47 000a 14B1     		cbz	r4, .L2
1215:hardware/mcu/st/stm32wlxx_hal_driver/Src/stm32wlxx_hal_dma.c ****   {
1216:hardware/mcu/st/stm32wlxx_hal_driver/Src/stm32wlxx_hal_dma.c ****     /* Clear the DMAMUX request generator overrun flag */
1217:hardware/mcu/st/stm32wlxx_hal_driver/Src/stm32wlxx_hal_dma.c ****     hdma->DMAmuxRequestGenStatus->RGCFR = hdma->DMAmuxRequestGenStatusMask;
  48              		.loc 1 1217 5 is_stmt 1 view .LVU7
  49              		.loc 1 1217 47 is_stmt 0 view .LVU8
  50 000c D0E91645 		ldrd	r4, r5, [r0, #88]
  51              		.loc 1 1217 41 view .LVU9
  52 0010 6560     		str	r5, [r4, #4]
  53              	.L2:
1218:hardware/mcu/st/stm32wlxx_hal_driver/Src/stm32wlxx_hal_dma.c ****   }
1219:hardware/mcu/st/stm32wlxx_hal_driver/Src/stm32wlxx_hal_dma.c **** 
1220:hardware/mcu/st/stm32wlxx_hal_driver/Src/stm32wlxx_hal_dma.c ****   /* Clear all flags */
1221:hardware/mcu/st/stm32wlxx_hal_driver/Src/stm32wlxx_hal_dma.c ****   hdma->DmaBaseAddress->IFCR = (DMA_ISR_GIF1 << (hdma->ChannelIndex & 0x1CU));
  54              		.loc 1 1221 3 is_stmt 1 view .LVU10
  55              		.loc 1 1221 69 is_stmt 0 view .LVU11
  56 0012 D0E91054 		ldrd	r5, r4, [r0, #64]
  57 0016 04F01C06 		and	r6, r4, #28
  58              		.loc 1 1221 46 view .LVU12
  59 001a 0124     		movs	r4, #1
  60 001c B440     		lsls	r4, r4, r6
  61              		.loc 1 1221 30 view .LVU13
  62 001e 6C60     		str	r4, [r5, #4]
1222:hardware/mcu/st/stm32wlxx_hal_driver/Src/stm32wlxx_hal_dma.c **** 
1223:hardware/mcu/st/stm32wlxx_hal_driver/Src/stm32wlxx_hal_dma.c ****   /* Configure DMA Channel data length */
1224:hardware/mcu/st/stm32wlxx_hal_driver/Src/stm32wlxx_hal_dma.c ****   hdma->Instance->CNDTR = DataLength;
  63              		.loc 1 1224 3 is_stmt 1 view .LVU14
  64              		.loc 1 1224 7 is_stmt 0 view .LVU15
  65 0020 0468     		ldr	r4, [r0]
  66              		.loc 1 1224 25 view .LVU16
  67 0022 6360     		str	r3, [r4, #4]
1225:hardware/mcu/st/stm32wlxx_hal_driver/Src/stm32wlxx_hal_dma.c **** 
1226:hardware/mcu/st/stm32wlxx_hal_driver/Src/stm32wlxx_hal_dma.c ****   /* Memory to Peripheral */
1227:hardware/mcu/st/stm32wlxx_hal_driver/Src/stm32wlxx_hal_dma.c ****   if ((hdma->Init.Direction) == DMA_MEMORY_TO_PERIPH)
  68              		.loc 1 1227 3 is_stmt 1 view .LVU17
  69              		.loc 1 1227 6 is_stmt 0 view .LVU18
  70 0024 8368     		ldr	r3, [r0, #8]
  71              	.LVL1:
  72              		.loc 1 1227 6 view .LVU19
  73 0026 102B     		cmp	r3, #16
1228:hardware/mcu/st/stm32wlxx_hal_driver/Src/stm32wlxx_hal_dma.c ****   {
1229:hardware/mcu/st/stm32wlxx_hal_driver/Src/stm32wlxx_hal_dma.c ****     /* Configure DMA Channel destination address */
1230:hardware/mcu/st/stm32wlxx_hal_driver/Src/stm32wlxx_hal_dma.c ****     hdma->Instance->CPAR = DstAddress;
  74              		.loc 1 1230 5 is_stmt 1 view .LVU20
  75              		.loc 1 1230 26 is_stmt 0 view .LVU21
  76 0028 0BBF     		itete	eq
  77 002a A260     		streq	r2, [r4, #8]
1231:hardware/mcu/st/stm32wlxx_hal_driver/Src/stm32wlxx_hal_dma.c **** 
1232:hardware/mcu/st/stm32wlxx_hal_driver/Src/stm32wlxx_hal_dma.c ****     /* Configure DMA Channel source address */
1233:hardware/mcu/st/stm32wlxx_hal_driver/Src/stm32wlxx_hal_dma.c ****     hdma->Instance->CMAR = SrcAddress;
  78              		.loc 1 1233 5 is_stmt 1 view .LVU22
ARM GAS  /var/folders/b4/k4jbz0ms4wg23jtq0w6p483m0000gn/T//cc3EDpXC.s 			page 24


1234:hardware/mcu/st/stm32wlxx_hal_driver/Src/stm32wlxx_hal_dma.c ****   }
1235:hardware/mcu/st/stm32wlxx_hal_driver/Src/stm32wlxx_hal_dma.c ****   /* Peripheral to Memory */
1236:hardware/mcu/st/stm32wlxx_hal_driver/Src/stm32wlxx_hal_dma.c ****   else
1237:hardware/mcu/st/stm32wlxx_hal_driver/Src/stm32wlxx_hal_dma.c ****   {
1238:hardware/mcu/st/stm32wlxx_hal_driver/Src/stm32wlxx_hal_dma.c ****     /* Configure DMA Channel source address */
1239:hardware/mcu/st/stm32wlxx_hal_driver/Src/stm32wlxx_hal_dma.c ****     hdma->Instance->CPAR = SrcAddress;
  79              		.loc 1 1239 26 is_stmt 0 view .LVU23
  80 002c A160     		strne	r1, [r4, #8]
1233:hardware/mcu/st/stm32wlxx_hal_driver/Src/stm32wlxx_hal_dma.c ****   }
  81              		.loc 1 1233 26 view .LVU24
  82 002e E160     		streq	r1, [r4, #12]
  83              		.loc 1 1239 5 is_stmt 1 view .LVU25
1240:hardware/mcu/st/stm32wlxx_hal_driver/Src/stm32wlxx_hal_dma.c **** 
1241:hardware/mcu/st/stm32wlxx_hal_driver/Src/stm32wlxx_hal_dma.c ****     /* Configure DMA Channel destination address */
1242:hardware/mcu/st/stm32wlxx_hal_driver/Src/stm32wlxx_hal_dma.c ****     hdma->Instance->CMAR = DstAddress;
  84              		.loc 1 1242 5 view .LVU26
  85              		.loc 1 1242 26 is_stmt 0 view .LVU27
  86 0030 E260     		strne	r2, [r4, #12]
1243:hardware/mcu/st/stm32wlxx_hal_driver/Src/stm32wlxx_hal_dma.c ****   }
1244:hardware/mcu/st/stm32wlxx_hal_driver/Src/stm32wlxx_hal_dma.c **** }
  87              		.loc 1 1244 1 view .LVU28
  88 0032 70BD     		pop	{r4, r5, r6, pc}
  89              		.loc 1 1244 1 view .LVU29
  90              		.cfi_endproc
  91              	.LFE733:
  93              		.section	.text.DMA_CalcDMAMUXChannelBaseAndMask,"ax",%progbits
  94              		.align	1
  95              		.syntax unified
  96              		.thumb
  97              		.thumb_func
  99              	DMA_CalcDMAMUXChannelBaseAndMask:
 100              	.LVL2:
 101              	.LFB734:
1245:hardware/mcu/st/stm32wlxx_hal_driver/Src/stm32wlxx_hal_dma.c **** 
1246:hardware/mcu/st/stm32wlxx_hal_driver/Src/stm32wlxx_hal_dma.c **** /**
1247:hardware/mcu/st/stm32wlxx_hal_driver/Src/stm32wlxx_hal_dma.c ****   * @brief Updates the DMA handle with the DMAMUX  channel and status mask depending on channel num
1248:hardware/mcu/st/stm32wlxx_hal_driver/Src/stm32wlxx_hal_dma.c ****   * @param hdma Pointer to a DMA_HandleTypeDef structure that contains
1249:hardware/mcu/st/stm32wlxx_hal_driver/Src/stm32wlxx_hal_dma.c ****   *             the configuration information for the specified DMA Channel.
1250:hardware/mcu/st/stm32wlxx_hal_driver/Src/stm32wlxx_hal_dma.c ****   * @retval None
1251:hardware/mcu/st/stm32wlxx_hal_driver/Src/stm32wlxx_hal_dma.c ****   */
1252:hardware/mcu/st/stm32wlxx_hal_driver/Src/stm32wlxx_hal_dma.c **** static void DMA_CalcDMAMUXChannelBaseAndMask(DMA_HandleTypeDef *hdma)
1253:hardware/mcu/st/stm32wlxx_hal_driver/Src/stm32wlxx_hal_dma.c **** {
 102              		.loc 1 1253 1 is_stmt 1 view -0
 103              		.cfi_startproc
 104              		@ args = 0, pretend = 0, frame = 0
 105              		@ frame_needed = 0, uses_anonymous_args = 0
1254:hardware/mcu/st/stm32wlxx_hal_driver/Src/stm32wlxx_hal_dma.c ****   uint32_t channel_number;
 106              		.loc 1 1254 3 view .LVU31
1255:hardware/mcu/st/stm32wlxx_hal_driver/Src/stm32wlxx_hal_dma.c **** 
1256:hardware/mcu/st/stm32wlxx_hal_driver/Src/stm32wlxx_hal_dma.c ****   /* check if instance is not outside the DMA channel range */
1257:hardware/mcu/st/stm32wlxx_hal_driver/Src/stm32wlxx_hal_dma.c ****   if ((uint32_t)hdma->Instance < (uint32_t)DMA2_Channel1)
 107              		.loc 1 1257 3 view .LVU32
 108              		.loc 1 1257 7 is_stmt 0 view .LVU33
 109 0000 0268     		ldr	r2, [r0]
1258:hardware/mcu/st/stm32wlxx_hal_driver/Src/stm32wlxx_hal_dma.c ****   {
1259:hardware/mcu/st/stm32wlxx_hal_driver/Src/stm32wlxx_hal_dma.c ****     /* DMA1 */
1260:hardware/mcu/st/stm32wlxx_hal_driver/Src/stm32wlxx_hal_dma.c ****     /* Associate a DMA Channel to a DMAMUX channel */
ARM GAS  /var/folders/b4/k4jbz0ms4wg23jtq0w6p483m0000gn/T//cc3EDpXC.s 			page 25


1261:hardware/mcu/st/stm32wlxx_hal_driver/Src/stm32wlxx_hal_dma.c ****     hdma->DMAmuxChannel = (DMAMUX1_Channel0 + (hdma->ChannelIndex >> 2U));
 110              		.loc 1 1261 67 view .LVU34
 111 0002 416C     		ldr	r1, [r0, #68]
1262:hardware/mcu/st/stm32wlxx_hal_driver/Src/stm32wlxx_hal_dma.c **** 
1263:hardware/mcu/st/stm32wlxx_hal_driver/Src/stm32wlxx_hal_dma.c ****     /* Prepare channel_number used for DMAmuxChannelStatusMask computation */
1264:hardware/mcu/st/stm32wlxx_hal_driver/Src/stm32wlxx_hal_dma.c ****     channel_number = (((uint32_t)hdma->Instance & 0xFFU) - 8U) / 20U;
 112              		.loc 1 1264 49 view .LVU35
 113 0004 D3B2     		uxtb	r3, r2
1253:hardware/mcu/st/stm32wlxx_hal_driver/Src/stm32wlxx_hal_dma.c ****   uint32_t channel_number;
 114              		.loc 1 1253 1 view .LVU36
 115 0006 10B5     		push	{r4, lr}
 116              	.LCFI1:
 117              		.cfi_def_cfa_offset 8
 118              		.cfi_offset 4, -8
 119              		.cfi_offset 14, -4
 120              		.loc 1 1264 58 view .LVU37
 121 0008 083B     		subs	r3, r3, #8
 122              		.loc 1 1264 20 view .LVU38
 123 000a 1424     		movs	r4, #20
 124 000c B3FBF4F3 		udiv	r3, r3, r4
1257:hardware/mcu/st/stm32wlxx_hal_driver/Src/stm32wlxx_hal_dma.c ****   {
 125              		.loc 1 1257 6 view .LVU39
 126 0010 0B4C     		ldr	r4, .L11
 127 0012 A242     		cmp	r2, r4
1261:hardware/mcu/st/stm32wlxx_hal_driver/Src/stm32wlxx_hal_dma.c **** 
 128              		.loc 1 1261 5 is_stmt 1 view .LVU40
1265:hardware/mcu/st/stm32wlxx_hal_driver/Src/stm32wlxx_hal_dma.c ****   }
1266:hardware/mcu/st/stm32wlxx_hal_driver/Src/stm32wlxx_hal_dma.c ****   else
1267:hardware/mcu/st/stm32wlxx_hal_driver/Src/stm32wlxx_hal_dma.c ****   {
1268:hardware/mcu/st/stm32wlxx_hal_driver/Src/stm32wlxx_hal_dma.c ****     /* DMA2 */
1269:hardware/mcu/st/stm32wlxx_hal_driver/Src/stm32wlxx_hal_dma.c ****     /* Associate a DMA Channel to a DMAMUX channel */
1270:hardware/mcu/st/stm32wlxx_hal_driver/Src/stm32wlxx_hal_dma.c ****     hdma->DMAmuxChannel = (DMAMUX1_Channel7 + (hdma->ChannelIndex >> 2U));
 129              		.loc 1 1270 45 is_stmt 0 view .LVU41
 130 0014 88BF     		it	hi
 131 0016 0B4A     		ldrhi	r2, .L11+4
1261:hardware/mcu/st/stm32wlxx_hal_driver/Src/stm32wlxx_hal_dma.c **** 
 132              		.loc 1 1261 45 view .LVU42
 133 0018 21F00301 		bic	r1, r1, #3
 134 001c 99BF     		ittee	ls
 135 001e 01F18042 		addls	r2, r1, #1073741824
 136 0022 02F50232 		addls	r2, r2, #133120
1264:hardware/mcu/st/stm32wlxx_hal_driver/Src/stm32wlxx_hal_dma.c ****   }
 137              		.loc 1 1264 5 is_stmt 1 view .LVU43
 138              	.LVL3:
 139              		.loc 1 1270 5 view .LVU44
 140              		.loc 1 1270 45 is_stmt 0 view .LVU45
 141 0026 5218     		addhi	r2, r2, r1
1271:hardware/mcu/st/stm32wlxx_hal_driver/Src/stm32wlxx_hal_dma.c **** 
1272:hardware/mcu/st/stm32wlxx_hal_driver/Src/stm32wlxx_hal_dma.c ****     /* Prepare channel_number used for DMAmuxChannelStatusMask computation */
1273:hardware/mcu/st/stm32wlxx_hal_driver/Src/stm32wlxx_hal_dma.c ****     channel_number = (((((uint32_t)hdma->Instance & 0xFFU) - 8U) / 20U) + 7U);
 142              		.loc 1 1273 5 is_stmt 1 view .LVU46
 143              		.loc 1 1273 20 is_stmt 0 view .LVU47
 144 0028 0733     		addhi	r3, r3, #7
 145              	.LVL4:
 146              		.loc 1 1273 20 view .LVU48
 147 002a 8264     		str	r2, [r0, #72]
1274:hardware/mcu/st/stm32wlxx_hal_driver/Src/stm32wlxx_hal_dma.c ****   }
ARM GAS  /var/folders/b4/k4jbz0ms4wg23jtq0w6p483m0000gn/T//cc3EDpXC.s 			page 26


1275:hardware/mcu/st/stm32wlxx_hal_driver/Src/stm32wlxx_hal_dma.c **** 
1276:hardware/mcu/st/stm32wlxx_hal_driver/Src/stm32wlxx_hal_dma.c ****   /* Initialize the field DMAmuxChannelStatus to DMAMUX1_ChannelStatus base */
1277:hardware/mcu/st/stm32wlxx_hal_driver/Src/stm32wlxx_hal_dma.c ****   hdma->DMAmuxChannelStatus = DMAMUX1_ChannelStatus;
 148              		.loc 1 1277 3 is_stmt 1 view .LVU49
 149              		.loc 1 1277 29 is_stmt 0 view .LVU50
 150 002c 064A     		ldr	r2, .L11+8
 151 002e C264     		str	r2, [r0, #76]
1278:hardware/mcu/st/stm32wlxx_hal_driver/Src/stm32wlxx_hal_dma.c **** 
1279:hardware/mcu/st/stm32wlxx_hal_driver/Src/stm32wlxx_hal_dma.c ****   /* Initialize the field DMAmuxChannelStatusMask with the corresponding index of the DMAMUX channe
1280:hardware/mcu/st/stm32wlxx_hal_driver/Src/stm32wlxx_hal_dma.c ****   hdma->DMAmuxChannelStatusMask = 1UL << (channel_number & 0x1FU);
 152              		.loc 1 1280 3 is_stmt 1 view .LVU51
 153              		.loc 1 1280 58 is_stmt 0 view .LVU52
 154 0030 03F01F03 		and	r3, r3, #31
 155              	.LVL5:
 156              		.loc 1 1280 39 view .LVU53
 157 0034 0122     		movs	r2, #1
 158 0036 02FA03F3 		lsl	r3, r2, r3
 159              		.loc 1 1280 33 view .LVU54
 160 003a 0365     		str	r3, [r0, #80]
1281:hardware/mcu/st/stm32wlxx_hal_driver/Src/stm32wlxx_hal_dma.c **** }
 161              		.loc 1 1281 1 view .LVU55
 162 003c 10BD     		pop	{r4, pc}
 163              	.L12:
 164 003e 00BF     		.align	2
 165              	.L11:
 166 0040 07040240 		.word	1073873927
 167 0044 1C080240 		.word	1073874972
 168 0048 80080240 		.word	1073875072
 169              		.cfi_endproc
 170              	.LFE734:
 172              		.section	.text.HAL_DMA_Init,"ax",%progbits
 173              		.align	1
 174              		.global	HAL_DMA_Init
 175              		.syntax unified
 176              		.thumb
 177              		.thumb_func
 179              	HAL_DMA_Init:
 180              	.LVL6:
 181              	.LFB721:
 153:hardware/mcu/st/stm32wlxx_hal_driver/Src/stm32wlxx_hal_dma.c ****   /* Check the DMA handle allocation */
 182              		.loc 1 153 1 is_stmt 1 view -0
 183              		.cfi_startproc
 184              		@ args = 0, pretend = 0, frame = 0
 185              		@ frame_needed = 0, uses_anonymous_args = 0
 155:hardware/mcu/st/stm32wlxx_hal_driver/Src/stm32wlxx_hal_dma.c ****   {
 186              		.loc 1 155 3 view .LVU57
 153:hardware/mcu/st/stm32wlxx_hal_driver/Src/stm32wlxx_hal_dma.c ****   /* Check the DMA handle allocation */
 187              		.loc 1 153 1 is_stmt 0 view .LVU58
 188 0000 10B5     		push	{r4, lr}
 189              	.LCFI2:
 190              		.cfi_def_cfa_offset 8
 191              		.cfi_offset 4, -8
 192              		.cfi_offset 14, -4
 155:hardware/mcu/st/stm32wlxx_hal_driver/Src/stm32wlxx_hal_dma.c ****   {
 193              		.loc 1 155 6 view .LVU59
 194 0002 0028     		cmp	r0, #0
 195 0004 61D0     		beq	.L20
ARM GAS  /var/folders/b4/k4jbz0ms4wg23jtq0w6p483m0000gn/T//cc3EDpXC.s 			page 27


 161:hardware/mcu/st/stm32wlxx_hal_driver/Src/stm32wlxx_hal_dma.c ****   assert_param(IS_DMA_DIRECTION(hdma->Init.Direction));
 196              		.loc 1 161 3 is_stmt 1 view .LVU60
 162:hardware/mcu/st/stm32wlxx_hal_driver/Src/stm32wlxx_hal_dma.c ****   assert_param(IS_DMA_PERIPHERAL_INC_STATE(hdma->Init.PeriphInc));
 197              		.loc 1 162 3 view .LVU61
 163:hardware/mcu/st/stm32wlxx_hal_driver/Src/stm32wlxx_hal_dma.c ****   assert_param(IS_DMA_MEMORY_INC_STATE(hdma->Init.MemInc));
 198              		.loc 1 163 3 view .LVU62
 164:hardware/mcu/st/stm32wlxx_hal_driver/Src/stm32wlxx_hal_dma.c ****   assert_param(IS_DMA_PERIPHERAL_DATA_SIZE(hdma->Init.PeriphDataAlignment));
 199              		.loc 1 164 3 view .LVU63
 165:hardware/mcu/st/stm32wlxx_hal_driver/Src/stm32wlxx_hal_dma.c ****   assert_param(IS_DMA_MEMORY_DATA_SIZE(hdma->Init.MemDataAlignment));
 200              		.loc 1 165 3 view .LVU64
 166:hardware/mcu/st/stm32wlxx_hal_driver/Src/stm32wlxx_hal_dma.c ****   assert_param(IS_DMA_MODE(hdma->Init.Mode));
 201              		.loc 1 166 3 view .LVU65
 167:hardware/mcu/st/stm32wlxx_hal_driver/Src/stm32wlxx_hal_dma.c ****   assert_param(IS_DMA_PRIORITY(hdma->Init.Priority));
 202              		.loc 1 167 3 view .LVU66
 168:hardware/mcu/st/stm32wlxx_hal_driver/Src/stm32wlxx_hal_dma.c **** 
 203              		.loc 1 168 3 view .LVU67
 170:hardware/mcu/st/stm32wlxx_hal_driver/Src/stm32wlxx_hal_dma.c **** 
 204              		.loc 1 170 3 view .LVU68
 173:hardware/mcu/st/stm32wlxx_hal_driver/Src/stm32wlxx_hal_dma.c ****   {
 205              		.loc 1 173 3 view .LVU69
 173:hardware/mcu/st/stm32wlxx_hal_driver/Src/stm32wlxx_hal_dma.c ****   {
 206              		.loc 1 173 22 is_stmt 0 view .LVU70
 207 0006 0268     		ldr	r2, [r0]
 173:hardware/mcu/st/stm32wlxx_hal_driver/Src/stm32wlxx_hal_dma.c ****   {
 208              		.loc 1 173 6 view .LVU71
 209 0008 314B     		ldr	r3, .L22
 210 000a 9A42     		cmp	r2, r3
 211 000c 4FF01404 		mov	r4, #20
 212 0010 4ED8     		bhi	.L15
 176:hardware/mcu/st/stm32wlxx_hal_driver/Src/stm32wlxx_hal_dma.c ****     hdma->DmaBaseAddress = DMA1;
 213              		.loc 1 176 5 is_stmt 1 view .LVU72
 176:hardware/mcu/st/stm32wlxx_hal_driver/Src/stm32wlxx_hal_dma.c ****     hdma->DmaBaseAddress = DMA1;
 214              		.loc 1 176 53 is_stmt 0 view .LVU73
 215 0012 3049     		ldr	r1, .L22+4
 216 0014 1144     		add	r1, r1, r2
 176:hardware/mcu/st/stm32wlxx_hal_driver/Src/stm32wlxx_hal_dma.c ****     hdma->DmaBaseAddress = DMA1;
 217              		.loc 1 176 80 view .LVU74
 218 0016 B1FBF4F1 		udiv	r1, r1, r4
 176:hardware/mcu/st/stm32wlxx_hal_driver/Src/stm32wlxx_hal_dma.c ****     hdma->DmaBaseAddress = DMA1;
 219              		.loc 1 176 135 view .LVU75
 220 001a 8900     		lsls	r1, r1, #2
 176:hardware/mcu/st/stm32wlxx_hal_driver/Src/stm32wlxx_hal_dma.c ****     hdma->DmaBaseAddress = DMA1;
 221              		.loc 1 176 24 view .LVU76
 222 001c 4164     		str	r1, [r0, #68]
 177:hardware/mcu/st/stm32wlxx_hal_driver/Src/stm32wlxx_hal_dma.c ****   }
 223              		.loc 1 177 5 is_stmt 1 view .LVU77
 177:hardware/mcu/st/stm32wlxx_hal_driver/Src/stm32wlxx_hal_dma.c ****   }
 224              		.loc 1 177 26 is_stmt 0 view .LVU78
 225 001e A3F20743 		subw	r3, r3, #1031
 226              	.L21:
 183:hardware/mcu/st/stm32wlxx_hal_driver/Src/stm32wlxx_hal_dma.c ****   }
 227              		.loc 1 183 26 view .LVU79
 228 0022 0364     		str	r3, [r0, #64]
 187:hardware/mcu/st/stm32wlxx_hal_driver/Src/stm32wlxx_hal_dma.c **** 
 229              		.loc 1 187 3 is_stmt 1 view .LVU80
 187:hardware/mcu/st/stm32wlxx_hal_driver/Src/stm32wlxx_hal_dma.c **** 
 230              		.loc 1 187 15 is_stmt 0 view .LVU81
ARM GAS  /var/folders/b4/k4jbz0ms4wg23jtq0w6p483m0000gn/T//cc3EDpXC.s 			page 28


 231 0024 0223     		movs	r3, #2
 232 0026 80F82530 		strb	r3, [r0, #37]
 190:hardware/mcu/st/stm32wlxx_hal_driver/Src/stm32wlxx_hal_dma.c ****                                   DMA_CCR_MINC  | DMA_CCR_PINC   | DMA_CCR_CIRC   | \
 233              		.loc 1 190 3 is_stmt 1 view .LVU82
 234 002a 1368     		ldr	r3, [r2]
 235 002c 23F4FF43 		bic	r3, r3, #32640
 236 0030 23F07003 		bic	r3, r3, #112
 237 0034 1360     		str	r3, [r2]
 195:hardware/mcu/st/stm32wlxx_hal_driver/Src/stm32wlxx_hal_dma.c ****                                 hdma->Init.PeriphInc           | hdma->Init.MemInc           | \
 238              		.loc 1 195 3 view .LVU83
 239 0036 D0E90234 		ldrd	r3, r4, [r0, #8]
 240 003a 2343     		orrs	r3, r3, r4
 241 003c 0469     		ldr	r4, [r0, #16]
 242 003e 1168     		ldr	r1, [r2]
 243 0040 2343     		orrs	r3, r3, r4
 244 0042 4469     		ldr	r4, [r0, #20]
 245 0044 2343     		orrs	r3, r3, r4
 246 0046 8469     		ldr	r4, [r0, #24]
 247 0048 2343     		orrs	r3, r3, r4
 248 004a C469     		ldr	r4, [r0, #28]
 249 004c 2343     		orrs	r3, r3, r4
 250 004e 046A     		ldr	r4, [r0, #32]
 251 0050 2343     		orrs	r3, r3, r4
 252 0052 0B43     		orrs	r3, r3, r1
 253 0054 1360     		str	r3, [r2]
 203:hardware/mcu/st/stm32wlxx_hal_driver/Src/stm32wlxx_hal_dma.c **** 
 254              		.loc 1 203 3 view .LVU84
 255 0056 FFF7FEFF 		bl	DMA_CalcDMAMUXChannelBaseAndMask
 256              	.LVL7:
 205:hardware/mcu/st/stm32wlxx_hal_driver/Src/stm32wlxx_hal_dma.c ****   {
 257              		.loc 1 205 3 view .LVU85
 205:hardware/mcu/st/stm32wlxx_hal_driver/Src/stm32wlxx_hal_dma.c ****   {
 258              		.loc 1 205 6 is_stmt 0 view .LVU86
 259 005a 8368     		ldr	r3, [r0, #8]
 212:hardware/mcu/st/stm32wlxx_hal_driver/Src/stm32wlxx_hal_dma.c **** 
 260              		.loc 1 212 7 view .LVU87
 261 005c 816C     		ldr	r1, [r0, #72]
 205:hardware/mcu/st/stm32wlxx_hal_driver/Src/stm32wlxx_hal_dma.c ****   {
 262              		.loc 1 205 6 view .LVU88
 263 005e B3F5804F 		cmp	r3, #16384
 208:hardware/mcu/st/stm32wlxx_hal_driver/Src/stm32wlxx_hal_dma.c ****   }
 264              		.loc 1 208 5 is_stmt 1 view .LVU89
 208:hardware/mcu/st/stm32wlxx_hal_driver/Src/stm32wlxx_hal_dma.c ****   }
 265              		.loc 1 208 24 is_stmt 0 view .LVU90
 266 0062 04BF     		itt	eq
 267 0064 0023     		moveq	r3, #0
 268 0066 4360     		streq	r3, [r0, #4]
 212:hardware/mcu/st/stm32wlxx_hal_driver/Src/stm32wlxx_hal_dma.c **** 
 269              		.loc 1 212 3 is_stmt 1 view .LVU91
 212:hardware/mcu/st/stm32wlxx_hal_driver/Src/stm32wlxx_hal_dma.c **** 
 270              		.loc 1 212 41 is_stmt 0 view .LVU92
 271 0068 4268     		ldr	r2, [r0, #4]
 212:hardware/mcu/st/stm32wlxx_hal_driver/Src/stm32wlxx_hal_dma.c **** 
 272              		.loc 1 212 50 view .LVU93
 273 006a 02F07F03 		and	r3, r2, #127
 212:hardware/mcu/st/stm32wlxx_hal_driver/Src/stm32wlxx_hal_dma.c **** 
 274              		.loc 1 212 28 view .LVU94
ARM GAS  /var/folders/b4/k4jbz0ms4wg23jtq0w6p483m0000gn/T//cc3EDpXC.s 			page 29


 275 006e 0B60     		str	r3, [r1]
 215:hardware/mcu/st/stm32wlxx_hal_driver/Src/stm32wlxx_hal_dma.c **** 
 276              		.loc 1 215 3 is_stmt 1 view .LVU95
 215:hardware/mcu/st/stm32wlxx_hal_driver/Src/stm32wlxx_hal_dma.c **** 
 277              		.loc 1 215 40 is_stmt 0 view .LVU96
 278 0070 D0E91314 		ldrd	r1, r4, [r0, #76]
 217:hardware/mcu/st/stm32wlxx_hal_driver/Src/stm32wlxx_hal_dma.c ****   {
 279              		.loc 1 217 36 view .LVU97
 280 0074 013A     		subs	r2, r2, #1
 217:hardware/mcu/st/stm32wlxx_hal_driver/Src/stm32wlxx_hal_dma.c ****   {
 281              		.loc 1 217 6 view .LVU98
 282 0076 032A     		cmp	r2, #3
 215:hardware/mcu/st/stm32wlxx_hal_driver/Src/stm32wlxx_hal_dma.c **** 
 283              		.loc 1 215 34 view .LVU99
 284 0078 4C60     		str	r4, [r1, #4]
 217:hardware/mcu/st/stm32wlxx_hal_driver/Src/stm32wlxx_hal_dma.c ****   {
 285              		.loc 1 217 3 is_stmt 1 view .LVU100
 217:hardware/mcu/st/stm32wlxx_hal_driver/Src/stm32wlxx_hal_dma.c ****   {
 286              		.loc 1 217 6 is_stmt 0 view .LVU101
 287 007a 21D8     		bhi	.L18
 222:hardware/mcu/st/stm32wlxx_hal_driver/Src/stm32wlxx_hal_dma.c **** 
 288              		.loc 1 222 5 is_stmt 1 view .LVU102
 289              	.LVL8:
 290              	.LBB4:
 291              	.LBI4:
1282:hardware/mcu/st/stm32wlxx_hal_driver/Src/stm32wlxx_hal_dma.c **** 
1283:hardware/mcu/st/stm32wlxx_hal_driver/Src/stm32wlxx_hal_dma.c **** /**
1284:hardware/mcu/st/stm32wlxx_hal_driver/Src/stm32wlxx_hal_dma.c ****   * @brief Updates the DMA handle with the DMAMUX  request generator params
1285:hardware/mcu/st/stm32wlxx_hal_driver/Src/stm32wlxx_hal_dma.c ****   * @param hdma Pointer to a DMA_HandleTypeDef structure that contains
1286:hardware/mcu/st/stm32wlxx_hal_driver/Src/stm32wlxx_hal_dma.c ****   *             the configuration information for the specified DMA Channel.
1287:hardware/mcu/st/stm32wlxx_hal_driver/Src/stm32wlxx_hal_dma.c ****   * @retval None
1288:hardware/mcu/st/stm32wlxx_hal_driver/Src/stm32wlxx_hal_dma.c ****   */
1289:hardware/mcu/st/stm32wlxx_hal_driver/Src/stm32wlxx_hal_dma.c **** 
1290:hardware/mcu/st/stm32wlxx_hal_driver/Src/stm32wlxx_hal_dma.c **** static void DMA_CalcDMAMUXRequestGenBaseAndMask(DMA_HandleTypeDef *hdma)
 292              		.loc 1 1290 13 view .LVU103
 293              	.LBB5:
1291:hardware/mcu/st/stm32wlxx_hal_driver/Src/stm32wlxx_hal_dma.c **** {
1292:hardware/mcu/st/stm32wlxx_hal_driver/Src/stm32wlxx_hal_dma.c ****   uint32_t request =  hdma->Init.Request & DMAMUX_CxCR_DMAREQ_ID;
 294              		.loc 1 1292 3 view .LVU104
1293:hardware/mcu/st/stm32wlxx_hal_driver/Src/stm32wlxx_hal_dma.c **** 
1294:hardware/mcu/st/stm32wlxx_hal_driver/Src/stm32wlxx_hal_dma.c ****   /* DMA Channels are connected to DMAMUX1 request generator blocks*/
1295:hardware/mcu/st/stm32wlxx_hal_driver/Src/stm32wlxx_hal_dma.c ****   hdma->DMAmuxRequestGen = (DMAMUX_RequestGen_TypeDef *)((uint32_t)(((uint32_t)DMAMUX1_RequestGener
 295              		.loc 1 1295 3 view .LVU105
 296              		.loc 1 1295 58 is_stmt 0 view .LVU106
 297 007c 164A     		ldr	r2, .L22+8
1296:hardware/mcu/st/stm32wlxx_hal_driver/Src/stm32wlxx_hal_dma.c **** 
1297:hardware/mcu/st/stm32wlxx_hal_driver/Src/stm32wlxx_hal_dma.c ****   hdma->DMAmuxRequestGenStatus = DMAMUX1_RequestGenStatus;
 298              		.loc 1 1297 32 view .LVU107
 299 007e 1749     		ldr	r1, .L22+12
 300 0080 8165     		str	r1, [r0, #88]
1295:hardware/mcu/st/stm32wlxx_hal_driver/Src/stm32wlxx_hal_dma.c **** 
 301              		.loc 1 1295 58 view .LVU108
 302 0082 1A44     		add	r2, r2, r3
1298:hardware/mcu/st/stm32wlxx_hal_driver/Src/stm32wlxx_hal_dma.c **** 
1299:hardware/mcu/st/stm32wlxx_hal_driver/Src/stm32wlxx_hal_dma.c ****   /* here "Request" is either DMA_REQUEST_GENERATOR0 to DMA_REQUEST_GENERATOR3, i.e. <= 4*/
1300:hardware/mcu/st/stm32wlxx_hal_driver/Src/stm32wlxx_hal_dma.c ****   hdma->DMAmuxRequestGenStatusMask = 1UL << ((request - 1U) & 0x3U);
 303              		.loc 1 1300 55 view .LVU109
ARM GAS  /var/folders/b4/k4jbz0ms4wg23jtq0w6p483m0000gn/T//cc3EDpXC.s 			page 30


 304 0084 013B     		subs	r3, r3, #1
 305              	.LVL9:
1295:hardware/mcu/st/stm32wlxx_hal_driver/Src/stm32wlxx_hal_dma.c **** 
 306              		.loc 1 1295 58 view .LVU110
 307 0086 9200     		lsls	r2, r2, #2
 308              		.loc 1 1300 42 view .LVU111
 309 0088 0121     		movs	r1, #1
 310              		.loc 1 1300 61 view .LVU112
 311 008a 03F00303 		and	r3, r3, #3
 312              	.LVL10:
 313              		.loc 1 1300 42 view .LVU113
 314 008e 01FA03F3 		lsl	r3, r1, r3
 315              	.LBE5:
 316              	.LBE4:
 225:hardware/mcu/st/stm32wlxx_hal_driver/Src/stm32wlxx_hal_dma.c **** 
 317              		.loc 1 225 34 view .LVU114
 318 0092 0021     		movs	r1, #0
 319              	.LBB7:
 320              	.LBB6:
1295:hardware/mcu/st/stm32wlxx_hal_driver/Src/stm32wlxx_hal_dma.c **** 
 321              		.loc 1 1295 26 view .LVU115
 322 0094 4265     		str	r2, [r0, #84]
1297:hardware/mcu/st/stm32wlxx_hal_driver/Src/stm32wlxx_hal_dma.c **** 
 323              		.loc 1 1297 3 is_stmt 1 view .LVU116
 324              		.loc 1 1300 3 view .LVU117
 325              		.loc 1 1300 36 is_stmt 0 view .LVU118
 326 0096 C365     		str	r3, [r0, #92]
 327              	.LVL11:
 328              		.loc 1 1300 36 view .LVU119
 329              	.LBE6:
 330              	.LBE7:
 225:hardware/mcu/st/stm32wlxx_hal_driver/Src/stm32wlxx_hal_dma.c **** 
 331              		.loc 1 225 5 is_stmt 1 view .LVU120
 225:hardware/mcu/st/stm32wlxx_hal_driver/Src/stm32wlxx_hal_dma.c **** 
 332              		.loc 1 225 34 is_stmt 0 view .LVU121
 333 0098 1160     		str	r1, [r2]
 228:hardware/mcu/st/stm32wlxx_hal_driver/Src/stm32wlxx_hal_dma.c ****   }
 334              		.loc 1 228 5 is_stmt 1 view .LVU122
 228:hardware/mcu/st/stm32wlxx_hal_driver/Src/stm32wlxx_hal_dma.c ****   }
 335              		.loc 1 228 41 is_stmt 0 view .LVU123
 336 009a 114A     		ldr	r2, .L22+16
 337 009c 5364     		str	r3, [r2, #68]
 338              	.L19:
 238:hardware/mcu/st/stm32wlxx_hal_driver/Src/stm32wlxx_hal_dma.c **** 
 339              		.loc 1 238 3 is_stmt 1 view .LVU124
 238:hardware/mcu/st/stm32wlxx_hal_driver/Src/stm32wlxx_hal_dma.c **** 
 340              		.loc 1 238 19 is_stmt 0 view .LVU125
 341 009e 0023     		movs	r3, #0
 241:hardware/mcu/st/stm32wlxx_hal_driver/Src/stm32wlxx_hal_dma.c **** 
 342              		.loc 1 241 15 view .LVU126
 343 00a0 0122     		movs	r2, #1
 238:hardware/mcu/st/stm32wlxx_hal_driver/Src/stm32wlxx_hal_dma.c **** 
 344              		.loc 1 238 19 view .LVU127
 345 00a2 C363     		str	r3, [r0, #60]
 241:hardware/mcu/st/stm32wlxx_hal_driver/Src/stm32wlxx_hal_dma.c **** 
 346              		.loc 1 241 3 is_stmt 1 view .LVU128
 244:hardware/mcu/st/stm32wlxx_hal_driver/Src/stm32wlxx_hal_dma.c **** 
ARM GAS  /var/folders/b4/k4jbz0ms4wg23jtq0w6p483m0000gn/T//cc3EDpXC.s 			page 31


 347              		.loc 1 244 3 is_stmt 0 view .LVU129
 348 00a4 80F82430 		strb	r3, [r0, #36]
 241:hardware/mcu/st/stm32wlxx_hal_driver/Src/stm32wlxx_hal_dma.c **** 
 349              		.loc 1 241 15 view .LVU130
 350 00a8 80F82520 		strb	r2, [r0, #37]
 244:hardware/mcu/st/stm32wlxx_hal_driver/Src/stm32wlxx_hal_dma.c **** 
 351              		.loc 1 244 3 is_stmt 1 view .LVU131
 244:hardware/mcu/st/stm32wlxx_hal_driver/Src/stm32wlxx_hal_dma.c **** 
 352              		.loc 1 244 3 view .LVU132
 244:hardware/mcu/st/stm32wlxx_hal_driver/Src/stm32wlxx_hal_dma.c **** 
 353              		.loc 1 244 3 view .LVU133
 246:hardware/mcu/st/stm32wlxx_hal_driver/Src/stm32wlxx_hal_dma.c **** }
 354              		.loc 1 246 3 view .LVU134
 246:hardware/mcu/st/stm32wlxx_hal_driver/Src/stm32wlxx_hal_dma.c **** }
 355              		.loc 1 246 10 is_stmt 0 view .LVU135
 356 00ac 1846     		mov	r0, r3
 357              	.LVL12:
 358              	.L14:
 247:hardware/mcu/st/stm32wlxx_hal_driver/Src/stm32wlxx_hal_dma.c **** 
 359              		.loc 1 247 1 view .LVU136
 360 00ae 10BD     		pop	{r4, pc}
 361              	.LVL13:
 362              	.L15:
 182:hardware/mcu/st/stm32wlxx_hal_driver/Src/stm32wlxx_hal_dma.c ****     hdma->DmaBaseAddress = DMA2;
 363              		.loc 1 182 5 is_stmt 1 view .LVU137
 182:hardware/mcu/st/stm32wlxx_hal_driver/Src/stm32wlxx_hal_dma.c ****     hdma->DmaBaseAddress = DMA2;
 364              		.loc 1 182 53 is_stmt 0 view .LVU138
 365 00b0 0C4B     		ldr	r3, .L22+20
 366 00b2 1344     		add	r3, r3, r2
 182:hardware/mcu/st/stm32wlxx_hal_driver/Src/stm32wlxx_hal_dma.c ****     hdma->DmaBaseAddress = DMA2;
 367              		.loc 1 182 80 view .LVU139
 368 00b4 B3FBF4F3 		udiv	r3, r3, r4
 182:hardware/mcu/st/stm32wlxx_hal_driver/Src/stm32wlxx_hal_dma.c ****     hdma->DmaBaseAddress = DMA2;
 369              		.loc 1 182 135 view .LVU140
 370 00b8 9B00     		lsls	r3, r3, #2
 182:hardware/mcu/st/stm32wlxx_hal_driver/Src/stm32wlxx_hal_dma.c ****     hdma->DmaBaseAddress = DMA2;
 371              		.loc 1 182 24 view .LVU141
 372 00ba 4364     		str	r3, [r0, #68]
 183:hardware/mcu/st/stm32wlxx_hal_driver/Src/stm32wlxx_hal_dma.c ****   }
 373              		.loc 1 183 5 is_stmt 1 view .LVU142
 183:hardware/mcu/st/stm32wlxx_hal_driver/Src/stm32wlxx_hal_dma.c ****   }
 374              		.loc 1 183 26 is_stmt 0 view .LVU143
 375 00bc 0A4B     		ldr	r3, .L22+24
 376 00be B0E7     		b	.L21
 377              	.L18:
 232:hardware/mcu/st/stm32wlxx_hal_driver/Src/stm32wlxx_hal_dma.c ****     hdma->DMAmuxRequestGenStatus = 0U;
 378              		.loc 1 232 5 is_stmt 1 view .LVU144
 232:hardware/mcu/st/stm32wlxx_hal_driver/Src/stm32wlxx_hal_dma.c ****     hdma->DMAmuxRequestGenStatus = 0U;
 379              		.loc 1 232 28 is_stmt 0 view .LVU145
 380 00c0 0023     		movs	r3, #0
 233:hardware/mcu/st/stm32wlxx_hal_driver/Src/stm32wlxx_hal_dma.c ****     hdma->DMAmuxRequestGenStatusMask = 0U;
 381              		.loc 1 233 34 view .LVU146
 382 00c2 C0E91533 		strd	r3, r3, [r0, #84]
 234:hardware/mcu/st/stm32wlxx_hal_driver/Src/stm32wlxx_hal_dma.c ****   }
 383              		.loc 1 234 5 is_stmt 1 view .LVU147
 234:hardware/mcu/st/stm32wlxx_hal_driver/Src/stm32wlxx_hal_dma.c ****   }
 384              		.loc 1 234 38 is_stmt 0 view .LVU148
ARM GAS  /var/folders/b4/k4jbz0ms4wg23jtq0w6p483m0000gn/T//cc3EDpXC.s 			page 32


 385 00c6 C365     		str	r3, [r0, #92]
 386 00c8 E9E7     		b	.L19
 387              	.L20:
 157:hardware/mcu/st/stm32wlxx_hal_driver/Src/stm32wlxx_hal_dma.c ****   }
 388              		.loc 1 157 12 view .LVU149
 389 00ca 0120     		movs	r0, #1
 390              	.LVL14:
 157:hardware/mcu/st/stm32wlxx_hal_driver/Src/stm32wlxx_hal_dma.c ****   }
 391              		.loc 1 157 12 view .LVU150
 392 00cc EFE7     		b	.L14
 393              	.L23:
 394 00ce 00BF     		.align	2
 395              	.L22:
 396 00d0 07040240 		.word	1073873927
 397 00d4 F8FFFDBF 		.word	-1073872904
 398 00d8 3F820010 		.word	268468799
 399 00dc 40090240 		.word	1073875264
 400 00e0 00090240 		.word	1073875200
 401 00e4 F8FBFDBF 		.word	-1073873928
 402 00e8 00040240 		.word	1073873920
 403              		.cfi_endproc
 404              	.LFE721:
 406              		.section	.text.HAL_DMA_DeInit,"ax",%progbits
 407              		.align	1
 408              		.global	HAL_DMA_DeInit
 409              		.syntax unified
 410              		.thumb
 411              		.thumb_func
 413              	HAL_DMA_DeInit:
 414              	.LVL15:
 415              	.LFB722:
 256:hardware/mcu/st/stm32wlxx_hal_driver/Src/stm32wlxx_hal_dma.c ****   /* Check the DMA handle allocation */
 416              		.loc 1 256 1 is_stmt 1 view -0
 417              		.cfi_startproc
 418              		@ args = 0, pretend = 0, frame = 0
 419              		@ frame_needed = 0, uses_anonymous_args = 0
 258:hardware/mcu/st/stm32wlxx_hal_driver/Src/stm32wlxx_hal_dma.c ****   {
 420              		.loc 1 258 3 view .LVU152
 256:hardware/mcu/st/stm32wlxx_hal_driver/Src/stm32wlxx_hal_dma.c ****   /* Check the DMA handle allocation */
 421              		.loc 1 256 1 is_stmt 0 view .LVU153
 422 0000 38B5     		push	{r3, r4, r5, lr}
 423              	.LCFI3:
 424              		.cfi_def_cfa_offset 16
 425              		.cfi_offset 3, -16
 426              		.cfi_offset 4, -12
 427              		.cfi_offset 5, -8
 428              		.cfi_offset 14, -4
 258:hardware/mcu/st/stm32wlxx_hal_driver/Src/stm32wlxx_hal_dma.c ****   {
 429              		.loc 1 258 6 view .LVU154
 430 0002 0028     		cmp	r0, #0
 431 0004 45D0     		beq	.L29
 264:hardware/mcu/st/stm32wlxx_hal_driver/Src/stm32wlxx_hal_dma.c **** 
 432              		.loc 1 264 3 is_stmt 1 view .LVU155
 267:hardware/mcu/st/stm32wlxx_hal_driver/Src/stm32wlxx_hal_dma.c **** 
 433              		.loc 1 267 3 view .LVU156
 434 0006 0168     		ldr	r1, [r0]
 435 0008 0B68     		ldr	r3, [r1]
ARM GAS  /var/folders/b4/k4jbz0ms4wg23jtq0w6p483m0000gn/T//cc3EDpXC.s 			page 33


 436 000a 23F00103 		bic	r3, r3, #1
 437 000e 0B60     		str	r3, [r1]
 270:hardware/mcu/st/stm32wlxx_hal_driver/Src/stm32wlxx_hal_dma.c ****   {
 438              		.loc 1 270 3 view .LVU157
 270:hardware/mcu/st/stm32wlxx_hal_driver/Src/stm32wlxx_hal_dma.c ****   {
 439              		.loc 1 270 6 is_stmt 0 view .LVU158
 440 0010 214B     		ldr	r3, .L31
 441 0012 9942     		cmp	r1, r3
 442 0014 4FF01404 		mov	r4, #20
 443 0018 33D8     		bhi	.L26
 273:hardware/mcu/st/stm32wlxx_hal_driver/Src/stm32wlxx_hal_dma.c ****     hdma->DmaBaseAddress = DMA1;
 444              		.loc 1 273 5 is_stmt 1 view .LVU159
 273:hardware/mcu/st/stm32wlxx_hal_driver/Src/stm32wlxx_hal_dma.c ****     hdma->DmaBaseAddress = DMA1;
 445              		.loc 1 273 53 is_stmt 0 view .LVU160
 446 001a 204A     		ldr	r2, .L31+4
 447 001c 0A44     		add	r2, r2, r1
 273:hardware/mcu/st/stm32wlxx_hal_driver/Src/stm32wlxx_hal_dma.c ****     hdma->DmaBaseAddress = DMA1;
 448              		.loc 1 273 80 view .LVU161
 449 001e B2FBF4F2 		udiv	r2, r2, r4
 273:hardware/mcu/st/stm32wlxx_hal_driver/Src/stm32wlxx_hal_dma.c ****     hdma->DmaBaseAddress = DMA1;
 450              		.loc 1 273 135 view .LVU162
 451 0022 9200     		lsls	r2, r2, #2
 273:hardware/mcu/st/stm32wlxx_hal_driver/Src/stm32wlxx_hal_dma.c ****     hdma->DmaBaseAddress = DMA1;
 452              		.loc 1 273 24 view .LVU163
 453 0024 4264     		str	r2, [r0, #68]
 274:hardware/mcu/st/stm32wlxx_hal_driver/Src/stm32wlxx_hal_dma.c ****   }
 454              		.loc 1 274 5 is_stmt 1 view .LVU164
 274:hardware/mcu/st/stm32wlxx_hal_driver/Src/stm32wlxx_hal_dma.c ****   }
 455              		.loc 1 274 26 is_stmt 0 view .LVU165
 456 0026 A3F20743 		subw	r3, r3, #1031
 457              	.L30:
 280:hardware/mcu/st/stm32wlxx_hal_driver/Src/stm32wlxx_hal_dma.c ****   }
 458              		.loc 1 280 26 view .LVU166
 459 002a 0364     		str	r3, [r0, #64]
 284:hardware/mcu/st/stm32wlxx_hal_driver/Src/stm32wlxx_hal_dma.c **** 
 460              		.loc 1 284 3 is_stmt 1 view .LVU167
 287:hardware/mcu/st/stm32wlxx_hal_driver/Src/stm32wlxx_hal_dma.c **** 
 461              		.loc 1 287 69 is_stmt 0 view .LVU168
 462 002c D0E91023 		ldrd	r2, r3, [r0, #64]
 287:hardware/mcu/st/stm32wlxx_hal_driver/Src/stm32wlxx_hal_dma.c **** 
 463              		.loc 1 287 46 view .LVU169
 464 0030 0124     		movs	r4, #1
 287:hardware/mcu/st/stm32wlxx_hal_driver/Src/stm32wlxx_hal_dma.c **** 
 465              		.loc 1 287 69 view .LVU170
 466 0032 03F01C03 		and	r3, r3, #28
 287:hardware/mcu/st/stm32wlxx_hal_driver/Src/stm32wlxx_hal_dma.c **** 
 467              		.loc 1 287 46 view .LVU171
 468 0036 04FA03F3 		lsl	r3, r4, r3
 284:hardware/mcu/st/stm32wlxx_hal_driver/Src/stm32wlxx_hal_dma.c **** 
 469              		.loc 1 284 23 view .LVU172
 470 003a 0025     		movs	r5, #0
 471 003c 0D60     		str	r5, [r1]
 287:hardware/mcu/st/stm32wlxx_hal_driver/Src/stm32wlxx_hal_dma.c **** 
 472              		.loc 1 287 3 is_stmt 1 view .LVU173
 287:hardware/mcu/st/stm32wlxx_hal_driver/Src/stm32wlxx_hal_dma.c **** 
 473              		.loc 1 287 30 is_stmt 0 view .LVU174
 474 003e 5360     		str	r3, [r2, #4]
ARM GAS  /var/folders/b4/k4jbz0ms4wg23jtq0w6p483m0000gn/T//cc3EDpXC.s 			page 34


 292:hardware/mcu/st/stm32wlxx_hal_driver/Src/stm32wlxx_hal_dma.c **** 
 475              		.loc 1 292 3 is_stmt 1 view .LVU175
 476 0040 FFF7FEFF 		bl	DMA_CalcDMAMUXChannelBaseAndMask
 477              	.LVL16:
 295:hardware/mcu/st/stm32wlxx_hal_driver/Src/stm32wlxx_hal_dma.c **** 
 478              		.loc 1 295 3 view .LVU176
 295:hardware/mcu/st/stm32wlxx_hal_driver/Src/stm32wlxx_hal_dma.c **** 
 479              		.loc 1 295 7 is_stmt 0 view .LVU177
 480 0044 836C     		ldr	r3, [r0, #72]
 301:hardware/mcu/st/stm32wlxx_hal_driver/Src/stm32wlxx_hal_dma.c ****   {
 481              		.loc 1 301 19 view .LVU178
 482 0046 4168     		ldr	r1, [r0, #4]
 295:hardware/mcu/st/stm32wlxx_hal_driver/Src/stm32wlxx_hal_dma.c **** 
 483              		.loc 1 295 28 view .LVU179
 484 0048 1D60     		str	r5, [r3]
 298:hardware/mcu/st/stm32wlxx_hal_driver/Src/stm32wlxx_hal_dma.c **** 
 485              		.loc 1 298 3 is_stmt 1 view .LVU180
 298:hardware/mcu/st/stm32wlxx_hal_driver/Src/stm32wlxx_hal_dma.c **** 
 486              		.loc 1 298 40 is_stmt 0 view .LVU181
 487 004a D0E91332 		ldrd	r3, r2, [r0, #76]
 298:hardware/mcu/st/stm32wlxx_hal_driver/Src/stm32wlxx_hal_dma.c **** 
 488              		.loc 1 298 34 view .LVU182
 489 004e 5A60     		str	r2, [r3, #4]
 301:hardware/mcu/st/stm32wlxx_hal_driver/Src/stm32wlxx_hal_dma.c ****   {
 490              		.loc 1 301 3 is_stmt 1 view .LVU183
 301:hardware/mcu/st/stm32wlxx_hal_driver/Src/stm32wlxx_hal_dma.c ****   {
 491              		.loc 1 301 36 is_stmt 0 view .LVU184
 492 0050 4A1E     		subs	r2, r1, #1
 301:hardware/mcu/st/stm32wlxx_hal_driver/Src/stm32wlxx_hal_dma.c ****   {
 493              		.loc 1 301 6 view .LVU185
 494 0052 032A     		cmp	r2, #3
 495 0054 06D8     		bhi	.L28
 306:hardware/mcu/st/stm32wlxx_hal_driver/Src/stm32wlxx_hal_dma.c **** 
 496              		.loc 1 306 5 is_stmt 1 view .LVU186
 497              	.LVL17:
 498              	.LBB10:
 499              	.LBI10:
1290:hardware/mcu/st/stm32wlxx_hal_driver/Src/stm32wlxx_hal_dma.c **** {
 500              		.loc 1 1290 13 view .LVU187
 501              	.LBB11:
1292:hardware/mcu/st/stm32wlxx_hal_driver/Src/stm32wlxx_hal_dma.c **** 
 502              		.loc 1 1292 3 view .LVU188
1295:hardware/mcu/st/stm32wlxx_hal_driver/Src/stm32wlxx_hal_dma.c **** 
 503              		.loc 1 1295 3 view .LVU189
1295:hardware/mcu/st/stm32wlxx_hal_driver/Src/stm32wlxx_hal_dma.c **** 
 504              		.loc 1 1295 58 is_stmt 0 view .LVU190
 505 0056 124B     		ldr	r3, .L31+8
 506 0058 0B44     		add	r3, r3, r1
 507 005a 9B00     		lsls	r3, r3, #2
1297:hardware/mcu/st/stm32wlxx_hal_driver/Src/stm32wlxx_hal_dma.c **** 
 508              		.loc 1 1297 3 is_stmt 1 view .LVU191
 509              		.loc 1 1300 3 view .LVU192
 510              		.loc 1 1300 42 is_stmt 0 view .LVU193
 511 005c 9440     		lsls	r4, r4, r2
 512              	.LVL18:
 513              		.loc 1 1300 42 view .LVU194
 514              	.LBE11:
ARM GAS  /var/folders/b4/k4jbz0ms4wg23jtq0w6p483m0000gn/T//cc3EDpXC.s 			page 35


 515              	.LBE10:
 309:hardware/mcu/st/stm32wlxx_hal_driver/Src/stm32wlxx_hal_dma.c **** 
 516              		.loc 1 309 5 is_stmt 1 view .LVU195
 309:hardware/mcu/st/stm32wlxx_hal_driver/Src/stm32wlxx_hal_dma.c **** 
 517              		.loc 1 309 34 is_stmt 0 view .LVU196
 518 005e 1D60     		str	r5, [r3]
 312:hardware/mcu/st/stm32wlxx_hal_driver/Src/stm32wlxx_hal_dma.c ****   }
 519              		.loc 1 312 5 is_stmt 1 view .LVU197
 312:hardware/mcu/st/stm32wlxx_hal_driver/Src/stm32wlxx_hal_dma.c ****   }
 520              		.loc 1 312 41 is_stmt 0 view .LVU198
 521 0060 104B     		ldr	r3, .L31+12
 522 0062 5C64     		str	r4, [r3, #68]
 523              	.L28:
 315:hardware/mcu/st/stm32wlxx_hal_driver/Src/stm32wlxx_hal_dma.c ****   hdma->DMAmuxRequestGenStatus = 0U;
 524              		.loc 1 315 3 is_stmt 1 view .LVU199
 315:hardware/mcu/st/stm32wlxx_hal_driver/Src/stm32wlxx_hal_dma.c ****   hdma->DMAmuxRequestGenStatus = 0U;
 525              		.loc 1 315 26 is_stmt 0 view .LVU200
 526 0064 0023     		movs	r3, #0
 326:hardware/mcu/st/stm32wlxx_hal_driver/Src/stm32wlxx_hal_dma.c **** 
 527              		.loc 1 326 19 view .LVU201
 528 0066 C363     		str	r3, [r0, #60]
 316:hardware/mcu/st/stm32wlxx_hal_driver/Src/stm32wlxx_hal_dma.c ****   hdma->DMAmuxRequestGenStatusMask = 0U;
 529              		.loc 1 316 32 view .LVU202
 530 0068 C0E91533 		strd	r3, r3, [r0, #84]
 317:hardware/mcu/st/stm32wlxx_hal_driver/Src/stm32wlxx_hal_dma.c **** 
 531              		.loc 1 317 3 is_stmt 1 view .LVU203
 321:hardware/mcu/st/stm32wlxx_hal_driver/Src/stm32wlxx_hal_dma.c ****   hdma->XferErrorCallback = NULL;
 532              		.loc 1 321 30 is_stmt 0 view .LVU204
 533 006c C0E90B33 		strd	r3, r3, [r0, #44]
 323:hardware/mcu/st/stm32wlxx_hal_driver/Src/stm32wlxx_hal_dma.c **** 
 534              		.loc 1 323 27 view .LVU205
 535 0070 C0E90D33 		strd	r3, r3, [r0, #52]
 317:hardware/mcu/st/stm32wlxx_hal_driver/Src/stm32wlxx_hal_dma.c **** 
 536              		.loc 1 317 36 view .LVU206
 537 0074 C365     		str	r3, [r0, #92]
 320:hardware/mcu/st/stm32wlxx_hal_driver/Src/stm32wlxx_hal_dma.c ****   hdma->XferHalfCpltCallback = NULL;
 538              		.loc 1 320 3 is_stmt 1 view .LVU207
 322:hardware/mcu/st/stm32wlxx_hal_driver/Src/stm32wlxx_hal_dma.c ****   hdma->XferAbortCallback = NULL;
 539              		.loc 1 322 3 view .LVU208
 326:hardware/mcu/st/stm32wlxx_hal_driver/Src/stm32wlxx_hal_dma.c **** 
 540              		.loc 1 326 3 view .LVU209
 329:hardware/mcu/st/stm32wlxx_hal_driver/Src/stm32wlxx_hal_dma.c **** 
 541              		.loc 1 329 3 view .LVU210
 329:hardware/mcu/st/stm32wlxx_hal_driver/Src/stm32wlxx_hal_dma.c **** 
 542              		.loc 1 329 15 is_stmt 0 view .LVU211
 543 0076 80F82530 		strb	r3, [r0, #37]
 332:hardware/mcu/st/stm32wlxx_hal_driver/Src/stm32wlxx_hal_dma.c **** 
 544              		.loc 1 332 3 is_stmt 1 view .LVU212
 332:hardware/mcu/st/stm32wlxx_hal_driver/Src/stm32wlxx_hal_dma.c **** 
 545              		.loc 1 332 3 view .LVU213
 546 007a 80F82430 		strb	r3, [r0, #36]
 332:hardware/mcu/st/stm32wlxx_hal_driver/Src/stm32wlxx_hal_dma.c **** 
 547              		.loc 1 332 3 view .LVU214
 334:hardware/mcu/st/stm32wlxx_hal_driver/Src/stm32wlxx_hal_dma.c **** }
 548              		.loc 1 334 3 view .LVU215
 334:hardware/mcu/st/stm32wlxx_hal_driver/Src/stm32wlxx_hal_dma.c **** }
 549              		.loc 1 334 10 is_stmt 0 view .LVU216
ARM GAS  /var/folders/b4/k4jbz0ms4wg23jtq0w6p483m0000gn/T//cc3EDpXC.s 			page 36


 550 007e 1846     		mov	r0, r3
 551              	.LVL19:
 552              	.L25:
 335:hardware/mcu/st/stm32wlxx_hal_driver/Src/stm32wlxx_hal_dma.c **** 
 553              		.loc 1 335 1 view .LVU217
 554 0080 38BD     		pop	{r3, r4, r5, pc}
 555              	.LVL20:
 556              	.L26:
 279:hardware/mcu/st/stm32wlxx_hal_driver/Src/stm32wlxx_hal_dma.c ****     hdma->DmaBaseAddress = DMA2;
 557              		.loc 1 279 5 is_stmt 1 view .LVU218
 279:hardware/mcu/st/stm32wlxx_hal_driver/Src/stm32wlxx_hal_dma.c ****     hdma->DmaBaseAddress = DMA2;
 558              		.loc 1 279 53 is_stmt 0 view .LVU219
 559 0082 094B     		ldr	r3, .L31+16
 560 0084 0B44     		add	r3, r3, r1
 279:hardware/mcu/st/stm32wlxx_hal_driver/Src/stm32wlxx_hal_dma.c ****     hdma->DmaBaseAddress = DMA2;
 561              		.loc 1 279 80 view .LVU220
 562 0086 B3FBF4F3 		udiv	r3, r3, r4
 279:hardware/mcu/st/stm32wlxx_hal_driver/Src/stm32wlxx_hal_dma.c ****     hdma->DmaBaseAddress = DMA2;
 563              		.loc 1 279 135 view .LVU221
 564 008a 9B00     		lsls	r3, r3, #2
 279:hardware/mcu/st/stm32wlxx_hal_driver/Src/stm32wlxx_hal_dma.c ****     hdma->DmaBaseAddress = DMA2;
 565              		.loc 1 279 24 view .LVU222
 566 008c 4364     		str	r3, [r0, #68]
 280:hardware/mcu/st/stm32wlxx_hal_driver/Src/stm32wlxx_hal_dma.c ****   }
 567              		.loc 1 280 5 is_stmt 1 view .LVU223
 280:hardware/mcu/st/stm32wlxx_hal_driver/Src/stm32wlxx_hal_dma.c ****   }
 568              		.loc 1 280 26 is_stmt 0 view .LVU224
 569 008e 074B     		ldr	r3, .L31+20
 570 0090 CBE7     		b	.L30
 571              	.L29:
 260:hardware/mcu/st/stm32wlxx_hal_driver/Src/stm32wlxx_hal_dma.c ****   }
 572              		.loc 1 260 12 view .LVU225
 573 0092 0120     		movs	r0, #1
 574              	.LVL21:
 260:hardware/mcu/st/stm32wlxx_hal_driver/Src/stm32wlxx_hal_dma.c ****   }
 575              		.loc 1 260 12 view .LVU226
 576 0094 F4E7     		b	.L25
 577              	.L32:
 578 0096 00BF     		.align	2
 579              	.L31:
 580 0098 07040240 		.word	1073873927
 581 009c F8FFFDBF 		.word	-1073872904
 582 00a0 3F820010 		.word	268468799
 583 00a4 00090240 		.word	1073875200
 584 00a8 F8FBFDBF 		.word	-1073873928
 585 00ac 00040240 		.word	1073873920
 586              		.cfi_endproc
 587              	.LFE722:
 589              		.section	.text.HAL_DMA_Start,"ax",%progbits
 590              		.align	1
 591              		.global	HAL_DMA_Start
 592              		.syntax unified
 593              		.thumb
 594              		.thumb_func
 596              	HAL_DMA_Start:
 597              	.LVL22:
 598              	.LFB723:
ARM GAS  /var/folders/b4/k4jbz0ms4wg23jtq0w6p483m0000gn/T//cc3EDpXC.s 			page 37


 371:hardware/mcu/st/stm32wlxx_hal_driver/Src/stm32wlxx_hal_dma.c ****   HAL_StatusTypeDef status = HAL_OK;
 599              		.loc 1 371 1 is_stmt 1 view -0
 600              		.cfi_startproc
 601              		@ args = 0, pretend = 0, frame = 0
 602              		@ frame_needed = 0, uses_anonymous_args = 0
 372:hardware/mcu/st/stm32wlxx_hal_driver/Src/stm32wlxx_hal_dma.c **** 
 603              		.loc 1 372 3 view .LVU228
 375:hardware/mcu/st/stm32wlxx_hal_driver/Src/stm32wlxx_hal_dma.c **** 
 604              		.loc 1 375 3 view .LVU229
 378:hardware/mcu/st/stm32wlxx_hal_driver/Src/stm32wlxx_hal_dma.c **** 
 605              		.loc 1 378 3 view .LVU230
 378:hardware/mcu/st/stm32wlxx_hal_driver/Src/stm32wlxx_hal_dma.c **** 
 606              		.loc 1 378 3 view .LVU231
 371:hardware/mcu/st/stm32wlxx_hal_driver/Src/stm32wlxx_hal_dma.c ****   HAL_StatusTypeDef status = HAL_OK;
 607              		.loc 1 371 1 is_stmt 0 view .LVU232
 608 0000 F8B5     		push	{r3, r4, r5, r6, r7, lr}
 609              	.LCFI4:
 610              		.cfi_def_cfa_offset 24
 611              		.cfi_offset 3, -24
 612              		.cfi_offset 4, -20
 613              		.cfi_offset 5, -16
 614              		.cfi_offset 6, -12
 615              		.cfi_offset 7, -8
 616              		.cfi_offset 14, -4
 378:hardware/mcu/st/stm32wlxx_hal_driver/Src/stm32wlxx_hal_dma.c **** 
 617              		.loc 1 378 3 view .LVU233
 618 0002 90F82450 		ldrb	r5, [r0, #36]	@ zero_extendqisi2
 619 0006 012D     		cmp	r5, #1
 620 0008 20D0     		beq	.L36
 378:hardware/mcu/st/stm32wlxx_hal_driver/Src/stm32wlxx_hal_dma.c **** 
 621              		.loc 1 378 3 is_stmt 1 discriminator 2 view .LVU234
 380:hardware/mcu/st/stm32wlxx_hal_driver/Src/stm32wlxx_hal_dma.c ****   {
 622              		.loc 1 380 11 is_stmt 0 discriminator 2 view .LVU235
 623 000a 90F82560 		ldrb	r6, [r0, #37]	@ zero_extendqisi2
 378:hardware/mcu/st/stm32wlxx_hal_driver/Src/stm32wlxx_hal_dma.c **** 
 624              		.loc 1 378 3 discriminator 2 view .LVU236
 625 000e 0125     		movs	r5, #1
 380:hardware/mcu/st/stm32wlxx_hal_driver/Src/stm32wlxx_hal_dma.c ****   {
 626              		.loc 1 380 6 discriminator 2 view .LVU237
 627 0010 AE42     		cmp	r6, r5
 378:hardware/mcu/st/stm32wlxx_hal_driver/Src/stm32wlxx_hal_dma.c **** 
 628              		.loc 1 378 3 discriminator 2 view .LVU238
 629 0012 80F82450 		strb	r5, [r0, #36]
 378:hardware/mcu/st/stm32wlxx_hal_driver/Src/stm32wlxx_hal_dma.c **** 
 630              		.loc 1 378 3 is_stmt 1 discriminator 2 view .LVU239
 380:hardware/mcu/st/stm32wlxx_hal_driver/Src/stm32wlxx_hal_dma.c ****   {
 631              		.loc 1 380 3 discriminator 2 view .LVU240
 632 0016 4FF00006 		mov	r6, #0
 380:hardware/mcu/st/stm32wlxx_hal_driver/Src/stm32wlxx_hal_dma.c ****   {
 633              		.loc 1 380 6 is_stmt 0 discriminator 2 view .LVU241
 634 001a 11D1     		bne	.L35
 383:hardware/mcu/st/stm32wlxx_hal_driver/Src/stm32wlxx_hal_dma.c **** 
 635              		.loc 1 383 5 is_stmt 1 view .LVU242
 389:hardware/mcu/st/stm32wlxx_hal_driver/Src/stm32wlxx_hal_dma.c **** 
 636              		.loc 1 389 5 is_stmt 0 view .LVU243
 637 001c 0768     		ldr	r7, [r0]
 383:hardware/mcu/st/stm32wlxx_hal_driver/Src/stm32wlxx_hal_dma.c **** 
ARM GAS  /var/folders/b4/k4jbz0ms4wg23jtq0w6p483m0000gn/T//cc3EDpXC.s 			page 38


 638              		.loc 1 383 17 view .LVU244
 639 001e 0225     		movs	r5, #2
 640 0020 80F82550 		strb	r5, [r0, #37]
 386:hardware/mcu/st/stm32wlxx_hal_driver/Src/stm32wlxx_hal_dma.c **** 
 641              		.loc 1 386 5 is_stmt 1 view .LVU245
 386:hardware/mcu/st/stm32wlxx_hal_driver/Src/stm32wlxx_hal_dma.c **** 
 642              		.loc 1 386 21 is_stmt 0 view .LVU246
 643 0024 C663     		str	r6, [r0, #60]
 389:hardware/mcu/st/stm32wlxx_hal_driver/Src/stm32wlxx_hal_dma.c **** 
 644              		.loc 1 389 5 is_stmt 1 view .LVU247
 645 0026 3D68     		ldr	r5, [r7]
 646 0028 25F00105 		bic	r5, r5, #1
 647 002c 3D60     		str	r5, [r7]
 392:hardware/mcu/st/stm32wlxx_hal_driver/Src/stm32wlxx_hal_dma.c **** 
 648              		.loc 1 392 5 view .LVU248
 649 002e FFF7FEFF 		bl	DMA_SetConfig
 650              	.LVL23:
 395:hardware/mcu/st/stm32wlxx_hal_driver/Src/stm32wlxx_hal_dma.c ****   }
 651              		.loc 1 395 5 view .LVU249
 652 0032 0268     		ldr	r2, [r0]
 653              	.LVL24:
 395:hardware/mcu/st/stm32wlxx_hal_driver/Src/stm32wlxx_hal_dma.c ****   }
 654              		.loc 1 395 5 is_stmt 0 view .LVU250
 655 0034 1368     		ldr	r3, [r2]
 656 0036 43F00103 		orr	r3, r3, #1
 657 003a 1360     		str	r3, [r2]
 372:hardware/mcu/st/stm32wlxx_hal_driver/Src/stm32wlxx_hal_dma.c **** 
 658              		.loc 1 372 21 view .LVU251
 659 003c 3046     		mov	r0, r6
 660              	.LVL25:
 661              	.L34:
 410:hardware/mcu/st/stm32wlxx_hal_driver/Src/stm32wlxx_hal_dma.c **** 
 662              		.loc 1 410 1 view .LVU252
 663 003e F8BD     		pop	{r3, r4, r5, r6, r7, pc}
 664              	.LVL26:
 665              	.L35:
 400:hardware/mcu/st/stm32wlxx_hal_driver/Src/stm32wlxx_hal_dma.c **** 
 666              		.loc 1 400 5 is_stmt 1 view .LVU253
 400:hardware/mcu/st/stm32wlxx_hal_driver/Src/stm32wlxx_hal_dma.c **** 
 667              		.loc 1 400 21 is_stmt 0 view .LVU254
 668 0040 8023     		movs	r3, #128
 669              	.LVL27:
 400:hardware/mcu/st/stm32wlxx_hal_driver/Src/stm32wlxx_hal_dma.c **** 
 670              		.loc 1 400 21 view .LVU255
 671 0042 C363     		str	r3, [r0, #60]
 403:hardware/mcu/st/stm32wlxx_hal_driver/Src/stm32wlxx_hal_dma.c **** 
 672              		.loc 1 403 5 is_stmt 1 view .LVU256
 403:hardware/mcu/st/stm32wlxx_hal_driver/Src/stm32wlxx_hal_dma.c **** 
 673              		.loc 1 403 5 view .LVU257
 674 0044 80F82460 		strb	r6, [r0, #36]
 403:hardware/mcu/st/stm32wlxx_hal_driver/Src/stm32wlxx_hal_dma.c **** 
 675              		.loc 1 403 5 view .LVU258
 406:hardware/mcu/st/stm32wlxx_hal_driver/Src/stm32wlxx_hal_dma.c ****   }
 676              		.loc 1 406 5 view .LVU259
 677              	.LVL28:
 406:hardware/mcu/st/stm32wlxx_hal_driver/Src/stm32wlxx_hal_dma.c ****   }
 678              		.loc 1 406 12 is_stmt 0 view .LVU260
ARM GAS  /var/folders/b4/k4jbz0ms4wg23jtq0w6p483m0000gn/T//cc3EDpXC.s 			page 39


 679 0048 2846     		mov	r0, r5
 680              	.LVL29:
 406:hardware/mcu/st/stm32wlxx_hal_driver/Src/stm32wlxx_hal_dma.c ****   }
 681              		.loc 1 406 12 view .LVU261
 682 004a F8E7     		b	.L34
 683              	.LVL30:
 684              	.L36:
 378:hardware/mcu/st/stm32wlxx_hal_driver/Src/stm32wlxx_hal_dma.c **** 
 685              		.loc 1 378 3 view .LVU262
 686 004c 0220     		movs	r0, #2
 687              	.LVL31:
 378:hardware/mcu/st/stm32wlxx_hal_driver/Src/stm32wlxx_hal_dma.c **** 
 688              		.loc 1 378 3 view .LVU263
 689 004e F6E7     		b	.L34
 690              		.cfi_endproc
 691              	.LFE723:
 693              		.section	.text.HAL_DMA_Start_IT,"ax",%progbits
 694              		.align	1
 695              		.global	HAL_DMA_Start_IT
 696              		.syntax unified
 697              		.thumb
 698              		.thumb_func
 700              	HAL_DMA_Start_IT:
 701              	.LVL32:
 702              	.LFB724:
 422:hardware/mcu/st/stm32wlxx_hal_driver/Src/stm32wlxx_hal_dma.c ****   HAL_StatusTypeDef status = HAL_OK;
 703              		.loc 1 422 1 is_stmt 1 view -0
 704              		.cfi_startproc
 705              		@ args = 0, pretend = 0, frame = 0
 706              		@ frame_needed = 0, uses_anonymous_args = 0
 423:hardware/mcu/st/stm32wlxx_hal_driver/Src/stm32wlxx_hal_dma.c **** 
 707              		.loc 1 423 3 view .LVU265
 426:hardware/mcu/st/stm32wlxx_hal_driver/Src/stm32wlxx_hal_dma.c **** 
 708              		.loc 1 426 3 view .LVU266
 429:hardware/mcu/st/stm32wlxx_hal_driver/Src/stm32wlxx_hal_dma.c **** 
 709              		.loc 1 429 3 view .LVU267
 429:hardware/mcu/st/stm32wlxx_hal_driver/Src/stm32wlxx_hal_dma.c **** 
 710              		.loc 1 429 3 view .LVU268
 422:hardware/mcu/st/stm32wlxx_hal_driver/Src/stm32wlxx_hal_dma.c ****   HAL_StatusTypeDef status = HAL_OK;
 711              		.loc 1 422 1 is_stmt 0 view .LVU269
 712 0000 70B5     		push	{r4, r5, r6, lr}
 713              	.LCFI5:
 714              		.cfi_def_cfa_offset 16
 715              		.cfi_offset 4, -16
 716              		.cfi_offset 5, -12
 717              		.cfi_offset 6, -8
 718              		.cfi_offset 14, -4
 429:hardware/mcu/st/stm32wlxx_hal_driver/Src/stm32wlxx_hal_dma.c **** 
 719              		.loc 1 429 3 view .LVU270
 720 0002 90F82450 		ldrb	r5, [r0, #36]	@ zero_extendqisi2
 721 0006 012D     		cmp	r5, #1
 422:hardware/mcu/st/stm32wlxx_hal_driver/Src/stm32wlxx_hal_dma.c ****   HAL_StatusTypeDef status = HAL_OK;
 722              		.loc 1 422 1 view .LVU271
 723 0008 0446     		mov	r4, r0
 429:hardware/mcu/st/stm32wlxx_hal_driver/Src/stm32wlxx_hal_dma.c **** 
 724              		.loc 1 429 3 view .LVU272
 725 000a 3CD0     		beq	.L44
ARM GAS  /var/folders/b4/k4jbz0ms4wg23jtq0w6p483m0000gn/T//cc3EDpXC.s 			page 40


 429:hardware/mcu/st/stm32wlxx_hal_driver/Src/stm32wlxx_hal_dma.c **** 
 726              		.loc 1 429 3 is_stmt 1 discriminator 2 view .LVU273
 431:hardware/mcu/st/stm32wlxx_hal_driver/Src/stm32wlxx_hal_dma.c ****   {
 727              		.loc 1 431 11 is_stmt 0 discriminator 2 view .LVU274
 728 000c 90F82560 		ldrb	r6, [r0, #37]	@ zero_extendqisi2
 429:hardware/mcu/st/stm32wlxx_hal_driver/Src/stm32wlxx_hal_dma.c **** 
 729              		.loc 1 429 3 discriminator 2 view .LVU275
 730 0010 0125     		movs	r5, #1
 431:hardware/mcu/st/stm32wlxx_hal_driver/Src/stm32wlxx_hal_dma.c ****   {
 731              		.loc 1 431 6 discriminator 2 view .LVU276
 732 0012 AE42     		cmp	r6, r5
 429:hardware/mcu/st/stm32wlxx_hal_driver/Src/stm32wlxx_hal_dma.c **** 
 733              		.loc 1 429 3 discriminator 2 view .LVU277
 734 0014 80F82450 		strb	r5, [r0, #36]
 429:hardware/mcu/st/stm32wlxx_hal_driver/Src/stm32wlxx_hal_dma.c **** 
 735              		.loc 1 429 3 is_stmt 1 discriminator 2 view .LVU278
 431:hardware/mcu/st/stm32wlxx_hal_driver/Src/stm32wlxx_hal_dma.c ****   {
 736              		.loc 1 431 3 discriminator 2 view .LVU279
 737 0018 4FF00006 		mov	r6, #0
 431:hardware/mcu/st/stm32wlxx_hal_driver/Src/stm32wlxx_hal_dma.c ****   {
 738              		.loc 1 431 6 is_stmt 0 discriminator 2 view .LVU280
 739 001c 2DD1     		bne	.L39
 434:hardware/mcu/st/stm32wlxx_hal_driver/Src/stm32wlxx_hal_dma.c ****     hdma->ErrorCode = HAL_DMA_ERROR_NONE;
 740              		.loc 1 434 5 is_stmt 1 view .LVU281
 434:hardware/mcu/st/stm32wlxx_hal_driver/Src/stm32wlxx_hal_dma.c ****     hdma->ErrorCode = HAL_DMA_ERROR_NONE;
 741              		.loc 1 434 17 is_stmt 0 view .LVU282
 742 001e 0225     		movs	r5, #2
 743 0020 80F82550 		strb	r5, [r0, #37]
 435:hardware/mcu/st/stm32wlxx_hal_driver/Src/stm32wlxx_hal_dma.c **** 
 744              		.loc 1 435 5 is_stmt 1 view .LVU283
 435:hardware/mcu/st/stm32wlxx_hal_driver/Src/stm32wlxx_hal_dma.c **** 
 745              		.loc 1 435 21 is_stmt 0 view .LVU284
 746 0024 C663     		str	r6, [r0, #60]
 438:hardware/mcu/st/stm32wlxx_hal_driver/Src/stm32wlxx_hal_dma.c **** 
 747              		.loc 1 438 5 is_stmt 1 view .LVU285
 748 0026 0668     		ldr	r6, [r0]
 749 0028 3568     		ldr	r5, [r6]
 750 002a 25F00105 		bic	r5, r5, #1
 751 002e 3560     		str	r5, [r6]
 441:hardware/mcu/st/stm32wlxx_hal_driver/Src/stm32wlxx_hal_dma.c **** 
 752              		.loc 1 441 5 view .LVU286
 753 0030 FFF7FEFF 		bl	DMA_SetConfig
 754              	.LVL33:
 445:hardware/mcu/st/stm32wlxx_hal_driver/Src/stm32wlxx_hal_dma.c ****     {
 755              		.loc 1 445 5 view .LVU287
 445:hardware/mcu/st/stm32wlxx_hal_driver/Src/stm32wlxx_hal_dma.c ****     {
 756              		.loc 1 445 8 is_stmt 0 view .LVU288
 757 0034 026B     		ldr	r2, [r0, #48]
 758              	.LVL34:
 445:hardware/mcu/st/stm32wlxx_hal_driver/Src/stm32wlxx_hal_dma.c ****     {
 759              		.loc 1 445 8 view .LVU289
 760 0036 0368     		ldr	r3, [r0]
 761 0038 BAB1     		cbz	r2, .L40
 448:hardware/mcu/st/stm32wlxx_hal_driver/Src/stm32wlxx_hal_dma.c ****     }
 762              		.loc 1 448 7 is_stmt 1 view .LVU290
 763 003a 1A68     		ldr	r2, [r3]
 764 003c 42F00E02 		orr	r2, r2, #14
ARM GAS  /var/folders/b4/k4jbz0ms4wg23jtq0w6p483m0000gn/T//cc3EDpXC.s 			page 41


 765              	.L51:
 453:hardware/mcu/st/stm32wlxx_hal_driver/Src/stm32wlxx_hal_dma.c ****     }
 766              		.loc 1 453 7 is_stmt 0 view .LVU291
 767 0040 1A60     		str	r2, [r3]
 457:hardware/mcu/st/stm32wlxx_hal_driver/Src/stm32wlxx_hal_dma.c ****     {
 768              		.loc 1 457 5 is_stmt 1 view .LVU292
 457:hardware/mcu/st/stm32wlxx_hal_driver/Src/stm32wlxx_hal_dma.c ****     {
 769              		.loc 1 457 14 is_stmt 0 view .LVU293
 770 0042 A26C     		ldr	r2, [r4, #72]
 457:hardware/mcu/st/stm32wlxx_hal_driver/Src/stm32wlxx_hal_dma.c ****     {
 771              		.loc 1 457 29 view .LVU294
 772 0044 1168     		ldr	r1, [r2]
 773              	.LVL35:
 457:hardware/mcu/st/stm32wlxx_hal_driver/Src/stm32wlxx_hal_dma.c ****     {
 774              		.loc 1 457 8 view .LVU295
 775 0046 C903     		lsls	r1, r1, #15
 460:hardware/mcu/st/stm32wlxx_hal_driver/Src/stm32wlxx_hal_dma.c ****     }
 776              		.loc 1 460 7 is_stmt 1 view .LVU296
 460:hardware/mcu/st/stm32wlxx_hal_driver/Src/stm32wlxx_hal_dma.c ****     }
 777              		.loc 1 460 32 is_stmt 0 view .LVU297
 778 0048 42BF     		ittt	mi
 779 004a 1168     		ldrmi	r1, [r2]
 780 004c 41F48071 		orrmi	r1, r1, #256
 781 0050 1160     		strmi	r1, [r2]
 463:hardware/mcu/st/stm32wlxx_hal_driver/Src/stm32wlxx_hal_dma.c ****     {
 782              		.loc 1 463 5 is_stmt 1 view .LVU298
 463:hardware/mcu/st/stm32wlxx_hal_driver/Src/stm32wlxx_hal_dma.c ****     {
 783              		.loc 1 463 13 is_stmt 0 view .LVU299
 784 0052 626D     		ldr	r2, [r4, #84]
 463:hardware/mcu/st/stm32wlxx_hal_driver/Src/stm32wlxx_hal_dma.c ****     {
 785              		.loc 1 463 8 view .LVU300
 786 0054 1AB1     		cbz	r2, .L43
 467:hardware/mcu/st/stm32wlxx_hal_driver/Src/stm32wlxx_hal_dma.c ****     }
 787              		.loc 1 467 7 is_stmt 1 view .LVU301
 467:hardware/mcu/st/stm32wlxx_hal_driver/Src/stm32wlxx_hal_dma.c ****     }
 788              		.loc 1 467 36 is_stmt 0 view .LVU302
 789 0056 1168     		ldr	r1, [r2]
 790 0058 41F48071 		orr	r1, r1, #256
 791 005c 1160     		str	r1, [r2]
 792              	.L43:
 471:hardware/mcu/st/stm32wlxx_hal_driver/Src/stm32wlxx_hal_dma.c ****   }
 793              		.loc 1 471 5 is_stmt 1 view .LVU303
 794 005e 1A68     		ldr	r2, [r3]
 795 0060 42F00102 		orr	r2, r2, #1
 796 0064 1A60     		str	r2, [r3]
 423:hardware/mcu/st/stm32wlxx_hal_driver/Src/stm32wlxx_hal_dma.c **** 
 797              		.loc 1 423 21 is_stmt 0 view .LVU304
 798 0066 0020     		movs	r0, #0
 799              	.LVL36:
 800              	.L38:
 486:hardware/mcu/st/stm32wlxx_hal_driver/Src/stm32wlxx_hal_dma.c **** 
 801              		.loc 1 486 1 view .LVU305
 802 0068 70BD     		pop	{r4, r5, r6, pc}
 803              	.LVL37:
 804              	.L40:
 452:hardware/mcu/st/stm32wlxx_hal_driver/Src/stm32wlxx_hal_dma.c ****       __HAL_DMA_ENABLE_IT(hdma, (DMA_IT_TC | DMA_IT_TE));
 805              		.loc 1 452 7 is_stmt 1 view .LVU306
ARM GAS  /var/folders/b4/k4jbz0ms4wg23jtq0w6p483m0000gn/T//cc3EDpXC.s 			page 42


 806 006a 1A68     		ldr	r2, [r3]
 807 006c 22F00402 		bic	r2, r2, #4
 808 0070 1A60     		str	r2, [r3]
 453:hardware/mcu/st/stm32wlxx_hal_driver/Src/stm32wlxx_hal_dma.c ****     }
 809              		.loc 1 453 7 view .LVU307
 810 0072 1A68     		ldr	r2, [r3]
 811 0074 42F00A02 		orr	r2, r2, #10
 812 0078 E2E7     		b	.L51
 813              	.LVL38:
 814              	.L39:
 476:hardware/mcu/st/stm32wlxx_hal_driver/Src/stm32wlxx_hal_dma.c **** 
 815              		.loc 1 476 5 view .LVU308
 476:hardware/mcu/st/stm32wlxx_hal_driver/Src/stm32wlxx_hal_dma.c **** 
 816              		.loc 1 476 21 is_stmt 0 view .LVU309
 817 007a 8023     		movs	r3, #128
 818              	.LVL39:
 476:hardware/mcu/st/stm32wlxx_hal_driver/Src/stm32wlxx_hal_dma.c **** 
 819              		.loc 1 476 21 view .LVU310
 820 007c C363     		str	r3, [r0, #60]
 479:hardware/mcu/st/stm32wlxx_hal_driver/Src/stm32wlxx_hal_dma.c **** 
 821              		.loc 1 479 5 is_stmt 1 view .LVU311
 479:hardware/mcu/st/stm32wlxx_hal_driver/Src/stm32wlxx_hal_dma.c **** 
 822              		.loc 1 479 5 view .LVU312
 823 007e 80F82460 		strb	r6, [r0, #36]
 479:hardware/mcu/st/stm32wlxx_hal_driver/Src/stm32wlxx_hal_dma.c **** 
 824              		.loc 1 479 5 view .LVU313
 482:hardware/mcu/st/stm32wlxx_hal_driver/Src/stm32wlxx_hal_dma.c ****   }
 825              		.loc 1 482 5 view .LVU314
 826              	.LVL40:
 482:hardware/mcu/st/stm32wlxx_hal_driver/Src/stm32wlxx_hal_dma.c ****   }
 827              		.loc 1 482 12 is_stmt 0 view .LVU315
 828 0082 2846     		mov	r0, r5
 829              	.LVL41:
 482:hardware/mcu/st/stm32wlxx_hal_driver/Src/stm32wlxx_hal_dma.c ****   }
 830              		.loc 1 482 12 view .LVU316
 831 0084 F0E7     		b	.L38
 832              	.LVL42:
 833              	.L44:
 429:hardware/mcu/st/stm32wlxx_hal_driver/Src/stm32wlxx_hal_dma.c **** 
 834              		.loc 1 429 3 view .LVU317
 835 0086 0220     		movs	r0, #2
 836              	.LVL43:
 429:hardware/mcu/st/stm32wlxx_hal_driver/Src/stm32wlxx_hal_dma.c **** 
 837              		.loc 1 429 3 view .LVU318
 838 0088 EEE7     		b	.L38
 839              		.cfi_endproc
 840              	.LFE724:
 842              		.section	.text.HAL_DMA_Abort,"ax",%progbits
 843              		.align	1
 844              		.global	HAL_DMA_Abort
 845              		.syntax unified
 846              		.thumb
 847              		.thumb_func
 849              	HAL_DMA_Abort:
 850              	.LVL44:
 851              	.LFB725:
 495:hardware/mcu/st/stm32wlxx_hal_driver/Src/stm32wlxx_hal_dma.c ****   /* Check the DMA peripheral handle */
ARM GAS  /var/folders/b4/k4jbz0ms4wg23jtq0w6p483m0000gn/T//cc3EDpXC.s 			page 43


 852              		.loc 1 495 1 is_stmt 1 view -0
 853              		.cfi_startproc
 854              		@ args = 0, pretend = 0, frame = 0
 855              		@ frame_needed = 0, uses_anonymous_args = 0
 856              		@ link register save eliminated.
 497:hardware/mcu/st/stm32wlxx_hal_driver/Src/stm32wlxx_hal_dma.c ****   {
 857              		.loc 1 497 3 view .LVU320
 497:hardware/mcu/st/stm32wlxx_hal_driver/Src/stm32wlxx_hal_dma.c ****   {
 858              		.loc 1 497 6 is_stmt 0 view .LVU321
 859 0000 40B1     		cbz	r0, .L56
 503:hardware/mcu/st/stm32wlxx_hal_driver/Src/stm32wlxx_hal_dma.c ****   {
 860              		.loc 1 503 3 is_stmt 1 view .LVU322
 503:hardware/mcu/st/stm32wlxx_hal_driver/Src/stm32wlxx_hal_dma.c ****   {
 861              		.loc 1 503 11 is_stmt 0 view .LVU323
 862 0002 90F82530 		ldrb	r3, [r0, #37]	@ zero_extendqisi2
 503:hardware/mcu/st/stm32wlxx_hal_driver/Src/stm32wlxx_hal_dma.c ****   {
 863              		.loc 1 503 6 view .LVU324
 864 0006 022B     		cmp	r3, #2
 865 0008 06D0     		beq	.L54
 505:hardware/mcu/st/stm32wlxx_hal_driver/Src/stm32wlxx_hal_dma.c **** 
 866              		.loc 1 505 5 is_stmt 1 view .LVU325
 505:hardware/mcu/st/stm32wlxx_hal_driver/Src/stm32wlxx_hal_dma.c **** 
 867              		.loc 1 505 21 is_stmt 0 view .LVU326
 868 000a 0423     		movs	r3, #4
 869 000c C363     		str	r3, [r0, #60]
 508:hardware/mcu/st/stm32wlxx_hal_driver/Src/stm32wlxx_hal_dma.c **** 
 870              		.loc 1 508 5 is_stmt 1 view .LVU327
 508:hardware/mcu/st/stm32wlxx_hal_driver/Src/stm32wlxx_hal_dma.c **** 
 871              		.loc 1 508 5 view .LVU328
 872 000e 0023     		movs	r3, #0
 873 0010 80F82430 		strb	r3, [r0, #36]
 508:hardware/mcu/st/stm32wlxx_hal_driver/Src/stm32wlxx_hal_dma.c **** 
 874              		.loc 1 508 5 view .LVU329
 510:hardware/mcu/st/stm32wlxx_hal_driver/Src/stm32wlxx_hal_dma.c ****   }
 875              		.loc 1 510 5 view .LVU330
 876              	.L56:
 499:hardware/mcu/st/stm32wlxx_hal_driver/Src/stm32wlxx_hal_dma.c ****   }
 877              		.loc 1 499 12 is_stmt 0 view .LVU331
 878 0014 0120     		movs	r0, #1
 879              	.LVL45:
 547:hardware/mcu/st/stm32wlxx_hal_driver/Src/stm32wlxx_hal_dma.c **** 
 880              		.loc 1 547 1 view .LVU332
 881 0016 7047     		bx	lr
 882              	.LVL46:
 883              	.L54:
 515:hardware/mcu/st/stm32wlxx_hal_driver/Src/stm32wlxx_hal_dma.c **** 
 884              		.loc 1 515 5 is_stmt 1 view .LVU333
 885 0018 0368     		ldr	r3, [r0]
 518:hardware/mcu/st/stm32wlxx_hal_driver/Src/stm32wlxx_hal_dma.c **** 
 886              		.loc 1 518 9 is_stmt 0 view .LVU334
 887 001a 816C     		ldr	r1, [r0, #72]
 515:hardware/mcu/st/stm32wlxx_hal_driver/Src/stm32wlxx_hal_dma.c **** 
 888              		.loc 1 515 5 view .LVU335
 889 001c 1A68     		ldr	r2, [r3]
 890 001e 22F00E02 		bic	r2, r2, #14
 891 0022 1A60     		str	r2, [r3]
 518:hardware/mcu/st/stm32wlxx_hal_driver/Src/stm32wlxx_hal_dma.c **** 
ARM GAS  /var/folders/b4/k4jbz0ms4wg23jtq0w6p483m0000gn/T//cc3EDpXC.s 			page 44


 892              		.loc 1 518 5 is_stmt 1 view .LVU336
 518:hardware/mcu/st/stm32wlxx_hal_driver/Src/stm32wlxx_hal_dma.c **** 
 893              		.loc 1 518 30 is_stmt 0 view .LVU337
 894 0024 0A68     		ldr	r2, [r1]
 895 0026 22F48072 		bic	r2, r2, #256
 896 002a 0A60     		str	r2, [r1]
 521:hardware/mcu/st/stm32wlxx_hal_driver/Src/stm32wlxx_hal_dma.c **** 
 897              		.loc 1 521 5 is_stmt 1 view .LVU338
 898 002c 1A68     		ldr	r2, [r3]
 899 002e 22F00102 		bic	r2, r2, #1
 900 0032 1A60     		str	r2, [r3]
 524:hardware/mcu/st/stm32wlxx_hal_driver/Src/stm32wlxx_hal_dma.c **** 
 901              		.loc 1 524 5 view .LVU339
 524:hardware/mcu/st/stm32wlxx_hal_driver/Src/stm32wlxx_hal_dma.c **** 
 902              		.loc 1 524 71 is_stmt 0 view .LVU340
 903 0034 D0E91013 		ldrd	r1, r3, [r0, #64]
 904 0038 03F01C02 		and	r2, r3, #28
 524:hardware/mcu/st/stm32wlxx_hal_driver/Src/stm32wlxx_hal_dma.c **** 
 905              		.loc 1 524 48 view .LVU341
 906 003c 0123     		movs	r3, #1
 907 003e 9340     		lsls	r3, r3, r2
 524:hardware/mcu/st/stm32wlxx_hal_driver/Src/stm32wlxx_hal_dma.c **** 
 908              		.loc 1 524 32 view .LVU342
 909 0040 4B60     		str	r3, [r1, #4]
 527:hardware/mcu/st/stm32wlxx_hal_driver/Src/stm32wlxx_hal_dma.c **** 
 910              		.loc 1 527 5 is_stmt 1 view .LVU343
 527:hardware/mcu/st/stm32wlxx_hal_driver/Src/stm32wlxx_hal_dma.c **** 
 911              		.loc 1 527 42 is_stmt 0 view .LVU344
 912 0042 D0E91332 		ldrd	r3, r2, [r0, #76]
 527:hardware/mcu/st/stm32wlxx_hal_driver/Src/stm32wlxx_hal_dma.c **** 
 913              		.loc 1 527 36 view .LVU345
 914 0046 5A60     		str	r2, [r3, #4]
 529:hardware/mcu/st/stm32wlxx_hal_driver/Src/stm32wlxx_hal_dma.c ****     {
 915              		.loc 1 529 5 is_stmt 1 view .LVU346
 529:hardware/mcu/st/stm32wlxx_hal_driver/Src/stm32wlxx_hal_dma.c ****     {
 916              		.loc 1 529 13 is_stmt 0 view .LVU347
 917 0048 436D     		ldr	r3, [r0, #84]
 529:hardware/mcu/st/stm32wlxx_hal_driver/Src/stm32wlxx_hal_dma.c ****     {
 918              		.loc 1 529 8 view .LVU348
 919 004a 33B1     		cbz	r3, .L55
 533:hardware/mcu/st/stm32wlxx_hal_driver/Src/stm32wlxx_hal_dma.c **** 
 920              		.loc 1 533 7 is_stmt 1 view .LVU349
 533:hardware/mcu/st/stm32wlxx_hal_driver/Src/stm32wlxx_hal_dma.c **** 
 921              		.loc 1 533 36 is_stmt 0 view .LVU350
 922 004c 1A68     		ldr	r2, [r3]
 923 004e 22F48072 		bic	r2, r2, #256
 924 0052 1A60     		str	r2, [r3]
 536:hardware/mcu/st/stm32wlxx_hal_driver/Src/stm32wlxx_hal_dma.c ****     }
 925              		.loc 1 536 7 is_stmt 1 view .LVU351
 536:hardware/mcu/st/stm32wlxx_hal_driver/Src/stm32wlxx_hal_dma.c ****     }
 926              		.loc 1 536 49 is_stmt 0 view .LVU352
 927 0054 D0E91632 		ldrd	r3, r2, [r0, #88]
 536:hardware/mcu/st/stm32wlxx_hal_driver/Src/stm32wlxx_hal_dma.c ****     }
 928              		.loc 1 536 43 view .LVU353
 929 0058 5A60     		str	r2, [r3, #4]
 930              	.L55:
 540:hardware/mcu/st/stm32wlxx_hal_driver/Src/stm32wlxx_hal_dma.c **** 
ARM GAS  /var/folders/b4/k4jbz0ms4wg23jtq0w6p483m0000gn/T//cc3EDpXC.s 			page 45


 931              		.loc 1 540 5 is_stmt 1 view .LVU354
 540:hardware/mcu/st/stm32wlxx_hal_driver/Src/stm32wlxx_hal_dma.c **** 
 932              		.loc 1 540 17 is_stmt 0 view .LVU355
 933 005a 0123     		movs	r3, #1
 934 005c 80F82530 		strb	r3, [r0, #37]
 543:hardware/mcu/st/stm32wlxx_hal_driver/Src/stm32wlxx_hal_dma.c ****   }
 935              		.loc 1 543 5 is_stmt 1 view .LVU356
 543:hardware/mcu/st/stm32wlxx_hal_driver/Src/stm32wlxx_hal_dma.c ****   }
 936              		.loc 1 543 5 view .LVU357
 937 0060 0023     		movs	r3, #0
 938 0062 80F82430 		strb	r3, [r0, #36]
 543:hardware/mcu/st/stm32wlxx_hal_driver/Src/stm32wlxx_hal_dma.c ****   }
 939              		.loc 1 543 5 view .LVU358
 546:hardware/mcu/st/stm32wlxx_hal_driver/Src/stm32wlxx_hal_dma.c **** }
 940              		.loc 1 546 3 view .LVU359
 546:hardware/mcu/st/stm32wlxx_hal_driver/Src/stm32wlxx_hal_dma.c **** }
 941              		.loc 1 546 10 is_stmt 0 view .LVU360
 942 0066 1846     		mov	r0, r3
 943              	.LVL47:
 546:hardware/mcu/st/stm32wlxx_hal_driver/Src/stm32wlxx_hal_dma.c **** }
 944              		.loc 1 546 10 view .LVU361
 945 0068 7047     		bx	lr
 946              		.cfi_endproc
 947              	.LFE725:
 949              		.section	.text.HAL_DMA_Abort_IT,"ax",%progbits
 950              		.align	1
 951              		.global	HAL_DMA_Abort_IT
 952              		.syntax unified
 953              		.thumb
 954              		.thumb_func
 956              	HAL_DMA_Abort_IT:
 957              	.LVL48:
 958              	.LFB726:
 556:hardware/mcu/st/stm32wlxx_hal_driver/Src/stm32wlxx_hal_dma.c ****   HAL_StatusTypeDef status = HAL_OK;
 959              		.loc 1 556 1 is_stmt 1 view -0
 960              		.cfi_startproc
 961              		@ args = 0, pretend = 0, frame = 0
 962              		@ frame_needed = 0, uses_anonymous_args = 0
 557:hardware/mcu/st/stm32wlxx_hal_driver/Src/stm32wlxx_hal_dma.c **** 
 963              		.loc 1 557 3 view .LVU363
 559:hardware/mcu/st/stm32wlxx_hal_driver/Src/stm32wlxx_hal_dma.c ****   {
 964              		.loc 1 559 3 view .LVU364
 556:hardware/mcu/st/stm32wlxx_hal_driver/Src/stm32wlxx_hal_dma.c ****   HAL_StatusTypeDef status = HAL_OK;
 965              		.loc 1 556 1 is_stmt 0 view .LVU365
 966 0000 10B5     		push	{r4, lr}
 967              	.LCFI6:
 968              		.cfi_def_cfa_offset 8
 969              		.cfi_offset 4, -8
 970              		.cfi_offset 14, -4
 559:hardware/mcu/st/stm32wlxx_hal_driver/Src/stm32wlxx_hal_dma.c ****   {
 971              		.loc 1 559 11 view .LVU366
 972 0002 90F82530 		ldrb	r3, [r0, #37]	@ zero_extendqisi2
 559:hardware/mcu/st/stm32wlxx_hal_driver/Src/stm32wlxx_hal_dma.c ****   {
 973              		.loc 1 559 6 view .LVU367
 974 0006 022B     		cmp	r3, #2
 975 0008 03D0     		beq	.L61
 562:hardware/mcu/st/stm32wlxx_hal_driver/Src/stm32wlxx_hal_dma.c **** 
ARM GAS  /var/folders/b4/k4jbz0ms4wg23jtq0w6p483m0000gn/T//cc3EDpXC.s 			page 46


 976              		.loc 1 562 5 is_stmt 1 view .LVU368
 562:hardware/mcu/st/stm32wlxx_hal_driver/Src/stm32wlxx_hal_dma.c **** 
 977              		.loc 1 562 21 is_stmt 0 view .LVU369
 978 000a 0423     		movs	r3, #4
 979 000c C363     		str	r3, [r0, #60]
 564:hardware/mcu/st/stm32wlxx_hal_driver/Src/stm32wlxx_hal_dma.c ****   }
 980              		.loc 1 564 5 is_stmt 1 view .LVU370
 981              	.LVL49:
 564:hardware/mcu/st/stm32wlxx_hal_driver/Src/stm32wlxx_hal_dma.c ****   }
 982              		.loc 1 564 12 is_stmt 0 view .LVU371
 983 000e 0120     		movs	r0, #1
 984              	.LVL50:
 985              	.L62:
 605:hardware/mcu/st/stm32wlxx_hal_driver/Src/stm32wlxx_hal_dma.c **** }
 986              		.loc 1 605 3 is_stmt 1 view .LVU372
 606:hardware/mcu/st/stm32wlxx_hal_driver/Src/stm32wlxx_hal_dma.c **** 
 987              		.loc 1 606 1 is_stmt 0 view .LVU373
 988 0010 10BD     		pop	{r4, pc}
 989              	.LVL51:
 990              	.L61:
 569:hardware/mcu/st/stm32wlxx_hal_driver/Src/stm32wlxx_hal_dma.c **** 
 991              		.loc 1 569 5 is_stmt 1 view .LVU374
 992 0012 0368     		ldr	r3, [r0]
 993 0014 1A68     		ldr	r2, [r3]
 994 0016 22F00E02 		bic	r2, r2, #14
 995 001a 1A60     		str	r2, [r3]
 572:hardware/mcu/st/stm32wlxx_hal_driver/Src/stm32wlxx_hal_dma.c **** 
 996              		.loc 1 572 5 view .LVU375
 997 001c 1A68     		ldr	r2, [r3]
 998 001e 22F00102 		bic	r2, r2, #1
 999 0022 1A60     		str	r2, [r3]
 575:hardware/mcu/st/stm32wlxx_hal_driver/Src/stm32wlxx_hal_dma.c **** 
 1000              		.loc 1 575 5 view .LVU376
 575:hardware/mcu/st/stm32wlxx_hal_driver/Src/stm32wlxx_hal_dma.c **** 
 1001              		.loc 1 575 9 is_stmt 0 view .LVU377
 1002 0024 826C     		ldr	r2, [r0, #72]
 575:hardware/mcu/st/stm32wlxx_hal_driver/Src/stm32wlxx_hal_dma.c **** 
 1003              		.loc 1 575 30 view .LVU378
 1004 0026 1368     		ldr	r3, [r2]
 1005 0028 23F48073 		bic	r3, r3, #256
 1006 002c 1360     		str	r3, [r2]
 578:hardware/mcu/st/stm32wlxx_hal_driver/Src/stm32wlxx_hal_dma.c **** 
 1007              		.loc 1 578 5 is_stmt 1 view .LVU379
 578:hardware/mcu/st/stm32wlxx_hal_driver/Src/stm32wlxx_hal_dma.c **** 
 1008              		.loc 1 578 71 is_stmt 0 view .LVU380
 1009 002e D0E91013 		ldrd	r1, r3, [r0, #64]
 1010 0032 03F01C02 		and	r2, r3, #28
 578:hardware/mcu/st/stm32wlxx_hal_driver/Src/stm32wlxx_hal_dma.c **** 
 1011              		.loc 1 578 48 view .LVU381
 1012 0036 0123     		movs	r3, #1
 1013 0038 9340     		lsls	r3, r3, r2
 578:hardware/mcu/st/stm32wlxx_hal_driver/Src/stm32wlxx_hal_dma.c **** 
 1014              		.loc 1 578 32 view .LVU382
 1015 003a 4B60     		str	r3, [r1, #4]
 581:hardware/mcu/st/stm32wlxx_hal_driver/Src/stm32wlxx_hal_dma.c **** 
 1016              		.loc 1 581 5 is_stmt 1 view .LVU383
 581:hardware/mcu/st/stm32wlxx_hal_driver/Src/stm32wlxx_hal_dma.c **** 
ARM GAS  /var/folders/b4/k4jbz0ms4wg23jtq0w6p483m0000gn/T//cc3EDpXC.s 			page 47


 1017              		.loc 1 581 42 is_stmt 0 view .LVU384
 1018 003c D0E91332 		ldrd	r3, r2, [r0, #76]
 581:hardware/mcu/st/stm32wlxx_hal_driver/Src/stm32wlxx_hal_dma.c **** 
 1019              		.loc 1 581 36 view .LVU385
 1020 0040 5A60     		str	r2, [r3, #4]
 583:hardware/mcu/st/stm32wlxx_hal_driver/Src/stm32wlxx_hal_dma.c ****     {
 1021              		.loc 1 583 5 is_stmt 1 view .LVU386
 583:hardware/mcu/st/stm32wlxx_hal_driver/Src/stm32wlxx_hal_dma.c ****     {
 1022              		.loc 1 583 13 is_stmt 0 view .LVU387
 1023 0042 436D     		ldr	r3, [r0, #84]
 583:hardware/mcu/st/stm32wlxx_hal_driver/Src/stm32wlxx_hal_dma.c ****     {
 1024              		.loc 1 583 8 view .LVU388
 1025 0044 33B1     		cbz	r3, .L63
 587:hardware/mcu/st/stm32wlxx_hal_driver/Src/stm32wlxx_hal_dma.c **** 
 1026              		.loc 1 587 7 is_stmt 1 view .LVU389
 587:hardware/mcu/st/stm32wlxx_hal_driver/Src/stm32wlxx_hal_dma.c **** 
 1027              		.loc 1 587 36 is_stmt 0 view .LVU390
 1028 0046 1A68     		ldr	r2, [r3]
 1029 0048 22F48072 		bic	r2, r2, #256
 1030 004c 1A60     		str	r2, [r3]
 590:hardware/mcu/st/stm32wlxx_hal_driver/Src/stm32wlxx_hal_dma.c ****     }
 1031              		.loc 1 590 7 is_stmt 1 view .LVU391
 590:hardware/mcu/st/stm32wlxx_hal_driver/Src/stm32wlxx_hal_dma.c ****     }
 1032              		.loc 1 590 49 is_stmt 0 view .LVU392
 1033 004e D0E91632 		ldrd	r3, r2, [r0, #88]
 590:hardware/mcu/st/stm32wlxx_hal_driver/Src/stm32wlxx_hal_dma.c ****     }
 1034              		.loc 1 590 43 view .LVU393
 1035 0052 5A60     		str	r2, [r3, #4]
 1036              	.L63:
 594:hardware/mcu/st/stm32wlxx_hal_driver/Src/stm32wlxx_hal_dma.c **** 
 1037              		.loc 1 594 5 is_stmt 1 view .LVU394
 594:hardware/mcu/st/stm32wlxx_hal_driver/Src/stm32wlxx_hal_dma.c **** 
 1038              		.loc 1 594 17 is_stmt 0 view .LVU395
 1039 0054 0123     		movs	r3, #1
 1040 0056 80F82530 		strb	r3, [r0, #37]
 597:hardware/mcu/st/stm32wlxx_hal_driver/Src/stm32wlxx_hal_dma.c **** 
 1041              		.loc 1 597 5 is_stmt 1 view .LVU396
 597:hardware/mcu/st/stm32wlxx_hal_driver/Src/stm32wlxx_hal_dma.c **** 
 1042              		.loc 1 597 5 view .LVU397
 600:hardware/mcu/st/stm32wlxx_hal_driver/Src/stm32wlxx_hal_dma.c ****     {
 1043              		.loc 1 600 13 is_stmt 0 view .LVU398
 1044 005a 836B     		ldr	r3, [r0, #56]
 597:hardware/mcu/st/stm32wlxx_hal_driver/Src/stm32wlxx_hal_dma.c **** 
 1045              		.loc 1 597 5 view .LVU399
 1046 005c 0024     		movs	r4, #0
 1047 005e 80F82440 		strb	r4, [r0, #36]
 597:hardware/mcu/st/stm32wlxx_hal_driver/Src/stm32wlxx_hal_dma.c **** 
 1048              		.loc 1 597 5 is_stmt 1 view .LVU400
 600:hardware/mcu/st/stm32wlxx_hal_driver/Src/stm32wlxx_hal_dma.c ****     {
 1049              		.loc 1 600 5 view .LVU401
 600:hardware/mcu/st/stm32wlxx_hal_driver/Src/stm32wlxx_hal_dma.c ****     {
 1050              		.loc 1 600 8 is_stmt 0 view .LVU402
 1051 0062 13B1     		cbz	r3, .L64
 602:hardware/mcu/st/stm32wlxx_hal_driver/Src/stm32wlxx_hal_dma.c ****     }
 1052              		.loc 1 602 7 is_stmt 1 view .LVU403
 1053 0064 9847     		blx	r3
 1054              	.LVL52:
ARM GAS  /var/folders/b4/k4jbz0ms4wg23jtq0w6p483m0000gn/T//cc3EDpXC.s 			page 48


 557:hardware/mcu/st/stm32wlxx_hal_driver/Src/stm32wlxx_hal_dma.c **** 
 1055              		.loc 1 557 21 is_stmt 0 view .LVU404
 1056 0066 2046     		mov	r0, r4
 1057 0068 D2E7     		b	.L62
 1058              	.LVL53:
 1059              	.L64:
 557:hardware/mcu/st/stm32wlxx_hal_driver/Src/stm32wlxx_hal_dma.c **** 
 1060              		.loc 1 557 21 view .LVU405
 1061 006a 1846     		mov	r0, r3
 1062              	.LVL54:
 557:hardware/mcu/st/stm32wlxx_hal_driver/Src/stm32wlxx_hal_dma.c **** 
 1063              		.loc 1 557 21 view .LVU406
 1064 006c D0E7     		b	.L62
 1065              		.cfi_endproc
 1066              	.LFE726:
 1068              		.section	.text.HAL_DMA_PollForTransfer,"ax",%progbits
 1069              		.align	1
 1070              		.global	HAL_DMA_PollForTransfer
 1071              		.syntax unified
 1072              		.thumb
 1073              		.thumb_func
 1075              	HAL_DMA_PollForTransfer:
 1076              	.LVL55:
 1077              	.LFB727:
 617:hardware/mcu/st/stm32wlxx_hal_driver/Src/stm32wlxx_hal_dma.c ****   uint32_t temp;
 1078              		.loc 1 617 1 is_stmt 1 view -0
 1079              		.cfi_startproc
 1080              		@ args = 0, pretend = 0, frame = 0
 1081              		@ frame_needed = 0, uses_anonymous_args = 0
 618:hardware/mcu/st/stm32wlxx_hal_driver/Src/stm32wlxx_hal_dma.c ****   uint32_t tickstart;
 1082              		.loc 1 618 3 view .LVU408
 619:hardware/mcu/st/stm32wlxx_hal_driver/Src/stm32wlxx_hal_dma.c **** 
 1083              		.loc 1 619 3 view .LVU409
 621:hardware/mcu/st/stm32wlxx_hal_driver/Src/stm32wlxx_hal_dma.c ****   {
 1084              		.loc 1 621 3 view .LVU410
 617:hardware/mcu/st/stm32wlxx_hal_driver/Src/stm32wlxx_hal_dma.c ****   uint32_t temp;
 1085              		.loc 1 617 1 is_stmt 0 view .LVU411
 1086 0000 2DE9F843 		push	{r3, r4, r5, r6, r7, r8, r9, lr}
 1087              	.LCFI7:
 1088              		.cfi_def_cfa_offset 32
 1089              		.cfi_offset 3, -32
 1090              		.cfi_offset 4, -28
 1091              		.cfi_offset 5, -24
 1092              		.cfi_offset 6, -20
 1093              		.cfi_offset 7, -16
 1094              		.cfi_offset 8, -12
 1095              		.cfi_offset 9, -8
 1096              		.cfi_offset 14, -4
 621:hardware/mcu/st/stm32wlxx_hal_driver/Src/stm32wlxx_hal_dma.c ****   {
 1097              		.loc 1 621 11 view .LVU412
 1098 0004 90F82530 		ldrb	r3, [r0, #37]	@ zero_extendqisi2
 621:hardware/mcu/st/stm32wlxx_hal_driver/Src/stm32wlxx_hal_dma.c ****   {
 1099              		.loc 1 621 6 view .LVU413
 1100 0008 022B     		cmp	r3, #2
 617:hardware/mcu/st/stm32wlxx_hal_driver/Src/stm32wlxx_hal_dma.c ****   uint32_t temp;
 1101              		.loc 1 617 1 view .LVU414
 1102 000a 1746     		mov	r7, r2
ARM GAS  /var/folders/b4/k4jbz0ms4wg23jtq0w6p483m0000gn/T//cc3EDpXC.s 			page 49


 1103 000c 0446     		mov	r4, r0
 1104 000e 0D46     		mov	r5, r1
 621:hardware/mcu/st/stm32wlxx_hal_driver/Src/stm32wlxx_hal_dma.c ****   {
 1105              		.loc 1 621 11 view .LVU415
 1106 0010 DAB2     		uxtb	r2, r3
 1107              	.LVL56:
 621:hardware/mcu/st/stm32wlxx_hal_driver/Src/stm32wlxx_hal_dma.c ****   {
 1108              		.loc 1 621 6 view .LVU416
 1109 0012 08D0     		beq	.L69
 624:hardware/mcu/st/stm32wlxx_hal_driver/Src/stm32wlxx_hal_dma.c ****     __HAL_UNLOCK(hdma);
 1110              		.loc 1 624 5 is_stmt 1 view .LVU417
 624:hardware/mcu/st/stm32wlxx_hal_driver/Src/stm32wlxx_hal_dma.c ****     __HAL_UNLOCK(hdma);
 1111              		.loc 1 624 21 is_stmt 0 view .LVU418
 1112 0014 0423     		movs	r3, #4
 1113 0016 C363     		str	r3, [r0, #60]
 625:hardware/mcu/st/stm32wlxx_hal_driver/Src/stm32wlxx_hal_dma.c ****     return HAL_ERROR;
 1114              		.loc 1 625 5 is_stmt 1 view .LVU419
 625:hardware/mcu/st/stm32wlxx_hal_driver/Src/stm32wlxx_hal_dma.c ****     return HAL_ERROR;
 1115              		.loc 1 625 5 view .LVU420
 1116 0018 0023     		movs	r3, #0
 1117 001a 80F82430 		strb	r3, [r0, #36]
 625:hardware/mcu/st/stm32wlxx_hal_driver/Src/stm32wlxx_hal_dma.c ****     return HAL_ERROR;
 1118              		.loc 1 625 5 view .LVU421
 626:hardware/mcu/st/stm32wlxx_hal_driver/Src/stm32wlxx_hal_dma.c ****   }
 1119              		.loc 1 626 5 view .LVU422
 1120              	.LVL57:
 1121              	.L94:
 633:hardware/mcu/st/stm32wlxx_hal_driver/Src/stm32wlxx_hal_dma.c ****   }
 1122              		.loc 1 633 5 view .LVU423
 633:hardware/mcu/st/stm32wlxx_hal_driver/Src/stm32wlxx_hal_dma.c ****   }
 1123              		.loc 1 633 12 is_stmt 0 view .LVU424
 1124 001e 0125     		movs	r5, #1
 1125              	.LVL58:
 1126              	.L70:
 736:hardware/mcu/st/stm32wlxx_hal_driver/Src/stm32wlxx_hal_dma.c **** 
 1127              		.loc 1 736 1 view .LVU425
 1128 0020 2846     		mov	r0, r5
 1129 0022 BDE8F883 		pop	{r3, r4, r5, r6, r7, r8, r9, pc}
 1130              	.LVL59:
 1131              	.L69:
 630:hardware/mcu/st/stm32wlxx_hal_driver/Src/stm32wlxx_hal_dma.c ****   {
 1132              		.loc 1 630 3 is_stmt 1 view .LVU426
 630:hardware/mcu/st/stm32wlxx_hal_driver/Src/stm32wlxx_hal_dma.c ****   {
 1133              		.loc 1 630 12 is_stmt 0 view .LVU427
 1134 0026 0368     		ldr	r3, [r0]
 630:hardware/mcu/st/stm32wlxx_hal_driver/Src/stm32wlxx_hal_dma.c ****   {
 1135              		.loc 1 630 22 view .LVU428
 1136 0028 1B68     		ldr	r3, [r3]
 630:hardware/mcu/st/stm32wlxx_hal_driver/Src/stm32wlxx_hal_dma.c ****   {
 1137              		.loc 1 630 6 view .LVU429
 1138 002a 9906     		lsls	r1, r3, #26
 1139              	.LVL60:
 630:hardware/mcu/st/stm32wlxx_hal_driver/Src/stm32wlxx_hal_dma.c ****   {
 1140              		.loc 1 630 6 view .LVU430
 1141 002c 03D5     		bpl	.L71
 632:hardware/mcu/st/stm32wlxx_hal_driver/Src/stm32wlxx_hal_dma.c ****     return HAL_ERROR;
 1142              		.loc 1 632 5 is_stmt 1 view .LVU431
ARM GAS  /var/folders/b4/k4jbz0ms4wg23jtq0w6p483m0000gn/T//cc3EDpXC.s 			page 50


 632:hardware/mcu/st/stm32wlxx_hal_driver/Src/stm32wlxx_hal_dma.c ****     return HAL_ERROR;
 1143              		.loc 1 632 21 is_stmt 0 view .LVU432
 1144 002e 4FF48073 		mov	r3, #256
 1145 0032 C363     		str	r3, [r0, #60]
 1146 0034 F3E7     		b	.L94
 1147              	.L71:
 637:hardware/mcu/st/stm32wlxx_hal_driver/Src/stm32wlxx_hal_dma.c ****   {
 1148              		.loc 1 637 3 is_stmt 1 view .LVU433
 640:hardware/mcu/st/stm32wlxx_hal_driver/Src/stm32wlxx_hal_dma.c ****   }
 1149              		.loc 1 640 48 is_stmt 0 view .LVU434
 1150 0036 466C     		ldr	r6, [r0, #68]
 1151 0038 06F01C06 		and	r6, r6, #28
 637:hardware/mcu/st/stm32wlxx_hal_driver/Src/stm32wlxx_hal_dma.c ****   {
 1152              		.loc 1 637 6 view .LVU435
 1153 003c 002D     		cmp	r5, #0
 1154 003e 34D1     		bne	.L72
 640:hardware/mcu/st/stm32wlxx_hal_driver/Src/stm32wlxx_hal_dma.c ****   }
 1155              		.loc 1 640 5 is_stmt 1 view .LVU436
 640:hardware/mcu/st/stm32wlxx_hal_driver/Src/stm32wlxx_hal_dma.c ****   }
 1156              		.loc 1 640 10 is_stmt 0 view .LVU437
 1157 0040 02FA06F6 		lsl	r6, r2, r6
 1158              	.LVL61:
 1159              	.L73:
 649:hardware/mcu/st/stm32wlxx_hal_driver/Src/stm32wlxx_hal_dma.c **** 
 1160              		.loc 1 649 3 is_stmt 1 view .LVU438
 649:hardware/mcu/st/stm32wlxx_hal_driver/Src/stm32wlxx_hal_dma.c **** 
 1161              		.loc 1 649 15 is_stmt 0 view .LVU439
 1162 0044 FFF7FEFF 		bl	HAL_GetTick
 1163              	.LVL62:
 653:hardware/mcu/st/stm32wlxx_hal_driver/Src/stm32wlxx_hal_dma.c ****     {
 1164              		.loc 1 653 52 view .LVU440
 1165 0048 4FF00809 		mov	r9, #8
 649:hardware/mcu/st/stm32wlxx_hal_driver/Src/stm32wlxx_hal_dma.c **** 
 1166              		.loc 1 649 15 view .LVU441
 1167 004c 8046     		mov	r8, r0
 1168              	.LVL63:
 651:hardware/mcu/st/stm32wlxx_hal_driver/Src/stm32wlxx_hal_dma.c ****   {
 1169              		.loc 1 651 3 is_stmt 1 view .LVU442
 1170              	.L74:
 653:hardware/mcu/st/stm32wlxx_hal_driver/Src/stm32wlxx_hal_dma.c ****     {
 1171              		.loc 1 653 75 is_stmt 0 view .LVU443
 1172 004e D4E91013 		ldrd	r1, r3, [r4, #64]
 1173 0052 03F01C03 		and	r3, r3, #28
 653:hardware/mcu/st/stm32wlxx_hal_driver/Src/stm32wlxx_hal_dma.c ****     {
 1174              		.loc 1 653 52 view .LVU444
 1175 0056 09FA03F0 		lsl	r0, r9, r3
 1176              	.L76:
 651:hardware/mcu/st/stm32wlxx_hal_driver/Src/stm32wlxx_hal_dma.c ****   {
 1177              		.loc 1 651 9 is_stmt 1 view .LVU445
 651:hardware/mcu/st/stm32wlxx_hal_driver/Src/stm32wlxx_hal_dma.c ****   {
 1178              		.loc 1 651 31 is_stmt 0 view .LVU446
 1179 005a 0A68     		ldr	r2, [r1]
 651:hardware/mcu/st/stm32wlxx_hal_driver/Src/stm32wlxx_hal_dma.c ****   {
 1180              		.loc 1 651 9 view .LVU447
 1181 005c 3240     		ands	r2, r2, r6
 1182 005e 28D0     		beq	.L78
 691:hardware/mcu/st/stm32wlxx_hal_driver/Src/stm32wlxx_hal_dma.c ****   {
ARM GAS  /var/folders/b4/k4jbz0ms4wg23jtq0w6p483m0000gn/T//cc3EDpXC.s 			page 51


 1183              		.loc 1 691 3 is_stmt 1 view .LVU448
 691:hardware/mcu/st/stm32wlxx_hal_driver/Src/stm32wlxx_hal_dma.c ****   {
 1184              		.loc 1 691 11 is_stmt 0 view .LVU449
 1185 0060 626D     		ldr	r2, [r4, #84]
 691:hardware/mcu/st/stm32wlxx_hal_driver/Src/stm32wlxx_hal_dma.c ****   {
 1186              		.loc 1 691 6 view .LVU450
 1187 0062 6AB1     		cbz	r2, .L79
 694:hardware/mcu/st/stm32wlxx_hal_driver/Src/stm32wlxx_hal_dma.c ****     {
 1188              		.loc 1 694 5 is_stmt 1 view .LVU451
 694:hardware/mcu/st/stm32wlxx_hal_driver/Src/stm32wlxx_hal_dma.c ****     {
 1189              		.loc 1 694 14 is_stmt 0 view .LVU452
 1190 0064 A66D     		ldr	r6, [r4, #88]
 1191              	.LVL64:
 694:hardware/mcu/st/stm32wlxx_hal_driver/Src/stm32wlxx_hal_dma.c ****     {
 1192              		.loc 1 694 51 view .LVU453
 1193 0066 E76D     		ldr	r7, [r4, #92]
 1194              	.LVL65:
 694:hardware/mcu/st/stm32wlxx_hal_driver/Src/stm32wlxx_hal_dma.c ****     {
 1195              		.loc 1 694 38 view .LVU454
 1196 0068 3068     		ldr	r0, [r6]
 694:hardware/mcu/st/stm32wlxx_hal_driver/Src/stm32wlxx_hal_dma.c ****     {
 1197              		.loc 1 694 8 view .LVU455
 1198 006a 3842     		tst	r0, r7
 1199 006c 08D0     		beq	.L79
 697:hardware/mcu/st/stm32wlxx_hal_driver/Src/stm32wlxx_hal_dma.c **** 
 1200              		.loc 1 697 7 is_stmt 1 view .LVU456
 697:hardware/mcu/st/stm32wlxx_hal_driver/Src/stm32wlxx_hal_dma.c **** 
 1201              		.loc 1 697 36 is_stmt 0 view .LVU457
 1202 006e 1068     		ldr	r0, [r2]
 1203 0070 40F48070 		orr	r0, r0, #256
 1204 0074 1060     		str	r0, [r2]
 700:hardware/mcu/st/stm32wlxx_hal_driver/Src/stm32wlxx_hal_dma.c **** 
 1205              		.loc 1 700 7 is_stmt 1 view .LVU458
 700:hardware/mcu/st/stm32wlxx_hal_driver/Src/stm32wlxx_hal_dma.c **** 
 1206              		.loc 1 700 43 is_stmt 0 view .LVU459
 1207 0076 7760     		str	r7, [r6, #4]
 703:hardware/mcu/st/stm32wlxx_hal_driver/Src/stm32wlxx_hal_dma.c ****     }
 1208              		.loc 1 703 7 is_stmt 1 view .LVU460
 703:hardware/mcu/st/stm32wlxx_hal_driver/Src/stm32wlxx_hal_dma.c ****     }
 1209              		.loc 1 703 23 is_stmt 0 view .LVU461
 1210 0078 E26B     		ldr	r2, [r4, #60]
 1211 007a 42F48062 		orr	r2, r2, #1024
 1212 007e E263     		str	r2, [r4, #60]
 1213              	.L79:
 708:hardware/mcu/st/stm32wlxx_hal_driver/Src/stm32wlxx_hal_dma.c ****   {
 1214              		.loc 1 708 3 is_stmt 1 view .LVU462
 708:hardware/mcu/st/stm32wlxx_hal_driver/Src/stm32wlxx_hal_dma.c ****   {
 1215              		.loc 1 708 12 is_stmt 0 view .LVU463
 1216 0080 E26C     		ldr	r2, [r4, #76]
 708:hardware/mcu/st/stm32wlxx_hal_driver/Src/stm32wlxx_hal_dma.c ****   {
 1217              		.loc 1 708 45 view .LVU464
 1218 0082 206D     		ldr	r0, [r4, #80]
 708:hardware/mcu/st/stm32wlxx_hal_driver/Src/stm32wlxx_hal_dma.c ****   {
 1219              		.loc 1 708 33 view .LVU465
 1220 0084 1668     		ldr	r6, [r2]
 708:hardware/mcu/st/stm32wlxx_hal_driver/Src/stm32wlxx_hal_dma.c ****   {
 1221              		.loc 1 708 6 view .LVU466
ARM GAS  /var/folders/b4/k4jbz0ms4wg23jtq0w6p483m0000gn/T//cc3EDpXC.s 			page 52


 1222 0086 0642     		tst	r6, r0
 711:hardware/mcu/st/stm32wlxx_hal_driver/Src/stm32wlxx_hal_dma.c **** 
 1223              		.loc 1 711 5 is_stmt 1 view .LVU467
 711:hardware/mcu/st/stm32wlxx_hal_driver/Src/stm32wlxx_hal_dma.c **** 
 1224              		.loc 1 711 36 is_stmt 0 view .LVU468
 1225 0088 1FBF     		itttt	ne
 1226 008a 5060     		strne	r0, [r2, #4]
 714:hardware/mcu/st/stm32wlxx_hal_driver/Src/stm32wlxx_hal_dma.c ****   }
 1227              		.loc 1 714 5 is_stmt 1 view .LVU469
 714:hardware/mcu/st/stm32wlxx_hal_driver/Src/stm32wlxx_hal_dma.c ****   }
 1228              		.loc 1 714 21 is_stmt 0 view .LVU470
 1229 008c E26B     		ldrne	r2, [r4, #60]
 1230 008e 42F40072 		orrne	r2, r2, #512
 1231 0092 E263     		strne	r2, [r4, #60]
 717:hardware/mcu/st/stm32wlxx_hal_driver/Src/stm32wlxx_hal_dma.c ****   {
 1232              		.loc 1 717 3 is_stmt 1 view .LVU471
 717:hardware/mcu/st/stm32wlxx_hal_driver/Src/stm32wlxx_hal_dma.c ****   {
 1233              		.loc 1 717 6 is_stmt 0 view .LVU472
 1234 0094 7DBB     		cbnz	r5, .L81
 720:hardware/mcu/st/stm32wlxx_hal_driver/Src/stm32wlxx_hal_dma.c **** 
 1235              		.loc 1 720 5 is_stmt 1 view .LVU473
 720:hardware/mcu/st/stm32wlxx_hal_driver/Src/stm32wlxx_hal_dma.c **** 
 1236              		.loc 1 720 48 is_stmt 0 view .LVU474
 1237 0096 0222     		movs	r2, #2
 1238 0098 02FA03F3 		lsl	r3, r2, r3
 720:hardware/mcu/st/stm32wlxx_hal_driver/Src/stm32wlxx_hal_dma.c **** 
 1239              		.loc 1 720 32 view .LVU475
 1240 009c 4B60     		str	r3, [r1, #4]
 723:hardware/mcu/st/stm32wlxx_hal_driver/Src/stm32wlxx_hal_dma.c **** 
 1241              		.loc 1 723 5 is_stmt 1 view .LVU476
 723:hardware/mcu/st/stm32wlxx_hal_driver/Src/stm32wlxx_hal_dma.c **** 
 1242              		.loc 1 723 5 view .LVU477
 727:hardware/mcu/st/stm32wlxx_hal_driver/Src/stm32wlxx_hal_dma.c ****   }
 1243              		.loc 1 727 17 is_stmt 0 view .LVU478
 1244 009e 0123     		movs	r3, #1
 723:hardware/mcu/st/stm32wlxx_hal_driver/Src/stm32wlxx_hal_dma.c **** 
 1245              		.loc 1 723 5 view .LVU479
 1246 00a0 84F82450 		strb	r5, [r4, #36]
 723:hardware/mcu/st/stm32wlxx_hal_driver/Src/stm32wlxx_hal_dma.c **** 
 1247              		.loc 1 723 5 is_stmt 1 view .LVU480
 727:hardware/mcu/st/stm32wlxx_hal_driver/Src/stm32wlxx_hal_dma.c ****   }
 1248              		.loc 1 727 5 view .LVU481
 727:hardware/mcu/st/stm32wlxx_hal_driver/Src/stm32wlxx_hal_dma.c ****   }
 1249              		.loc 1 727 17 is_stmt 0 view .LVU482
 1250 00a4 84F82530 		strb	r3, [r4, #37]
 1251 00a8 BAE7     		b	.L70
 1252              	.LVL66:
 1253              	.L72:
 645:hardware/mcu/st/stm32wlxx_hal_driver/Src/stm32wlxx_hal_dma.c ****   }
 1254              		.loc 1 645 5 is_stmt 1 view .LVU483
 645:hardware/mcu/st/stm32wlxx_hal_driver/Src/stm32wlxx_hal_dma.c ****   }
 1255              		.loc 1 645 10 is_stmt 0 view .LVU484
 1256 00aa 0423     		movs	r3, #4
 1257 00ac 03FA06F6 		lsl	r6, r3, r6
 1258              	.LVL67:
 645:hardware/mcu/st/stm32wlxx_hal_driver/Src/stm32wlxx_hal_dma.c ****   }
 1259              		.loc 1 645 10 view .LVU485
ARM GAS  /var/folders/b4/k4jbz0ms4wg23jtq0w6p483m0000gn/T//cc3EDpXC.s 			page 53


 1260 00b0 C8E7     		b	.L73
 1261              	.LVL68:
 1262              	.L78:
 653:hardware/mcu/st/stm32wlxx_hal_driver/Src/stm32wlxx_hal_dma.c ****     {
 1263              		.loc 1 653 5 is_stmt 1 view .LVU486
 653:hardware/mcu/st/stm32wlxx_hal_driver/Src/stm32wlxx_hal_dma.c ****     {
 1264              		.loc 1 653 30 is_stmt 0 view .LVU487
 1265 00b2 D1F800C0 		ldr	ip, [r1]
 653:hardware/mcu/st/stm32wlxx_hal_driver/Src/stm32wlxx_hal_dma.c ****     {
 1266              		.loc 1 653 8 view .LVU488
 1267 00b6 1CEA000F 		tst	ip, r0
 1268 00ba 09D0     		beq	.L75
 658:hardware/mcu/st/stm32wlxx_hal_driver/Src/stm32wlxx_hal_dma.c **** 
 1269              		.loc 1 658 7 is_stmt 1 view .LVU489
 658:hardware/mcu/st/stm32wlxx_hal_driver/Src/stm32wlxx_hal_dma.c **** 
 1270              		.loc 1 658 50 is_stmt 0 view .LVU490
 1271 00bc 0125     		movs	r5, #1
 1272 00be 05FA03F3 		lsl	r3, r5, r3
 658:hardware/mcu/st/stm32wlxx_hal_driver/Src/stm32wlxx_hal_dma.c **** 
 1273              		.loc 1 658 34 view .LVU491
 1274 00c2 4B60     		str	r3, [r1, #4]
 661:hardware/mcu/st/stm32wlxx_hal_driver/Src/stm32wlxx_hal_dma.c **** 
 1275              		.loc 1 661 7 is_stmt 1 view .LVU492
 661:hardware/mcu/st/stm32wlxx_hal_driver/Src/stm32wlxx_hal_dma.c **** 
 1276              		.loc 1 661 23 is_stmt 0 view .LVU493
 1277 00c4 E563     		str	r5, [r4, #60]
 664:hardware/mcu/st/stm32wlxx_hal_driver/Src/stm32wlxx_hal_dma.c **** 
 1278              		.loc 1 664 7 is_stmt 1 view .LVU494
 667:hardware/mcu/st/stm32wlxx_hal_driver/Src/stm32wlxx_hal_dma.c **** 
 1279              		.loc 1 667 7 is_stmt 0 view .LVU495
 1280 00c6 84F82420 		strb	r2, [r4, #36]
 664:hardware/mcu/st/stm32wlxx_hal_driver/Src/stm32wlxx_hal_dma.c **** 
 1281              		.loc 1 664 19 view .LVU496
 1282 00ca 84F82550 		strb	r5, [r4, #37]
 667:hardware/mcu/st/stm32wlxx_hal_driver/Src/stm32wlxx_hal_dma.c **** 
 1283              		.loc 1 667 7 is_stmt 1 view .LVU497
 667:hardware/mcu/st/stm32wlxx_hal_driver/Src/stm32wlxx_hal_dma.c **** 
 1284              		.loc 1 667 7 view .LVU498
 667:hardware/mcu/st/stm32wlxx_hal_driver/Src/stm32wlxx_hal_dma.c **** 
 1285              		.loc 1 667 7 view .LVU499
 669:hardware/mcu/st/stm32wlxx_hal_driver/Src/stm32wlxx_hal_dma.c ****     }
 1286              		.loc 1 669 7 view .LVU500
 669:hardware/mcu/st/stm32wlxx_hal_driver/Src/stm32wlxx_hal_dma.c ****     }
 1287              		.loc 1 669 14 is_stmt 0 view .LVU501
 1288 00ce A7E7     		b	.L70
 1289              	.L75:
 672:hardware/mcu/st/stm32wlxx_hal_driver/Src/stm32wlxx_hal_dma.c ****     {
 1290              		.loc 1 672 5 is_stmt 1 view .LVU502
 672:hardware/mcu/st/stm32wlxx_hal_driver/Src/stm32wlxx_hal_dma.c ****     {
 1291              		.loc 1 672 8 is_stmt 0 view .LVU503
 1292 00d0 7A1C     		adds	r2, r7, #1
 1293 00d2 C2D0     		beq	.L76
 674:hardware/mcu/st/stm32wlxx_hal_driver/Src/stm32wlxx_hal_dma.c ****       {
 1294              		.loc 1 674 7 is_stmt 1 view .LVU504
 674:hardware/mcu/st/stm32wlxx_hal_driver/Src/stm32wlxx_hal_dma.c ****       {
 1295              		.loc 1 674 13 is_stmt 0 view .LVU505
 1296 00d4 FFF7FEFF 		bl	HAL_GetTick
ARM GAS  /var/folders/b4/k4jbz0ms4wg23jtq0w6p483m0000gn/T//cc3EDpXC.s 			page 54


 1297              	.LVL69:
 674:hardware/mcu/st/stm32wlxx_hal_driver/Src/stm32wlxx_hal_dma.c ****       {
 1298              		.loc 1 674 27 view .LVU506
 1299 00d8 A0EB0800 		sub	r0, r0, r8
 674:hardware/mcu/st/stm32wlxx_hal_driver/Src/stm32wlxx_hal_dma.c ****       {
 1300              		.loc 1 674 10 view .LVU507
 1301 00dc B842     		cmp	r0, r7
 1302 00de 01D8     		bhi	.L77
 674:hardware/mcu/st/stm32wlxx_hal_driver/Src/stm32wlxx_hal_dma.c ****       {
 1303              		.loc 1 674 51 discriminator 1 view .LVU508
 1304 00e0 002F     		cmp	r7, #0
 1305 00e2 B4D1     		bne	.L74
 1306              	.L77:
 677:hardware/mcu/st/stm32wlxx_hal_driver/Src/stm32wlxx_hal_dma.c **** 
 1307              		.loc 1 677 9 is_stmt 1 view .LVU509
 677:hardware/mcu/st/stm32wlxx_hal_driver/Src/stm32wlxx_hal_dma.c **** 
 1308              		.loc 1 677 25 is_stmt 0 view .LVU510
 1309 00e4 2023     		movs	r3, #32
 1310 00e6 E363     		str	r3, [r4, #60]
 680:hardware/mcu/st/stm32wlxx_hal_driver/Src/stm32wlxx_hal_dma.c **** 
 1311              		.loc 1 680 9 is_stmt 1 view .LVU511
 680:hardware/mcu/st/stm32wlxx_hal_driver/Src/stm32wlxx_hal_dma.c **** 
 1312              		.loc 1 680 21 is_stmt 0 view .LVU512
 1313 00e8 0125     		movs	r5, #1
 683:hardware/mcu/st/stm32wlxx_hal_driver/Src/stm32wlxx_hal_dma.c **** 
 1314              		.loc 1 683 9 view .LVU513
 1315 00ea 0023     		movs	r3, #0
 680:hardware/mcu/st/stm32wlxx_hal_driver/Src/stm32wlxx_hal_dma.c **** 
 1316              		.loc 1 680 21 view .LVU514
 1317 00ec 84F82550 		strb	r5, [r4, #37]
 683:hardware/mcu/st/stm32wlxx_hal_driver/Src/stm32wlxx_hal_dma.c **** 
 1318              		.loc 1 683 9 is_stmt 1 view .LVU515
 683:hardware/mcu/st/stm32wlxx_hal_driver/Src/stm32wlxx_hal_dma.c **** 
 1319              		.loc 1 683 9 view .LVU516
 1320 00f0 84F82430 		strb	r3, [r4, #36]
 683:hardware/mcu/st/stm32wlxx_hal_driver/Src/stm32wlxx_hal_dma.c **** 
 1321              		.loc 1 683 9 view .LVU517
 685:hardware/mcu/st/stm32wlxx_hal_driver/Src/stm32wlxx_hal_dma.c ****       }
 1322              		.loc 1 685 9 view .LVU518
 685:hardware/mcu/st/stm32wlxx_hal_driver/Src/stm32wlxx_hal_dma.c ****       }
 1323              		.loc 1 685 16 is_stmt 0 view .LVU519
 1324 00f4 94E7     		b	.L70
 1325              	.LVL70:
 1326              	.L81:
 732:hardware/mcu/st/stm32wlxx_hal_driver/Src/stm32wlxx_hal_dma.c ****   }
 1327              		.loc 1 732 5 is_stmt 1 view .LVU520
 732:hardware/mcu/st/stm32wlxx_hal_driver/Src/stm32wlxx_hal_dma.c ****   }
 1328              		.loc 1 732 48 is_stmt 0 view .LVU521
 1329 00f6 0422     		movs	r2, #4
 1330 00f8 02FA03F3 		lsl	r3, r2, r3
 732:hardware/mcu/st/stm32wlxx_hal_driver/Src/stm32wlxx_hal_dma.c ****   }
 1331              		.loc 1 732 32 view .LVU522
 1332 00fc 4B60     		str	r3, [r1, #4]
 735:hardware/mcu/st/stm32wlxx_hal_driver/Src/stm32wlxx_hal_dma.c **** }
 1333              		.loc 1 735 10 view .LVU523
 1334 00fe 0025     		movs	r5, #0
 1335 0100 8EE7     		b	.L70
ARM GAS  /var/folders/b4/k4jbz0ms4wg23jtq0w6p483m0000gn/T//cc3EDpXC.s 			page 55


 1336              		.cfi_endproc
 1337              	.LFE727:
 1339              		.section	.text.HAL_DMA_IRQHandler,"ax",%progbits
 1340              		.align	1
 1341              		.global	HAL_DMA_IRQHandler
 1342              		.syntax unified
 1343              		.thumb
 1344              		.thumb_func
 1346              	HAL_DMA_IRQHandler:
 1347              	.LVL71:
 1348              	.LFB728:
 745:hardware/mcu/st/stm32wlxx_hal_driver/Src/stm32wlxx_hal_dma.c ****   uint32_t flag_it = hdma->DmaBaseAddress->ISR;
 1349              		.loc 1 745 1 is_stmt 1 view -0
 1350              		.cfi_startproc
 1351              		@ args = 0, pretend = 0, frame = 0
 1352              		@ frame_needed = 0, uses_anonymous_args = 0
 1353              		@ link register save eliminated.
 746:hardware/mcu/st/stm32wlxx_hal_driver/Src/stm32wlxx_hal_dma.c ****   uint32_t source_it = hdma->Instance->CCR;
 1354              		.loc 1 746 3 view .LVU525
 745:hardware/mcu/st/stm32wlxx_hal_driver/Src/stm32wlxx_hal_dma.c ****   uint32_t flag_it = hdma->DmaBaseAddress->ISR;
 1355              		.loc 1 745 1 is_stmt 0 view .LVU526
 1356 0000 70B4     		push	{r4, r5, r6}
 1357              	.LCFI8:
 1358              		.cfi_def_cfa_offset 12
 1359              		.cfi_offset 4, -12
 1360              		.cfi_offset 5, -8
 1361              		.cfi_offset 6, -4
 750:hardware/mcu/st/stm32wlxx_hal_driver/Src/stm32wlxx_hal_dma.c ****   {
 1362              		.loc 1 750 56 view .LVU527
 1363 0002 426C     		ldr	r2, [r0, #68]
 746:hardware/mcu/st/stm32wlxx_hal_driver/Src/stm32wlxx_hal_dma.c ****   uint32_t source_it = hdma->Instance->CCR;
 1364              		.loc 1 746 26 view .LVU528
 1365 0004 046C     		ldr	r4, [r0, #64]
 747:hardware/mcu/st/stm32wlxx_hal_driver/Src/stm32wlxx_hal_dma.c **** 
 1366              		.loc 1 747 28 view .LVU529
 1367 0006 0368     		ldr	r3, [r0]
 746:hardware/mcu/st/stm32wlxx_hal_driver/Src/stm32wlxx_hal_dma.c ****   uint32_t source_it = hdma->Instance->CCR;
 1368              		.loc 1 746 12 view .LVU530
 1369 0008 2668     		ldr	r6, [r4]
 1370              	.LVL72:
 747:hardware/mcu/st/stm32wlxx_hal_driver/Src/stm32wlxx_hal_dma.c **** 
 1371              		.loc 1 747 3 is_stmt 1 view .LVU531
 747:hardware/mcu/st/stm32wlxx_hal_driver/Src/stm32wlxx_hal_dma.c **** 
 1372              		.loc 1 747 12 is_stmt 0 view .LVU532
 1373 000a 1D68     		ldr	r5, [r3]
 1374              	.LVL73:
 750:hardware/mcu/st/stm32wlxx_hal_driver/Src/stm32wlxx_hal_dma.c ****   {
 1375              		.loc 1 750 3 is_stmt 1 view .LVU533
 750:hardware/mcu/st/stm32wlxx_hal_driver/Src/stm32wlxx_hal_dma.c ****   {
 1376              		.loc 1 750 56 is_stmt 0 view .LVU534
 1377 000c 02F01C02 		and	r2, r2, #28
 750:hardware/mcu/st/stm32wlxx_hal_driver/Src/stm32wlxx_hal_dma.c ****   {
 1378              		.loc 1 750 33 view .LVU535
 1379 0010 0421     		movs	r1, #4
 1380 0012 9140     		lsls	r1, r1, r2
 750:hardware/mcu/st/stm32wlxx_hal_driver/Src/stm32wlxx_hal_dma.c ****   {
 1381              		.loc 1 750 6 view .LVU536
ARM GAS  /var/folders/b4/k4jbz0ms4wg23jtq0w6p483m0000gn/T//cc3EDpXC.s 			page 56


 1382 0014 3142     		tst	r1, r6
 1383 0016 0FD0     		beq	.L96
 750:hardware/mcu/st/stm32wlxx_hal_driver/Src/stm32wlxx_hal_dma.c ****   {
 1384              		.loc 1 750 74 discriminator 1 view .LVU537
 1385 0018 15F0040F 		tst	r5, #4
 1386 001c 0CD0     		beq	.L96
 753:hardware/mcu/st/stm32wlxx_hal_driver/Src/stm32wlxx_hal_dma.c ****       {
 1387              		.loc 1 753 7 is_stmt 1 view .LVU538
 753:hardware/mcu/st/stm32wlxx_hal_driver/Src/stm32wlxx_hal_dma.c ****       {
 1388              		.loc 1 753 26 is_stmt 0 view .LVU539
 1389 001e 1A68     		ldr	r2, [r3]
 753:hardware/mcu/st/stm32wlxx_hal_driver/Src/stm32wlxx_hal_dma.c ****       {
 1390              		.loc 1 753 10 view .LVU540
 1391 0020 9206     		lsls	r2, r2, #26
 756:hardware/mcu/st/stm32wlxx_hal_driver/Src/stm32wlxx_hal_dma.c ****       }
 1392              		.loc 1 756 9 is_stmt 1 view .LVU541
 1393 0022 5EBF     		ittt	pl
 1394 0024 1A68     		ldrpl	r2, [r3]
 1395 0026 22F00402 		bicpl	r2, r2, #4
 1396 002a 1A60     		strpl	r2, [r3]
 759:hardware/mcu/st/stm32wlxx_hal_driver/Src/stm32wlxx_hal_dma.c **** 
 1397              		.loc 1 759 7 view .LVU542
 764:hardware/mcu/st/stm32wlxx_hal_driver/Src/stm32wlxx_hal_dma.c ****       {
 1398              		.loc 1 764 15 is_stmt 0 view .LVU543
 1399 002c 036B     		ldr	r3, [r0, #48]
 759:hardware/mcu/st/stm32wlxx_hal_driver/Src/stm32wlxx_hal_dma.c **** 
 1400              		.loc 1 759 34 view .LVU544
 1401 002e 6160     		str	r1, [r4, #4]
 764:hardware/mcu/st/stm32wlxx_hal_driver/Src/stm32wlxx_hal_dma.c ****       {
 1402              		.loc 1 764 7 is_stmt 1 view .LVU545
 1403              	.L132:
 815:hardware/mcu/st/stm32wlxx_hal_driver/Src/stm32wlxx_hal_dma.c ****     {
 1404              		.loc 1 815 8 is_stmt 0 view .LVU546
 1405 0030 002B     		cmp	r3, #0
 1406 0032 33D0     		beq	.L95
 818:hardware/mcu/st/stm32wlxx_hal_driver/Src/stm32wlxx_hal_dma.c ****     }
 1407              		.loc 1 818 7 is_stmt 1 view .LVU547
 826:hardware/mcu/st/stm32wlxx_hal_driver/Src/stm32wlxx_hal_dma.c **** 
 1408              		.loc 1 826 1 is_stmt 0 view .LVU548
 1409 0034 70BC     		pop	{r4, r5, r6}
 1410              	.LCFI9:
 1411              		.cfi_remember_state
 1412              		.cfi_restore 6
 1413              		.cfi_restore 5
 1414              		.cfi_restore 4
 1415              		.cfi_def_cfa_offset 0
 1416              	.LVL74:
 818:hardware/mcu/st/stm32wlxx_hal_driver/Src/stm32wlxx_hal_dma.c ****     }
 1417              		.loc 1 818 7 view .LVU549
 1418 0036 1847     		bx	r3	@ indirect register sibling call
 1419              	.LVL75:
 1420              	.L96:
 1421              	.LCFI10:
 1422              		.cfi_restore_state
 772:hardware/mcu/st/stm32wlxx_hal_driver/Src/stm32wlxx_hal_dma.c ****   {
 1423              		.loc 1 772 8 is_stmt 1 view .LVU550
 772:hardware/mcu/st/stm32wlxx_hal_driver/Src/stm32wlxx_hal_dma.c ****   {
ARM GAS  /var/folders/b4/k4jbz0ms4wg23jtq0w6p483m0000gn/T//cc3EDpXC.s 			page 57


 1424              		.loc 1 772 44 is_stmt 0 view .LVU551
 1425 0038 0221     		movs	r1, #2
 1426 003a 9140     		lsls	r1, r1, r2
 772:hardware/mcu/st/stm32wlxx_hal_driver/Src/stm32wlxx_hal_dma.c ****   {
 1427              		.loc 1 772 11 view .LVU552
 1428 003c 3142     		tst	r1, r6
 1429 003e 17D0     		beq	.L100
 772:hardware/mcu/st/stm32wlxx_hal_driver/Src/stm32wlxx_hal_dma.c ****   {
 1430              		.loc 1 772 79 discriminator 1 view .LVU553
 1431 0040 15F0020F 		tst	r5, #2
 1432 0044 14D0     		beq	.L100
 774:hardware/mcu/st/stm32wlxx_hal_driver/Src/stm32wlxx_hal_dma.c ****       {
 1433              		.loc 1 774 7 is_stmt 1 view .LVU554
 774:hardware/mcu/st/stm32wlxx_hal_driver/Src/stm32wlxx_hal_dma.c ****       {
 1434              		.loc 1 774 26 is_stmt 0 view .LVU555
 1435 0046 1A68     		ldr	r2, [r3]
 774:hardware/mcu/st/stm32wlxx_hal_driver/Src/stm32wlxx_hal_dma.c ****       {
 1436              		.loc 1 774 10 view .LVU556
 1437 0048 9406     		lsls	r4, r2, #26
 1438 004a 06D4     		bmi	.L101
 777:hardware/mcu/st/stm32wlxx_hal_driver/Src/stm32wlxx_hal_dma.c **** 
 1439              		.loc 1 777 9 is_stmt 1 view .LVU557
 1440 004c 1A68     		ldr	r2, [r3]
 1441 004e 22F00A02 		bic	r2, r2, #10
 1442 0052 1A60     		str	r2, [r3]
 780:hardware/mcu/st/stm32wlxx_hal_driver/Src/stm32wlxx_hal_dma.c ****       }
 1443              		.loc 1 780 9 view .LVU558
 780:hardware/mcu/st/stm32wlxx_hal_driver/Src/stm32wlxx_hal_dma.c ****       }
 1444              		.loc 1 780 21 is_stmt 0 view .LVU559
 1445 0054 0122     		movs	r2, #1
 1446 0056 80F82520 		strb	r2, [r0, #37]
 1447              	.L101:
 783:hardware/mcu/st/stm32wlxx_hal_driver/Src/stm32wlxx_hal_dma.c **** 
 1448              		.loc 1 783 7 is_stmt 1 view .LVU560
 1449 005a 114A     		ldr	r2, .L134
 1450 005c 9342     		cmp	r3, r2
 1451 005e 8CBF     		ite	hi
 1452 0060 104B     		ldrhi	r3, .L134+4
 1453 0062 114B     		ldrls	r3, .L134+8
 1454 0064 5960     		str	r1, [r3, #4]
 786:hardware/mcu/st/stm32wlxx_hal_driver/Src/stm32wlxx_hal_dma.c **** 
 1455              		.loc 1 786 7 view .LVU561
 786:hardware/mcu/st/stm32wlxx_hal_driver/Src/stm32wlxx_hal_dma.c **** 
 1456              		.loc 1 786 7 view .LVU562
 1457 0066 0023     		movs	r3, #0
 1458 0068 80F82430 		strb	r3, [r0, #36]
 786:hardware/mcu/st/stm32wlxx_hal_driver/Src/stm32wlxx_hal_dma.c **** 
 1459              		.loc 1 786 7 view .LVU563
 788:hardware/mcu/st/stm32wlxx_hal_driver/Src/stm32wlxx_hal_dma.c ****       {
 1460              		.loc 1 788 7 view .LVU564
 788:hardware/mcu/st/stm32wlxx_hal_driver/Src/stm32wlxx_hal_dma.c ****       {
 1461              		.loc 1 788 15 is_stmt 0 view .LVU565
 1462 006c C36A     		ldr	r3, [r0, #44]
 1463 006e DFE7     		b	.L132
 1464              	.L100:
 796:hardware/mcu/st/stm32wlxx_hal_driver/Src/stm32wlxx_hal_dma.c ****   {
 1465              		.loc 1 796 8 is_stmt 1 view .LVU566
ARM GAS  /var/folders/b4/k4jbz0ms4wg23jtq0w6p483m0000gn/T//cc3EDpXC.s 			page 58


 796:hardware/mcu/st/stm32wlxx_hal_driver/Src/stm32wlxx_hal_dma.c ****   {
 1466              		.loc 1 796 38 is_stmt 0 view .LVU567
 1467 0070 0821     		movs	r1, #8
 1468 0072 9140     		lsls	r1, r1, r2
 796:hardware/mcu/st/stm32wlxx_hal_driver/Src/stm32wlxx_hal_dma.c ****   {
 1469              		.loc 1 796 11 view .LVU568
 1470 0074 3142     		tst	r1, r6
 1471 0076 11D0     		beq	.L95
 796:hardware/mcu/st/stm32wlxx_hal_driver/Src/stm32wlxx_hal_dma.c ****   {
 1472              		.loc 1 796 79 discriminator 1 view .LVU569
 1473 0078 2907     		lsls	r1, r5, #28
 1474 007a 0FD5     		bpl	.L95
 801:hardware/mcu/st/stm32wlxx_hal_driver/Src/stm32wlxx_hal_dma.c **** 
 1475              		.loc 1 801 5 is_stmt 1 view .LVU570
 1476 007c 1968     		ldr	r1, [r3]
 1477 007e 21F00E01 		bic	r1, r1, #14
 1478 0082 1960     		str	r1, [r3]
 804:hardware/mcu/st/stm32wlxx_hal_driver/Src/stm32wlxx_hal_dma.c **** 
 1479              		.loc 1 804 5 view .LVU571
 804:hardware/mcu/st/stm32wlxx_hal_driver/Src/stm32wlxx_hal_dma.c **** 
 1480              		.loc 1 804 48 is_stmt 0 view .LVU572
 1481 0084 0123     		movs	r3, #1
 1482 0086 03FA02F2 		lsl	r2, r3, r2
 804:hardware/mcu/st/stm32wlxx_hal_driver/Src/stm32wlxx_hal_dma.c **** 
 1483              		.loc 1 804 32 view .LVU573
 1484 008a 6260     		str	r2, [r4, #4]
 807:hardware/mcu/st/stm32wlxx_hal_driver/Src/stm32wlxx_hal_dma.c **** 
 1485              		.loc 1 807 5 is_stmt 1 view .LVU574
 807:hardware/mcu/st/stm32wlxx_hal_driver/Src/stm32wlxx_hal_dma.c **** 
 1486              		.loc 1 807 21 is_stmt 0 view .LVU575
 1487 008c C363     		str	r3, [r0, #60]
 810:hardware/mcu/st/stm32wlxx_hal_driver/Src/stm32wlxx_hal_dma.c **** 
 1488              		.loc 1 810 5 is_stmt 1 view .LVU576
 810:hardware/mcu/st/stm32wlxx_hal_driver/Src/stm32wlxx_hal_dma.c **** 
 1489              		.loc 1 810 17 is_stmt 0 view .LVU577
 1490 008e 80F82530 		strb	r3, [r0, #37]
 813:hardware/mcu/st/stm32wlxx_hal_driver/Src/stm32wlxx_hal_dma.c **** 
 1491              		.loc 1 813 5 is_stmt 1 view .LVU578
 813:hardware/mcu/st/stm32wlxx_hal_driver/Src/stm32wlxx_hal_dma.c **** 
 1492              		.loc 1 813 5 view .LVU579
 1493 0092 0023     		movs	r3, #0
 1494 0094 80F82430 		strb	r3, [r0, #36]
 813:hardware/mcu/st/stm32wlxx_hal_driver/Src/stm32wlxx_hal_dma.c **** 
 1495              		.loc 1 813 5 view .LVU580
 815:hardware/mcu/st/stm32wlxx_hal_driver/Src/stm32wlxx_hal_dma.c ****     {
 1496              		.loc 1 815 5 view .LVU581
 815:hardware/mcu/st/stm32wlxx_hal_driver/Src/stm32wlxx_hal_dma.c ****     {
 1497              		.loc 1 815 13 is_stmt 0 view .LVU582
 1498 0098 436B     		ldr	r3, [r0, #52]
 1499 009a C9E7     		b	.L132
 1500              	.L95:
 826:hardware/mcu/st/stm32wlxx_hal_driver/Src/stm32wlxx_hal_dma.c **** 
 1501              		.loc 1 826 1 view .LVU583
 1502 009c 70BC     		pop	{r4, r5, r6}
 1503              	.LCFI11:
 1504              		.cfi_restore 6
 1505              		.cfi_restore 5
ARM GAS  /var/folders/b4/k4jbz0ms4wg23jtq0w6p483m0000gn/T//cc3EDpXC.s 			page 59


 1506              		.cfi_restore 4
 1507              		.cfi_def_cfa_offset 0
 1508              	.LVL76:
 826:hardware/mcu/st/stm32wlxx_hal_driver/Src/stm32wlxx_hal_dma.c **** 
 1509              		.loc 1 826 1 view .LVU584
 1510 009e 7047     		bx	lr
 1511              	.L135:
 1512              		.align	2
 1513              	.L134:
 1514 00a0 80000240 		.word	1073873024
 1515 00a4 00040240 		.word	1073873920
 1516 00a8 00000240 		.word	1073872896
 1517              		.cfi_endproc
 1518              	.LFE728:
 1520              		.section	.text.HAL_DMA_RegisterCallback,"ax",%progbits
 1521              		.align	1
 1522              		.global	HAL_DMA_RegisterCallback
 1523              		.syntax unified
 1524              		.thumb
 1525              		.thumb_func
 1527              	HAL_DMA_RegisterCallback:
 1528              	.LVL77:
 1529              	.LFB729:
 839:hardware/mcu/st/stm32wlxx_hal_driver/Src/stm32wlxx_hal_dma.c ****   HAL_StatusTypeDef status = HAL_OK;
 1530              		.loc 1 839 1 is_stmt 1 view -0
 1531              		.cfi_startproc
 1532              		@ args = 0, pretend = 0, frame = 0
 1533              		@ frame_needed = 0, uses_anonymous_args = 0
 840:hardware/mcu/st/stm32wlxx_hal_driver/Src/stm32wlxx_hal_dma.c **** 
 1534              		.loc 1 840 3 view .LVU586
 843:hardware/mcu/st/stm32wlxx_hal_driver/Src/stm32wlxx_hal_dma.c **** 
 1535              		.loc 1 843 3 view .LVU587
 843:hardware/mcu/st/stm32wlxx_hal_driver/Src/stm32wlxx_hal_dma.c **** 
 1536              		.loc 1 843 3 view .LVU588
 839:hardware/mcu/st/stm32wlxx_hal_driver/Src/stm32wlxx_hal_dma.c ****   HAL_StatusTypeDef status = HAL_OK;
 1537              		.loc 1 839 1 is_stmt 0 view .LVU589
 1538 0000 10B5     		push	{r4, lr}
 1539              	.LCFI12:
 1540              		.cfi_def_cfa_offset 8
 1541              		.cfi_offset 4, -8
 1542              		.cfi_offset 14, -4
 839:hardware/mcu/st/stm32wlxx_hal_driver/Src/stm32wlxx_hal_dma.c ****   HAL_StatusTypeDef status = HAL_OK;
 1543              		.loc 1 839 1 view .LVU590
 1544 0002 0346     		mov	r3, r0
 843:hardware/mcu/st/stm32wlxx_hal_driver/Src/stm32wlxx_hal_dma.c **** 
 1545              		.loc 1 843 3 view .LVU591
 1546 0004 90F82400 		ldrb	r0, [r0, #36]	@ zero_extendqisi2
 1547              	.LVL78:
 843:hardware/mcu/st/stm32wlxx_hal_driver/Src/stm32wlxx_hal_dma.c **** 
 1548              		.loc 1 843 3 view .LVU592
 1549 0008 0128     		cmp	r0, #1
 1550 000a 19D0     		beq	.L144
 843:hardware/mcu/st/stm32wlxx_hal_driver/Src/stm32wlxx_hal_dma.c **** 
 1551              		.loc 1 843 3 is_stmt 1 discriminator 2 view .LVU593
 843:hardware/mcu/st/stm32wlxx_hal_driver/Src/stm32wlxx_hal_dma.c **** 
 1552              		.loc 1 843 3 discriminator 2 view .LVU594
 845:hardware/mcu/st/stm32wlxx_hal_driver/Src/stm32wlxx_hal_dma.c ****   {
ARM GAS  /var/folders/b4/k4jbz0ms4wg23jtq0w6p483m0000gn/T//cc3EDpXC.s 			page 60


 1553              		.loc 1 845 3 discriminator 2 view .LVU595
 845:hardware/mcu/st/stm32wlxx_hal_driver/Src/stm32wlxx_hal_dma.c ****   {
 1554              		.loc 1 845 11 is_stmt 0 discriminator 2 view .LVU596
 1555 000c 93F82540 		ldrb	r4, [r3, #37]	@ zero_extendqisi2
 845:hardware/mcu/st/stm32wlxx_hal_driver/Src/stm32wlxx_hal_dma.c ****   {
 1556              		.loc 1 845 6 discriminator 2 view .LVU597
 1557 0010 012C     		cmp	r4, #1
 845:hardware/mcu/st/stm32wlxx_hal_driver/Src/stm32wlxx_hal_dma.c ****   {
 1558              		.loc 1 845 11 discriminator 2 view .LVU598
 1559 0012 E0B2     		uxtb	r0, r4
 845:hardware/mcu/st/stm32wlxx_hal_driver/Src/stm32wlxx_hal_dma.c ****   {
 1560              		.loc 1 845 6 discriminator 2 view .LVU599
 1561 0014 12D1     		bne	.L145
 847:hardware/mcu/st/stm32wlxx_hal_driver/Src/stm32wlxx_hal_dma.c ****     {
 1562              		.loc 1 847 5 is_stmt 1 view .LVU600
 1563 0016 0329     		cmp	r1, #3
 1564 0018 05D8     		bhi	.L138
 1565 001a DFE801F0 		tbb	[pc, r1]
 1566              	.L140:
 1567 001e 02       		.byte	(.L143-.L140)/2
 1568 001f 08       		.byte	(.L142-.L140)/2
 1569 0020 0B       		.byte	(.L141-.L140)/2
 1570 0021 0D       		.byte	(.L139-.L140)/2
 1571              		.p2align 1
 1572              	.L143:
 850:hardware/mcu/st/stm32wlxx_hal_driver/Src/stm32wlxx_hal_dma.c ****         break;
 1573              		.loc 1 850 9 view .LVU601
 850:hardware/mcu/st/stm32wlxx_hal_driver/Src/stm32wlxx_hal_dma.c ****         break;
 1574              		.loc 1 850 32 is_stmt 0 view .LVU602
 1575 0022 DA62     		str	r2, [r3, #44]
 851:hardware/mcu/st/stm32wlxx_hal_driver/Src/stm32wlxx_hal_dma.c **** 
 1576              		.loc 1 851 9 is_stmt 1 view .LVU603
 840:hardware/mcu/st/stm32wlxx_hal_driver/Src/stm32wlxx_hal_dma.c **** 
 1577              		.loc 1 840 21 is_stmt 0 view .LVU604
 1578 0024 0846     		mov	r0, r1
 1579              	.L138:
 1580              	.LVL79:
 876:hardware/mcu/st/stm32wlxx_hal_driver/Src/stm32wlxx_hal_dma.c **** 
 1581              		.loc 1 876 3 is_stmt 1 view .LVU605
 876:hardware/mcu/st/stm32wlxx_hal_driver/Src/stm32wlxx_hal_dma.c **** 
 1582              		.loc 1 876 3 view .LVU606
 1583 0026 0022     		movs	r2, #0
 1584              	.LVL80:
 876:hardware/mcu/st/stm32wlxx_hal_driver/Src/stm32wlxx_hal_dma.c **** 
 1585              		.loc 1 876 3 is_stmt 0 view .LVU607
 1586 0028 83F82420 		strb	r2, [r3, #36]
 876:hardware/mcu/st/stm32wlxx_hal_driver/Src/stm32wlxx_hal_dma.c **** 
 1587              		.loc 1 876 3 is_stmt 1 view .LVU608
 878:hardware/mcu/st/stm32wlxx_hal_driver/Src/stm32wlxx_hal_dma.c **** }
 1588              		.loc 1 878 3 view .LVU609
 1589              	.LVL81:
 1590              	.L137:
 879:hardware/mcu/st/stm32wlxx_hal_driver/Src/stm32wlxx_hal_dma.c **** 
 1591              		.loc 1 879 1 is_stmt 0 view .LVU610
 1592 002c 10BD     		pop	{r4, pc}
 1593              	.LVL82:
 1594              	.L142:
ARM GAS  /var/folders/b4/k4jbz0ms4wg23jtq0w6p483m0000gn/T//cc3EDpXC.s 			page 61


 854:hardware/mcu/st/stm32wlxx_hal_driver/Src/stm32wlxx_hal_dma.c ****         break;
 1595              		.loc 1 854 9 is_stmt 1 view .LVU611
 854:hardware/mcu/st/stm32wlxx_hal_driver/Src/stm32wlxx_hal_dma.c ****         break;
 1596              		.loc 1 854 36 is_stmt 0 view .LVU612
 1597 002e 1A63     		str	r2, [r3, #48]
 855:hardware/mcu/st/stm32wlxx_hal_driver/Src/stm32wlxx_hal_dma.c **** 
 1598              		.loc 1 855 9 is_stmt 1 view .LVU613
 1599              	.L146:
 859:hardware/mcu/st/stm32wlxx_hal_driver/Src/stm32wlxx_hal_dma.c **** 
 1600              		.loc 1 859 9 view .LVU614
 840:hardware/mcu/st/stm32wlxx_hal_driver/Src/stm32wlxx_hal_dma.c **** 
 1601              		.loc 1 840 21 is_stmt 0 view .LVU615
 1602 0030 0020     		movs	r0, #0
 859:hardware/mcu/st/stm32wlxx_hal_driver/Src/stm32wlxx_hal_dma.c **** 
 1603              		.loc 1 859 9 view .LVU616
 1604 0032 F8E7     		b	.L138
 1605              	.L141:
 858:hardware/mcu/st/stm32wlxx_hal_driver/Src/stm32wlxx_hal_dma.c ****         break;
 1606              		.loc 1 858 9 is_stmt 1 view .LVU617
 858:hardware/mcu/st/stm32wlxx_hal_driver/Src/stm32wlxx_hal_dma.c ****         break;
 1607              		.loc 1 858 33 is_stmt 0 view .LVU618
 1608 0034 5A63     		str	r2, [r3, #52]
 1609 0036 FBE7     		b	.L146
 1610              	.L139:
 862:hardware/mcu/st/stm32wlxx_hal_driver/Src/stm32wlxx_hal_dma.c ****         break;
 1611              		.loc 1 862 9 is_stmt 1 view .LVU619
 862:hardware/mcu/st/stm32wlxx_hal_driver/Src/stm32wlxx_hal_dma.c ****         break;
 1612              		.loc 1 862 33 is_stmt 0 view .LVU620
 1613 0038 9A63     		str	r2, [r3, #56]
 863:hardware/mcu/st/stm32wlxx_hal_driver/Src/stm32wlxx_hal_dma.c **** 
 1614              		.loc 1 863 9 is_stmt 1 view .LVU621
 1615 003a F9E7     		b	.L146
 1616              	.L145:
 872:hardware/mcu/st/stm32wlxx_hal_driver/Src/stm32wlxx_hal_dma.c ****   }
 1617              		.loc 1 872 12 is_stmt 0 view .LVU622
 1618 003c 0120     		movs	r0, #1
 1619 003e F2E7     		b	.L138
 1620              	.L144:
 843:hardware/mcu/st/stm32wlxx_hal_driver/Src/stm32wlxx_hal_dma.c **** 
 1621              		.loc 1 843 3 view .LVU623
 1622 0040 0220     		movs	r0, #2
 1623 0042 F3E7     		b	.L137
 1624              		.cfi_endproc
 1625              	.LFE729:
 1627              		.section	.text.HAL_DMA_UnRegisterCallback,"ax",%progbits
 1628              		.align	1
 1629              		.global	HAL_DMA_UnRegisterCallback
 1630              		.syntax unified
 1631              		.thumb
 1632              		.thumb_func
 1634              	HAL_DMA_UnRegisterCallback:
 1635              	.LVL83:
 1636              	.LFB730:
 890:hardware/mcu/st/stm32wlxx_hal_driver/Src/stm32wlxx_hal_dma.c ****   HAL_StatusTypeDef status = HAL_OK;
 1637              		.loc 1 890 1 is_stmt 1 view -0
 1638              		.cfi_startproc
 1639              		@ args = 0, pretend = 0, frame = 0
ARM GAS  /var/folders/b4/k4jbz0ms4wg23jtq0w6p483m0000gn/T//cc3EDpXC.s 			page 62


 1640              		@ frame_needed = 0, uses_anonymous_args = 0
 891:hardware/mcu/st/stm32wlxx_hal_driver/Src/stm32wlxx_hal_dma.c **** 
 1641              		.loc 1 891 3 view .LVU625
 894:hardware/mcu/st/stm32wlxx_hal_driver/Src/stm32wlxx_hal_dma.c **** 
 1642              		.loc 1 894 3 view .LVU626
 894:hardware/mcu/st/stm32wlxx_hal_driver/Src/stm32wlxx_hal_dma.c **** 
 1643              		.loc 1 894 3 view .LVU627
 890:hardware/mcu/st/stm32wlxx_hal_driver/Src/stm32wlxx_hal_dma.c ****   HAL_StatusTypeDef status = HAL_OK;
 1644              		.loc 1 890 1 is_stmt 0 view .LVU628
 1645 0000 10B5     		push	{r4, lr}
 1646              	.LCFI13:
 1647              		.cfi_def_cfa_offset 8
 1648              		.cfi_offset 4, -8
 1649              		.cfi_offset 14, -4
 894:hardware/mcu/st/stm32wlxx_hal_driver/Src/stm32wlxx_hal_dma.c **** 
 1650              		.loc 1 894 3 view .LVU629
 1651 0002 90F82420 		ldrb	r2, [r0, #36]	@ zero_extendqisi2
 1652 0006 012A     		cmp	r2, #1
 890:hardware/mcu/st/stm32wlxx_hal_driver/Src/stm32wlxx_hal_dma.c ****   HAL_StatusTypeDef status = HAL_OK;
 1653              		.loc 1 890 1 view .LVU630
 1654 0008 0346     		mov	r3, r0
 894:hardware/mcu/st/stm32wlxx_hal_driver/Src/stm32wlxx_hal_dma.c **** 
 1655              		.loc 1 894 3 view .LVU631
 1656 000a 21D0     		beq	.L156
 894:hardware/mcu/st/stm32wlxx_hal_driver/Src/stm32wlxx_hal_dma.c **** 
 1657              		.loc 1 894 3 is_stmt 1 discriminator 2 view .LVU632
 896:hardware/mcu/st/stm32wlxx_hal_driver/Src/stm32wlxx_hal_dma.c ****   {
 1658              		.loc 1 896 11 is_stmt 0 discriminator 2 view .LVU633
 1659 000c 90F82540 		ldrb	r4, [r0, #37]	@ zero_extendqisi2
 894:hardware/mcu/st/stm32wlxx_hal_driver/Src/stm32wlxx_hal_dma.c **** 
 1660              		.loc 1 894 3 discriminator 2 view .LVU634
 1661 0010 0122     		movs	r2, #1
 896:hardware/mcu/st/stm32wlxx_hal_driver/Src/stm32wlxx_hal_dma.c ****   {
 1662              		.loc 1 896 6 discriminator 2 view .LVU635
 1663 0012 9442     		cmp	r4, r2
 894:hardware/mcu/st/stm32wlxx_hal_driver/Src/stm32wlxx_hal_dma.c **** 
 1664              		.loc 1 894 3 discriminator 2 view .LVU636
 1665 0014 80F82420 		strb	r2, [r0, #36]
 894:hardware/mcu/st/stm32wlxx_hal_driver/Src/stm32wlxx_hal_dma.c **** 
 1666              		.loc 1 894 3 is_stmt 1 discriminator 2 view .LVU637
 896:hardware/mcu/st/stm32wlxx_hal_driver/Src/stm32wlxx_hal_dma.c ****   {
 1667              		.loc 1 896 3 discriminator 2 view .LVU638
 896:hardware/mcu/st/stm32wlxx_hal_driver/Src/stm32wlxx_hal_dma.c ****   {
 1668              		.loc 1 896 11 is_stmt 0 discriminator 2 view .LVU639
 1669 0018 E0B2     		uxtb	r0, r4
 1670              	.LVL84:
 896:hardware/mcu/st/stm32wlxx_hal_driver/Src/stm32wlxx_hal_dma.c ****   {
 1671              		.loc 1 896 6 discriminator 2 view .LVU640
 1672 001a 17D1     		bne	.L157
 898:hardware/mcu/st/stm32wlxx_hal_driver/Src/stm32wlxx_hal_dma.c ****     {
 1673              		.loc 1 898 5 is_stmt 1 view .LVU641
 1674 001c 0022     		movs	r2, #0
 1675 001e 0429     		cmp	r1, #4
 1676 0020 06D8     		bhi	.L149
 1677 0022 DFE801F0 		tbb	[pc, r1]
 1678              	.L151:
 1679 0026 03       		.byte	(.L155-.L151)/2
ARM GAS  /var/folders/b4/k4jbz0ms4wg23jtq0w6p483m0000gn/T//cc3EDpXC.s 			page 63


 1680 0027 09       		.byte	(.L154-.L151)/2
 1681 0028 0C       		.byte	(.L153-.L151)/2
 1682 0029 11       		.byte	(.L152-.L151)/2
 1683 002a 0E       		.byte	(.L150-.L151)/2
 1684 002b 00       		.p2align 1
 1685              	.L155:
 901:hardware/mcu/st/stm32wlxx_hal_driver/Src/stm32wlxx_hal_dma.c ****         break;
 1686              		.loc 1 901 9 view .LVU642
 901:hardware/mcu/st/stm32wlxx_hal_driver/Src/stm32wlxx_hal_dma.c ****         break;
 1687              		.loc 1 901 32 is_stmt 0 view .LVU643
 1688 002c DA62     		str	r2, [r3, #44]
 902:hardware/mcu/st/stm32wlxx_hal_driver/Src/stm32wlxx_hal_dma.c **** 
 1689              		.loc 1 902 9 is_stmt 1 view .LVU644
 891:hardware/mcu/st/stm32wlxx_hal_driver/Src/stm32wlxx_hal_dma.c **** 
 1690              		.loc 1 891 21 is_stmt 0 view .LVU645
 1691 002e 0846     		mov	r0, r1
 1692              	.L149:
 1693              	.LVL85:
 934:hardware/mcu/st/stm32wlxx_hal_driver/Src/stm32wlxx_hal_dma.c **** 
 1694              		.loc 1 934 3 is_stmt 1 view .LVU646
 934:hardware/mcu/st/stm32wlxx_hal_driver/Src/stm32wlxx_hal_dma.c **** 
 1695              		.loc 1 934 3 view .LVU647
 1696 0030 0022     		movs	r2, #0
 1697 0032 83F82420 		strb	r2, [r3, #36]
 934:hardware/mcu/st/stm32wlxx_hal_driver/Src/stm32wlxx_hal_dma.c **** 
 1698              		.loc 1 934 3 view .LVU648
 936:hardware/mcu/st/stm32wlxx_hal_driver/Src/stm32wlxx_hal_dma.c **** }
 1699              		.loc 1 936 3 view .LVU649
 1700              	.LVL86:
 1701              	.L148:
 937:hardware/mcu/st/stm32wlxx_hal_driver/Src/stm32wlxx_hal_dma.c **** 
 1702              		.loc 1 937 1 is_stmt 0 view .LVU650
 1703 0036 10BD     		pop	{r4, pc}
 1704              	.LVL87:
 1705              	.L154:
 905:hardware/mcu/st/stm32wlxx_hal_driver/Src/stm32wlxx_hal_dma.c ****         break;
 1706              		.loc 1 905 9 is_stmt 1 view .LVU651
 905:hardware/mcu/st/stm32wlxx_hal_driver/Src/stm32wlxx_hal_dma.c ****         break;
 1707              		.loc 1 905 36 is_stmt 0 view .LVU652
 1708 0038 1A63     		str	r2, [r3, #48]
 906:hardware/mcu/st/stm32wlxx_hal_driver/Src/stm32wlxx_hal_dma.c **** 
 1709              		.loc 1 906 9 is_stmt 1 view .LVU653
 1710              	.L158:
 914:hardware/mcu/st/stm32wlxx_hal_driver/Src/stm32wlxx_hal_dma.c **** 
 1711              		.loc 1 914 9 view .LVU654
 891:hardware/mcu/st/stm32wlxx_hal_driver/Src/stm32wlxx_hal_dma.c **** 
 1712              		.loc 1 891 21 is_stmt 0 view .LVU655
 1713 003a 0020     		movs	r0, #0
 914:hardware/mcu/st/stm32wlxx_hal_driver/Src/stm32wlxx_hal_dma.c **** 
 1714              		.loc 1 914 9 view .LVU656
 1715 003c F8E7     		b	.L149
 1716              	.L153:
 909:hardware/mcu/st/stm32wlxx_hal_driver/Src/stm32wlxx_hal_dma.c ****         break;
 1717              		.loc 1 909 9 is_stmt 1 view .LVU657
 909:hardware/mcu/st/stm32wlxx_hal_driver/Src/stm32wlxx_hal_dma.c ****         break;
 1718              		.loc 1 909 33 is_stmt 0 view .LVU658
 1719 003e 5A63     		str	r2, [r3, #52]
ARM GAS  /var/folders/b4/k4jbz0ms4wg23jtq0w6p483m0000gn/T//cc3EDpXC.s 			page 64


 910:hardware/mcu/st/stm32wlxx_hal_driver/Src/stm32wlxx_hal_dma.c **** 
 1720              		.loc 1 910 9 is_stmt 1 view .LVU659
 1721 0040 FBE7     		b	.L158
 1722              	.L150:
 917:hardware/mcu/st/stm32wlxx_hal_driver/Src/stm32wlxx_hal_dma.c ****         hdma->XferHalfCpltCallback = NULL;
 1723              		.loc 1 917 9 view .LVU660
 918:hardware/mcu/st/stm32wlxx_hal_driver/Src/stm32wlxx_hal_dma.c ****         hdma->XferErrorCallback = NULL;
 1724              		.loc 1 918 36 is_stmt 0 view .LVU661
 1725 0042 C3E90B22 		strd	r2, r2, [r3, #44]
 919:hardware/mcu/st/stm32wlxx_hal_driver/Src/stm32wlxx_hal_dma.c ****         hdma->XferAbortCallback = NULL;
 1726              		.loc 1 919 9 is_stmt 1 view .LVU662
 919:hardware/mcu/st/stm32wlxx_hal_driver/Src/stm32wlxx_hal_dma.c ****         hdma->XferAbortCallback = NULL;
 1727              		.loc 1 919 33 is_stmt 0 view .LVU663
 1728 0046 5A63     		str	r2, [r3, #52]
 920:hardware/mcu/st/stm32wlxx_hal_driver/Src/stm32wlxx_hal_dma.c ****         break;
 1729              		.loc 1 920 9 is_stmt 1 view .LVU664
 1730              	.L152:
 913:hardware/mcu/st/stm32wlxx_hal_driver/Src/stm32wlxx_hal_dma.c ****         break;
 1731              		.loc 1 913 9 view .LVU665
 913:hardware/mcu/st/stm32wlxx_hal_driver/Src/stm32wlxx_hal_dma.c ****         break;
 1732              		.loc 1 913 33 is_stmt 0 view .LVU666
 1733 0048 9A63     		str	r2, [r3, #56]
 1734 004a F6E7     		b	.L158
 1735              	.L157:
 930:hardware/mcu/st/stm32wlxx_hal_driver/Src/stm32wlxx_hal_dma.c ****   }
 1736              		.loc 1 930 12 view .LVU667
 1737 004c 1046     		mov	r0, r2
 1738 004e EFE7     		b	.L149
 1739              	.LVL88:
 1740              	.L156:
 894:hardware/mcu/st/stm32wlxx_hal_driver/Src/stm32wlxx_hal_dma.c **** 
 1741              		.loc 1 894 3 view .LVU668
 1742 0050 0220     		movs	r0, #2
 1743              	.LVL89:
 894:hardware/mcu/st/stm32wlxx_hal_driver/Src/stm32wlxx_hal_dma.c **** 
 1744              		.loc 1 894 3 view .LVU669
 1745 0052 F0E7     		b	.L148
 1746              		.cfi_endproc
 1747              	.LFE730:
 1749              		.section	.text.HAL_DMA_GetState,"ax",%progbits
 1750              		.align	1
 1751              		.global	HAL_DMA_GetState
 1752              		.syntax unified
 1753              		.thumb
 1754              		.thumb_func
 1756              	HAL_DMA_GetState:
 1757              	.LVL90:
 1758              	.LFB731:
 968:hardware/mcu/st/stm32wlxx_hal_driver/Src/stm32wlxx_hal_dma.c ****   /* Return DMA handle state */
 1759              		.loc 1 968 1 is_stmt 1 view -0
 1760              		.cfi_startproc
 1761              		@ args = 0, pretend = 0, frame = 0
 1762              		@ frame_needed = 0, uses_anonymous_args = 0
 1763              		@ link register save eliminated.
 970:hardware/mcu/st/stm32wlxx_hal_driver/Src/stm32wlxx_hal_dma.c **** }
 1764              		.loc 1 970 3 view .LVU671
 970:hardware/mcu/st/stm32wlxx_hal_driver/Src/stm32wlxx_hal_dma.c **** }
ARM GAS  /var/folders/b4/k4jbz0ms4wg23jtq0w6p483m0000gn/T//cc3EDpXC.s 			page 65


 1765              		.loc 1 970 14 is_stmt 0 view .LVU672
 1766 0000 90F82500 		ldrb	r0, [r0, #37]	@ zero_extendqisi2
 1767              	.LVL91:
 971:hardware/mcu/st/stm32wlxx_hal_driver/Src/stm32wlxx_hal_dma.c **** 
 1768              		.loc 1 971 1 view .LVU673
 1769 0004 7047     		bx	lr
 1770              		.cfi_endproc
 1771              	.LFE731:
 1773              		.section	.text.HAL_DMA_GetError,"ax",%progbits
 1774              		.align	1
 1775              		.global	HAL_DMA_GetError
 1776              		.syntax unified
 1777              		.thumb
 1778              		.thumb_func
 1780              	HAL_DMA_GetError:
 1781              	.LVL92:
 1782              	.LFB732:
 980:hardware/mcu/st/stm32wlxx_hal_driver/Src/stm32wlxx_hal_dma.c ****   /* Return the DMA error code */
 1783              		.loc 1 980 1 is_stmt 1 view -0
 1784              		.cfi_startproc
 1785              		@ args = 0, pretend = 0, frame = 0
 1786              		@ frame_needed = 0, uses_anonymous_args = 0
 1787              		@ link register save eliminated.
 982:hardware/mcu/st/stm32wlxx_hal_driver/Src/stm32wlxx_hal_dma.c **** }
 1788              		.loc 1 982 3 view .LVU675
 982:hardware/mcu/st/stm32wlxx_hal_driver/Src/stm32wlxx_hal_dma.c **** }
 1789              		.loc 1 982 14 is_stmt 0 view .LVU676
 1790 0000 C06B     		ldr	r0, [r0, #60]
 1791              	.LVL93:
 983:hardware/mcu/st/stm32wlxx_hal_driver/Src/stm32wlxx_hal_dma.c **** 
 1792              		.loc 1 983 1 view .LVU677
 1793 0002 7047     		bx	lr
 1794              		.cfi_endproc
 1795              	.LFE732:
 1797              		.text
 1798              	.Letext0:
 1799              		.file 2 "/Applications/ARM/arm-none-eabi/include/machine/_default_types.h"
 1800              		.file 3 "/Applications/ARM/arm-none-eabi/include/sys/_stdint.h"
 1801              		.file 4 "hardware/mcu/st/cmsis_device_wl/Include/stm32wle5xx.h"
 1802              		.file 5 "hardware/mcu/st/stm32wlxx_hal_driver/Inc/stm32wlxx_hal_def.h"
 1803              		.file 6 "hardware/mcu/st/stm32wlxx_hal_driver/Inc/stm32wlxx_hal_dma.h"
 1804              		.file 7 "hardware/mcu/st/stm32wlxx_hal_driver/Inc/stm32wlxx_ll_dma.h"
 1805              		.file 8 "hardware/mcu/st/stm32wlxx_hal_driver/Inc/stm32wlxx_hal.h"
ARM GAS  /var/folders/b4/k4jbz0ms4wg23jtq0w6p483m0000gn/T//cc3EDpXC.s 			page 66


DEFINED SYMBOLS
                            *ABS*:0000000000000000 stm32wlxx_hal_dma.c
/var/folders/b4/k4jbz0ms4wg23jtq0w6p483m0000gn/T//cc3EDpXC.s:18     .text.DMA_SetConfig:0000000000000000 $t
/var/folders/b4/k4jbz0ms4wg23jtq0w6p483m0000gn/T//cc3EDpXC.s:23     .text.DMA_SetConfig:0000000000000000 DMA_SetConfig
/var/folders/b4/k4jbz0ms4wg23jtq0w6p483m0000gn/T//cc3EDpXC.s:94     .text.DMA_CalcDMAMUXChannelBaseAndMask:0000000000000000 $t
/var/folders/b4/k4jbz0ms4wg23jtq0w6p483m0000gn/T//cc3EDpXC.s:99     .text.DMA_CalcDMAMUXChannelBaseAndMask:0000000000000000 DMA_CalcDMAMUXChannelBaseAndMask
/var/folders/b4/k4jbz0ms4wg23jtq0w6p483m0000gn/T//cc3EDpXC.s:166    .text.DMA_CalcDMAMUXChannelBaseAndMask:0000000000000040 $d
/var/folders/b4/k4jbz0ms4wg23jtq0w6p483m0000gn/T//cc3EDpXC.s:173    .text.HAL_DMA_Init:0000000000000000 $t
/var/folders/b4/k4jbz0ms4wg23jtq0w6p483m0000gn/T//cc3EDpXC.s:179    .text.HAL_DMA_Init:0000000000000000 HAL_DMA_Init
/var/folders/b4/k4jbz0ms4wg23jtq0w6p483m0000gn/T//cc3EDpXC.s:396    .text.HAL_DMA_Init:00000000000000d0 $d
/var/folders/b4/k4jbz0ms4wg23jtq0w6p483m0000gn/T//cc3EDpXC.s:407    .text.HAL_DMA_DeInit:0000000000000000 $t
/var/folders/b4/k4jbz0ms4wg23jtq0w6p483m0000gn/T//cc3EDpXC.s:413    .text.HAL_DMA_DeInit:0000000000000000 HAL_DMA_DeInit
/var/folders/b4/k4jbz0ms4wg23jtq0w6p483m0000gn/T//cc3EDpXC.s:580    .text.HAL_DMA_DeInit:0000000000000098 $d
/var/folders/b4/k4jbz0ms4wg23jtq0w6p483m0000gn/T//cc3EDpXC.s:590    .text.HAL_DMA_Start:0000000000000000 $t
/var/folders/b4/k4jbz0ms4wg23jtq0w6p483m0000gn/T//cc3EDpXC.s:596    .text.HAL_DMA_Start:0000000000000000 HAL_DMA_Start
/var/folders/b4/k4jbz0ms4wg23jtq0w6p483m0000gn/T//cc3EDpXC.s:694    .text.HAL_DMA_Start_IT:0000000000000000 $t
/var/folders/b4/k4jbz0ms4wg23jtq0w6p483m0000gn/T//cc3EDpXC.s:700    .text.HAL_DMA_Start_IT:0000000000000000 HAL_DMA_Start_IT
/var/folders/b4/k4jbz0ms4wg23jtq0w6p483m0000gn/T//cc3EDpXC.s:843    .text.HAL_DMA_Abort:0000000000000000 $t
/var/folders/b4/k4jbz0ms4wg23jtq0w6p483m0000gn/T//cc3EDpXC.s:849    .text.HAL_DMA_Abort:0000000000000000 HAL_DMA_Abort
/var/folders/b4/k4jbz0ms4wg23jtq0w6p483m0000gn/T//cc3EDpXC.s:950    .text.HAL_DMA_Abort_IT:0000000000000000 $t
/var/folders/b4/k4jbz0ms4wg23jtq0w6p483m0000gn/T//cc3EDpXC.s:956    .text.HAL_DMA_Abort_IT:0000000000000000 HAL_DMA_Abort_IT
/var/folders/b4/k4jbz0ms4wg23jtq0w6p483m0000gn/T//cc3EDpXC.s:1069   .text.HAL_DMA_PollForTransfer:0000000000000000 $t
/var/folders/b4/k4jbz0ms4wg23jtq0w6p483m0000gn/T//cc3EDpXC.s:1075   .text.HAL_DMA_PollForTransfer:0000000000000000 HAL_DMA_PollForTransfer
/var/folders/b4/k4jbz0ms4wg23jtq0w6p483m0000gn/T//cc3EDpXC.s:1340   .text.HAL_DMA_IRQHandler:0000000000000000 $t
/var/folders/b4/k4jbz0ms4wg23jtq0w6p483m0000gn/T//cc3EDpXC.s:1346   .text.HAL_DMA_IRQHandler:0000000000000000 HAL_DMA_IRQHandler
/var/folders/b4/k4jbz0ms4wg23jtq0w6p483m0000gn/T//cc3EDpXC.s:1514   .text.HAL_DMA_IRQHandler:00000000000000a0 $d
/var/folders/b4/k4jbz0ms4wg23jtq0w6p483m0000gn/T//cc3EDpXC.s:1521   .text.HAL_DMA_RegisterCallback:0000000000000000 $t
/var/folders/b4/k4jbz0ms4wg23jtq0w6p483m0000gn/T//cc3EDpXC.s:1527   .text.HAL_DMA_RegisterCallback:0000000000000000 HAL_DMA_RegisterCallback
/var/folders/b4/k4jbz0ms4wg23jtq0w6p483m0000gn/T//cc3EDpXC.s:1567   .text.HAL_DMA_RegisterCallback:000000000000001e $d
/var/folders/b4/k4jbz0ms4wg23jtq0w6p483m0000gn/T//cc3EDpXC.s:1571   .text.HAL_DMA_RegisterCallback:0000000000000022 $t
/var/folders/b4/k4jbz0ms4wg23jtq0w6p483m0000gn/T//cc3EDpXC.s:1628   .text.HAL_DMA_UnRegisterCallback:0000000000000000 $t
/var/folders/b4/k4jbz0ms4wg23jtq0w6p483m0000gn/T//cc3EDpXC.s:1634   .text.HAL_DMA_UnRegisterCallback:0000000000000000 HAL_DMA_UnRegisterCallback
/var/folders/b4/k4jbz0ms4wg23jtq0w6p483m0000gn/T//cc3EDpXC.s:1679   .text.HAL_DMA_UnRegisterCallback:0000000000000026 $d
/var/folders/b4/k4jbz0ms4wg23jtq0w6p483m0000gn/T//cc3EDpXC.s:1750   .text.HAL_DMA_GetState:0000000000000000 $t
/var/folders/b4/k4jbz0ms4wg23jtq0w6p483m0000gn/T//cc3EDpXC.s:1756   .text.HAL_DMA_GetState:0000000000000000 HAL_DMA_GetState
/var/folders/b4/k4jbz0ms4wg23jtq0w6p483m0000gn/T//cc3EDpXC.s:1774   .text.HAL_DMA_GetError:0000000000000000 $t
/var/folders/b4/k4jbz0ms4wg23jtq0w6p483m0000gn/T//cc3EDpXC.s:1780   .text.HAL_DMA_GetError:0000000000000000 HAL_DMA_GetError
/var/folders/b4/k4jbz0ms4wg23jtq0w6p483m0000gn/T//cc3EDpXC.s:1684   .text.HAL_DMA_UnRegisterCallback:000000000000002b $d
/var/folders/b4/k4jbz0ms4wg23jtq0w6p483m0000gn/T//cc3EDpXC.s:1684   .text.HAL_DMA_UnRegisterCallback:000000000000002c $t

UNDEFINED SYMBOLS
HAL_GetTick
