ARM GAS  /var/folders/b4/k4jbz0ms4wg23jtq0w6p483m0000gn/T//cc4jqGg8.s 			page 1


   1              		.cpu cortex-m4
   2              		.arch armv7e-m
   3              		.fpu softvfp
   4              		.eabi_attribute 20, 1
   5              		.eabi_attribute 21, 1
   6              		.eabi_attribute 23, 3
   7              		.eabi_attribute 24, 1
   8              		.eabi_attribute 25, 1
   9              		.eabi_attribute 26, 1
  10              		.eabi_attribute 30, 4
  11              		.eabi_attribute 34, 1
  12              		.eabi_attribute 18, 4
  13              		.file	"stm32wlxx_it.c"
  14              		.text
  15              	.Ltext0:
  16              		.cfi_sections	.debug_frame
  17              		.section	.text.NMI_Handler,"ax",%progbits
  18              		.align	1
  19              		.global	NMI_Handler
  20              		.syntax unified
  21              		.thumb
  22              		.thumb_func
  24              	NMI_Handler:
  25              	.LFB721:
  26              		.file 1 "hardware/bsp/stm32wlxx/stm32wlxx_it.c"
   1:hardware/bsp/stm32wlxx/stm32wlxx_it.c **** /* USER CODE BEGIN Header */
   2:hardware/bsp/stm32wlxx/stm32wlxx_it.c **** /**
   3:hardware/bsp/stm32wlxx/stm32wlxx_it.c ****   ******************************************************************************
   4:hardware/bsp/stm32wlxx/stm32wlxx_it.c ****   * @file    stm32wlxx_it.c
   5:hardware/bsp/stm32wlxx/stm32wlxx_it.c ****   * @brief   Interrupt Service Routines.
   6:hardware/bsp/stm32wlxx/stm32wlxx_it.c ****   ******************************************************************************
   7:hardware/bsp/stm32wlxx/stm32wlxx_it.c ****   * @attention
   8:hardware/bsp/stm32wlxx/stm32wlxx_it.c ****   *
   9:hardware/bsp/stm32wlxx/stm32wlxx_it.c ****   * Copyright (c) 2022 STMicroelectronics.
  10:hardware/bsp/stm32wlxx/stm32wlxx_it.c ****   * All rights reserved.
  11:hardware/bsp/stm32wlxx/stm32wlxx_it.c ****   *
  12:hardware/bsp/stm32wlxx/stm32wlxx_it.c ****   * This software is licensed under terms that can be found in the LICENSE file
  13:hardware/bsp/stm32wlxx/stm32wlxx_it.c ****   * in the root directory of this software component.
  14:hardware/bsp/stm32wlxx/stm32wlxx_it.c ****   * If no LICENSE file comes with this software, it is provided AS-IS.
  15:hardware/bsp/stm32wlxx/stm32wlxx_it.c ****   *
  16:hardware/bsp/stm32wlxx/stm32wlxx_it.c ****   ******************************************************************************
  17:hardware/bsp/stm32wlxx/stm32wlxx_it.c ****   */
  18:hardware/bsp/stm32wlxx/stm32wlxx_it.c **** /* USER CODE END Header */
  19:hardware/bsp/stm32wlxx/stm32wlxx_it.c **** 
  20:hardware/bsp/stm32wlxx/stm32wlxx_it.c **** /* Includes ------------------------------------------------------------------*/
  21:hardware/bsp/stm32wlxx/stm32wlxx_it.c **** #include "main.h"
  22:hardware/bsp/stm32wlxx/stm32wlxx_it.c **** #include "stm32wlxx_it.h"
  23:hardware/bsp/stm32wlxx/stm32wlxx_it.c **** /* Private includes ----------------------------------------------------------*/
  24:hardware/bsp/stm32wlxx/stm32wlxx_it.c **** /* USER CODE BEGIN Includes */
  25:hardware/bsp/stm32wlxx/stm32wlxx_it.c **** /* USER CODE END Includes */
  26:hardware/bsp/stm32wlxx/stm32wlxx_it.c **** 
  27:hardware/bsp/stm32wlxx/stm32wlxx_it.c **** /* Private typedef -----------------------------------------------------------*/
  28:hardware/bsp/stm32wlxx/stm32wlxx_it.c **** /* USER CODE BEGIN TD */
  29:hardware/bsp/stm32wlxx/stm32wlxx_it.c **** 
  30:hardware/bsp/stm32wlxx/stm32wlxx_it.c **** /* USER CODE END TD */
  31:hardware/bsp/stm32wlxx/stm32wlxx_it.c **** 
  32:hardware/bsp/stm32wlxx/stm32wlxx_it.c **** /* Private define ------------------------------------------------------------*/
ARM GAS  /var/folders/b4/k4jbz0ms4wg23jtq0w6p483m0000gn/T//cc4jqGg8.s 			page 2


  33:hardware/bsp/stm32wlxx/stm32wlxx_it.c **** /* USER CODE BEGIN PD */
  34:hardware/bsp/stm32wlxx/stm32wlxx_it.c **** 
  35:hardware/bsp/stm32wlxx/stm32wlxx_it.c **** /* USER CODE END PD */
  36:hardware/bsp/stm32wlxx/stm32wlxx_it.c **** 
  37:hardware/bsp/stm32wlxx/stm32wlxx_it.c **** /* Private macro -------------------------------------------------------------*/
  38:hardware/bsp/stm32wlxx/stm32wlxx_it.c **** /* USER CODE BEGIN PM */
  39:hardware/bsp/stm32wlxx/stm32wlxx_it.c **** 
  40:hardware/bsp/stm32wlxx/stm32wlxx_it.c **** /* USER CODE END PM */
  41:hardware/bsp/stm32wlxx/stm32wlxx_it.c **** 
  42:hardware/bsp/stm32wlxx/stm32wlxx_it.c **** /* Private variables ---------------------------------------------------------*/
  43:hardware/bsp/stm32wlxx/stm32wlxx_it.c **** /* USER CODE BEGIN PV */
  44:hardware/bsp/stm32wlxx/stm32wlxx_it.c **** 
  45:hardware/bsp/stm32wlxx/stm32wlxx_it.c **** /* USER CODE END PV */
  46:hardware/bsp/stm32wlxx/stm32wlxx_it.c **** 
  47:hardware/bsp/stm32wlxx/stm32wlxx_it.c **** /* Private function prototypes -----------------------------------------------*/
  48:hardware/bsp/stm32wlxx/stm32wlxx_it.c **** /* USER CODE BEGIN PFP */
  49:hardware/bsp/stm32wlxx/stm32wlxx_it.c **** 
  50:hardware/bsp/stm32wlxx/stm32wlxx_it.c **** /* USER CODE END PFP */
  51:hardware/bsp/stm32wlxx/stm32wlxx_it.c **** 
  52:hardware/bsp/stm32wlxx/stm32wlxx_it.c **** /* Private user code ---------------------------------------------------------*/
  53:hardware/bsp/stm32wlxx/stm32wlxx_it.c **** /* USER CODE BEGIN 0 */
  54:hardware/bsp/stm32wlxx/stm32wlxx_it.c **** 
  55:hardware/bsp/stm32wlxx/stm32wlxx_it.c **** /* USER CODE END 0 */
  56:hardware/bsp/stm32wlxx/stm32wlxx_it.c **** 
  57:hardware/bsp/stm32wlxx/stm32wlxx_it.c **** /* External variables --------------------------------------------------------*/
  58:hardware/bsp/stm32wlxx/stm32wlxx_it.c **** 
  59:hardware/bsp/stm32wlxx/stm32wlxx_it.c **** /* USER CODE BEGIN EV */
  60:hardware/bsp/stm32wlxx/stm32wlxx_it.c **** 
  61:hardware/bsp/stm32wlxx/stm32wlxx_it.c **** /* USER CODE END EV */
  62:hardware/bsp/stm32wlxx/stm32wlxx_it.c **** 
  63:hardware/bsp/stm32wlxx/stm32wlxx_it.c **** /******************************************************************************/
  64:hardware/bsp/stm32wlxx/stm32wlxx_it.c **** /*           Cortex Processor Interruption and Exception Handlers          */
  65:hardware/bsp/stm32wlxx/stm32wlxx_it.c **** /******************************************************************************/
  66:hardware/bsp/stm32wlxx/stm32wlxx_it.c **** /**
  67:hardware/bsp/stm32wlxx/stm32wlxx_it.c ****   * @brief This function handles Non maskable interrupt.
  68:hardware/bsp/stm32wlxx/stm32wlxx_it.c ****   */
  69:hardware/bsp/stm32wlxx/stm32wlxx_it.c **** void NMI_Handler(void)
  70:hardware/bsp/stm32wlxx/stm32wlxx_it.c **** {
  27              		.loc 1 70 1 view -0
  28              		.cfi_startproc
  29              		@ Volatile: function does not return.
  30              		@ args = 0, pretend = 0, frame = 0
  31              		@ frame_needed = 0, uses_anonymous_args = 0
  32              		@ link register save eliminated.
  33              	.L2:
  71:hardware/bsp/stm32wlxx/stm32wlxx_it.c ****   /* USER CODE BEGIN NonMaskableInt_IRQn 0 */
  72:hardware/bsp/stm32wlxx/stm32wlxx_it.c **** 
  73:hardware/bsp/stm32wlxx/stm32wlxx_it.c ****   /* USER CODE END NonMaskableInt_IRQn 0 */
  74:hardware/bsp/stm32wlxx/stm32wlxx_it.c ****   /* USER CODE BEGIN NonMaskableInt_IRQn 1 */
  75:hardware/bsp/stm32wlxx/stm32wlxx_it.c ****   while (1)
  34              		.loc 1 75 3 discriminator 1 view .LVU1
  76:hardware/bsp/stm32wlxx/stm32wlxx_it.c ****   {
  77:hardware/bsp/stm32wlxx/stm32wlxx_it.c ****   }
  35              		.loc 1 77 3 discriminator 1 view .LVU2
  75:hardware/bsp/stm32wlxx/stm32wlxx_it.c ****   {
  36              		.loc 1 75 9 discriminator 1 view .LVU3
  37 0000 FEE7     		b	.L2
ARM GAS  /var/folders/b4/k4jbz0ms4wg23jtq0w6p483m0000gn/T//cc4jqGg8.s 			page 3


  38              		.cfi_endproc
  39              	.LFE721:
  41              		.section	.text.HardFault_Handler,"ax",%progbits
  42              		.align	1
  43              		.global	HardFault_Handler
  44              		.syntax unified
  45              		.thumb
  46              		.thumb_func
  48              	HardFault_Handler:
  49              	.LFB722:
  78:hardware/bsp/stm32wlxx/stm32wlxx_it.c ****   /* USER CODE END NonMaskableInt_IRQn 1 */
  79:hardware/bsp/stm32wlxx/stm32wlxx_it.c **** }
  80:hardware/bsp/stm32wlxx/stm32wlxx_it.c **** 
  81:hardware/bsp/stm32wlxx/stm32wlxx_it.c **** /**
  82:hardware/bsp/stm32wlxx/stm32wlxx_it.c ****   * @brief This function handles Hard fault interrupt.
  83:hardware/bsp/stm32wlxx/stm32wlxx_it.c ****   */
  84:hardware/bsp/stm32wlxx/stm32wlxx_it.c **** void HardFault_Handler(void)
  85:hardware/bsp/stm32wlxx/stm32wlxx_it.c **** {
  50              		.loc 1 85 1 view -0
  51              		.cfi_startproc
  52              		@ Volatile: function does not return.
  53              		@ args = 0, pretend = 0, frame = 0
  54              		@ frame_needed = 0, uses_anonymous_args = 0
  55              		@ link register save eliminated.
  56              	.L4:
  86:hardware/bsp/stm32wlxx/stm32wlxx_it.c ****   /* USER CODE BEGIN HardFault_IRQn 0 */
  87:hardware/bsp/stm32wlxx/stm32wlxx_it.c **** 
  88:hardware/bsp/stm32wlxx/stm32wlxx_it.c ****   /* USER CODE END HardFault_IRQn 0 */
  89:hardware/bsp/stm32wlxx/stm32wlxx_it.c ****   while (1)
  57              		.loc 1 89 3 discriminator 1 view .LVU5
  90:hardware/bsp/stm32wlxx/stm32wlxx_it.c ****   {
  91:hardware/bsp/stm32wlxx/stm32wlxx_it.c ****     /* USER CODE BEGIN W1_HardFault_IRQn 0 */
  92:hardware/bsp/stm32wlxx/stm32wlxx_it.c ****     /* USER CODE END W1_HardFault_IRQn 0 */
  93:hardware/bsp/stm32wlxx/stm32wlxx_it.c ****   }
  58              		.loc 1 93 3 discriminator 1 view .LVU6
  89:hardware/bsp/stm32wlxx/stm32wlxx_it.c ****   {
  59              		.loc 1 89 9 discriminator 1 view .LVU7
  60 0000 FEE7     		b	.L4
  61              		.cfi_endproc
  62              	.LFE722:
  64              		.section	.text.MemManage_Handler,"ax",%progbits
  65              		.align	1
  66              		.global	MemManage_Handler
  67              		.syntax unified
  68              		.thumb
  69              		.thumb_func
  71              	MemManage_Handler:
  72              	.LFB723:
  94:hardware/bsp/stm32wlxx/stm32wlxx_it.c **** }
  95:hardware/bsp/stm32wlxx/stm32wlxx_it.c **** 
  96:hardware/bsp/stm32wlxx/stm32wlxx_it.c **** /**
  97:hardware/bsp/stm32wlxx/stm32wlxx_it.c ****   * @brief This function handles Memory management fault.
  98:hardware/bsp/stm32wlxx/stm32wlxx_it.c ****   */
  99:hardware/bsp/stm32wlxx/stm32wlxx_it.c **** void MemManage_Handler(void)
 100:hardware/bsp/stm32wlxx/stm32wlxx_it.c **** {
  73              		.loc 1 100 1 view -0
  74              		.cfi_startproc
ARM GAS  /var/folders/b4/k4jbz0ms4wg23jtq0w6p483m0000gn/T//cc4jqGg8.s 			page 4


  75              		@ Volatile: function does not return.
  76              		@ args = 0, pretend = 0, frame = 0
  77              		@ frame_needed = 0, uses_anonymous_args = 0
  78              		@ link register save eliminated.
  79              	.L6:
 101:hardware/bsp/stm32wlxx/stm32wlxx_it.c ****   /* USER CODE BEGIN MemoryManagement_IRQn 0 */
 102:hardware/bsp/stm32wlxx/stm32wlxx_it.c **** 
 103:hardware/bsp/stm32wlxx/stm32wlxx_it.c ****   /* USER CODE END MemoryManagement_IRQn 0 */
 104:hardware/bsp/stm32wlxx/stm32wlxx_it.c ****   while (1)
  80              		.loc 1 104 3 discriminator 1 view .LVU9
 105:hardware/bsp/stm32wlxx/stm32wlxx_it.c ****   {
 106:hardware/bsp/stm32wlxx/stm32wlxx_it.c ****     /* USER CODE BEGIN W1_MemoryManagement_IRQn 0 */
 107:hardware/bsp/stm32wlxx/stm32wlxx_it.c ****     /* USER CODE END W1_MemoryManagement_IRQn 0 */
 108:hardware/bsp/stm32wlxx/stm32wlxx_it.c ****   }
  81              		.loc 1 108 3 discriminator 1 view .LVU10
 104:hardware/bsp/stm32wlxx/stm32wlxx_it.c ****   {
  82              		.loc 1 104 9 discriminator 1 view .LVU11
  83 0000 FEE7     		b	.L6
  84              		.cfi_endproc
  85              	.LFE723:
  87              		.section	.text.BusFault_Handler,"ax",%progbits
  88              		.align	1
  89              		.global	BusFault_Handler
  90              		.syntax unified
  91              		.thumb
  92              		.thumb_func
  94              	BusFault_Handler:
  95              	.LFB724:
 109:hardware/bsp/stm32wlxx/stm32wlxx_it.c **** }
 110:hardware/bsp/stm32wlxx/stm32wlxx_it.c **** 
 111:hardware/bsp/stm32wlxx/stm32wlxx_it.c **** /**
 112:hardware/bsp/stm32wlxx/stm32wlxx_it.c ****   * @brief This function handles Prefetch fault, memory access fault.
 113:hardware/bsp/stm32wlxx/stm32wlxx_it.c ****   */
 114:hardware/bsp/stm32wlxx/stm32wlxx_it.c **** void BusFault_Handler(void)
 115:hardware/bsp/stm32wlxx/stm32wlxx_it.c **** {
  96              		.loc 1 115 1 view -0
  97              		.cfi_startproc
  98              		@ Volatile: function does not return.
  99              		@ args = 0, pretend = 0, frame = 0
 100              		@ frame_needed = 0, uses_anonymous_args = 0
 101              		@ link register save eliminated.
 102              	.L8:
 116:hardware/bsp/stm32wlxx/stm32wlxx_it.c ****   /* USER CODE BEGIN BusFault_IRQn 0 */
 117:hardware/bsp/stm32wlxx/stm32wlxx_it.c **** 
 118:hardware/bsp/stm32wlxx/stm32wlxx_it.c ****   /* USER CODE END BusFault_IRQn 0 */
 119:hardware/bsp/stm32wlxx/stm32wlxx_it.c ****   while (1)
 103              		.loc 1 119 3 discriminator 1 view .LVU13
 120:hardware/bsp/stm32wlxx/stm32wlxx_it.c ****   {
 121:hardware/bsp/stm32wlxx/stm32wlxx_it.c ****     /* USER CODE BEGIN W1_BusFault_IRQn 0 */
 122:hardware/bsp/stm32wlxx/stm32wlxx_it.c ****     /* USER CODE END W1_BusFault_IRQn 0 */
 123:hardware/bsp/stm32wlxx/stm32wlxx_it.c ****   }
 104              		.loc 1 123 3 discriminator 1 view .LVU14
 119:hardware/bsp/stm32wlxx/stm32wlxx_it.c ****   {
 105              		.loc 1 119 9 discriminator 1 view .LVU15
 106 0000 FEE7     		b	.L8
 107              		.cfi_endproc
 108              	.LFE724:
ARM GAS  /var/folders/b4/k4jbz0ms4wg23jtq0w6p483m0000gn/T//cc4jqGg8.s 			page 5


 110              		.section	.text.UsageFault_Handler,"ax",%progbits
 111              		.align	1
 112              		.global	UsageFault_Handler
 113              		.syntax unified
 114              		.thumb
 115              		.thumb_func
 117              	UsageFault_Handler:
 118              	.LFB725:
 124:hardware/bsp/stm32wlxx/stm32wlxx_it.c **** }
 125:hardware/bsp/stm32wlxx/stm32wlxx_it.c **** 
 126:hardware/bsp/stm32wlxx/stm32wlxx_it.c **** /**
 127:hardware/bsp/stm32wlxx/stm32wlxx_it.c ****   * @brief This function handles Undefined instruction or illegal state.
 128:hardware/bsp/stm32wlxx/stm32wlxx_it.c ****   */
 129:hardware/bsp/stm32wlxx/stm32wlxx_it.c **** void UsageFault_Handler(void)
 130:hardware/bsp/stm32wlxx/stm32wlxx_it.c **** {
 119              		.loc 1 130 1 view -0
 120              		.cfi_startproc
 121              		@ Volatile: function does not return.
 122              		@ args = 0, pretend = 0, frame = 0
 123              		@ frame_needed = 0, uses_anonymous_args = 0
 124              		@ link register save eliminated.
 125              	.L10:
 131:hardware/bsp/stm32wlxx/stm32wlxx_it.c ****   /* USER CODE BEGIN UsageFault_IRQn 0 */
 132:hardware/bsp/stm32wlxx/stm32wlxx_it.c **** 
 133:hardware/bsp/stm32wlxx/stm32wlxx_it.c ****   /* USER CODE END UsageFault_IRQn 0 */
 134:hardware/bsp/stm32wlxx/stm32wlxx_it.c ****   while (1)
 126              		.loc 1 134 3 discriminator 1 view .LVU17
 135:hardware/bsp/stm32wlxx/stm32wlxx_it.c ****   {
 136:hardware/bsp/stm32wlxx/stm32wlxx_it.c ****     /* USER CODE BEGIN W1_UsageFault_IRQn 0 */
 137:hardware/bsp/stm32wlxx/stm32wlxx_it.c ****     /* USER CODE END W1_UsageFault_IRQn 0 */
 138:hardware/bsp/stm32wlxx/stm32wlxx_it.c ****   }
 127              		.loc 1 138 3 discriminator 1 view .LVU18
 134:hardware/bsp/stm32wlxx/stm32wlxx_it.c ****   {
 128              		.loc 1 134 9 discriminator 1 view .LVU19
 129 0000 FEE7     		b	.L10
 130              		.cfi_endproc
 131              	.LFE725:
 133              		.section	.text.SVC_Handler,"ax",%progbits
 134              		.align	1
 135              		.global	SVC_Handler
 136              		.syntax unified
 137              		.thumb
 138              		.thumb_func
 140              	SVC_Handler:
 141              	.LFB726:
 139:hardware/bsp/stm32wlxx/stm32wlxx_it.c **** }
 140:hardware/bsp/stm32wlxx/stm32wlxx_it.c **** 
 141:hardware/bsp/stm32wlxx/stm32wlxx_it.c **** /**
 142:hardware/bsp/stm32wlxx/stm32wlxx_it.c ****   * @brief This function handles System service call via SWI instruction.
 143:hardware/bsp/stm32wlxx/stm32wlxx_it.c ****   */
 144:hardware/bsp/stm32wlxx/stm32wlxx_it.c **** void SVC_Handler(void)
 145:hardware/bsp/stm32wlxx/stm32wlxx_it.c **** {
 142              		.loc 1 145 1 view -0
 143              		.cfi_startproc
 144              		@ args = 0, pretend = 0, frame = 0
 145              		@ frame_needed = 0, uses_anonymous_args = 0
 146              		@ link register save eliminated.
ARM GAS  /var/folders/b4/k4jbz0ms4wg23jtq0w6p483m0000gn/T//cc4jqGg8.s 			page 6


 146:hardware/bsp/stm32wlxx/stm32wlxx_it.c ****   /* USER CODE BEGIN SVCall_IRQn 0 */
 147:hardware/bsp/stm32wlxx/stm32wlxx_it.c **** 
 148:hardware/bsp/stm32wlxx/stm32wlxx_it.c ****   /* USER CODE END SVCall_IRQn 0 */
 149:hardware/bsp/stm32wlxx/stm32wlxx_it.c ****   /* USER CODE BEGIN SVCall_IRQn 1 */
 150:hardware/bsp/stm32wlxx/stm32wlxx_it.c **** 
 151:hardware/bsp/stm32wlxx/stm32wlxx_it.c ****   /* USER CODE END SVCall_IRQn 1 */
 152:hardware/bsp/stm32wlxx/stm32wlxx_it.c **** }
 147              		.loc 1 152 1 view .LVU21
 148 0000 7047     		bx	lr
 149              		.cfi_endproc
 150              	.LFE726:
 152              		.section	.text.DebugMon_Handler,"ax",%progbits
 153              		.align	1
 154              		.global	DebugMon_Handler
 155              		.syntax unified
 156              		.thumb
 157              		.thumb_func
 159              	DebugMon_Handler:
 160              	.LFB731:
 161              		.cfi_startproc
 162              		@ args = 0, pretend = 0, frame = 0
 163              		@ frame_needed = 0, uses_anonymous_args = 0
 164              		@ link register save eliminated.
 165 0000 7047     		bx	lr
 166              		.cfi_endproc
 167              	.LFE731:
 169              		.section	.text.PendSV_Handler,"ax",%progbits
 170              		.align	1
 171              		.global	PendSV_Handler
 172              		.syntax unified
 173              		.thumb
 174              		.thumb_func
 176              	PendSV_Handler:
 177              	.LFB733:
 178              		.cfi_startproc
 179              		@ args = 0, pretend = 0, frame = 0
 180              		@ frame_needed = 0, uses_anonymous_args = 0
 181              		@ link register save eliminated.
 182 0000 7047     		bx	lr
 183              		.cfi_endproc
 184              	.LFE733:
 186              		.section	.text.SysTick_Handler,"ax",%progbits
 187              		.align	1
 188              		.global	SysTick_Handler
 189              		.syntax unified
 190              		.thumb
 191              		.thumb_func
 193              	SysTick_Handler:
 194              	.LFB729:
 153:hardware/bsp/stm32wlxx/stm32wlxx_it.c **** 
 154:hardware/bsp/stm32wlxx/stm32wlxx_it.c **** /**
 155:hardware/bsp/stm32wlxx/stm32wlxx_it.c ****   * @brief This function handles Debug monitor.
 156:hardware/bsp/stm32wlxx/stm32wlxx_it.c ****   */
 157:hardware/bsp/stm32wlxx/stm32wlxx_it.c **** void DebugMon_Handler(void)
 158:hardware/bsp/stm32wlxx/stm32wlxx_it.c **** {
 159:hardware/bsp/stm32wlxx/stm32wlxx_it.c ****   /* USER CODE BEGIN DebugMonitor_IRQn 0 */
 160:hardware/bsp/stm32wlxx/stm32wlxx_it.c **** 
ARM GAS  /var/folders/b4/k4jbz0ms4wg23jtq0w6p483m0000gn/T//cc4jqGg8.s 			page 7


 161:hardware/bsp/stm32wlxx/stm32wlxx_it.c ****   /* USER CODE END DebugMonitor_IRQn 0 */
 162:hardware/bsp/stm32wlxx/stm32wlxx_it.c ****   /* USER CODE BEGIN DebugMonitor_IRQn 1 */
 163:hardware/bsp/stm32wlxx/stm32wlxx_it.c **** 
 164:hardware/bsp/stm32wlxx/stm32wlxx_it.c ****   /* USER CODE END DebugMonitor_IRQn 1 */
 165:hardware/bsp/stm32wlxx/stm32wlxx_it.c **** }
 166:hardware/bsp/stm32wlxx/stm32wlxx_it.c **** 
 167:hardware/bsp/stm32wlxx/stm32wlxx_it.c **** /**
 168:hardware/bsp/stm32wlxx/stm32wlxx_it.c ****   * @brief This function handles Pendable request for system service.
 169:hardware/bsp/stm32wlxx/stm32wlxx_it.c ****   */
 170:hardware/bsp/stm32wlxx/stm32wlxx_it.c **** void PendSV_Handler(void)
 171:hardware/bsp/stm32wlxx/stm32wlxx_it.c **** {
 172:hardware/bsp/stm32wlxx/stm32wlxx_it.c ****   /* USER CODE BEGIN PendSV_IRQn 0 */
 173:hardware/bsp/stm32wlxx/stm32wlxx_it.c **** 
 174:hardware/bsp/stm32wlxx/stm32wlxx_it.c ****   /* USER CODE END PendSV_IRQn 0 */
 175:hardware/bsp/stm32wlxx/stm32wlxx_it.c ****   /* USER CODE BEGIN PendSV_IRQn 1 */
 176:hardware/bsp/stm32wlxx/stm32wlxx_it.c **** 
 177:hardware/bsp/stm32wlxx/stm32wlxx_it.c ****   /* USER CODE END PendSV_IRQn 1 */
 178:hardware/bsp/stm32wlxx/stm32wlxx_it.c **** }
 179:hardware/bsp/stm32wlxx/stm32wlxx_it.c **** 
 180:hardware/bsp/stm32wlxx/stm32wlxx_it.c **** /**
 181:hardware/bsp/stm32wlxx/stm32wlxx_it.c ****   * @brief This function handles System tick timer.
 182:hardware/bsp/stm32wlxx/stm32wlxx_it.c ****   */
 183:hardware/bsp/stm32wlxx/stm32wlxx_it.c **** void SysTick_Handler(void)
 184:hardware/bsp/stm32wlxx/stm32wlxx_it.c **** {
 195              		.loc 1 184 1 view -0
 196              		.cfi_startproc
 197              		@ args = 0, pretend = 0, frame = 0
 198              		@ frame_needed = 0, uses_anonymous_args = 0
 199              		@ link register save eliminated.
 185:hardware/bsp/stm32wlxx/stm32wlxx_it.c ****   /* USER CODE BEGIN SysTick_IRQn 0 */
 186:hardware/bsp/stm32wlxx/stm32wlxx_it.c **** 
 187:hardware/bsp/stm32wlxx/stm32wlxx_it.c ****   /* USER CODE END SysTick_IRQn 0 */
 188:hardware/bsp/stm32wlxx/stm32wlxx_it.c ****   HAL_IncTick();
 200              		.loc 1 188 3 view .LVU23
 201 0000 FFF7FEBF 		b	HAL_IncTick
 202              	.LVL0:
 203              		.cfi_endproc
 204              	.LFE729:
 206              		.text
 207              	.Letext0:
 208              		.file 2 "/Applications/ARM/arm-none-eabi/include/machine/_default_types.h"
 209              		.file 3 "/Applications/ARM/arm-none-eabi/include/sys/_stdint.h"
 210              		.file 4 "hardware/mcu/st/stm32wlxx_hal_driver/Inc/stm32wlxx_ll_dma.h"
 211              		.file 5 "hardware/mcu/st/stm32wlxx_hal_driver/Inc/stm32wlxx_hal.h"
ARM GAS  /var/folders/b4/k4jbz0ms4wg23jtq0w6p483m0000gn/T//cc4jqGg8.s 			page 8

