ARM GAS  /tmp/cckd0Xcu.s 			page 1


   1              		.cpu cortex-m4
   2              		.arch armv7e-m
   3              		.fpu softvfp
   4              		.eabi_attribute 20, 1
   5              		.eabi_attribute 21, 1
   6              		.eabi_attribute 23, 3
   7              		.eabi_attribute 24, 1
   8              		.eabi_attribute 25, 1
   9              		.eabi_attribute 26, 1
  10              		.eabi_attribute 30, 4
  11              		.eabi_attribute 34, 1
  12              		.eabi_attribute 18, 4
  13              		.file	"stm32wlxx_hal_pwr.c"
  14              		.text
  15              	.Ltext0:
  16              		.cfi_sections	.debug_frame
  17              		.section	.text.HAL_PWR_DeInit,"ax",%progbits
  18              		.align	1
  19              		.global	HAL_PWR_DeInit
  20              		.syntax unified
  21              		.thumb
  22              		.thumb_func
  24              	HAL_PWR_DeInit:
  25              	.LFB721:
  26              		.file 1 "hardware/mcu/st/stm32wlxx_hal_driver/Src/stm32wlxx_hal_pwr.c"
   1:hardware/mcu/st/stm32wlxx_hal_driver/Src/stm32wlxx_hal_pwr.c **** /**
   2:hardware/mcu/st/stm32wlxx_hal_driver/Src/stm32wlxx_hal_pwr.c ****   ******************************************************************************
   3:hardware/mcu/st/stm32wlxx_hal_driver/Src/stm32wlxx_hal_pwr.c ****   * @file    stm32wlxx_hal_pwr.c
   4:hardware/mcu/st/stm32wlxx_hal_driver/Src/stm32wlxx_hal_pwr.c ****   * @author  MCD Application Team
   5:hardware/mcu/st/stm32wlxx_hal_driver/Src/stm32wlxx_hal_pwr.c ****   * @brief   PWR HAL module driver.
   6:hardware/mcu/st/stm32wlxx_hal_driver/Src/stm32wlxx_hal_pwr.c ****   *          This file provides firmware functions to manage the following
   7:hardware/mcu/st/stm32wlxx_hal_driver/Src/stm32wlxx_hal_pwr.c ****   *          functionalities of the Power Controller (PWR) peripheral:
   8:hardware/mcu/st/stm32wlxx_hal_driver/Src/stm32wlxx_hal_pwr.c ****   *           + Initialization/de-initialization functions
   9:hardware/mcu/st/stm32wlxx_hal_driver/Src/stm32wlxx_hal_pwr.c ****   *           + Peripheral Control functions
  10:hardware/mcu/st/stm32wlxx_hal_driver/Src/stm32wlxx_hal_pwr.c ****   ******************************************************************************
  11:hardware/mcu/st/stm32wlxx_hal_driver/Src/stm32wlxx_hal_pwr.c ****   * @attention
  12:hardware/mcu/st/stm32wlxx_hal_driver/Src/stm32wlxx_hal_pwr.c ****   *
  13:hardware/mcu/st/stm32wlxx_hal_driver/Src/stm32wlxx_hal_pwr.c ****   * <h2><center>&copy; Copyright (c) 2020 STMicroelectronics.
  14:hardware/mcu/st/stm32wlxx_hal_driver/Src/stm32wlxx_hal_pwr.c ****   * All rights reserved.</center></h2>
  15:hardware/mcu/st/stm32wlxx_hal_driver/Src/stm32wlxx_hal_pwr.c ****   *
  16:hardware/mcu/st/stm32wlxx_hal_driver/Src/stm32wlxx_hal_pwr.c ****   * This software component is licensed by ST under BSD 3-Clause license,
  17:hardware/mcu/st/stm32wlxx_hal_driver/Src/stm32wlxx_hal_pwr.c ****   * the "License"; You may not use this file except in compliance with the
  18:hardware/mcu/st/stm32wlxx_hal_driver/Src/stm32wlxx_hal_pwr.c ****   * License. You may obtain a copy of the License at:
  19:hardware/mcu/st/stm32wlxx_hal_driver/Src/stm32wlxx_hal_pwr.c ****   *                        opensource.org/licenses/BSD-3-Clause
  20:hardware/mcu/st/stm32wlxx_hal_driver/Src/stm32wlxx_hal_pwr.c ****   *
  21:hardware/mcu/st/stm32wlxx_hal_driver/Src/stm32wlxx_hal_pwr.c ****   ******************************************************************************
  22:hardware/mcu/st/stm32wlxx_hal_driver/Src/stm32wlxx_hal_pwr.c ****   */
  23:hardware/mcu/st/stm32wlxx_hal_driver/Src/stm32wlxx_hal_pwr.c **** 
  24:hardware/mcu/st/stm32wlxx_hal_driver/Src/stm32wlxx_hal_pwr.c **** /* Includes ------------------------------------------------------------------*/
  25:hardware/mcu/st/stm32wlxx_hal_driver/Src/stm32wlxx_hal_pwr.c **** #include "stm32wlxx_hal.h"
  26:hardware/mcu/st/stm32wlxx_hal_driver/Src/stm32wlxx_hal_pwr.c **** 
  27:hardware/mcu/st/stm32wlxx_hal_driver/Src/stm32wlxx_hal_pwr.c **** /** @addtogroup STM32WLxx_HAL_Driver
  28:hardware/mcu/st/stm32wlxx_hal_driver/Src/stm32wlxx_hal_pwr.c ****   * @{
  29:hardware/mcu/st/stm32wlxx_hal_driver/Src/stm32wlxx_hal_pwr.c ****   */
  30:hardware/mcu/st/stm32wlxx_hal_driver/Src/stm32wlxx_hal_pwr.c **** 
  31:hardware/mcu/st/stm32wlxx_hal_driver/Src/stm32wlxx_hal_pwr.c **** /** @addtogroup PWR
  32:hardware/mcu/st/stm32wlxx_hal_driver/Src/stm32wlxx_hal_pwr.c ****   * @{
ARM GAS  /tmp/cckd0Xcu.s 			page 2


  33:hardware/mcu/st/stm32wlxx_hal_driver/Src/stm32wlxx_hal_pwr.c ****   */
  34:hardware/mcu/st/stm32wlxx_hal_driver/Src/stm32wlxx_hal_pwr.c **** 
  35:hardware/mcu/st/stm32wlxx_hal_driver/Src/stm32wlxx_hal_pwr.c **** #ifdef HAL_PWR_MODULE_ENABLED
  36:hardware/mcu/st/stm32wlxx_hal_driver/Src/stm32wlxx_hal_pwr.c **** 
  37:hardware/mcu/st/stm32wlxx_hal_driver/Src/stm32wlxx_hal_pwr.c **** /* Private typedef -----------------------------------------------------------*/
  38:hardware/mcu/st/stm32wlxx_hal_driver/Src/stm32wlxx_hal_pwr.c **** /* Private define ------------------------------------------------------------*/
  39:hardware/mcu/st/stm32wlxx_hal_driver/Src/stm32wlxx_hal_pwr.c **** /* Private macro -------------------------------------------------------------*/
  40:hardware/mcu/st/stm32wlxx_hal_driver/Src/stm32wlxx_hal_pwr.c **** /* Private variables ---------------------------------------------------------*/
  41:hardware/mcu/st/stm32wlxx_hal_driver/Src/stm32wlxx_hal_pwr.c **** /* Private constants ---------------------------------------------------------*/
  42:hardware/mcu/st/stm32wlxx_hal_driver/Src/stm32wlxx_hal_pwr.c **** 
  43:hardware/mcu/st/stm32wlxx_hal_driver/Src/stm32wlxx_hal_pwr.c **** /** @addtogroup PWR_Private_Constants PWR Private Constants
  44:hardware/mcu/st/stm32wlxx_hal_driver/Src/stm32wlxx_hal_pwr.c ****   * @{
  45:hardware/mcu/st/stm32wlxx_hal_driver/Src/stm32wlxx_hal_pwr.c ****   */
  46:hardware/mcu/st/stm32wlxx_hal_driver/Src/stm32wlxx_hal_pwr.c **** /* Definitions of PWR registers reset value */
  47:hardware/mcu/st/stm32wlxx_hal_driver/Src/stm32wlxx_hal_pwr.c **** #define PWR_CR1_RESET_VALUE   (0x00000200)
  48:hardware/mcu/st/stm32wlxx_hal_driver/Src/stm32wlxx_hal_pwr.c **** #define PWR_CR2_RESET_VALUE   (0x00000000)
  49:hardware/mcu/st/stm32wlxx_hal_driver/Src/stm32wlxx_hal_pwr.c **** #define PWR_CR3_RESET_VALUE   (PWR_CR3_EIWUL)
  50:hardware/mcu/st/stm32wlxx_hal_driver/Src/stm32wlxx_hal_pwr.c **** #define PWR_CR4_RESET_VALUE   (0x00000000)
  51:hardware/mcu/st/stm32wlxx_hal_driver/Src/stm32wlxx_hal_pwr.c **** #define PWR_CR5_RESET_VALUE   (0x00000000)
  52:hardware/mcu/st/stm32wlxx_hal_driver/Src/stm32wlxx_hal_pwr.c **** #define PWR_PUCRA_RESET_VALUE (0x00000000)
  53:hardware/mcu/st/stm32wlxx_hal_driver/Src/stm32wlxx_hal_pwr.c **** #define PWR_PDCRA_RESET_VALUE (0x00000000)
  54:hardware/mcu/st/stm32wlxx_hal_driver/Src/stm32wlxx_hal_pwr.c **** #define PWR_PUCRB_RESET_VALUE (0x00000000)
  55:hardware/mcu/st/stm32wlxx_hal_driver/Src/stm32wlxx_hal_pwr.c **** #define PWR_PDCRB_RESET_VALUE (0x00000000)
  56:hardware/mcu/st/stm32wlxx_hal_driver/Src/stm32wlxx_hal_pwr.c **** #define PWR_PUCRC_RESET_VALUE (0x00000000)
  57:hardware/mcu/st/stm32wlxx_hal_driver/Src/stm32wlxx_hal_pwr.c **** #define PWR_PDCRC_RESET_VALUE (0x00000000)
  58:hardware/mcu/st/stm32wlxx_hal_driver/Src/stm32wlxx_hal_pwr.c **** #define PWR_PUCRH_RESET_VALUE (0x00000000)
  59:hardware/mcu/st/stm32wlxx_hal_driver/Src/stm32wlxx_hal_pwr.c **** #define PWR_PDCRH_RESET_VALUE (0x00000000)
  60:hardware/mcu/st/stm32wlxx_hal_driver/Src/stm32wlxx_hal_pwr.c **** #if defined(DUAL_CORE)
  61:hardware/mcu/st/stm32wlxx_hal_driver/Src/stm32wlxx_hal_pwr.c **** #define PWR_C2CR1_RESET_VALUE (PWR_C2CR1_LPMS_2 | PWR_C2CR1_LPMS_1 | PWR_C2CR1_LPMS_0)
  62:hardware/mcu/st/stm32wlxx_hal_driver/Src/stm32wlxx_hal_pwr.c **** #define PWR_C2CR3_RESET_VALUE (0x00000000)
  63:hardware/mcu/st/stm32wlxx_hal_driver/Src/stm32wlxx_hal_pwr.c **** #endif
  64:hardware/mcu/st/stm32wlxx_hal_driver/Src/stm32wlxx_hal_pwr.c **** /**
  65:hardware/mcu/st/stm32wlxx_hal_driver/Src/stm32wlxx_hal_pwr.c ****   * @}
  66:hardware/mcu/st/stm32wlxx_hal_driver/Src/stm32wlxx_hal_pwr.c ****   */
  67:hardware/mcu/st/stm32wlxx_hal_driver/Src/stm32wlxx_hal_pwr.c **** 
  68:hardware/mcu/st/stm32wlxx_hal_driver/Src/stm32wlxx_hal_pwr.c **** /* Private function prototypes -----------------------------------------------*/
  69:hardware/mcu/st/stm32wlxx_hal_driver/Src/stm32wlxx_hal_pwr.c **** /* Exported functions --------------------------------------------------------*/
  70:hardware/mcu/st/stm32wlxx_hal_driver/Src/stm32wlxx_hal_pwr.c **** /** @addtogroup PWR_Exported_Functions  PWR Exported Functions
  71:hardware/mcu/st/stm32wlxx_hal_driver/Src/stm32wlxx_hal_pwr.c ****   * @{
  72:hardware/mcu/st/stm32wlxx_hal_driver/Src/stm32wlxx_hal_pwr.c ****   */
  73:hardware/mcu/st/stm32wlxx_hal_driver/Src/stm32wlxx_hal_pwr.c **** 
  74:hardware/mcu/st/stm32wlxx_hal_driver/Src/stm32wlxx_hal_pwr.c **** /** @addtogroup PWR_Exported_Functions_Group1  Initialization and de-initialization functions
  75:hardware/mcu/st/stm32wlxx_hal_driver/Src/stm32wlxx_hal_pwr.c ****   * @brief  Initialization and de-initialization functions
  76:hardware/mcu/st/stm32wlxx_hal_driver/Src/stm32wlxx_hal_pwr.c ****   *
  77:hardware/mcu/st/stm32wlxx_hal_driver/Src/stm32wlxx_hal_pwr.c **** @verbatim
  78:hardware/mcu/st/stm32wlxx_hal_driver/Src/stm32wlxx_hal_pwr.c ****  ===============================================================================
  79:hardware/mcu/st/stm32wlxx_hal_driver/Src/stm32wlxx_hal_pwr.c ****               ##### Initialization and de-initialization functions #####
  80:hardware/mcu/st/stm32wlxx_hal_driver/Src/stm32wlxx_hal_pwr.c ****  ===============================================================================
  81:hardware/mcu/st/stm32wlxx_hal_driver/Src/stm32wlxx_hal_pwr.c ****     [..]
  82:hardware/mcu/st/stm32wlxx_hal_driver/Src/stm32wlxx_hal_pwr.c **** 
  83:hardware/mcu/st/stm32wlxx_hal_driver/Src/stm32wlxx_hal_pwr.c **** @endverbatim
  84:hardware/mcu/st/stm32wlxx_hal_driver/Src/stm32wlxx_hal_pwr.c ****   * @{
  85:hardware/mcu/st/stm32wlxx_hal_driver/Src/stm32wlxx_hal_pwr.c ****   */
  86:hardware/mcu/st/stm32wlxx_hal_driver/Src/stm32wlxx_hal_pwr.c **** 
  87:hardware/mcu/st/stm32wlxx_hal_driver/Src/stm32wlxx_hal_pwr.c **** /**
  88:hardware/mcu/st/stm32wlxx_hal_driver/Src/stm32wlxx_hal_pwr.c ****   * @brief  Deinitialize the HAL PWR peripheral registers to their default reset values.
  89:hardware/mcu/st/stm32wlxx_hal_driver/Src/stm32wlxx_hal_pwr.c ****   * @retval None
ARM GAS  /tmp/cckd0Xcu.s 			page 3


  90:hardware/mcu/st/stm32wlxx_hal_driver/Src/stm32wlxx_hal_pwr.c ****   */
  91:hardware/mcu/st/stm32wlxx_hal_driver/Src/stm32wlxx_hal_pwr.c **** void HAL_PWR_DeInit(void)
  92:hardware/mcu/st/stm32wlxx_hal_driver/Src/stm32wlxx_hal_pwr.c **** {
  27              		.loc 1 92 1 view -0
  28              		.cfi_startproc
  29              		@ args = 0, pretend = 0, frame = 0
  30              		@ frame_needed = 0, uses_anonymous_args = 0
  31              		@ link register save eliminated.
  93:hardware/mcu/st/stm32wlxx_hal_driver/Src/stm32wlxx_hal_pwr.c ****   /* Apply reset values to all PWR registers */
  94:hardware/mcu/st/stm32wlxx_hal_driver/Src/stm32wlxx_hal_pwr.c ****   /* Note: Update of each register required since PWR global reset is not     */
  95:hardware/mcu/st/stm32wlxx_hal_driver/Src/stm32wlxx_hal_pwr.c ****   /*       available at RCC level on this STM32 series.                        */
  96:hardware/mcu/st/stm32wlxx_hal_driver/Src/stm32wlxx_hal_pwr.c ****   LL_PWR_WriteReg(CR1, PWR_CR1_RESET_VALUE);
  32              		.loc 1 96 3 view .LVU1
  33 0000 0C4B     		ldr	r3, .L2
  34 0002 4FF40072 		mov	r2, #512
  35 0006 1A60     		str	r2, [r3]
  97:hardware/mcu/st/stm32wlxx_hal_driver/Src/stm32wlxx_hal_pwr.c ****   LL_PWR_WriteReg(CR2, PWR_CR2_RESET_VALUE);
  36              		.loc 1 97 3 view .LVU2
  98:hardware/mcu/st/stm32wlxx_hal_driver/Src/stm32wlxx_hal_pwr.c ****   LL_PWR_WriteReg(CR3, PWR_CR3_RESET_VALUE);
  37              		.loc 1 98 3 is_stmt 0 view .LVU3
  38 0008 4FF40041 		mov	r1, #32768
  97:hardware/mcu/st/stm32wlxx_hal_driver/Src/stm32wlxx_hal_pwr.c ****   LL_PWR_WriteReg(CR2, PWR_CR2_RESET_VALUE);
  39              		.loc 1 97 3 view .LVU4
  40 000c 0022     		movs	r2, #0
  41 000e 5A60     		str	r2, [r3, #4]
  42              		.loc 1 98 3 is_stmt 1 view .LVU5
  43 0010 9960     		str	r1, [r3, #8]
  99:hardware/mcu/st/stm32wlxx_hal_driver/Src/stm32wlxx_hal_pwr.c ****   LL_PWR_WriteReg(CR4, PWR_CR4_RESET_VALUE);
  44              		.loc 1 99 3 view .LVU6
  45 0012 DA60     		str	r2, [r3, #12]
 100:hardware/mcu/st/stm32wlxx_hal_driver/Src/stm32wlxx_hal_pwr.c ****   LL_PWR_WriteReg(CR5, PWR_CR5_RESET_VALUE);
  46              		.loc 1 100 3 view .LVU7
  47 0014 DA61     		str	r2, [r3, #28]
 101:hardware/mcu/st/stm32wlxx_hal_driver/Src/stm32wlxx_hal_pwr.c ****   LL_PWR_WriteReg(PUCRA, PWR_PUCRA_RESET_VALUE);
  48              		.loc 1 101 3 view .LVU8
  49 0016 1A62     		str	r2, [r3, #32]
 102:hardware/mcu/st/stm32wlxx_hal_driver/Src/stm32wlxx_hal_pwr.c ****   LL_PWR_WriteReg(PDCRA, PWR_PDCRA_RESET_VALUE);
  50              		.loc 1 102 3 view .LVU9
  51 0018 5A62     		str	r2, [r3, #36]
 103:hardware/mcu/st/stm32wlxx_hal_driver/Src/stm32wlxx_hal_pwr.c ****   LL_PWR_WriteReg(PUCRB, PWR_PUCRB_RESET_VALUE);
  52              		.loc 1 103 3 view .LVU10
  53 001a 9A62     		str	r2, [r3, #40]
 104:hardware/mcu/st/stm32wlxx_hal_driver/Src/stm32wlxx_hal_pwr.c ****   LL_PWR_WriteReg(PDCRB, PWR_PDCRB_RESET_VALUE);
  54              		.loc 1 104 3 view .LVU11
  55 001c DA62     		str	r2, [r3, #44]
 105:hardware/mcu/st/stm32wlxx_hal_driver/Src/stm32wlxx_hal_pwr.c ****   LL_PWR_WriteReg(PUCRC, PWR_PUCRC_RESET_VALUE);
  56              		.loc 1 105 3 view .LVU12
  57 001e 1A63     		str	r2, [r3, #48]
 106:hardware/mcu/st/stm32wlxx_hal_driver/Src/stm32wlxx_hal_pwr.c ****   LL_PWR_WriteReg(PDCRC, PWR_PDCRC_RESET_VALUE);
  58              		.loc 1 106 3 view .LVU13
  59 0020 5A63     		str	r2, [r3, #52]
 107:hardware/mcu/st/stm32wlxx_hal_driver/Src/stm32wlxx_hal_pwr.c ****   LL_PWR_WriteReg(PUCRH, PWR_PUCRH_RESET_VALUE);
  60              		.loc 1 107 3 view .LVU14
  61 0022 9A65     		str	r2, [r3, #88]
 108:hardware/mcu/st/stm32wlxx_hal_driver/Src/stm32wlxx_hal_pwr.c ****   LL_PWR_WriteReg(PDCRH, PWR_PDCRH_RESET_VALUE);
  62              		.loc 1 108 3 view .LVU15
  63 0024 DA65     		str	r2, [r3, #92]
ARM GAS  /tmp/cckd0Xcu.s 			page 4


 109:hardware/mcu/st/stm32wlxx_hal_driver/Src/stm32wlxx_hal_pwr.c **** #ifdef CORE_CM0PLUS
 110:hardware/mcu/st/stm32wlxx_hal_driver/Src/stm32wlxx_hal_pwr.c ****   LL_PWR_WriteReg(C2CR1, PWR_C2CR1_RESET_VALUE);
 111:hardware/mcu/st/stm32wlxx_hal_driver/Src/stm32wlxx_hal_pwr.c ****   LL_PWR_WriteReg(C2CR3, PWR_C2CR3_RESET_VALUE);
 112:hardware/mcu/st/stm32wlxx_hal_driver/Src/stm32wlxx_hal_pwr.c **** #endif
 113:hardware/mcu/st/stm32wlxx_hal_driver/Src/stm32wlxx_hal_pwr.c **** 
 114:hardware/mcu/st/stm32wlxx_hal_driver/Src/stm32wlxx_hal_pwr.c ****   /* Clear all flags */
 115:hardware/mcu/st/stm32wlxx_hal_driver/Src/stm32wlxx_hal_pwr.c ****   LL_PWR_WriteReg(SCR,
  64              		.loc 1 115 3 view .LVU16
  65 0026 40F60712 		movw	r2, #2311
  66 002a 9A61     		str	r2, [r3, #24]
 116:hardware/mcu/st/stm32wlxx_hal_driver/Src/stm32wlxx_hal_pwr.c ****                   LL_PWR_SCR_CWUF
 117:hardware/mcu/st/stm32wlxx_hal_driver/Src/stm32wlxx_hal_pwr.c ****                   | LL_PWR_SCR_CWRFBUSYF
 118:hardware/mcu/st/stm32wlxx_hal_driver/Src/stm32wlxx_hal_pwr.c ****                   | LL_PWR_SCR_CWPVDF
 119:hardware/mcu/st/stm32wlxx_hal_driver/Src/stm32wlxx_hal_pwr.c **** #if defined(DUAL_CORE)
 120:hardware/mcu/st/stm32wlxx_hal_driver/Src/stm32wlxx_hal_pwr.c ****                   | LL_PWR_SCR_CC2HF
 121:hardware/mcu/st/stm32wlxx_hal_driver/Src/stm32wlxx_hal_pwr.c **** #endif
 122:hardware/mcu/st/stm32wlxx_hal_driver/Src/stm32wlxx_hal_pwr.c ****                  );
 123:hardware/mcu/st/stm32wlxx_hal_driver/Src/stm32wlxx_hal_pwr.c **** 
 124:hardware/mcu/st/stm32wlxx_hal_driver/Src/stm32wlxx_hal_pwr.c ****   LL_PWR_WriteReg(EXTSCR,
  67              		.loc 1 124 3 view .LVU17
  68 002c 0122     		movs	r2, #1
  69 002e C3F88820 		str	r2, [r3, #136]
 125:hardware/mcu/st/stm32wlxx_hal_driver/Src/stm32wlxx_hal_pwr.c **** #ifdef CORE_CM0PLUS
 126:hardware/mcu/st/stm32wlxx_hal_driver/Src/stm32wlxx_hal_pwr.c ****                   LL_PWR_EXTSCR_C2CSSF
 127:hardware/mcu/st/stm32wlxx_hal_driver/Src/stm32wlxx_hal_pwr.c **** #else
 128:hardware/mcu/st/stm32wlxx_hal_driver/Src/stm32wlxx_hal_pwr.c ****                   LL_PWR_EXTSCR_C1CSSF
 129:hardware/mcu/st/stm32wlxx_hal_driver/Src/stm32wlxx_hal_pwr.c **** #endif
 130:hardware/mcu/st/stm32wlxx_hal_driver/Src/stm32wlxx_hal_pwr.c ****                  );
 131:hardware/mcu/st/stm32wlxx_hal_driver/Src/stm32wlxx_hal_pwr.c **** }
  70              		.loc 1 131 1 is_stmt 0 view .LVU18
  71 0032 7047     		bx	lr
  72              	.L3:
  73              		.align	2
  74              	.L2:
  75 0034 00040058 		.word	1476396032
  76              		.cfi_endproc
  77              	.LFE721:
  79              		.section	.text.HAL_PWR_EnableBkUpAccess,"ax",%progbits
  80              		.align	1
  81              		.global	HAL_PWR_EnableBkUpAccess
  82              		.syntax unified
  83              		.thumb
  84              		.thumb_func
  86              	HAL_PWR_EnableBkUpAccess:
  87              	.LFB722:
 132:hardware/mcu/st/stm32wlxx_hal_driver/Src/stm32wlxx_hal_pwr.c **** 
 133:hardware/mcu/st/stm32wlxx_hal_driver/Src/stm32wlxx_hal_pwr.c **** 
 134:hardware/mcu/st/stm32wlxx_hal_driver/Src/stm32wlxx_hal_pwr.c **** /**
 135:hardware/mcu/st/stm32wlxx_hal_driver/Src/stm32wlxx_hal_pwr.c ****   * @brief  Enable access to the backup domain
 136:hardware/mcu/st/stm32wlxx_hal_driver/Src/stm32wlxx_hal_pwr.c ****   *         (RTC registers, RTC backup data registers).
 137:hardware/mcu/st/stm32wlxx_hal_driver/Src/stm32wlxx_hal_pwr.c ****   * @note   After reset, the backup domain is protected against
 138:hardware/mcu/st/stm32wlxx_hal_driver/Src/stm32wlxx_hal_pwr.c ****   *         possible unwanted write accesses.
 139:hardware/mcu/st/stm32wlxx_hal_driver/Src/stm32wlxx_hal_pwr.c ****   * @note   RTCSEL that sets the RTC clock source selection is in the RTC backup domain.
 140:hardware/mcu/st/stm32wlxx_hal_driver/Src/stm32wlxx_hal_pwr.c ****   *         In order to set or modify the RTC clock, the backup domain access must be
 141:hardware/mcu/st/stm32wlxx_hal_driver/Src/stm32wlxx_hal_pwr.c ****   *         disabled.
 142:hardware/mcu/st/stm32wlxx_hal_driver/Src/stm32wlxx_hal_pwr.c ****   * @note   LSEON bit that switches on and off the LSE crystal belongs as well to the
 143:hardware/mcu/st/stm32wlxx_hal_driver/Src/stm32wlxx_hal_pwr.c ****   *         backup domain.
ARM GAS  /tmp/cckd0Xcu.s 			page 5


 144:hardware/mcu/st/stm32wlxx_hal_driver/Src/stm32wlxx_hal_pwr.c ****   * @retval None
 145:hardware/mcu/st/stm32wlxx_hal_driver/Src/stm32wlxx_hal_pwr.c ****   */
 146:hardware/mcu/st/stm32wlxx_hal_driver/Src/stm32wlxx_hal_pwr.c **** void HAL_PWR_EnableBkUpAccess(void)
 147:hardware/mcu/st/stm32wlxx_hal_driver/Src/stm32wlxx_hal_pwr.c **** {
  88              		.loc 1 147 1 is_stmt 1 view -0
  89              		.cfi_startproc
  90              		@ args = 0, pretend = 0, frame = 0
  91              		@ frame_needed = 0, uses_anonymous_args = 0
  92              		@ link register save eliminated.
 148:hardware/mcu/st/stm32wlxx_hal_driver/Src/stm32wlxx_hal_pwr.c ****   SET_BIT(PWR->CR1, PWR_CR1_DBP);
  93              		.loc 1 148 3 view .LVU20
  94 0000 024A     		ldr	r2, .L5
  95 0002 1368     		ldr	r3, [r2]
  96 0004 43F48073 		orr	r3, r3, #256
  97 0008 1360     		str	r3, [r2]
 149:hardware/mcu/st/stm32wlxx_hal_driver/Src/stm32wlxx_hal_pwr.c **** }
  98              		.loc 1 149 1 is_stmt 0 view .LVU21
  99 000a 7047     		bx	lr
 100              	.L6:
 101              		.align	2
 102              	.L5:
 103 000c 00040058 		.word	1476396032
 104              		.cfi_endproc
 105              	.LFE722:
 107              		.section	.text.HAL_PWR_DisableBkUpAccess,"ax",%progbits
 108              		.align	1
 109              		.global	HAL_PWR_DisableBkUpAccess
 110              		.syntax unified
 111              		.thumb
 112              		.thumb_func
 114              	HAL_PWR_DisableBkUpAccess:
 115              	.LFB723:
 150:hardware/mcu/st/stm32wlxx_hal_driver/Src/stm32wlxx_hal_pwr.c **** 
 151:hardware/mcu/st/stm32wlxx_hal_driver/Src/stm32wlxx_hal_pwr.c **** /**
 152:hardware/mcu/st/stm32wlxx_hal_driver/Src/stm32wlxx_hal_pwr.c ****   * @brief  Disable access to the backup domain
 153:hardware/mcu/st/stm32wlxx_hal_driver/Src/stm32wlxx_hal_pwr.c ****   *         (RTC registers, RTC backup data registers).
 154:hardware/mcu/st/stm32wlxx_hal_driver/Src/stm32wlxx_hal_pwr.c ****   * @retval None
 155:hardware/mcu/st/stm32wlxx_hal_driver/Src/stm32wlxx_hal_pwr.c ****   */
 156:hardware/mcu/st/stm32wlxx_hal_driver/Src/stm32wlxx_hal_pwr.c **** void HAL_PWR_DisableBkUpAccess(void)
 157:hardware/mcu/st/stm32wlxx_hal_driver/Src/stm32wlxx_hal_pwr.c **** {
 116              		.loc 1 157 1 is_stmt 1 view -0
 117              		.cfi_startproc
 118              		@ args = 0, pretend = 0, frame = 0
 119              		@ frame_needed = 0, uses_anonymous_args = 0
 120              		@ link register save eliminated.
 158:hardware/mcu/st/stm32wlxx_hal_driver/Src/stm32wlxx_hal_pwr.c ****   CLEAR_BIT(PWR->CR1, PWR_CR1_DBP);
 121              		.loc 1 158 3 view .LVU23
 122 0000 024A     		ldr	r2, .L8
 123 0002 1368     		ldr	r3, [r2]
 124 0004 23F48073 		bic	r3, r3, #256
 125 0008 1360     		str	r3, [r2]
 159:hardware/mcu/st/stm32wlxx_hal_driver/Src/stm32wlxx_hal_pwr.c **** }
 126              		.loc 1 159 1 is_stmt 0 view .LVU24
 127 000a 7047     		bx	lr
 128              	.L9:
 129              		.align	2
 130              	.L8:
ARM GAS  /tmp/cckd0Xcu.s 			page 6


 131 000c 00040058 		.word	1476396032
 132              		.cfi_endproc
 133              	.LFE723:
 135              		.section	.text.HAL_PWR_ConfigPVD,"ax",%progbits
 136              		.align	1
 137              		.global	HAL_PWR_ConfigPVD
 138              		.syntax unified
 139              		.thumb
 140              		.thumb_func
 142              	HAL_PWR_ConfigPVD:
 143              	.LVL0:
 144              	.LFB724:
 160:hardware/mcu/st/stm32wlxx_hal_driver/Src/stm32wlxx_hal_pwr.c **** 
 161:hardware/mcu/st/stm32wlxx_hal_driver/Src/stm32wlxx_hal_pwr.c **** /**
 162:hardware/mcu/st/stm32wlxx_hal_driver/Src/stm32wlxx_hal_pwr.c ****   * @}
 163:hardware/mcu/st/stm32wlxx_hal_driver/Src/stm32wlxx_hal_pwr.c ****   */
 164:hardware/mcu/st/stm32wlxx_hal_driver/Src/stm32wlxx_hal_pwr.c **** 
 165:hardware/mcu/st/stm32wlxx_hal_driver/Src/stm32wlxx_hal_pwr.c **** 
 166:hardware/mcu/st/stm32wlxx_hal_driver/Src/stm32wlxx_hal_pwr.c **** /** @addtogroup PWR_Exported_Functions_Group2  Peripheral Control functions
 167:hardware/mcu/st/stm32wlxx_hal_driver/Src/stm32wlxx_hal_pwr.c ****   *  @brief Low Power modes configuration functions
 168:hardware/mcu/st/stm32wlxx_hal_driver/Src/stm32wlxx_hal_pwr.c ****   *
 169:hardware/mcu/st/stm32wlxx_hal_driver/Src/stm32wlxx_hal_pwr.c **** @verbatim
 170:hardware/mcu/st/stm32wlxx_hal_driver/Src/stm32wlxx_hal_pwr.c **** 
 171:hardware/mcu/st/stm32wlxx_hal_driver/Src/stm32wlxx_hal_pwr.c ****  ===============================================================================
 172:hardware/mcu/st/stm32wlxx_hal_driver/Src/stm32wlxx_hal_pwr.c ****                  ##### Peripheral Control functions #####
 173:hardware/mcu/st/stm32wlxx_hal_driver/Src/stm32wlxx_hal_pwr.c ****  ===============================================================================
 174:hardware/mcu/st/stm32wlxx_hal_driver/Src/stm32wlxx_hal_pwr.c **** 
 175:hardware/mcu/st/stm32wlxx_hal_driver/Src/stm32wlxx_hal_pwr.c ****     [..]
 176:hardware/mcu/st/stm32wlxx_hal_driver/Src/stm32wlxx_hal_pwr.c ****      *** PVD configuration ***
 177:hardware/mcu/st/stm32wlxx_hal_driver/Src/stm32wlxx_hal_pwr.c ****     =========================
 178:hardware/mcu/st/stm32wlxx_hal_driver/Src/stm32wlxx_hal_pwr.c ****     [..]
 179:hardware/mcu/st/stm32wlxx_hal_driver/Src/stm32wlxx_hal_pwr.c ****       (+) The PVD is used to monitor the VDD power supply by comparing it to a
 180:hardware/mcu/st/stm32wlxx_hal_driver/Src/stm32wlxx_hal_pwr.c ****           threshold selected by the PVD Level (PLS[2:0] bits in PWR_CR2 register).
 181:hardware/mcu/st/stm32wlxx_hal_driver/Src/stm32wlxx_hal_pwr.c ****       (+) PVDO flag is available to indicate if VDD/VDDA is higher or lower
 182:hardware/mcu/st/stm32wlxx_hal_driver/Src/stm32wlxx_hal_pwr.c ****           than the PVD threshold. This event is internally connected to the EXTI
 183:hardware/mcu/st/stm32wlxx_hal_driver/Src/stm32wlxx_hal_pwr.c ****           line16 and can generate an interrupt if enabled. This is done through
 184:hardware/mcu/st/stm32wlxx_hal_driver/Src/stm32wlxx_hal_pwr.c ****           __HAL_PVD_EXTI_ENABLE_IT() macro.
 185:hardware/mcu/st/stm32wlxx_hal_driver/Src/stm32wlxx_hal_pwr.c ****       (+) The PVD is stopped in Standby mode.
 186:hardware/mcu/st/stm32wlxx_hal_driver/Src/stm32wlxx_hal_pwr.c **** 
 187:hardware/mcu/st/stm32wlxx_hal_driver/Src/stm32wlxx_hal_pwr.c ****     *** WakeUp pin configuration ***
 188:hardware/mcu/st/stm32wlxx_hal_driver/Src/stm32wlxx_hal_pwr.c ****     ================================
 189:hardware/mcu/st/stm32wlxx_hal_driver/Src/stm32wlxx_hal_pwr.c ****     [..]
 190:hardware/mcu/st/stm32wlxx_hal_driver/Src/stm32wlxx_hal_pwr.c ****       (+) WakeUp pins are used to wakeup the system from Standby mode or Shutdown mode.
 191:hardware/mcu/st/stm32wlxx_hal_driver/Src/stm32wlxx_hal_pwr.c ****           The polarity of these pins can be set to configure event detection on high
 192:hardware/mcu/st/stm32wlxx_hal_driver/Src/stm32wlxx_hal_pwr.c ****           level (rising edge) or low level (falling edge).
 193:hardware/mcu/st/stm32wlxx_hal_driver/Src/stm32wlxx_hal_pwr.c **** 
 194:hardware/mcu/st/stm32wlxx_hal_driver/Src/stm32wlxx_hal_pwr.c ****     *** Low Power modes configuration ***
 195:hardware/mcu/st/stm32wlxx_hal_driver/Src/stm32wlxx_hal_pwr.c ****     =====================================
 196:hardware/mcu/st/stm32wlxx_hal_driver/Src/stm32wlxx_hal_pwr.c ****     [..]
 197:hardware/mcu/st/stm32wlxx_hal_driver/Src/stm32wlxx_hal_pwr.c ****       The devices feature 8 low-power modes:
 198:hardware/mcu/st/stm32wlxx_hal_driver/Src/stm32wlxx_hal_pwr.c **** 
 199:hardware/mcu/st/stm32wlxx_hal_driver/Src/stm32wlxx_hal_pwr.c ****       (+) Low-power Run mode: core and peripherals are running, main regulator off, low power regul
 200:hardware/mcu/st/stm32wlxx_hal_driver/Src/stm32wlxx_hal_pwr.c **** 
 201:hardware/mcu/st/stm32wlxx_hal_driver/Src/stm32wlxx_hal_pwr.c ****       (+) Sleep mode: Cortex-M4 core stopped, peripherals kept running, main and low power regulato
 202:hardware/mcu/st/stm32wlxx_hal_driver/Src/stm32wlxx_hal_pwr.c ****       (+) Low-power Sleep mode: Cortex-M4 core stopped, peripherals kept running, main regulator of
 203:hardware/mcu/st/stm32wlxx_hal_driver/Src/stm32wlxx_hal_pwr.c **** 
 204:hardware/mcu/st/stm32wlxx_hal_driver/Src/stm32wlxx_hal_pwr.c ****       (+) Stop 0 mode: all clocks are stopped except LSI and LSE, main and low power regulators on.
ARM GAS  /tmp/cckd0Xcu.s 			page 7


 205:hardware/mcu/st/stm32wlxx_hal_driver/Src/stm32wlxx_hal_pwr.c ****       (+) Stop 1 mode: all clocks are stopped except LSI and LSE, main regulator off, low power reg
 206:hardware/mcu/st/stm32wlxx_hal_driver/Src/stm32wlxx_hal_pwr.c ****       (+) Stop 2 mode: all clocks are stopped except LSI and LSE, main regulator off, low power reg
 207:hardware/mcu/st/stm32wlxx_hal_driver/Src/stm32wlxx_hal_pwr.c **** 
 208:hardware/mcu/st/stm32wlxx_hal_driver/Src/stm32wlxx_hal_pwr.c ****       (+) Standby mode with SRAM2: all clocks are stopped except LSI and LSE, SRAM2 content preserv
 209:hardware/mcu/st/stm32wlxx_hal_driver/Src/stm32wlxx_hal_pwr.c ****       (+) Standby mode without SRAM2: all clocks are stopped except LSI and LSE, main and low power
 210:hardware/mcu/st/stm32wlxx_hal_driver/Src/stm32wlxx_hal_pwr.c **** 
 211:hardware/mcu/st/stm32wlxx_hal_driver/Src/stm32wlxx_hal_pwr.c ****       (+) Shutdown mode: all clocks are stopped except LSE, main and low power regulators off.
 212:hardware/mcu/st/stm32wlxx_hal_driver/Src/stm32wlxx_hal_pwr.c **** 
 213:hardware/mcu/st/stm32wlxx_hal_driver/Src/stm32wlxx_hal_pwr.c ****       (+) Note: system power mode depends on each sub-system (CPU1, CPU2, radio) power modes.
 214:hardware/mcu/st/stm32wlxx_hal_driver/Src/stm32wlxx_hal_pwr.c ****                 Each CPU request to enter in a low-power mode will make system enter in the equival
 215:hardware/mcu/st/stm32wlxx_hal_driver/Src/stm32wlxx_hal_pwr.c ****                 if all other sub-systems are aligned.
 216:hardware/mcu/st/stm32wlxx_hal_driver/Src/stm32wlxx_hal_pwr.c **** 
 217:hardware/mcu/st/stm32wlxx_hal_driver/Src/stm32wlxx_hal_pwr.c ****    *** Low-power run mode ***
 218:hardware/mcu/st/stm32wlxx_hal_driver/Src/stm32wlxx_hal_pwr.c ****    ==========================
 219:hardware/mcu/st/stm32wlxx_hal_driver/Src/stm32wlxx_hal_pwr.c ****     [..]
 220:hardware/mcu/st/stm32wlxx_hal_driver/Src/stm32wlxx_hal_pwr.c ****       (+) Entry: (from main run mode)
 221:hardware/mcu/st/stm32wlxx_hal_driver/Src/stm32wlxx_hal_pwr.c ****           (++) set LPR bit with HAL_PWREx_EnableLowPowerRunMode() API after having decreased the sy
 222:hardware/mcu/st/stm32wlxx_hal_driver/Src/stm32wlxx_hal_pwr.c ****       (+) Exit:
 223:hardware/mcu/st/stm32wlxx_hal_driver/Src/stm32wlxx_hal_pwr.c ****           (++) clear LPR bit then wait for REGLP bit to be reset with HAL_PWREx_DisableLowPowerRunM
 224:hardware/mcu/st/stm32wlxx_hal_driver/Src/stm32wlxx_hal_pwr.c ****                then can the system clock frequency be increased above 2 MHz.
 225:hardware/mcu/st/stm32wlxx_hal_driver/Src/stm32wlxx_hal_pwr.c **** 
 226:hardware/mcu/st/stm32wlxx_hal_driver/Src/stm32wlxx_hal_pwr.c ****    *** Sleep mode / Low-power sleep mode ***
 227:hardware/mcu/st/stm32wlxx_hal_driver/Src/stm32wlxx_hal_pwr.c ****    =========================================
 228:hardware/mcu/st/stm32wlxx_hal_driver/Src/stm32wlxx_hal_pwr.c ****     [..]
 229:hardware/mcu/st/stm32wlxx_hal_driver/Src/stm32wlxx_hal_pwr.c ****       (+) Entry:
 230:hardware/mcu/st/stm32wlxx_hal_driver/Src/stm32wlxx_hal_pwr.c ****           The Sleep mode / Low-power Sleep mode is entered through HAL_PWR_EnterSLEEPMode() API
 231:hardware/mcu/st/stm32wlxx_hal_driver/Src/stm32wlxx_hal_pwr.c ****           in specifying whether or not the regulator is forced to low-power mode and if exit is int
 232:hardware/mcu/st/stm32wlxx_hal_driver/Src/stm32wlxx_hal_pwr.c ****           (++) PWR_MAINREGULATOR_ON: Sleep mode (regulator in main mode).
 233:hardware/mcu/st/stm32wlxx_hal_driver/Src/stm32wlxx_hal_pwr.c ****           (++) PWR_LOWPOWERREGULATOR_ON: Low-power sleep (regulator in low power mode).
 234:hardware/mcu/st/stm32wlxx_hal_driver/Src/stm32wlxx_hal_pwr.c ****           In the latter case, the system clock frequency must have been decreased below 2 MHz befor
 235:hardware/mcu/st/stm32wlxx_hal_driver/Src/stm32wlxx_hal_pwr.c ****           (++) PWR_SLEEPENTRY_WFI: enter SLEEP mode with WFI instruction
 236:hardware/mcu/st/stm32wlxx_hal_driver/Src/stm32wlxx_hal_pwr.c ****           (++) PWR_SLEEPENTRY_WFE: enter SLEEP mode with WFE instruction
 237:hardware/mcu/st/stm32wlxx_hal_driver/Src/stm32wlxx_hal_pwr.c **** 
 238:hardware/mcu/st/stm32wlxx_hal_driver/Src/stm32wlxx_hal_pwr.c ****       (+) WFI Exit:
 239:hardware/mcu/st/stm32wlxx_hal_driver/Src/stm32wlxx_hal_pwr.c ****         (++) Any peripheral interrupt acknowledged by the nested vectored interrupt
 240:hardware/mcu/st/stm32wlxx_hal_driver/Src/stm32wlxx_hal_pwr.c ****              controller (NVIC) or any wake-up event.
 241:hardware/mcu/st/stm32wlxx_hal_driver/Src/stm32wlxx_hal_pwr.c **** 
 242:hardware/mcu/st/stm32wlxx_hal_driver/Src/stm32wlxx_hal_pwr.c ****       (+) WFE Exit:
 243:hardware/mcu/st/stm32wlxx_hal_driver/Src/stm32wlxx_hal_pwr.c ****         (++) Any wake-up event such as an EXTI line configured in event mode.
 244:hardware/mcu/st/stm32wlxx_hal_driver/Src/stm32wlxx_hal_pwr.c **** 
 245:hardware/mcu/st/stm32wlxx_hal_driver/Src/stm32wlxx_hal_pwr.c ****     [..]  When exiting the Low-power sleep mode by issuing an interrupt or a wakeup event,
 246:hardware/mcu/st/stm32wlxx_hal_driver/Src/stm32wlxx_hal_pwr.c ****           the MCU is in Low-power Run mode.
 247:hardware/mcu/st/stm32wlxx_hal_driver/Src/stm32wlxx_hal_pwr.c **** 
 248:hardware/mcu/st/stm32wlxx_hal_driver/Src/stm32wlxx_hal_pwr.c ****    *** Stop 0, Stop 1 and Stop 2 modes ***
 249:hardware/mcu/st/stm32wlxx_hal_driver/Src/stm32wlxx_hal_pwr.c ****    ===============================
 250:hardware/mcu/st/stm32wlxx_hal_driver/Src/stm32wlxx_hal_pwr.c ****     [..]
 251:hardware/mcu/st/stm32wlxx_hal_driver/Src/stm32wlxx_hal_pwr.c ****       (+) Entry:
 252:hardware/mcu/st/stm32wlxx_hal_driver/Src/stm32wlxx_hal_pwr.c ****           The Stop 0, Stop 1 or Stop 2 modes are entered through the following API's:
 253:hardware/mcu/st/stm32wlxx_hal_driver/Src/stm32wlxx_hal_pwr.c ****           (++) HAL_PWREx_EnterSTOP0Mode() for mode 0, HAL_PWREx_EnterSTOP1Mode() for mode 1, HAL_PW
 254:hardware/mcu/st/stm32wlxx_hal_driver/Src/stm32wlxx_hal_pwr.c ****                or for porting reasons HAL_PWR_EnterSTOPMode().
 255:hardware/mcu/st/stm32wlxx_hal_driver/Src/stm32wlxx_hal_pwr.c **** 
 256:hardware/mcu/st/stm32wlxx_hal_driver/Src/stm32wlxx_hal_pwr.c ****       (+) Regulator setting (applicable to HAL_PWR_EnterSTOPMode() only):
 257:hardware/mcu/st/stm32wlxx_hal_driver/Src/stm32wlxx_hal_pwr.c ****           (++) PWR_MAINREGULATOR_ON: Regulator in main mode (STOP0 mode)
 258:hardware/mcu/st/stm32wlxx_hal_driver/Src/stm32wlxx_hal_pwr.c ****           (++) PWR_LOWPOWERREGULATOR_ON: Regulator in low-power mode (STOP1 mode)
 259:hardware/mcu/st/stm32wlxx_hal_driver/Src/stm32wlxx_hal_pwr.c ****       (+) Exit (interrupt or event-triggered, specified when entering STOP mode):
 260:hardware/mcu/st/stm32wlxx_hal_driver/Src/stm32wlxx_hal_pwr.c ****           (++) PWR_STOPENTRY_WFI: enter Stop mode with WFI instruction
 261:hardware/mcu/st/stm32wlxx_hal_driver/Src/stm32wlxx_hal_pwr.c ****           (++) PWR_STOPENTRY_WFE: enter Stop mode with WFE instruction
ARM GAS  /tmp/cckd0Xcu.s 			page 8


 262:hardware/mcu/st/stm32wlxx_hal_driver/Src/stm32wlxx_hal_pwr.c ****       (+) WFI Exit:
 263:hardware/mcu/st/stm32wlxx_hal_driver/Src/stm32wlxx_hal_pwr.c ****           (++) Any EXTI Line (Internal or External) configured in Interrupt mode.
 264:hardware/mcu/st/stm32wlxx_hal_driver/Src/stm32wlxx_hal_pwr.c ****           (++) Some specific communication peripherals (USART, LPUART, I2C) interrupts
 265:hardware/mcu/st/stm32wlxx_hal_driver/Src/stm32wlxx_hal_pwr.c ****                when programmed in wakeup mode.
 266:hardware/mcu/st/stm32wlxx_hal_driver/Src/stm32wlxx_hal_pwr.c ****       (+) WFE Exit:
 267:hardware/mcu/st/stm32wlxx_hal_driver/Src/stm32wlxx_hal_pwr.c ****           (++) Any EXTI Line (Internal or External) configured in Event mode.
 268:hardware/mcu/st/stm32wlxx_hal_driver/Src/stm32wlxx_hal_pwr.c **** 
 269:hardware/mcu/st/stm32wlxx_hal_driver/Src/stm32wlxx_hal_pwr.c ****        [..]
 270:hardware/mcu/st/stm32wlxx_hal_driver/Src/stm32wlxx_hal_pwr.c ****           When exiting Stop 0 and Stop 1 modes, the MCU is either in Run mode or in Low-power Run m
 271:hardware/mcu/st/stm32wlxx_hal_driver/Src/stm32wlxx_hal_pwr.c ****           depending on the LPR bit setting.
 272:hardware/mcu/st/stm32wlxx_hal_driver/Src/stm32wlxx_hal_pwr.c ****           When exiting Stop 2 mode, the MCU is in Run mode.
 273:hardware/mcu/st/stm32wlxx_hal_driver/Src/stm32wlxx_hal_pwr.c **** 
 274:hardware/mcu/st/stm32wlxx_hal_driver/Src/stm32wlxx_hal_pwr.c ****    *** Standby mode ***
 275:hardware/mcu/st/stm32wlxx_hal_driver/Src/stm32wlxx_hal_pwr.c ****    ====================
 276:hardware/mcu/st/stm32wlxx_hal_driver/Src/stm32wlxx_hal_pwr.c ****     [..] The Standby mode offers two options:
 277:hardware/mcu/st/stm32wlxx_hal_driver/Src/stm32wlxx_hal_pwr.c ****       (+) option a) all clocks off except LSI and LSE, RRS bit set (keeps voltage regulator in low 
 278:hardware/mcu/st/stm32wlxx_hal_driver/Src/stm32wlxx_hal_pwr.c ****           SRAM and registers contents are lost except for the SRAM2 content, the RTC registers, RTC
 279:hardware/mcu/st/stm32wlxx_hal_driver/Src/stm32wlxx_hal_pwr.c ****           and Standby circuitry.
 280:hardware/mcu/st/stm32wlxx_hal_driver/Src/stm32wlxx_hal_pwr.c ****       (+) option b) all clocks off except LSI and LSE, RRS bit cleared (voltage regulator then disa
 281:hardware/mcu/st/stm32wlxx_hal_driver/Src/stm32wlxx_hal_pwr.c ****           SRAM and register contents are lost except for the RTC registers, RTC backup registers
 282:hardware/mcu/st/stm32wlxx_hal_driver/Src/stm32wlxx_hal_pwr.c ****           and Standby circuitry.
 283:hardware/mcu/st/stm32wlxx_hal_driver/Src/stm32wlxx_hal_pwr.c **** 
 284:hardware/mcu/st/stm32wlxx_hal_driver/Src/stm32wlxx_hal_pwr.c ****       (++) Entry:
 285:hardware/mcu/st/stm32wlxx_hal_driver/Src/stm32wlxx_hal_pwr.c ****           (+++) The Standby mode is entered through HAL_PWR_EnterSTANDBYMode() API.
 286:hardware/mcu/st/stm32wlxx_hal_driver/Src/stm32wlxx_hal_pwr.c ****                 SRAM1 and register contents are lost except for registers in the Backup domain and
 287:hardware/mcu/st/stm32wlxx_hal_driver/Src/stm32wlxx_hal_pwr.c ****                 Standby circuitry. SRAM2 content can be preserved if the bit RRS is set in PWR_CR3 
 288:hardware/mcu/st/stm32wlxx_hal_driver/Src/stm32wlxx_hal_pwr.c ****                 To enable this feature, the user can resort to HAL_PWREx_EnableSRAMRetention() API
 289:hardware/mcu/st/stm32wlxx_hal_driver/Src/stm32wlxx_hal_pwr.c ****                 to set RRS bit.
 290:hardware/mcu/st/stm32wlxx_hal_driver/Src/stm32wlxx_hal_pwr.c ****       (++) Exit:
 291:hardware/mcu/st/stm32wlxx_hal_driver/Src/stm32wlxx_hal_pwr.c ****           (+++) WKUP pin rising edge, RTC alarm or wakeup, tamper event, time-stamp event,
 292:hardware/mcu/st/stm32wlxx_hal_driver/Src/stm32wlxx_hal_pwr.c ****                 external reset in NRST pin, IWDG reset.
 293:hardware/mcu/st/stm32wlxx_hal_driver/Src/stm32wlxx_hal_pwr.c ****     [..] After waking up from Standby mode, program execution restarts in the same way as after a R
 294:hardware/mcu/st/stm32wlxx_hal_driver/Src/stm32wlxx_hal_pwr.c **** 
 295:hardware/mcu/st/stm32wlxx_hal_driver/Src/stm32wlxx_hal_pwr.c **** 
 296:hardware/mcu/st/stm32wlxx_hal_driver/Src/stm32wlxx_hal_pwr.c ****     *** Shutdown mode ***
 297:hardware/mcu/st/stm32wlxx_hal_driver/Src/stm32wlxx_hal_pwr.c ****    ======================
 298:hardware/mcu/st/stm32wlxx_hal_driver/Src/stm32wlxx_hal_pwr.c ****     [..]
 299:hardware/mcu/st/stm32wlxx_hal_driver/Src/stm32wlxx_hal_pwr.c ****       In Shutdown mode,
 300:hardware/mcu/st/stm32wlxx_hal_driver/Src/stm32wlxx_hal_pwr.c ****         voltage regulator is disabled, all clocks are off except LSE, RRS bit is cleared.
 301:hardware/mcu/st/stm32wlxx_hal_driver/Src/stm32wlxx_hal_pwr.c ****         SRAM and registers contents are lost except for backup domain registers.
 302:hardware/mcu/st/stm32wlxx_hal_driver/Src/stm32wlxx_hal_pwr.c ****       (+) Entry:
 303:hardware/mcu/st/stm32wlxx_hal_driver/Src/stm32wlxx_hal_pwr.c ****           The Shutdown mode is entered through HAL_PWREx_EnterSHUTDOWNMode() API.
 304:hardware/mcu/st/stm32wlxx_hal_driver/Src/stm32wlxx_hal_pwr.c ****       (+) Exit:
 305:hardware/mcu/st/stm32wlxx_hal_driver/Src/stm32wlxx_hal_pwr.c ****           (++) WKUP pin rising edge, RTC alarm or wakeup, tamper event, time-stamp event,
 306:hardware/mcu/st/stm32wlxx_hal_driver/Src/stm32wlxx_hal_pwr.c ****                external reset in NRST pin.
 307:hardware/mcu/st/stm32wlxx_hal_driver/Src/stm32wlxx_hal_pwr.c ****     [..] After waking up from Shutdown mode, program execution restarts in the same way as after a 
 308:hardware/mcu/st/stm32wlxx_hal_driver/Src/stm32wlxx_hal_pwr.c **** 
 309:hardware/mcu/st/stm32wlxx_hal_driver/Src/stm32wlxx_hal_pwr.c **** 
 310:hardware/mcu/st/stm32wlxx_hal_driver/Src/stm32wlxx_hal_pwr.c ****    *** Auto-wakeup (AWU) from low-power mode ***
 311:hardware/mcu/st/stm32wlxx_hal_driver/Src/stm32wlxx_hal_pwr.c ****    =============================================
 312:hardware/mcu/st/stm32wlxx_hal_driver/Src/stm32wlxx_hal_pwr.c ****     [..]
 313:hardware/mcu/st/stm32wlxx_hal_driver/Src/stm32wlxx_hal_pwr.c ****       The MCU can be woken up from low-power mode by an RTC Alarm event, an RTC
 314:hardware/mcu/st/stm32wlxx_hal_driver/Src/stm32wlxx_hal_pwr.c ****       Wakeup event, a tamper event or a time-stamp event, without depending on
 315:hardware/mcu/st/stm32wlxx_hal_driver/Src/stm32wlxx_hal_pwr.c ****       an external interrupt (Auto-wakeup mode).
 316:hardware/mcu/st/stm32wlxx_hal_driver/Src/stm32wlxx_hal_pwr.c **** 
 317:hardware/mcu/st/stm32wlxx_hal_driver/Src/stm32wlxx_hal_pwr.c ****       (+) RTC auto-wakeup (AWU) from the Stop, Standby and Shutdown modes
 318:hardware/mcu/st/stm32wlxx_hal_driver/Src/stm32wlxx_hal_pwr.c **** 
ARM GAS  /tmp/cckd0Xcu.s 			page 9


 319:hardware/mcu/st/stm32wlxx_hal_driver/Src/stm32wlxx_hal_pwr.c **** 
 320:hardware/mcu/st/stm32wlxx_hal_driver/Src/stm32wlxx_hal_pwr.c ****         (++) To wake up from the Stop mode with an RTC alarm event, it is necessary to
 321:hardware/mcu/st/stm32wlxx_hal_driver/Src/stm32wlxx_hal_pwr.c ****              configure the RTC to generate the RTC alarm using the HAL_RTC_SetAlarm_IT() function.
 322:hardware/mcu/st/stm32wlxx_hal_driver/Src/stm32wlxx_hal_pwr.c **** 
 323:hardware/mcu/st/stm32wlxx_hal_driver/Src/stm32wlxx_hal_pwr.c ****         (++) To wake up from the Stop mode with an RTC Tamper or time stamp event, it
 324:hardware/mcu/st/stm32wlxx_hal_driver/Src/stm32wlxx_hal_pwr.c ****              is necessary to configure the RTC to detect the tamper or time stamp event using the
 325:hardware/mcu/st/stm32wlxx_hal_driver/Src/stm32wlxx_hal_pwr.c ****              HAL_RTCEx_SetTimeStamp_IT() or HAL_RTCEx_SetTamper_IT() functions.
 326:hardware/mcu/st/stm32wlxx_hal_driver/Src/stm32wlxx_hal_pwr.c **** 
 327:hardware/mcu/st/stm32wlxx_hal_driver/Src/stm32wlxx_hal_pwr.c ****         (++) To wake up from the Stop mode with an RTC WakeUp event, it is necessary to
 328:hardware/mcu/st/stm32wlxx_hal_driver/Src/stm32wlxx_hal_pwr.c ****               configure the RTC to generate the RTC WakeUp event using the HAL_RTCEx_SetWakeUpTimer
 329:hardware/mcu/st/stm32wlxx_hal_driver/Src/stm32wlxx_hal_pwr.c **** 
 330:hardware/mcu/st/stm32wlxx_hal_driver/Src/stm32wlxx_hal_pwr.c **** @endverbatim
 331:hardware/mcu/st/stm32wlxx_hal_driver/Src/stm32wlxx_hal_pwr.c ****   * @{
 332:hardware/mcu/st/stm32wlxx_hal_driver/Src/stm32wlxx_hal_pwr.c ****   */
 333:hardware/mcu/st/stm32wlxx_hal_driver/Src/stm32wlxx_hal_pwr.c **** 
 334:hardware/mcu/st/stm32wlxx_hal_driver/Src/stm32wlxx_hal_pwr.c **** /**
 335:hardware/mcu/st/stm32wlxx_hal_driver/Src/stm32wlxx_hal_pwr.c ****   * @brief  Configure the voltage threshold detected by the Power Voltage Detector (PVD).
 336:hardware/mcu/st/stm32wlxx_hal_driver/Src/stm32wlxx_hal_pwr.c ****   * @param sConfigPVD pointer to a PWR_PVDTypeDef structure that contains the PVD
 337:hardware/mcu/st/stm32wlxx_hal_driver/Src/stm32wlxx_hal_pwr.c ****   *         configuration information.
 338:hardware/mcu/st/stm32wlxx_hal_driver/Src/stm32wlxx_hal_pwr.c ****   * @note   Refer to the electrical characteristics of your device datasheet for
 339:hardware/mcu/st/stm32wlxx_hal_driver/Src/stm32wlxx_hal_pwr.c ****   *         more details about the voltage thresholds corresponding to each
 340:hardware/mcu/st/stm32wlxx_hal_driver/Src/stm32wlxx_hal_pwr.c ****   *         detection level.
 341:hardware/mcu/st/stm32wlxx_hal_driver/Src/stm32wlxx_hal_pwr.c ****   * @note   For devices dual core: if "sConfigPVD->Mode" is set to PVD_MODE_IT,
 342:hardware/mcu/st/stm32wlxx_hal_driver/Src/stm32wlxx_hal_pwr.c ****   *         wake-up target is set to wake-up the selected CPU.
 343:hardware/mcu/st/stm32wlxx_hal_driver/Src/stm32wlxx_hal_pwr.c ****   * @retval HAL Status
 344:hardware/mcu/st/stm32wlxx_hal_driver/Src/stm32wlxx_hal_pwr.c ****   */
 345:hardware/mcu/st/stm32wlxx_hal_driver/Src/stm32wlxx_hal_pwr.c **** HAL_StatusTypeDef HAL_PWR_ConfigPVD(PWR_PVDTypeDef *sConfigPVD)
 346:hardware/mcu/st/stm32wlxx_hal_driver/Src/stm32wlxx_hal_pwr.c **** {
 145              		.loc 1 346 1 is_stmt 1 view -0
 146              		.cfi_startproc
 147              		@ args = 0, pretend = 0, frame = 0
 148              		@ frame_needed = 0, uses_anonymous_args = 0
 149              		@ link register save eliminated.
 347:hardware/mcu/st/stm32wlxx_hal_driver/Src/stm32wlxx_hal_pwr.c ****   /* Check the parameters */
 348:hardware/mcu/st/stm32wlxx_hal_driver/Src/stm32wlxx_hal_pwr.c ****   assert_param(IS_PWR_PVD_LEVEL(sConfigPVD->PVDLevel));
 150              		.loc 1 348 3 view .LVU26
 349:hardware/mcu/st/stm32wlxx_hal_driver/Src/stm32wlxx_hal_pwr.c ****   assert_param(IS_PWR_PVD_MODE(sConfigPVD->Mode));
 151              		.loc 1 349 3 view .LVU27
 350:hardware/mcu/st/stm32wlxx_hal_driver/Src/stm32wlxx_hal_pwr.c **** 
 351:hardware/mcu/st/stm32wlxx_hal_driver/Src/stm32wlxx_hal_pwr.c ****   /* Set PLS bits according to PVDLevel value */
 352:hardware/mcu/st/stm32wlxx_hal_driver/Src/stm32wlxx_hal_pwr.c ****   MODIFY_REG(PWR->CR2, PWR_CR2_PLS, sConfigPVD->PVDLevel);
 152              		.loc 1 352 3 view .LVU28
 153 0000 164A     		ldr	r2, .L23
 154 0002 0168     		ldr	r1, [r0]
 155 0004 5368     		ldr	r3, [r2, #4]
 156 0006 23F00E03 		bic	r3, r3, #14
 157 000a 0B43     		orrs	r3, r3, r1
 158 000c 5360     		str	r3, [r2, #4]
 353:hardware/mcu/st/stm32wlxx_hal_driver/Src/stm32wlxx_hal_pwr.c **** 
 354:hardware/mcu/st/stm32wlxx_hal_driver/Src/stm32wlxx_hal_pwr.c ****   /* Clear any previous config. Keep it clear if no event or IT mode is selected */
 355:hardware/mcu/st/stm32wlxx_hal_driver/Src/stm32wlxx_hal_pwr.c **** 
 356:hardware/mcu/st/stm32wlxx_hal_driver/Src/stm32wlxx_hal_pwr.c ****   /* Note: On STM32WL series, power PVD event is not available on EXTI lines   */
 357:hardware/mcu/st/stm32wlxx_hal_driver/Src/stm32wlxx_hal_pwr.c ****   /*       (only interruption is available through EXTI line 16).             */
 358:hardware/mcu/st/stm32wlxx_hal_driver/Src/stm32wlxx_hal_pwr.c ****   __HAL_PWR_PVD_EXTI_DISABLE_IT();
 159              		.loc 1 358 3 view .LVU29
 160              	.LBB14:
 161              	.LBI14:
ARM GAS  /tmp/cckd0Xcu.s 			page 10


 162              		.file 2 "hardware/mcu/st/stm32wlxx_hal_driver/Inc/stm32wlxx_ll_exti.h"
   1:hardware/mcu/st/stm32wlxx_hal_driver/Inc/stm32wlxx_ll_exti.h **** /**
   2:hardware/mcu/st/stm32wlxx_hal_driver/Inc/stm32wlxx_ll_exti.h ****   ******************************************************************************
   3:hardware/mcu/st/stm32wlxx_hal_driver/Inc/stm32wlxx_ll_exti.h ****   * @file    stm32wlxx_ll_exti.h
   4:hardware/mcu/st/stm32wlxx_hal_driver/Inc/stm32wlxx_ll_exti.h ****   * @author  MCD Application Team
   5:hardware/mcu/st/stm32wlxx_hal_driver/Inc/stm32wlxx_ll_exti.h ****   * @brief   Header file of EXTI LL module.
   6:hardware/mcu/st/stm32wlxx_hal_driver/Inc/stm32wlxx_ll_exti.h ****   ******************************************************************************
   7:hardware/mcu/st/stm32wlxx_hal_driver/Inc/stm32wlxx_ll_exti.h ****   * @attention
   8:hardware/mcu/st/stm32wlxx_hal_driver/Inc/stm32wlxx_ll_exti.h ****   *
   9:hardware/mcu/st/stm32wlxx_hal_driver/Inc/stm32wlxx_ll_exti.h ****   * <h2><center>&copy; Copyright (c) 2020 STMicroelectronics. 
  10:hardware/mcu/st/stm32wlxx_hal_driver/Inc/stm32wlxx_ll_exti.h ****   * All rights reserved.</center></h2>
  11:hardware/mcu/st/stm32wlxx_hal_driver/Inc/stm32wlxx_ll_exti.h ****   *
  12:hardware/mcu/st/stm32wlxx_hal_driver/Inc/stm32wlxx_ll_exti.h ****   * This software component is licensed by ST under BSD 3-Clause license,
  13:hardware/mcu/st/stm32wlxx_hal_driver/Inc/stm32wlxx_ll_exti.h ****   * the "License"; You may not use this file except in compliance with the 
  14:hardware/mcu/st/stm32wlxx_hal_driver/Inc/stm32wlxx_ll_exti.h ****   * License. You may obtain a copy of the License at:
  15:hardware/mcu/st/stm32wlxx_hal_driver/Inc/stm32wlxx_ll_exti.h ****   *                        opensource.org/licenses/BSD-3-Clause
  16:hardware/mcu/st/stm32wlxx_hal_driver/Inc/stm32wlxx_ll_exti.h ****   *
  17:hardware/mcu/st/stm32wlxx_hal_driver/Inc/stm32wlxx_ll_exti.h ****   ******************************************************************************
  18:hardware/mcu/st/stm32wlxx_hal_driver/Inc/stm32wlxx_ll_exti.h ****   */
  19:hardware/mcu/st/stm32wlxx_hal_driver/Inc/stm32wlxx_ll_exti.h **** 
  20:hardware/mcu/st/stm32wlxx_hal_driver/Inc/stm32wlxx_ll_exti.h **** /* Define to prevent recursive inclusion -------------------------------------*/
  21:hardware/mcu/st/stm32wlxx_hal_driver/Inc/stm32wlxx_ll_exti.h **** #ifndef __STM32WLxx_LL_EXTI_H
  22:hardware/mcu/st/stm32wlxx_hal_driver/Inc/stm32wlxx_ll_exti.h **** #define __STM32WLxx_LL_EXTI_H
  23:hardware/mcu/st/stm32wlxx_hal_driver/Inc/stm32wlxx_ll_exti.h **** 
  24:hardware/mcu/st/stm32wlxx_hal_driver/Inc/stm32wlxx_ll_exti.h **** #ifdef __cplusplus
  25:hardware/mcu/st/stm32wlxx_hal_driver/Inc/stm32wlxx_ll_exti.h **** extern "C" {
  26:hardware/mcu/st/stm32wlxx_hal_driver/Inc/stm32wlxx_ll_exti.h **** #endif
  27:hardware/mcu/st/stm32wlxx_hal_driver/Inc/stm32wlxx_ll_exti.h **** 
  28:hardware/mcu/st/stm32wlxx_hal_driver/Inc/stm32wlxx_ll_exti.h **** /* Includes ------------------------------------------------------------------*/
  29:hardware/mcu/st/stm32wlxx_hal_driver/Inc/stm32wlxx_ll_exti.h **** #include "stm32wlxx.h"
  30:hardware/mcu/st/stm32wlxx_hal_driver/Inc/stm32wlxx_ll_exti.h **** 
  31:hardware/mcu/st/stm32wlxx_hal_driver/Inc/stm32wlxx_ll_exti.h **** /** @addtogroup STM32WLxx_LL_Driver
  32:hardware/mcu/st/stm32wlxx_hal_driver/Inc/stm32wlxx_ll_exti.h ****   * @{
  33:hardware/mcu/st/stm32wlxx_hal_driver/Inc/stm32wlxx_ll_exti.h ****   */
  34:hardware/mcu/st/stm32wlxx_hal_driver/Inc/stm32wlxx_ll_exti.h **** 
  35:hardware/mcu/st/stm32wlxx_hal_driver/Inc/stm32wlxx_ll_exti.h **** #if defined (EXTI)
  36:hardware/mcu/st/stm32wlxx_hal_driver/Inc/stm32wlxx_ll_exti.h **** 
  37:hardware/mcu/st/stm32wlxx_hal_driver/Inc/stm32wlxx_ll_exti.h **** /** @defgroup EXTI_LL EXTI
  38:hardware/mcu/st/stm32wlxx_hal_driver/Inc/stm32wlxx_ll_exti.h ****   * @{
  39:hardware/mcu/st/stm32wlxx_hal_driver/Inc/stm32wlxx_ll_exti.h ****   */
  40:hardware/mcu/st/stm32wlxx_hal_driver/Inc/stm32wlxx_ll_exti.h **** 
  41:hardware/mcu/st/stm32wlxx_hal_driver/Inc/stm32wlxx_ll_exti.h **** /* Private types -------------------------------------------------------------*/
  42:hardware/mcu/st/stm32wlxx_hal_driver/Inc/stm32wlxx_ll_exti.h **** /* Private variables ---------------------------------------------------------*/
  43:hardware/mcu/st/stm32wlxx_hal_driver/Inc/stm32wlxx_ll_exti.h **** /* Private constants ---------------------------------------------------------*/
  44:hardware/mcu/st/stm32wlxx_hal_driver/Inc/stm32wlxx_ll_exti.h **** /* Private Macros ------------------------------------------------------------*/
  45:hardware/mcu/st/stm32wlxx_hal_driver/Inc/stm32wlxx_ll_exti.h **** #if defined(USE_FULL_LL_DRIVER)
  46:hardware/mcu/st/stm32wlxx_hal_driver/Inc/stm32wlxx_ll_exti.h **** /** @defgroup EXTI_LL_Private_Macros EXTI Private Macros
  47:hardware/mcu/st/stm32wlxx_hal_driver/Inc/stm32wlxx_ll_exti.h ****   * @{
  48:hardware/mcu/st/stm32wlxx_hal_driver/Inc/stm32wlxx_ll_exti.h ****   */
  49:hardware/mcu/st/stm32wlxx_hal_driver/Inc/stm32wlxx_ll_exti.h **** /**
  50:hardware/mcu/st/stm32wlxx_hal_driver/Inc/stm32wlxx_ll_exti.h ****   * @}
  51:hardware/mcu/st/stm32wlxx_hal_driver/Inc/stm32wlxx_ll_exti.h ****   */
  52:hardware/mcu/st/stm32wlxx_hal_driver/Inc/stm32wlxx_ll_exti.h **** #endif /*USE_FULL_LL_DRIVER*/
  53:hardware/mcu/st/stm32wlxx_hal_driver/Inc/stm32wlxx_ll_exti.h **** /* Exported types ------------------------------------------------------------*/
  54:hardware/mcu/st/stm32wlxx_hal_driver/Inc/stm32wlxx_ll_exti.h **** #if defined(USE_FULL_LL_DRIVER)
  55:hardware/mcu/st/stm32wlxx_hal_driver/Inc/stm32wlxx_ll_exti.h **** /** @defgroup EXTI_LL_ES_INIT EXTI Exported Init structure
  56:hardware/mcu/st/stm32wlxx_hal_driver/Inc/stm32wlxx_ll_exti.h ****   * @{
ARM GAS  /tmp/cckd0Xcu.s 			page 11


  57:hardware/mcu/st/stm32wlxx_hal_driver/Inc/stm32wlxx_ll_exti.h ****   */
  58:hardware/mcu/st/stm32wlxx_hal_driver/Inc/stm32wlxx_ll_exti.h **** typedef struct
  59:hardware/mcu/st/stm32wlxx_hal_driver/Inc/stm32wlxx_ll_exti.h **** {
  60:hardware/mcu/st/stm32wlxx_hal_driver/Inc/stm32wlxx_ll_exti.h **** 
  61:hardware/mcu/st/stm32wlxx_hal_driver/Inc/stm32wlxx_ll_exti.h ****   uint32_t Line_0_31;           /*!< Specifies the EXTI lines to be enabled or disabled for Lines i
  62:hardware/mcu/st/stm32wlxx_hal_driver/Inc/stm32wlxx_ll_exti.h ****                                      This parameter can be any combination of @ref EXTI_LL_EC_LINE 
  63:hardware/mcu/st/stm32wlxx_hal_driver/Inc/stm32wlxx_ll_exti.h **** 
  64:hardware/mcu/st/stm32wlxx_hal_driver/Inc/stm32wlxx_ll_exti.h ****   uint32_t Line_32_63;          /*!< Specifies the EXTI lines to be enabled or disabled for Lines i
  65:hardware/mcu/st/stm32wlxx_hal_driver/Inc/stm32wlxx_ll_exti.h ****                                      This parameter can be any combination of @ref EXTI_LL_EC_LINE 
  66:hardware/mcu/st/stm32wlxx_hal_driver/Inc/stm32wlxx_ll_exti.h **** 
  67:hardware/mcu/st/stm32wlxx_hal_driver/Inc/stm32wlxx_ll_exti.h ****   FunctionalState LineCommand;  /*!< Specifies the new state of the selected EXTI lines.
  68:hardware/mcu/st/stm32wlxx_hal_driver/Inc/stm32wlxx_ll_exti.h ****                                      This parameter can be set either to ENABLE or DISABLE */
  69:hardware/mcu/st/stm32wlxx_hal_driver/Inc/stm32wlxx_ll_exti.h **** 
  70:hardware/mcu/st/stm32wlxx_hal_driver/Inc/stm32wlxx_ll_exti.h ****   uint8_t Mode;                 /*!< Specifies the mode for the EXTI lines.
  71:hardware/mcu/st/stm32wlxx_hal_driver/Inc/stm32wlxx_ll_exti.h ****                                      This parameter can be a value of @ref EXTI_LL_EC_MODE. */
  72:hardware/mcu/st/stm32wlxx_hal_driver/Inc/stm32wlxx_ll_exti.h **** 
  73:hardware/mcu/st/stm32wlxx_hal_driver/Inc/stm32wlxx_ll_exti.h ****   uint8_t Trigger;              /*!< Specifies the trigger signal active edge for the EXTI lines.
  74:hardware/mcu/st/stm32wlxx_hal_driver/Inc/stm32wlxx_ll_exti.h ****                                      This parameter can be a value of @ref EXTI_LL_EC_TRIGGER. */
  75:hardware/mcu/st/stm32wlxx_hal_driver/Inc/stm32wlxx_ll_exti.h **** } LL_EXTI_InitTypeDef;
  76:hardware/mcu/st/stm32wlxx_hal_driver/Inc/stm32wlxx_ll_exti.h **** 
  77:hardware/mcu/st/stm32wlxx_hal_driver/Inc/stm32wlxx_ll_exti.h **** /**
  78:hardware/mcu/st/stm32wlxx_hal_driver/Inc/stm32wlxx_ll_exti.h ****   * @}
  79:hardware/mcu/st/stm32wlxx_hal_driver/Inc/stm32wlxx_ll_exti.h ****   */
  80:hardware/mcu/st/stm32wlxx_hal_driver/Inc/stm32wlxx_ll_exti.h **** #endif /*USE_FULL_LL_DRIVER*/
  81:hardware/mcu/st/stm32wlxx_hal_driver/Inc/stm32wlxx_ll_exti.h **** 
  82:hardware/mcu/st/stm32wlxx_hal_driver/Inc/stm32wlxx_ll_exti.h **** /* Exported constants --------------------------------------------------------*/
  83:hardware/mcu/st/stm32wlxx_hal_driver/Inc/stm32wlxx_ll_exti.h **** /** @defgroup EXTI_LL_Exported_Constants EXTI Exported Constants
  84:hardware/mcu/st/stm32wlxx_hal_driver/Inc/stm32wlxx_ll_exti.h ****   * @{
  85:hardware/mcu/st/stm32wlxx_hal_driver/Inc/stm32wlxx_ll_exti.h ****   */
  86:hardware/mcu/st/stm32wlxx_hal_driver/Inc/stm32wlxx_ll_exti.h **** 
  87:hardware/mcu/st/stm32wlxx_hal_driver/Inc/stm32wlxx_ll_exti.h **** /** @defgroup EXTI_LL_EC_LINE LINE
  88:hardware/mcu/st/stm32wlxx_hal_driver/Inc/stm32wlxx_ll_exti.h ****   * @{
  89:hardware/mcu/st/stm32wlxx_hal_driver/Inc/stm32wlxx_ll_exti.h ****   */
  90:hardware/mcu/st/stm32wlxx_hal_driver/Inc/stm32wlxx_ll_exti.h **** #define LL_EXTI_LINE_0                  EXTI_IMR1_IM0    /*!< Extended line 0 */
  91:hardware/mcu/st/stm32wlxx_hal_driver/Inc/stm32wlxx_ll_exti.h **** #define LL_EXTI_LINE_1                  EXTI_IMR1_IM1    /*!< Extended line 1 */
  92:hardware/mcu/st/stm32wlxx_hal_driver/Inc/stm32wlxx_ll_exti.h **** #define LL_EXTI_LINE_2                  EXTI_IMR1_IM2    /*!< Extended line 2 */
  93:hardware/mcu/st/stm32wlxx_hal_driver/Inc/stm32wlxx_ll_exti.h **** #define LL_EXTI_LINE_3                  EXTI_IMR1_IM3    /*!< Extended line 3 */
  94:hardware/mcu/st/stm32wlxx_hal_driver/Inc/stm32wlxx_ll_exti.h **** #define LL_EXTI_LINE_4                  EXTI_IMR1_IM4    /*!< Extended line 4 */
  95:hardware/mcu/st/stm32wlxx_hal_driver/Inc/stm32wlxx_ll_exti.h **** #define LL_EXTI_LINE_5                  EXTI_IMR1_IM5    /*!< Extended line 5 */
  96:hardware/mcu/st/stm32wlxx_hal_driver/Inc/stm32wlxx_ll_exti.h **** #define LL_EXTI_LINE_6                  EXTI_IMR1_IM6    /*!< Extended line 6 */
  97:hardware/mcu/st/stm32wlxx_hal_driver/Inc/stm32wlxx_ll_exti.h **** #define LL_EXTI_LINE_7                  EXTI_IMR1_IM7    /*!< Extended line 7 */
  98:hardware/mcu/st/stm32wlxx_hal_driver/Inc/stm32wlxx_ll_exti.h **** #define LL_EXTI_LINE_8                  EXTI_IMR1_IM8    /*!< Extended line 8 */
  99:hardware/mcu/st/stm32wlxx_hal_driver/Inc/stm32wlxx_ll_exti.h **** #define LL_EXTI_LINE_9                  EXTI_IMR1_IM9    /*!< Extended line 9 */
 100:hardware/mcu/st/stm32wlxx_hal_driver/Inc/stm32wlxx_ll_exti.h **** #define LL_EXTI_LINE_10                 EXTI_IMR1_IM10   /*!< Extended line 10 */
 101:hardware/mcu/st/stm32wlxx_hal_driver/Inc/stm32wlxx_ll_exti.h **** #define LL_EXTI_LINE_11                 EXTI_IMR1_IM11   /*!< Extended line 11 */
 102:hardware/mcu/st/stm32wlxx_hal_driver/Inc/stm32wlxx_ll_exti.h **** #define LL_EXTI_LINE_12                 EXTI_IMR1_IM12   /*!< Extended line 12 */
 103:hardware/mcu/st/stm32wlxx_hal_driver/Inc/stm32wlxx_ll_exti.h **** #define LL_EXTI_LINE_13                 EXTI_IMR1_IM13   /*!< Extended line 13 */
 104:hardware/mcu/st/stm32wlxx_hal_driver/Inc/stm32wlxx_ll_exti.h **** #define LL_EXTI_LINE_14                 EXTI_IMR1_IM14   /*!< Extended line 14 */
 105:hardware/mcu/st/stm32wlxx_hal_driver/Inc/stm32wlxx_ll_exti.h **** #define LL_EXTI_LINE_15                 EXTI_IMR1_IM15   /*!< Extended line 15 */
 106:hardware/mcu/st/stm32wlxx_hal_driver/Inc/stm32wlxx_ll_exti.h **** #define LL_EXTI_LINE_16                 EXTI_IMR1_IM16   /*!< Extended line 16 */
 107:hardware/mcu/st/stm32wlxx_hal_driver/Inc/stm32wlxx_ll_exti.h **** #define LL_EXTI_LINE_17                 EXTI_IMR1_IM17   /*!< Extended line 17 */
 108:hardware/mcu/st/stm32wlxx_hal_driver/Inc/stm32wlxx_ll_exti.h **** #define LL_EXTI_LINE_18                 EXTI_IMR1_IM18   /*!< Extended line 18 */
 109:hardware/mcu/st/stm32wlxx_hal_driver/Inc/stm32wlxx_ll_exti.h **** #define LL_EXTI_LINE_19                 EXTI_IMR1_IM19   /*!< Extended line 19 */
 110:hardware/mcu/st/stm32wlxx_hal_driver/Inc/stm32wlxx_ll_exti.h **** #define LL_EXTI_LINE_20                 EXTI_IMR1_IM20   /*!< Extended line 20 */
 111:hardware/mcu/st/stm32wlxx_hal_driver/Inc/stm32wlxx_ll_exti.h **** #define LL_EXTI_LINE_21                 EXTI_IMR1_IM21   /*!< Extended line 21 */
 112:hardware/mcu/st/stm32wlxx_hal_driver/Inc/stm32wlxx_ll_exti.h **** #define LL_EXTI_LINE_22                 EXTI_IMR1_IM22   /*!< Extended line 22 */
 113:hardware/mcu/st/stm32wlxx_hal_driver/Inc/stm32wlxx_ll_exti.h **** #define LL_EXTI_LINE_23                 EXTI_IMR1_IM23   /*!< Extended line 23 */
ARM GAS  /tmp/cckd0Xcu.s 			page 12


 114:hardware/mcu/st/stm32wlxx_hal_driver/Inc/stm32wlxx_ll_exti.h **** #define LL_EXTI_LINE_24                 EXTI_IMR1_IM24   /*!< Extended line 24 */
 115:hardware/mcu/st/stm32wlxx_hal_driver/Inc/stm32wlxx_ll_exti.h **** #define LL_EXTI_LINE_25                 EXTI_IMR1_IM25   /*!< Extended line 25 */
 116:hardware/mcu/st/stm32wlxx_hal_driver/Inc/stm32wlxx_ll_exti.h **** #define LL_EXTI_LINE_26                 EXTI_IMR1_IM26   /*!< Extended line 26 */
 117:hardware/mcu/st/stm32wlxx_hal_driver/Inc/stm32wlxx_ll_exti.h **** #define LL_EXTI_LINE_27                 EXTI_IMR1_IM27   /*!< Extended line 27 */
 118:hardware/mcu/st/stm32wlxx_hal_driver/Inc/stm32wlxx_ll_exti.h **** #define LL_EXTI_LINE_28                 EXTI_IMR1_IM28   /*!< Extended line 28 */
 119:hardware/mcu/st/stm32wlxx_hal_driver/Inc/stm32wlxx_ll_exti.h **** #define LL_EXTI_LINE_29                 EXTI_IMR1_IM29   /*!< Extended line 29 */
 120:hardware/mcu/st/stm32wlxx_hal_driver/Inc/stm32wlxx_ll_exti.h **** #define LL_EXTI_LINE_30                 EXTI_IMR1_IM30   /*!< Extended line 30 */
 121:hardware/mcu/st/stm32wlxx_hal_driver/Inc/stm32wlxx_ll_exti.h **** #define LL_EXTI_LINE_31                 EXTI_IMR1_IM31   /*!< Extended line 31 */
 122:hardware/mcu/st/stm32wlxx_hal_driver/Inc/stm32wlxx_ll_exti.h **** #define LL_EXTI_LINE_ALL_0_31           0xFFFFFFFFU      /*!< All Extended line not reserved*/
 123:hardware/mcu/st/stm32wlxx_hal_driver/Inc/stm32wlxx_ll_exti.h **** 
 124:hardware/mcu/st/stm32wlxx_hal_driver/Inc/stm32wlxx_ll_exti.h **** #define LL_EXTI_LINE_34                 EXTI_IMR2_IM34   /*!< Extended line 34 */
 125:hardware/mcu/st/stm32wlxx_hal_driver/Inc/stm32wlxx_ll_exti.h **** #if defined(DUAL_CORE)
 126:hardware/mcu/st/stm32wlxx_hal_driver/Inc/stm32wlxx_ll_exti.h **** #define LL_EXTI_LINE_36                 EXTI_IMR2_IM36   /*!< Extended line 36 */
 127:hardware/mcu/st/stm32wlxx_hal_driver/Inc/stm32wlxx_ll_exti.h **** #define LL_EXTI_LINE_37                 EXTI_IMR2_IM37   /*!< Extended line 37 */
 128:hardware/mcu/st/stm32wlxx_hal_driver/Inc/stm32wlxx_ll_exti.h **** #endif
 129:hardware/mcu/st/stm32wlxx_hal_driver/Inc/stm32wlxx_ll_exti.h **** #define LL_EXTI_LINE_38                 EXTI_IMR2_IM38   /*!< Extended line 38 */
 130:hardware/mcu/st/stm32wlxx_hal_driver/Inc/stm32wlxx_ll_exti.h **** #if defined(DUAL_CORE)
 131:hardware/mcu/st/stm32wlxx_hal_driver/Inc/stm32wlxx_ll_exti.h **** #define LL_EXTI_LINE_39                 EXTI_IMR2_IM39   /*!< Extended line 39 */
 132:hardware/mcu/st/stm32wlxx_hal_driver/Inc/stm32wlxx_ll_exti.h **** #define LL_EXTI_LINE_40                 EXTI_IMR2_IM40   /*!< Extended line 40 */
 133:hardware/mcu/st/stm32wlxx_hal_driver/Inc/stm32wlxx_ll_exti.h **** #define LL_EXTI_LINE_41                 EXTI_IMR2_IM41   /*!< Extended line 41 */
 134:hardware/mcu/st/stm32wlxx_hal_driver/Inc/stm32wlxx_ll_exti.h **** #endif
 135:hardware/mcu/st/stm32wlxx_hal_driver/Inc/stm32wlxx_ll_exti.h **** #define LL_EXTI_LINE_42                 EXTI_IMR2_IM42   /*!< Extended line 42 */
 136:hardware/mcu/st/stm32wlxx_hal_driver/Inc/stm32wlxx_ll_exti.h **** #define LL_EXTI_LINE_43                 EXTI_IMR2_IM43   /*!< Extended line 43 */
 137:hardware/mcu/st/stm32wlxx_hal_driver/Inc/stm32wlxx_ll_exti.h **** #define LL_EXTI_LINE_44                 EXTI_IMR2_IM44   /*!< Extended line 44 */
 138:hardware/mcu/st/stm32wlxx_hal_driver/Inc/stm32wlxx_ll_exti.h **** #define LL_EXTI_LINE_45                 EXTI_IMR2_IM45   /*!< Extended line 45 */
 139:hardware/mcu/st/stm32wlxx_hal_driver/Inc/stm32wlxx_ll_exti.h **** #define LL_EXTI_LINE_46                 EXTI_IMR2_IM46   /*!< Extended line 46 */
 140:hardware/mcu/st/stm32wlxx_hal_driver/Inc/stm32wlxx_ll_exti.h **** #if defined(DUAL_CORE)
 141:hardware/mcu/st/stm32wlxx_hal_driver/Inc/stm32wlxx_ll_exti.h **** #define LL_EXTI_LINE_ALL_32_63          (EXTI_IMR2_IM34 | EXTI_IMR2_IM36 | EXTI_IMR2_IM37 | \
 142:hardware/mcu/st/stm32wlxx_hal_driver/Inc/stm32wlxx_ll_exti.h ****                                         EXTI_IMR2_IM38 | EXTI_IMR2_IM39 | EXTI_IMR2_IM40 |  \
 143:hardware/mcu/st/stm32wlxx_hal_driver/Inc/stm32wlxx_ll_exti.h ****                                         EXTI_IMR2_IM41 | EXTI_IMR2_IM42 | EXTI_IMR2_IM43 |  \
 144:hardware/mcu/st/stm32wlxx_hal_driver/Inc/stm32wlxx_ll_exti.h ****                                         EXTI_IMR2_IM44 | EXTI_IMR2_IM45 | EXTI_IMR2_IM46) /*!< All 
 145:hardware/mcu/st/stm32wlxx_hal_driver/Inc/stm32wlxx_ll_exti.h **** #else
 146:hardware/mcu/st/stm32wlxx_hal_driver/Inc/stm32wlxx_ll_exti.h **** #define LL_EXTI_LINE_ALL_32_63          (EXTI_IMR2_IM34 | EXTI_IMR2_IM38 | EXTI_IMR2_IM42 | \
 147:hardware/mcu/st/stm32wlxx_hal_driver/Inc/stm32wlxx_ll_exti.h ****                                         EXTI_IMR2_IM43 | EXTI_IMR2_IM44 | EXTI_IMR2_IM45 |  \
 148:hardware/mcu/st/stm32wlxx_hal_driver/Inc/stm32wlxx_ll_exti.h ****                                         EXTI_IMR2_IM46) /*!< All Extended line not reserved*/
 149:hardware/mcu/st/stm32wlxx_hal_driver/Inc/stm32wlxx_ll_exti.h **** #endif
 150:hardware/mcu/st/stm32wlxx_hal_driver/Inc/stm32wlxx_ll_exti.h **** 
 151:hardware/mcu/st/stm32wlxx_hal_driver/Inc/stm32wlxx_ll_exti.h **** #if defined(USE_FULL_LL_DRIVER)
 152:hardware/mcu/st/stm32wlxx_hal_driver/Inc/stm32wlxx_ll_exti.h **** #define LL_EXTI_LINE_NONE              (0x00000000U)  /*!< None Extended line */
 153:hardware/mcu/st/stm32wlxx_hal_driver/Inc/stm32wlxx_ll_exti.h **** #endif /*USE_FULL_LL_DRIVER*/
 154:hardware/mcu/st/stm32wlxx_hal_driver/Inc/stm32wlxx_ll_exti.h **** 
 155:hardware/mcu/st/stm32wlxx_hal_driver/Inc/stm32wlxx_ll_exti.h **** /**
 156:hardware/mcu/st/stm32wlxx_hal_driver/Inc/stm32wlxx_ll_exti.h ****   * @}
 157:hardware/mcu/st/stm32wlxx_hal_driver/Inc/stm32wlxx_ll_exti.h ****   */
 158:hardware/mcu/st/stm32wlxx_hal_driver/Inc/stm32wlxx_ll_exti.h **** #if defined(USE_FULL_LL_DRIVER)
 159:hardware/mcu/st/stm32wlxx_hal_driver/Inc/stm32wlxx_ll_exti.h **** /** @defgroup EXTI_LL_EC_MODE Mode
 160:hardware/mcu/st/stm32wlxx_hal_driver/Inc/stm32wlxx_ll_exti.h ****   * @{
 161:hardware/mcu/st/stm32wlxx_hal_driver/Inc/stm32wlxx_ll_exti.h ****   */
 162:hardware/mcu/st/stm32wlxx_hal_driver/Inc/stm32wlxx_ll_exti.h **** #define LL_EXTI_MODE_IT                 ((uint8_t)0x00U) /*!< Interrupt Mode */
 163:hardware/mcu/st/stm32wlxx_hal_driver/Inc/stm32wlxx_ll_exti.h **** #define LL_EXTI_MODE_EVENT              ((uint8_t)0x01U) /*!< Event Mode */
 164:hardware/mcu/st/stm32wlxx_hal_driver/Inc/stm32wlxx_ll_exti.h **** #define LL_EXTI_MODE_IT_EVENT           ((uint8_t)0x02U) /*!< Interrupt & Event Mode */
 165:hardware/mcu/st/stm32wlxx_hal_driver/Inc/stm32wlxx_ll_exti.h **** /**
 166:hardware/mcu/st/stm32wlxx_hal_driver/Inc/stm32wlxx_ll_exti.h ****   * @}
 167:hardware/mcu/st/stm32wlxx_hal_driver/Inc/stm32wlxx_ll_exti.h ****   */
 168:hardware/mcu/st/stm32wlxx_hal_driver/Inc/stm32wlxx_ll_exti.h **** 
 169:hardware/mcu/st/stm32wlxx_hal_driver/Inc/stm32wlxx_ll_exti.h **** /** @defgroup EXTI_LL_EC_TRIGGER Edge Trigger
 170:hardware/mcu/st/stm32wlxx_hal_driver/Inc/stm32wlxx_ll_exti.h ****   * @{
ARM GAS  /tmp/cckd0Xcu.s 			page 13


 171:hardware/mcu/st/stm32wlxx_hal_driver/Inc/stm32wlxx_ll_exti.h ****   */
 172:hardware/mcu/st/stm32wlxx_hal_driver/Inc/stm32wlxx_ll_exti.h **** #define LL_EXTI_TRIGGER_NONE            ((uint8_t)0x00U) /*!< No Trigger Mode */
 173:hardware/mcu/st/stm32wlxx_hal_driver/Inc/stm32wlxx_ll_exti.h **** #define LL_EXTI_TRIGGER_RISING          ((uint8_t)0x01U) /*!< Trigger Rising Mode */
 174:hardware/mcu/st/stm32wlxx_hal_driver/Inc/stm32wlxx_ll_exti.h **** #define LL_EXTI_TRIGGER_FALLING         ((uint8_t)0x02U) /*!< Trigger Falling Mode */
 175:hardware/mcu/st/stm32wlxx_hal_driver/Inc/stm32wlxx_ll_exti.h **** #define LL_EXTI_TRIGGER_RISING_FALLING  ((uint8_t)0x03U) /*!< Trigger Rising & Falling Mode */
 176:hardware/mcu/st/stm32wlxx_hal_driver/Inc/stm32wlxx_ll_exti.h **** /**
 177:hardware/mcu/st/stm32wlxx_hal_driver/Inc/stm32wlxx_ll_exti.h ****   * @}
 178:hardware/mcu/st/stm32wlxx_hal_driver/Inc/stm32wlxx_ll_exti.h ****   */
 179:hardware/mcu/st/stm32wlxx_hal_driver/Inc/stm32wlxx_ll_exti.h **** #endif /*USE_FULL_LL_DRIVER*/
 180:hardware/mcu/st/stm32wlxx_hal_driver/Inc/stm32wlxx_ll_exti.h **** 
 181:hardware/mcu/st/stm32wlxx_hal_driver/Inc/stm32wlxx_ll_exti.h **** /**
 182:hardware/mcu/st/stm32wlxx_hal_driver/Inc/stm32wlxx_ll_exti.h ****   * @}
 183:hardware/mcu/st/stm32wlxx_hal_driver/Inc/stm32wlxx_ll_exti.h ****   */
 184:hardware/mcu/st/stm32wlxx_hal_driver/Inc/stm32wlxx_ll_exti.h **** 
 185:hardware/mcu/st/stm32wlxx_hal_driver/Inc/stm32wlxx_ll_exti.h **** /* Exported macro ------------------------------------------------------------*/
 186:hardware/mcu/st/stm32wlxx_hal_driver/Inc/stm32wlxx_ll_exti.h **** /** @defgroup EXTI_LL_Exported_Macros EXTI Exported Macros
 187:hardware/mcu/st/stm32wlxx_hal_driver/Inc/stm32wlxx_ll_exti.h ****   * @{
 188:hardware/mcu/st/stm32wlxx_hal_driver/Inc/stm32wlxx_ll_exti.h ****   */
 189:hardware/mcu/st/stm32wlxx_hal_driver/Inc/stm32wlxx_ll_exti.h **** 
 190:hardware/mcu/st/stm32wlxx_hal_driver/Inc/stm32wlxx_ll_exti.h **** /** @defgroup EXTI_LL_EM_WRITE_READ Common Write and read registers Macros
 191:hardware/mcu/st/stm32wlxx_hal_driver/Inc/stm32wlxx_ll_exti.h ****   * @{
 192:hardware/mcu/st/stm32wlxx_hal_driver/Inc/stm32wlxx_ll_exti.h ****   */
 193:hardware/mcu/st/stm32wlxx_hal_driver/Inc/stm32wlxx_ll_exti.h **** 
 194:hardware/mcu/st/stm32wlxx_hal_driver/Inc/stm32wlxx_ll_exti.h **** /**
 195:hardware/mcu/st/stm32wlxx_hal_driver/Inc/stm32wlxx_ll_exti.h ****   * @brief  Write a value in EXTI register
 196:hardware/mcu/st/stm32wlxx_hal_driver/Inc/stm32wlxx_ll_exti.h ****   * @param  __REG__ Register to be written
 197:hardware/mcu/st/stm32wlxx_hal_driver/Inc/stm32wlxx_ll_exti.h ****   * @param  __VALUE__ Value to be written in the register
 198:hardware/mcu/st/stm32wlxx_hal_driver/Inc/stm32wlxx_ll_exti.h ****   * @retval None
 199:hardware/mcu/st/stm32wlxx_hal_driver/Inc/stm32wlxx_ll_exti.h ****   */
 200:hardware/mcu/st/stm32wlxx_hal_driver/Inc/stm32wlxx_ll_exti.h **** #define LL_EXTI_WriteReg(__REG__, __VALUE__) WRITE_REG(EXTI->__REG__, (__VALUE__))
 201:hardware/mcu/st/stm32wlxx_hal_driver/Inc/stm32wlxx_ll_exti.h **** 
 202:hardware/mcu/st/stm32wlxx_hal_driver/Inc/stm32wlxx_ll_exti.h **** /**
 203:hardware/mcu/st/stm32wlxx_hal_driver/Inc/stm32wlxx_ll_exti.h ****   * @brief  Read a value in EXTI register
 204:hardware/mcu/st/stm32wlxx_hal_driver/Inc/stm32wlxx_ll_exti.h ****   * @param  __REG__ Register to be read
 205:hardware/mcu/st/stm32wlxx_hal_driver/Inc/stm32wlxx_ll_exti.h ****   * @retval Register value
 206:hardware/mcu/st/stm32wlxx_hal_driver/Inc/stm32wlxx_ll_exti.h ****   */
 207:hardware/mcu/st/stm32wlxx_hal_driver/Inc/stm32wlxx_ll_exti.h **** #define LL_EXTI_ReadReg(__REG__) READ_REG(EXTI->__REG__)
 208:hardware/mcu/st/stm32wlxx_hal_driver/Inc/stm32wlxx_ll_exti.h **** /**
 209:hardware/mcu/st/stm32wlxx_hal_driver/Inc/stm32wlxx_ll_exti.h ****   * @}
 210:hardware/mcu/st/stm32wlxx_hal_driver/Inc/stm32wlxx_ll_exti.h ****   */
 211:hardware/mcu/st/stm32wlxx_hal_driver/Inc/stm32wlxx_ll_exti.h **** 
 212:hardware/mcu/st/stm32wlxx_hal_driver/Inc/stm32wlxx_ll_exti.h **** 
 213:hardware/mcu/st/stm32wlxx_hal_driver/Inc/stm32wlxx_ll_exti.h **** /**
 214:hardware/mcu/st/stm32wlxx_hal_driver/Inc/stm32wlxx_ll_exti.h ****   * @}
 215:hardware/mcu/st/stm32wlxx_hal_driver/Inc/stm32wlxx_ll_exti.h ****   */
 216:hardware/mcu/st/stm32wlxx_hal_driver/Inc/stm32wlxx_ll_exti.h **** 
 217:hardware/mcu/st/stm32wlxx_hal_driver/Inc/stm32wlxx_ll_exti.h **** 
 218:hardware/mcu/st/stm32wlxx_hal_driver/Inc/stm32wlxx_ll_exti.h **** 
 219:hardware/mcu/st/stm32wlxx_hal_driver/Inc/stm32wlxx_ll_exti.h **** /* Exported functions --------------------------------------------------------*/
 220:hardware/mcu/st/stm32wlxx_hal_driver/Inc/stm32wlxx_ll_exti.h **** /** @defgroup EXTI_LL_Exported_Functions EXTI Exported Functions
 221:hardware/mcu/st/stm32wlxx_hal_driver/Inc/stm32wlxx_ll_exti.h ****  * @{
 222:hardware/mcu/st/stm32wlxx_hal_driver/Inc/stm32wlxx_ll_exti.h ****  */
 223:hardware/mcu/st/stm32wlxx_hal_driver/Inc/stm32wlxx_ll_exti.h **** /** @defgroup EXTI_LL_EF_IT_Management IT_Management
 224:hardware/mcu/st/stm32wlxx_hal_driver/Inc/stm32wlxx_ll_exti.h ****   * @{
 225:hardware/mcu/st/stm32wlxx_hal_driver/Inc/stm32wlxx_ll_exti.h ****   */
 226:hardware/mcu/st/stm32wlxx_hal_driver/Inc/stm32wlxx_ll_exti.h **** 
 227:hardware/mcu/st/stm32wlxx_hal_driver/Inc/stm32wlxx_ll_exti.h **** /**
ARM GAS  /tmp/cckd0Xcu.s 			page 14


 228:hardware/mcu/st/stm32wlxx_hal_driver/Inc/stm32wlxx_ll_exti.h ****   * @brief  Enable ExtiLine Interrupt request for Lines in range 0 to 31
 229:hardware/mcu/st/stm32wlxx_hal_driver/Inc/stm32wlxx_ll_exti.h ****   * @rmtoll IMR1         IMx           LL_EXTI_EnableIT_0_31
 230:hardware/mcu/st/stm32wlxx_hal_driver/Inc/stm32wlxx_ll_exti.h ****   * @param  ExtiLine This parameter can be one of the following values:
 231:hardware/mcu/st/stm32wlxx_hal_driver/Inc/stm32wlxx_ll_exti.h ****   *         @arg @ref LL_EXTI_LINE_0
 232:hardware/mcu/st/stm32wlxx_hal_driver/Inc/stm32wlxx_ll_exti.h ****   *         @arg @ref LL_EXTI_LINE_1
 233:hardware/mcu/st/stm32wlxx_hal_driver/Inc/stm32wlxx_ll_exti.h ****   *         @arg @ref LL_EXTI_LINE_2
 234:hardware/mcu/st/stm32wlxx_hal_driver/Inc/stm32wlxx_ll_exti.h ****   *         @arg @ref LL_EXTI_LINE_3
 235:hardware/mcu/st/stm32wlxx_hal_driver/Inc/stm32wlxx_ll_exti.h ****   *         @arg @ref LL_EXTI_LINE_4
 236:hardware/mcu/st/stm32wlxx_hal_driver/Inc/stm32wlxx_ll_exti.h ****   *         @arg @ref LL_EXTI_LINE_5
 237:hardware/mcu/st/stm32wlxx_hal_driver/Inc/stm32wlxx_ll_exti.h ****   *         @arg @ref LL_EXTI_LINE_6
 238:hardware/mcu/st/stm32wlxx_hal_driver/Inc/stm32wlxx_ll_exti.h ****   *         @arg @ref LL_EXTI_LINE_7
 239:hardware/mcu/st/stm32wlxx_hal_driver/Inc/stm32wlxx_ll_exti.h ****   *         @arg @ref LL_EXTI_LINE_8
 240:hardware/mcu/st/stm32wlxx_hal_driver/Inc/stm32wlxx_ll_exti.h ****   *         @arg @ref LL_EXTI_LINE_9
 241:hardware/mcu/st/stm32wlxx_hal_driver/Inc/stm32wlxx_ll_exti.h ****   *         @arg @ref LL_EXTI_LINE_10
 242:hardware/mcu/st/stm32wlxx_hal_driver/Inc/stm32wlxx_ll_exti.h ****   *         @arg @ref LL_EXTI_LINE_11
 243:hardware/mcu/st/stm32wlxx_hal_driver/Inc/stm32wlxx_ll_exti.h ****   *         @arg @ref LL_EXTI_LINE_12
 244:hardware/mcu/st/stm32wlxx_hal_driver/Inc/stm32wlxx_ll_exti.h ****   *         @arg @ref LL_EXTI_LINE_13
 245:hardware/mcu/st/stm32wlxx_hal_driver/Inc/stm32wlxx_ll_exti.h ****   *         @arg @ref LL_EXTI_LINE_14
 246:hardware/mcu/st/stm32wlxx_hal_driver/Inc/stm32wlxx_ll_exti.h ****   *         @arg @ref LL_EXTI_LINE_15
 247:hardware/mcu/st/stm32wlxx_hal_driver/Inc/stm32wlxx_ll_exti.h ****   *         @arg @ref LL_EXTI_LINE_16
 248:hardware/mcu/st/stm32wlxx_hal_driver/Inc/stm32wlxx_ll_exti.h ****   *         @arg @ref LL_EXTI_LINE_17
 249:hardware/mcu/st/stm32wlxx_hal_driver/Inc/stm32wlxx_ll_exti.h ****   *         @arg @ref LL_EXTI_LINE_18
 250:hardware/mcu/st/stm32wlxx_hal_driver/Inc/stm32wlxx_ll_exti.h ****   *         @arg @ref LL_EXTI_LINE_19
 251:hardware/mcu/st/stm32wlxx_hal_driver/Inc/stm32wlxx_ll_exti.h ****   *         @arg @ref LL_EXTI_LINE_20
 252:hardware/mcu/st/stm32wlxx_hal_driver/Inc/stm32wlxx_ll_exti.h ****   *         @arg @ref LL_EXTI_LINE_21
 253:hardware/mcu/st/stm32wlxx_hal_driver/Inc/stm32wlxx_ll_exti.h ****   *         @arg @ref LL_EXTI_LINE_22
 254:hardware/mcu/st/stm32wlxx_hal_driver/Inc/stm32wlxx_ll_exti.h ****   *         @arg @ref LL_EXTI_LINE_23
 255:hardware/mcu/st/stm32wlxx_hal_driver/Inc/stm32wlxx_ll_exti.h ****   *         @arg @ref LL_EXTI_LINE_24
 256:hardware/mcu/st/stm32wlxx_hal_driver/Inc/stm32wlxx_ll_exti.h ****   *         @arg @ref LL_EXTI_LINE_25
 257:hardware/mcu/st/stm32wlxx_hal_driver/Inc/stm32wlxx_ll_exti.h ****   *         @arg @ref LL_EXTI_LINE_26
 258:hardware/mcu/st/stm32wlxx_hal_driver/Inc/stm32wlxx_ll_exti.h ****   *         @arg @ref LL_EXTI_LINE_27
 259:hardware/mcu/st/stm32wlxx_hal_driver/Inc/stm32wlxx_ll_exti.h ****   *         @arg @ref LL_EXTI_LINE_28
 260:hardware/mcu/st/stm32wlxx_hal_driver/Inc/stm32wlxx_ll_exti.h ****   *         @arg @ref LL_EXTI_LINE_29
 261:hardware/mcu/st/stm32wlxx_hal_driver/Inc/stm32wlxx_ll_exti.h ****   *         @arg @ref LL_EXTI_LINE_30
 262:hardware/mcu/st/stm32wlxx_hal_driver/Inc/stm32wlxx_ll_exti.h ****   *         @arg @ref LL_EXTI_LINE_31
 263:hardware/mcu/st/stm32wlxx_hal_driver/Inc/stm32wlxx_ll_exti.h ****   *         @arg @ref LL_EXTI_LINE_ALL_0_31
 264:hardware/mcu/st/stm32wlxx_hal_driver/Inc/stm32wlxx_ll_exti.h ****   * @retval None
 265:hardware/mcu/st/stm32wlxx_hal_driver/Inc/stm32wlxx_ll_exti.h ****   */
 266:hardware/mcu/st/stm32wlxx_hal_driver/Inc/stm32wlxx_ll_exti.h **** __STATIC_INLINE void LL_EXTI_EnableIT_0_31(uint32_t ExtiLine)
 267:hardware/mcu/st/stm32wlxx_hal_driver/Inc/stm32wlxx_ll_exti.h **** {
 268:hardware/mcu/st/stm32wlxx_hal_driver/Inc/stm32wlxx_ll_exti.h ****   SET_BIT(EXTI->IMR1, ExtiLine);
 269:hardware/mcu/st/stm32wlxx_hal_driver/Inc/stm32wlxx_ll_exti.h **** }
 270:hardware/mcu/st/stm32wlxx_hal_driver/Inc/stm32wlxx_ll_exti.h **** 
 271:hardware/mcu/st/stm32wlxx_hal_driver/Inc/stm32wlxx_ll_exti.h **** #if defined(DUAL_CORE)
 272:hardware/mcu/st/stm32wlxx_hal_driver/Inc/stm32wlxx_ll_exti.h **** /**
 273:hardware/mcu/st/stm32wlxx_hal_driver/Inc/stm32wlxx_ll_exti.h ****   * @brief  Enable ExtiLine Interrupt request for Lines in range 0 to 31 for cpu2
 274:hardware/mcu/st/stm32wlxx_hal_driver/Inc/stm32wlxx_ll_exti.h ****   * @rmtoll C2IMR1         IMx           LL_C2_EXTI_EnableIT_0_31
 275:hardware/mcu/st/stm32wlxx_hal_driver/Inc/stm32wlxx_ll_exti.h ****   * @param  ExtiLine This parameter can be one of the following values:
 276:hardware/mcu/st/stm32wlxx_hal_driver/Inc/stm32wlxx_ll_exti.h ****   *         @arg @ref LL_EXTI_LINE_0
 277:hardware/mcu/st/stm32wlxx_hal_driver/Inc/stm32wlxx_ll_exti.h ****   *         @arg @ref LL_EXTI_LINE_1
 278:hardware/mcu/st/stm32wlxx_hal_driver/Inc/stm32wlxx_ll_exti.h ****   *         @arg @ref LL_EXTI_LINE_2
 279:hardware/mcu/st/stm32wlxx_hal_driver/Inc/stm32wlxx_ll_exti.h ****   *         @arg @ref LL_EXTI_LINE_3
 280:hardware/mcu/st/stm32wlxx_hal_driver/Inc/stm32wlxx_ll_exti.h ****   *         @arg @ref LL_EXTI_LINE_4
 281:hardware/mcu/st/stm32wlxx_hal_driver/Inc/stm32wlxx_ll_exti.h ****   *         @arg @ref LL_EXTI_LINE_5
 282:hardware/mcu/st/stm32wlxx_hal_driver/Inc/stm32wlxx_ll_exti.h ****   *         @arg @ref LL_EXTI_LINE_6
 283:hardware/mcu/st/stm32wlxx_hal_driver/Inc/stm32wlxx_ll_exti.h ****   *         @arg @ref LL_EXTI_LINE_7
 284:hardware/mcu/st/stm32wlxx_hal_driver/Inc/stm32wlxx_ll_exti.h ****   *         @arg @ref LL_EXTI_LINE_8
ARM GAS  /tmp/cckd0Xcu.s 			page 15


 285:hardware/mcu/st/stm32wlxx_hal_driver/Inc/stm32wlxx_ll_exti.h ****   *         @arg @ref LL_EXTI_LINE_9
 286:hardware/mcu/st/stm32wlxx_hal_driver/Inc/stm32wlxx_ll_exti.h ****   *         @arg @ref LL_EXTI_LINE_10
 287:hardware/mcu/st/stm32wlxx_hal_driver/Inc/stm32wlxx_ll_exti.h ****   *         @arg @ref LL_EXTI_LINE_11
 288:hardware/mcu/st/stm32wlxx_hal_driver/Inc/stm32wlxx_ll_exti.h ****   *         @arg @ref LL_EXTI_LINE_12
 289:hardware/mcu/st/stm32wlxx_hal_driver/Inc/stm32wlxx_ll_exti.h ****   *         @arg @ref LL_EXTI_LINE_13
 290:hardware/mcu/st/stm32wlxx_hal_driver/Inc/stm32wlxx_ll_exti.h ****   *         @arg @ref LL_EXTI_LINE_14
 291:hardware/mcu/st/stm32wlxx_hal_driver/Inc/stm32wlxx_ll_exti.h ****   *         @arg @ref LL_EXTI_LINE_15
 292:hardware/mcu/st/stm32wlxx_hal_driver/Inc/stm32wlxx_ll_exti.h ****   *         @arg @ref LL_EXTI_LINE_16
 293:hardware/mcu/st/stm32wlxx_hal_driver/Inc/stm32wlxx_ll_exti.h ****   *         @arg @ref LL_EXTI_LINE_17
 294:hardware/mcu/st/stm32wlxx_hal_driver/Inc/stm32wlxx_ll_exti.h ****   *         @arg @ref LL_EXTI_LINE_18
 295:hardware/mcu/st/stm32wlxx_hal_driver/Inc/stm32wlxx_ll_exti.h ****   *         @arg @ref LL_EXTI_LINE_19
 296:hardware/mcu/st/stm32wlxx_hal_driver/Inc/stm32wlxx_ll_exti.h ****   *         @arg @ref LL_EXTI_LINE_20
 297:hardware/mcu/st/stm32wlxx_hal_driver/Inc/stm32wlxx_ll_exti.h ****   *         @arg @ref LL_EXTI_LINE_21
 298:hardware/mcu/st/stm32wlxx_hal_driver/Inc/stm32wlxx_ll_exti.h ****   *         @arg @ref LL_EXTI_LINE_22
 299:hardware/mcu/st/stm32wlxx_hal_driver/Inc/stm32wlxx_ll_exti.h ****   *         @arg @ref LL_EXTI_LINE_23
 300:hardware/mcu/st/stm32wlxx_hal_driver/Inc/stm32wlxx_ll_exti.h ****   *         @arg @ref LL_EXTI_LINE_24
 301:hardware/mcu/st/stm32wlxx_hal_driver/Inc/stm32wlxx_ll_exti.h ****   *         @arg @ref LL_EXTI_LINE_25
 302:hardware/mcu/st/stm32wlxx_hal_driver/Inc/stm32wlxx_ll_exti.h ****   *         @arg @ref LL_EXTI_LINE_26
 303:hardware/mcu/st/stm32wlxx_hal_driver/Inc/stm32wlxx_ll_exti.h ****   *         @arg @ref LL_EXTI_LINE_27
 304:hardware/mcu/st/stm32wlxx_hal_driver/Inc/stm32wlxx_ll_exti.h ****   *         @arg @ref LL_EXTI_LINE_28
 305:hardware/mcu/st/stm32wlxx_hal_driver/Inc/stm32wlxx_ll_exti.h ****   *         @arg @ref LL_EXTI_LINE_29
 306:hardware/mcu/st/stm32wlxx_hal_driver/Inc/stm32wlxx_ll_exti.h ****   *         @arg @ref LL_EXTI_LINE_30
 307:hardware/mcu/st/stm32wlxx_hal_driver/Inc/stm32wlxx_ll_exti.h ****   *         @arg @ref LL_EXTI_LINE_31
 308:hardware/mcu/st/stm32wlxx_hal_driver/Inc/stm32wlxx_ll_exti.h ****   *         @arg @ref LL_EXTI_LINE_ALL_0_31
 309:hardware/mcu/st/stm32wlxx_hal_driver/Inc/stm32wlxx_ll_exti.h ****   * @retval None
 310:hardware/mcu/st/stm32wlxx_hal_driver/Inc/stm32wlxx_ll_exti.h ****   */
 311:hardware/mcu/st/stm32wlxx_hal_driver/Inc/stm32wlxx_ll_exti.h **** __STATIC_INLINE void LL_C2_EXTI_EnableIT_0_31(uint32_t ExtiLine)
 312:hardware/mcu/st/stm32wlxx_hal_driver/Inc/stm32wlxx_ll_exti.h **** {
 313:hardware/mcu/st/stm32wlxx_hal_driver/Inc/stm32wlxx_ll_exti.h ****   SET_BIT(EXTI->C2IMR1, ExtiLine);
 314:hardware/mcu/st/stm32wlxx_hal_driver/Inc/stm32wlxx_ll_exti.h **** }
 315:hardware/mcu/st/stm32wlxx_hal_driver/Inc/stm32wlxx_ll_exti.h **** #endif
 316:hardware/mcu/st/stm32wlxx_hal_driver/Inc/stm32wlxx_ll_exti.h **** 
 317:hardware/mcu/st/stm32wlxx_hal_driver/Inc/stm32wlxx_ll_exti.h **** /**
 318:hardware/mcu/st/stm32wlxx_hal_driver/Inc/stm32wlxx_ll_exti.h ****   * @brief  Enable ExtiLine Interrupt request for Lines in range 32 to 63
 319:hardware/mcu/st/stm32wlxx_hal_driver/Inc/stm32wlxx_ll_exti.h ****   * @rmtoll IMR2         IMx           LL_EXTI_EnableIT_32_63
 320:hardware/mcu/st/stm32wlxx_hal_driver/Inc/stm32wlxx_ll_exti.h ****   * @param  ExtiLine This parameter can be one of the following values:
 321:hardware/mcu/st/stm32wlxx_hal_driver/Inc/stm32wlxx_ll_exti.h ****   *         @arg @ref LL_EXTI_LINE_34
 322:hardware/mcu/st/stm32wlxx_hal_driver/Inc/stm32wlxx_ll_exti.h ****   *         @arg @ref LL_EXTI_LINE_36 (*)
 323:hardware/mcu/st/stm32wlxx_hal_driver/Inc/stm32wlxx_ll_exti.h ****   *         @arg @ref LL_EXTI_LINE_37 (*)
 324:hardware/mcu/st/stm32wlxx_hal_driver/Inc/stm32wlxx_ll_exti.h ****   *         @arg @ref LL_EXTI_LINE_38
 325:hardware/mcu/st/stm32wlxx_hal_driver/Inc/stm32wlxx_ll_exti.h ****   *         @arg @ref LL_EXTI_LINE_39 (*)
 326:hardware/mcu/st/stm32wlxx_hal_driver/Inc/stm32wlxx_ll_exti.h ****   *         @arg @ref LL_EXTI_LINE_40 (*)
 327:hardware/mcu/st/stm32wlxx_hal_driver/Inc/stm32wlxx_ll_exti.h ****   *         @arg @ref LL_EXTI_LINE_41 (*)
 328:hardware/mcu/st/stm32wlxx_hal_driver/Inc/stm32wlxx_ll_exti.h ****   *         @arg @ref LL_EXTI_LINE_42
 329:hardware/mcu/st/stm32wlxx_hal_driver/Inc/stm32wlxx_ll_exti.h ****   *         @arg @ref LL_EXTI_LINE_43
 330:hardware/mcu/st/stm32wlxx_hal_driver/Inc/stm32wlxx_ll_exti.h ****   *         @arg @ref LL_EXTI_LINE_44
 331:hardware/mcu/st/stm32wlxx_hal_driver/Inc/stm32wlxx_ll_exti.h ****   *         @arg @ref LL_EXTI_LINE_45
 332:hardware/mcu/st/stm32wlxx_hal_driver/Inc/stm32wlxx_ll_exti.h ****   *         @arg @ref LL_EXTI_LINE_46
 333:hardware/mcu/st/stm32wlxx_hal_driver/Inc/stm32wlxx_ll_exti.h ****   *         @arg @ref LL_EXTI_LINE_ALL_32_63
 334:hardware/mcu/st/stm32wlxx_hal_driver/Inc/stm32wlxx_ll_exti.h ****   *         (*) value not defined in all devices
 335:hardware/mcu/st/stm32wlxx_hal_driver/Inc/stm32wlxx_ll_exti.h ****   * @retval None
 336:hardware/mcu/st/stm32wlxx_hal_driver/Inc/stm32wlxx_ll_exti.h ****   */
 337:hardware/mcu/st/stm32wlxx_hal_driver/Inc/stm32wlxx_ll_exti.h **** __STATIC_INLINE void LL_EXTI_EnableIT_32_63(uint32_t ExtiLine)
 338:hardware/mcu/st/stm32wlxx_hal_driver/Inc/stm32wlxx_ll_exti.h **** {
 339:hardware/mcu/st/stm32wlxx_hal_driver/Inc/stm32wlxx_ll_exti.h ****   SET_BIT(EXTI->IMR2, ExtiLine);
 340:hardware/mcu/st/stm32wlxx_hal_driver/Inc/stm32wlxx_ll_exti.h **** }
 341:hardware/mcu/st/stm32wlxx_hal_driver/Inc/stm32wlxx_ll_exti.h **** 
ARM GAS  /tmp/cckd0Xcu.s 			page 16


 342:hardware/mcu/st/stm32wlxx_hal_driver/Inc/stm32wlxx_ll_exti.h **** #if defined(DUAL_CORE)
 343:hardware/mcu/st/stm32wlxx_hal_driver/Inc/stm32wlxx_ll_exti.h **** /**
 344:hardware/mcu/st/stm32wlxx_hal_driver/Inc/stm32wlxx_ll_exti.h ****   * @brief  Enable ExtiLine Interrupt request for Lines in range 32 to 63 for cpu2
 345:hardware/mcu/st/stm32wlxx_hal_driver/Inc/stm32wlxx_ll_exti.h ****   * @rmtoll C2IMR2         IMx           LL_C2_EXTI_EnableIT_32_63
 346:hardware/mcu/st/stm32wlxx_hal_driver/Inc/stm32wlxx_ll_exti.h ****   * @param  ExtiLine This parameter can be one of the following values:
 347:hardware/mcu/st/stm32wlxx_hal_driver/Inc/stm32wlxx_ll_exti.h ****   *         @arg @ref LL_EXTI_LINE_34
 348:hardware/mcu/st/stm32wlxx_hal_driver/Inc/stm32wlxx_ll_exti.h ****   *         @arg @ref LL_EXTI_LINE_36 (*)
 349:hardware/mcu/st/stm32wlxx_hal_driver/Inc/stm32wlxx_ll_exti.h ****   *         @arg @ref LL_EXTI_LINE_37 (*)
 350:hardware/mcu/st/stm32wlxx_hal_driver/Inc/stm32wlxx_ll_exti.h ****   *         @arg @ref LL_EXTI_LINE_38
 351:hardware/mcu/st/stm32wlxx_hal_driver/Inc/stm32wlxx_ll_exti.h ****   *         @arg @ref LL_EXTI_LINE_39 (*)
 352:hardware/mcu/st/stm32wlxx_hal_driver/Inc/stm32wlxx_ll_exti.h ****   *         @arg @ref LL_EXTI_LINE_40 (*)
 353:hardware/mcu/st/stm32wlxx_hal_driver/Inc/stm32wlxx_ll_exti.h ****   *         @arg @ref LL_EXTI_LINE_41 (*)
 354:hardware/mcu/st/stm32wlxx_hal_driver/Inc/stm32wlxx_ll_exti.h ****   *         @arg @ref LL_EXTI_LINE_42
 355:hardware/mcu/st/stm32wlxx_hal_driver/Inc/stm32wlxx_ll_exti.h ****   *         @arg @ref LL_EXTI_LINE_43
 356:hardware/mcu/st/stm32wlxx_hal_driver/Inc/stm32wlxx_ll_exti.h ****   *         @arg @ref LL_EXTI_LINE_44
 357:hardware/mcu/st/stm32wlxx_hal_driver/Inc/stm32wlxx_ll_exti.h ****   *         @arg @ref LL_EXTI_LINE_45
 358:hardware/mcu/st/stm32wlxx_hal_driver/Inc/stm32wlxx_ll_exti.h ****   *         @arg @ref LL_EXTI_LINE_46
 359:hardware/mcu/st/stm32wlxx_hal_driver/Inc/stm32wlxx_ll_exti.h ****   *         @arg @ref LL_EXTI_LINE_ALL_32_63
 360:hardware/mcu/st/stm32wlxx_hal_driver/Inc/stm32wlxx_ll_exti.h ****   *         (*) value not defined in all devices
 361:hardware/mcu/st/stm32wlxx_hal_driver/Inc/stm32wlxx_ll_exti.h ****   * @retval None
 362:hardware/mcu/st/stm32wlxx_hal_driver/Inc/stm32wlxx_ll_exti.h ****   */
 363:hardware/mcu/st/stm32wlxx_hal_driver/Inc/stm32wlxx_ll_exti.h **** __STATIC_INLINE void LL_C2_EXTI_EnableIT_32_63(uint32_t ExtiLine)
 364:hardware/mcu/st/stm32wlxx_hal_driver/Inc/stm32wlxx_ll_exti.h **** {
 365:hardware/mcu/st/stm32wlxx_hal_driver/Inc/stm32wlxx_ll_exti.h ****   SET_BIT(EXTI->C2IMR2, ExtiLine);
 366:hardware/mcu/st/stm32wlxx_hal_driver/Inc/stm32wlxx_ll_exti.h **** }
 367:hardware/mcu/st/stm32wlxx_hal_driver/Inc/stm32wlxx_ll_exti.h **** #endif
 368:hardware/mcu/st/stm32wlxx_hal_driver/Inc/stm32wlxx_ll_exti.h **** 
 369:hardware/mcu/st/stm32wlxx_hal_driver/Inc/stm32wlxx_ll_exti.h **** /**
 370:hardware/mcu/st/stm32wlxx_hal_driver/Inc/stm32wlxx_ll_exti.h ****   * @brief  Disable ExtiLine Interrupt request for Lines in range 0 to 31
 371:hardware/mcu/st/stm32wlxx_hal_driver/Inc/stm32wlxx_ll_exti.h ****   * @rmtoll IMR1         IMx           LL_EXTI_DisableIT_0_31
 372:hardware/mcu/st/stm32wlxx_hal_driver/Inc/stm32wlxx_ll_exti.h ****   * @param  ExtiLine This parameter can be one of the following values:
 373:hardware/mcu/st/stm32wlxx_hal_driver/Inc/stm32wlxx_ll_exti.h ****   *         @arg @ref LL_EXTI_LINE_0
 374:hardware/mcu/st/stm32wlxx_hal_driver/Inc/stm32wlxx_ll_exti.h ****   *         @arg @ref LL_EXTI_LINE_1
 375:hardware/mcu/st/stm32wlxx_hal_driver/Inc/stm32wlxx_ll_exti.h ****   *         @arg @ref LL_EXTI_LINE_2
 376:hardware/mcu/st/stm32wlxx_hal_driver/Inc/stm32wlxx_ll_exti.h ****   *         @arg @ref LL_EXTI_LINE_3
 377:hardware/mcu/st/stm32wlxx_hal_driver/Inc/stm32wlxx_ll_exti.h ****   *         @arg @ref LL_EXTI_LINE_4
 378:hardware/mcu/st/stm32wlxx_hal_driver/Inc/stm32wlxx_ll_exti.h ****   *         @arg @ref LL_EXTI_LINE_5
 379:hardware/mcu/st/stm32wlxx_hal_driver/Inc/stm32wlxx_ll_exti.h ****   *         @arg @ref LL_EXTI_LINE_6
 380:hardware/mcu/st/stm32wlxx_hal_driver/Inc/stm32wlxx_ll_exti.h ****   *         @arg @ref LL_EXTI_LINE_7
 381:hardware/mcu/st/stm32wlxx_hal_driver/Inc/stm32wlxx_ll_exti.h ****   *         @arg @ref LL_EXTI_LINE_8
 382:hardware/mcu/st/stm32wlxx_hal_driver/Inc/stm32wlxx_ll_exti.h ****   *         @arg @ref LL_EXTI_LINE_9
 383:hardware/mcu/st/stm32wlxx_hal_driver/Inc/stm32wlxx_ll_exti.h ****   *         @arg @ref LL_EXTI_LINE_10
 384:hardware/mcu/st/stm32wlxx_hal_driver/Inc/stm32wlxx_ll_exti.h ****   *         @arg @ref LL_EXTI_LINE_11
 385:hardware/mcu/st/stm32wlxx_hal_driver/Inc/stm32wlxx_ll_exti.h ****   *         @arg @ref LL_EXTI_LINE_12
 386:hardware/mcu/st/stm32wlxx_hal_driver/Inc/stm32wlxx_ll_exti.h ****   *         @arg @ref LL_EXTI_LINE_13
 387:hardware/mcu/st/stm32wlxx_hal_driver/Inc/stm32wlxx_ll_exti.h ****   *         @arg @ref LL_EXTI_LINE_14
 388:hardware/mcu/st/stm32wlxx_hal_driver/Inc/stm32wlxx_ll_exti.h ****   *         @arg @ref LL_EXTI_LINE_15
 389:hardware/mcu/st/stm32wlxx_hal_driver/Inc/stm32wlxx_ll_exti.h ****   *         @arg @ref LL_EXTI_LINE_16
 390:hardware/mcu/st/stm32wlxx_hal_driver/Inc/stm32wlxx_ll_exti.h ****   *         @arg @ref LL_EXTI_LINE_17
 391:hardware/mcu/st/stm32wlxx_hal_driver/Inc/stm32wlxx_ll_exti.h ****   *         @arg @ref LL_EXTI_LINE_18
 392:hardware/mcu/st/stm32wlxx_hal_driver/Inc/stm32wlxx_ll_exti.h ****   *         @arg @ref LL_EXTI_LINE_19
 393:hardware/mcu/st/stm32wlxx_hal_driver/Inc/stm32wlxx_ll_exti.h ****   *         @arg @ref LL_EXTI_LINE_20
 394:hardware/mcu/st/stm32wlxx_hal_driver/Inc/stm32wlxx_ll_exti.h ****   *         @arg @ref LL_EXTI_LINE_21
 395:hardware/mcu/st/stm32wlxx_hal_driver/Inc/stm32wlxx_ll_exti.h ****   *         @arg @ref LL_EXTI_LINE_22
 396:hardware/mcu/st/stm32wlxx_hal_driver/Inc/stm32wlxx_ll_exti.h ****   *         @arg @ref LL_EXTI_LINE_23
 397:hardware/mcu/st/stm32wlxx_hal_driver/Inc/stm32wlxx_ll_exti.h ****   *         @arg @ref LL_EXTI_LINE_24
 398:hardware/mcu/st/stm32wlxx_hal_driver/Inc/stm32wlxx_ll_exti.h ****   *         @arg @ref LL_EXTI_LINE_25
ARM GAS  /tmp/cckd0Xcu.s 			page 17


 399:hardware/mcu/st/stm32wlxx_hal_driver/Inc/stm32wlxx_ll_exti.h ****   *         @arg @ref LL_EXTI_LINE_26
 400:hardware/mcu/st/stm32wlxx_hal_driver/Inc/stm32wlxx_ll_exti.h ****   *         @arg @ref LL_EXTI_LINE_27
 401:hardware/mcu/st/stm32wlxx_hal_driver/Inc/stm32wlxx_ll_exti.h ****   *         @arg @ref LL_EXTI_LINE_28
 402:hardware/mcu/st/stm32wlxx_hal_driver/Inc/stm32wlxx_ll_exti.h ****   *         @arg @ref LL_EXTI_LINE_29
 403:hardware/mcu/st/stm32wlxx_hal_driver/Inc/stm32wlxx_ll_exti.h ****   *         @arg @ref LL_EXTI_LINE_30
 404:hardware/mcu/st/stm32wlxx_hal_driver/Inc/stm32wlxx_ll_exti.h ****   *         @arg @ref LL_EXTI_LINE_31
 405:hardware/mcu/st/stm32wlxx_hal_driver/Inc/stm32wlxx_ll_exti.h ****   *         @arg @ref LL_EXTI_LINE_ALL_0_31
 406:hardware/mcu/st/stm32wlxx_hal_driver/Inc/stm32wlxx_ll_exti.h ****   * @retval None
 407:hardware/mcu/st/stm32wlxx_hal_driver/Inc/stm32wlxx_ll_exti.h ****   */
 408:hardware/mcu/st/stm32wlxx_hal_driver/Inc/stm32wlxx_ll_exti.h **** __STATIC_INLINE void LL_EXTI_DisableIT_0_31(uint32_t ExtiLine)
 163              		.loc 2 408 22 view .LVU30
 164              	.LVL1:
 165              	.LBB15:
 409:hardware/mcu/st/stm32wlxx_hal_driver/Inc/stm32wlxx_ll_exti.h **** {
 410:hardware/mcu/st/stm32wlxx_hal_driver/Inc/stm32wlxx_ll_exti.h ****   CLEAR_BIT(EXTI->IMR1, ExtiLine);
 166              		.loc 2 410 3 view .LVU31
 167 000e 144B     		ldr	r3, .L23+4
 168 0010 D3F88020 		ldr	r2, [r3, #128]
 169 0014 22F48032 		bic	r2, r2, #65536
 170 0018 C3F88020 		str	r2, [r3, #128]
 171              	.LVL2:
 172              		.loc 2 410 3 is_stmt 0 view .LVU32
 173              	.LBE15:
 174              	.LBE14:
 359:hardware/mcu/st/stm32wlxx_hal_driver/Src/stm32wlxx_hal_pwr.c ****   __HAL_PWR_PVD_EXTI_DISABLE_RISING_EDGE();
 175              		.loc 1 359 3 is_stmt 1 view .LVU33
 176              	.LBB16:
 177              	.LBI16:
 411:hardware/mcu/st/stm32wlxx_hal_driver/Inc/stm32wlxx_ll_exti.h **** }
 412:hardware/mcu/st/stm32wlxx_hal_driver/Inc/stm32wlxx_ll_exti.h **** 
 413:hardware/mcu/st/stm32wlxx_hal_driver/Inc/stm32wlxx_ll_exti.h **** #if defined(DUAL_CORE)
 414:hardware/mcu/st/stm32wlxx_hal_driver/Inc/stm32wlxx_ll_exti.h **** /**
 415:hardware/mcu/st/stm32wlxx_hal_driver/Inc/stm32wlxx_ll_exti.h ****   * @brief  Disable ExtiLine Interrupt request for Lines in range 0 to 31 for cpu2
 416:hardware/mcu/st/stm32wlxx_hal_driver/Inc/stm32wlxx_ll_exti.h ****   * @rmtoll C2IMR1         IMx           LL_C2_EXTI_DisableIT_0_31
 417:hardware/mcu/st/stm32wlxx_hal_driver/Inc/stm32wlxx_ll_exti.h ****   * @param  ExtiLine This parameter can be one of the following values:
 418:hardware/mcu/st/stm32wlxx_hal_driver/Inc/stm32wlxx_ll_exti.h ****   *         @arg @ref LL_EXTI_LINE_0
 419:hardware/mcu/st/stm32wlxx_hal_driver/Inc/stm32wlxx_ll_exti.h ****   *         @arg @ref LL_EXTI_LINE_1
 420:hardware/mcu/st/stm32wlxx_hal_driver/Inc/stm32wlxx_ll_exti.h ****   *         @arg @ref LL_EXTI_LINE_2
 421:hardware/mcu/st/stm32wlxx_hal_driver/Inc/stm32wlxx_ll_exti.h ****   *         @arg @ref LL_EXTI_LINE_3
 422:hardware/mcu/st/stm32wlxx_hal_driver/Inc/stm32wlxx_ll_exti.h ****   *         @arg @ref LL_EXTI_LINE_4
 423:hardware/mcu/st/stm32wlxx_hal_driver/Inc/stm32wlxx_ll_exti.h ****   *         @arg @ref LL_EXTI_LINE_5
 424:hardware/mcu/st/stm32wlxx_hal_driver/Inc/stm32wlxx_ll_exti.h ****   *         @arg @ref LL_EXTI_LINE_6
 425:hardware/mcu/st/stm32wlxx_hal_driver/Inc/stm32wlxx_ll_exti.h ****   *         @arg @ref LL_EXTI_LINE_7
 426:hardware/mcu/st/stm32wlxx_hal_driver/Inc/stm32wlxx_ll_exti.h ****   *         @arg @ref LL_EXTI_LINE_8
 427:hardware/mcu/st/stm32wlxx_hal_driver/Inc/stm32wlxx_ll_exti.h ****   *         @arg @ref LL_EXTI_LINE_9
 428:hardware/mcu/st/stm32wlxx_hal_driver/Inc/stm32wlxx_ll_exti.h ****   *         @arg @ref LL_EXTI_LINE_10
 429:hardware/mcu/st/stm32wlxx_hal_driver/Inc/stm32wlxx_ll_exti.h ****   *         @arg @ref LL_EXTI_LINE_11
 430:hardware/mcu/st/stm32wlxx_hal_driver/Inc/stm32wlxx_ll_exti.h ****   *         @arg @ref LL_EXTI_LINE_12
 431:hardware/mcu/st/stm32wlxx_hal_driver/Inc/stm32wlxx_ll_exti.h ****   *         @arg @ref LL_EXTI_LINE_13
 432:hardware/mcu/st/stm32wlxx_hal_driver/Inc/stm32wlxx_ll_exti.h ****   *         @arg @ref LL_EXTI_LINE_14
 433:hardware/mcu/st/stm32wlxx_hal_driver/Inc/stm32wlxx_ll_exti.h ****   *         @arg @ref LL_EXTI_LINE_15
 434:hardware/mcu/st/stm32wlxx_hal_driver/Inc/stm32wlxx_ll_exti.h ****   *         @arg @ref LL_EXTI_LINE_16
 435:hardware/mcu/st/stm32wlxx_hal_driver/Inc/stm32wlxx_ll_exti.h ****   *         @arg @ref LL_EXTI_LINE_17
 436:hardware/mcu/st/stm32wlxx_hal_driver/Inc/stm32wlxx_ll_exti.h ****   *         @arg @ref LL_EXTI_LINE_18
 437:hardware/mcu/st/stm32wlxx_hal_driver/Inc/stm32wlxx_ll_exti.h ****   *         @arg @ref LL_EXTI_LINE_19
 438:hardware/mcu/st/stm32wlxx_hal_driver/Inc/stm32wlxx_ll_exti.h ****   *         @arg @ref LL_EXTI_LINE_20
 439:hardware/mcu/st/stm32wlxx_hal_driver/Inc/stm32wlxx_ll_exti.h ****   *         @arg @ref LL_EXTI_LINE_21
ARM GAS  /tmp/cckd0Xcu.s 			page 18


 440:hardware/mcu/st/stm32wlxx_hal_driver/Inc/stm32wlxx_ll_exti.h ****   *         @arg @ref LL_EXTI_LINE_22
 441:hardware/mcu/st/stm32wlxx_hal_driver/Inc/stm32wlxx_ll_exti.h ****   *         @arg @ref LL_EXTI_LINE_23
 442:hardware/mcu/st/stm32wlxx_hal_driver/Inc/stm32wlxx_ll_exti.h ****   *         @arg @ref LL_EXTI_LINE_24
 443:hardware/mcu/st/stm32wlxx_hal_driver/Inc/stm32wlxx_ll_exti.h ****   *         @arg @ref LL_EXTI_LINE_25
 444:hardware/mcu/st/stm32wlxx_hal_driver/Inc/stm32wlxx_ll_exti.h ****   *         @arg @ref LL_EXTI_LINE_26
 445:hardware/mcu/st/stm32wlxx_hal_driver/Inc/stm32wlxx_ll_exti.h ****   *         @arg @ref LL_EXTI_LINE_27
 446:hardware/mcu/st/stm32wlxx_hal_driver/Inc/stm32wlxx_ll_exti.h ****   *         @arg @ref LL_EXTI_LINE_28
 447:hardware/mcu/st/stm32wlxx_hal_driver/Inc/stm32wlxx_ll_exti.h ****   *         @arg @ref LL_EXTI_LINE_29
 448:hardware/mcu/st/stm32wlxx_hal_driver/Inc/stm32wlxx_ll_exti.h ****   *         @arg @ref LL_EXTI_LINE_30
 449:hardware/mcu/st/stm32wlxx_hal_driver/Inc/stm32wlxx_ll_exti.h ****   *         @arg @ref LL_EXTI_LINE_31
 450:hardware/mcu/st/stm32wlxx_hal_driver/Inc/stm32wlxx_ll_exti.h ****   *         @arg @ref LL_EXTI_LINE_ALL_0_31
 451:hardware/mcu/st/stm32wlxx_hal_driver/Inc/stm32wlxx_ll_exti.h ****   * @retval None
 452:hardware/mcu/st/stm32wlxx_hal_driver/Inc/stm32wlxx_ll_exti.h ****   */
 453:hardware/mcu/st/stm32wlxx_hal_driver/Inc/stm32wlxx_ll_exti.h **** __STATIC_INLINE void LL_C2_EXTI_DisableIT_0_31(uint32_t ExtiLine)
 454:hardware/mcu/st/stm32wlxx_hal_driver/Inc/stm32wlxx_ll_exti.h **** {
 455:hardware/mcu/st/stm32wlxx_hal_driver/Inc/stm32wlxx_ll_exti.h ****   CLEAR_BIT(EXTI->C2IMR1, ExtiLine);
 456:hardware/mcu/st/stm32wlxx_hal_driver/Inc/stm32wlxx_ll_exti.h **** }
 457:hardware/mcu/st/stm32wlxx_hal_driver/Inc/stm32wlxx_ll_exti.h **** #endif
 458:hardware/mcu/st/stm32wlxx_hal_driver/Inc/stm32wlxx_ll_exti.h **** 
 459:hardware/mcu/st/stm32wlxx_hal_driver/Inc/stm32wlxx_ll_exti.h **** /**
 460:hardware/mcu/st/stm32wlxx_hal_driver/Inc/stm32wlxx_ll_exti.h ****   * @brief  Disable ExtiLine Interrupt request for Lines in range 32 to 63
 461:hardware/mcu/st/stm32wlxx_hal_driver/Inc/stm32wlxx_ll_exti.h ****   * @rmtoll IMR2         IMx           LL_EXTI_DisableIT_32_63
 462:hardware/mcu/st/stm32wlxx_hal_driver/Inc/stm32wlxx_ll_exti.h ****   * @param  ExtiLine This parameter can be one of the following values:
 463:hardware/mcu/st/stm32wlxx_hal_driver/Inc/stm32wlxx_ll_exti.h ****   *         @arg @ref LL_EXTI_LINE_34
 464:hardware/mcu/st/stm32wlxx_hal_driver/Inc/stm32wlxx_ll_exti.h ****   *         @arg @ref LL_EXTI_LINE_36 (*)
 465:hardware/mcu/st/stm32wlxx_hal_driver/Inc/stm32wlxx_ll_exti.h ****   *         @arg @ref LL_EXTI_LINE_37 (*)
 466:hardware/mcu/st/stm32wlxx_hal_driver/Inc/stm32wlxx_ll_exti.h ****   *         @arg @ref LL_EXTI_LINE_38
 467:hardware/mcu/st/stm32wlxx_hal_driver/Inc/stm32wlxx_ll_exti.h ****   *         @arg @ref LL_EXTI_LINE_39 (*)
 468:hardware/mcu/st/stm32wlxx_hal_driver/Inc/stm32wlxx_ll_exti.h ****   *         @arg @ref LL_EXTI_LINE_40 (*)
 469:hardware/mcu/st/stm32wlxx_hal_driver/Inc/stm32wlxx_ll_exti.h ****   *         @arg @ref LL_EXTI_LINE_41 (*)
 470:hardware/mcu/st/stm32wlxx_hal_driver/Inc/stm32wlxx_ll_exti.h ****   *         @arg @ref LL_EXTI_LINE_42
 471:hardware/mcu/st/stm32wlxx_hal_driver/Inc/stm32wlxx_ll_exti.h ****   *         @arg @ref LL_EXTI_LINE_43
 472:hardware/mcu/st/stm32wlxx_hal_driver/Inc/stm32wlxx_ll_exti.h ****   *         @arg @ref LL_EXTI_LINE_44
 473:hardware/mcu/st/stm32wlxx_hal_driver/Inc/stm32wlxx_ll_exti.h ****   *         @arg @ref LL_EXTI_LINE_45
 474:hardware/mcu/st/stm32wlxx_hal_driver/Inc/stm32wlxx_ll_exti.h ****   *         @arg @ref LL_EXTI_LINE_46
 475:hardware/mcu/st/stm32wlxx_hal_driver/Inc/stm32wlxx_ll_exti.h ****   *         @arg @ref LL_EXTI_LINE_ALL_32_63
 476:hardware/mcu/st/stm32wlxx_hal_driver/Inc/stm32wlxx_ll_exti.h ****   *         (*) value not defined in all devices
 477:hardware/mcu/st/stm32wlxx_hal_driver/Inc/stm32wlxx_ll_exti.h ****   * @retval None
 478:hardware/mcu/st/stm32wlxx_hal_driver/Inc/stm32wlxx_ll_exti.h ****   */
 479:hardware/mcu/st/stm32wlxx_hal_driver/Inc/stm32wlxx_ll_exti.h **** __STATIC_INLINE void LL_EXTI_DisableIT_32_63(uint32_t ExtiLine)
 480:hardware/mcu/st/stm32wlxx_hal_driver/Inc/stm32wlxx_ll_exti.h **** {
 481:hardware/mcu/st/stm32wlxx_hal_driver/Inc/stm32wlxx_ll_exti.h ****   CLEAR_BIT(EXTI->IMR2, ExtiLine);
 482:hardware/mcu/st/stm32wlxx_hal_driver/Inc/stm32wlxx_ll_exti.h **** }
 483:hardware/mcu/st/stm32wlxx_hal_driver/Inc/stm32wlxx_ll_exti.h **** 
 484:hardware/mcu/st/stm32wlxx_hal_driver/Inc/stm32wlxx_ll_exti.h **** #if defined(DUAL_CORE)
 485:hardware/mcu/st/stm32wlxx_hal_driver/Inc/stm32wlxx_ll_exti.h **** /**
 486:hardware/mcu/st/stm32wlxx_hal_driver/Inc/stm32wlxx_ll_exti.h ****   * @brief  Disable ExtiLine Interrupt request for Lines in range 32 to 63 for cpu2
 487:hardware/mcu/st/stm32wlxx_hal_driver/Inc/stm32wlxx_ll_exti.h ****   * @rmtoll C2IMR2         IMx           LL_C2_EXTI_DisableIT_32_63
 488:hardware/mcu/st/stm32wlxx_hal_driver/Inc/stm32wlxx_ll_exti.h ****   * @param  ExtiLine This parameter can be one of the following values:
 489:hardware/mcu/st/stm32wlxx_hal_driver/Inc/stm32wlxx_ll_exti.h ****   *         @arg @ref LL_EXTI_LINE_34
 490:hardware/mcu/st/stm32wlxx_hal_driver/Inc/stm32wlxx_ll_exti.h ****   *         @arg @ref LL_EXTI_LINE_36 (*)
 491:hardware/mcu/st/stm32wlxx_hal_driver/Inc/stm32wlxx_ll_exti.h ****   *         @arg @ref LL_EXTI_LINE_37 (*)
 492:hardware/mcu/st/stm32wlxx_hal_driver/Inc/stm32wlxx_ll_exti.h ****   *         @arg @ref LL_EXTI_LINE_38
 493:hardware/mcu/st/stm32wlxx_hal_driver/Inc/stm32wlxx_ll_exti.h ****   *         @arg @ref LL_EXTI_LINE_39 (*)
 494:hardware/mcu/st/stm32wlxx_hal_driver/Inc/stm32wlxx_ll_exti.h ****   *         @arg @ref LL_EXTI_LINE_40 (*)
 495:hardware/mcu/st/stm32wlxx_hal_driver/Inc/stm32wlxx_ll_exti.h ****   *         @arg @ref LL_EXTI_LINE_41 (*)
 496:hardware/mcu/st/stm32wlxx_hal_driver/Inc/stm32wlxx_ll_exti.h ****   *         @arg @ref LL_EXTI_LINE_42
ARM GAS  /tmp/cckd0Xcu.s 			page 19


 497:hardware/mcu/st/stm32wlxx_hal_driver/Inc/stm32wlxx_ll_exti.h ****   *         @arg @ref LL_EXTI_LINE_43
 498:hardware/mcu/st/stm32wlxx_hal_driver/Inc/stm32wlxx_ll_exti.h ****   *         @arg @ref LL_EXTI_LINE_44
 499:hardware/mcu/st/stm32wlxx_hal_driver/Inc/stm32wlxx_ll_exti.h ****   *         @arg @ref LL_EXTI_LINE_45
 500:hardware/mcu/st/stm32wlxx_hal_driver/Inc/stm32wlxx_ll_exti.h ****   *         @arg @ref LL_EXTI_LINE_46
 501:hardware/mcu/st/stm32wlxx_hal_driver/Inc/stm32wlxx_ll_exti.h ****   *         @arg @ref LL_EXTI_LINE_ALL_32_63
 502:hardware/mcu/st/stm32wlxx_hal_driver/Inc/stm32wlxx_ll_exti.h ****   *         (*) value not defined in all devices
 503:hardware/mcu/st/stm32wlxx_hal_driver/Inc/stm32wlxx_ll_exti.h ****   * @retval None
 504:hardware/mcu/st/stm32wlxx_hal_driver/Inc/stm32wlxx_ll_exti.h ****   */
 505:hardware/mcu/st/stm32wlxx_hal_driver/Inc/stm32wlxx_ll_exti.h **** __STATIC_INLINE void LL_C2_EXTI_DisableIT_32_63(uint32_t ExtiLine)
 506:hardware/mcu/st/stm32wlxx_hal_driver/Inc/stm32wlxx_ll_exti.h **** {
 507:hardware/mcu/st/stm32wlxx_hal_driver/Inc/stm32wlxx_ll_exti.h ****   CLEAR_BIT(EXTI->C2IMR2, ExtiLine);
 508:hardware/mcu/st/stm32wlxx_hal_driver/Inc/stm32wlxx_ll_exti.h **** }
 509:hardware/mcu/st/stm32wlxx_hal_driver/Inc/stm32wlxx_ll_exti.h **** #endif
 510:hardware/mcu/st/stm32wlxx_hal_driver/Inc/stm32wlxx_ll_exti.h **** 
 511:hardware/mcu/st/stm32wlxx_hal_driver/Inc/stm32wlxx_ll_exti.h **** /**
 512:hardware/mcu/st/stm32wlxx_hal_driver/Inc/stm32wlxx_ll_exti.h ****   * @brief  Indicate if ExtiLine Interrupt request is enabled for Lines in range 0 to 31
 513:hardware/mcu/st/stm32wlxx_hal_driver/Inc/stm32wlxx_ll_exti.h ****   * @rmtoll IMR1         IMx           LL_EXTI_IsEnabledIT_0_31
 514:hardware/mcu/st/stm32wlxx_hal_driver/Inc/stm32wlxx_ll_exti.h ****   * @param  ExtiLine This parameter can be one of the following values:
 515:hardware/mcu/st/stm32wlxx_hal_driver/Inc/stm32wlxx_ll_exti.h ****   *         @arg @ref LL_EXTI_LINE_0
 516:hardware/mcu/st/stm32wlxx_hal_driver/Inc/stm32wlxx_ll_exti.h ****   *         @arg @ref LL_EXTI_LINE_1
 517:hardware/mcu/st/stm32wlxx_hal_driver/Inc/stm32wlxx_ll_exti.h ****   *         @arg @ref LL_EXTI_LINE_2
 518:hardware/mcu/st/stm32wlxx_hal_driver/Inc/stm32wlxx_ll_exti.h ****   *         @arg @ref LL_EXTI_LINE_3
 519:hardware/mcu/st/stm32wlxx_hal_driver/Inc/stm32wlxx_ll_exti.h ****   *         @arg @ref LL_EXTI_LINE_4
 520:hardware/mcu/st/stm32wlxx_hal_driver/Inc/stm32wlxx_ll_exti.h ****   *         @arg @ref LL_EXTI_LINE_5
 521:hardware/mcu/st/stm32wlxx_hal_driver/Inc/stm32wlxx_ll_exti.h ****   *         @arg @ref LL_EXTI_LINE_6
 522:hardware/mcu/st/stm32wlxx_hal_driver/Inc/stm32wlxx_ll_exti.h ****   *         @arg @ref LL_EXTI_LINE_7
 523:hardware/mcu/st/stm32wlxx_hal_driver/Inc/stm32wlxx_ll_exti.h ****   *         @arg @ref LL_EXTI_LINE_8
 524:hardware/mcu/st/stm32wlxx_hal_driver/Inc/stm32wlxx_ll_exti.h ****   *         @arg @ref LL_EXTI_LINE_9
 525:hardware/mcu/st/stm32wlxx_hal_driver/Inc/stm32wlxx_ll_exti.h ****   *         @arg @ref LL_EXTI_LINE_10
 526:hardware/mcu/st/stm32wlxx_hal_driver/Inc/stm32wlxx_ll_exti.h ****   *         @arg @ref LL_EXTI_LINE_11
 527:hardware/mcu/st/stm32wlxx_hal_driver/Inc/stm32wlxx_ll_exti.h ****   *         @arg @ref LL_EXTI_LINE_12
 528:hardware/mcu/st/stm32wlxx_hal_driver/Inc/stm32wlxx_ll_exti.h ****   *         @arg @ref LL_EXTI_LINE_13
 529:hardware/mcu/st/stm32wlxx_hal_driver/Inc/stm32wlxx_ll_exti.h ****   *         @arg @ref LL_EXTI_LINE_14
 530:hardware/mcu/st/stm32wlxx_hal_driver/Inc/stm32wlxx_ll_exti.h ****   *         @arg @ref LL_EXTI_LINE_15
 531:hardware/mcu/st/stm32wlxx_hal_driver/Inc/stm32wlxx_ll_exti.h ****   *         @arg @ref LL_EXTI_LINE_16
 532:hardware/mcu/st/stm32wlxx_hal_driver/Inc/stm32wlxx_ll_exti.h ****   *         @arg @ref LL_EXTI_LINE_17
 533:hardware/mcu/st/stm32wlxx_hal_driver/Inc/stm32wlxx_ll_exti.h ****   *         @arg @ref LL_EXTI_LINE_18
 534:hardware/mcu/st/stm32wlxx_hal_driver/Inc/stm32wlxx_ll_exti.h ****   *         @arg @ref LL_EXTI_LINE_19
 535:hardware/mcu/st/stm32wlxx_hal_driver/Inc/stm32wlxx_ll_exti.h ****   *         @arg @ref LL_EXTI_LINE_20
 536:hardware/mcu/st/stm32wlxx_hal_driver/Inc/stm32wlxx_ll_exti.h ****   *         @arg @ref LL_EXTI_LINE_21
 537:hardware/mcu/st/stm32wlxx_hal_driver/Inc/stm32wlxx_ll_exti.h ****   *         @arg @ref LL_EXTI_LINE_22
 538:hardware/mcu/st/stm32wlxx_hal_driver/Inc/stm32wlxx_ll_exti.h ****   *         @arg @ref LL_EXTI_LINE_23
 539:hardware/mcu/st/stm32wlxx_hal_driver/Inc/stm32wlxx_ll_exti.h ****   *         @arg @ref LL_EXTI_LINE_24
 540:hardware/mcu/st/stm32wlxx_hal_driver/Inc/stm32wlxx_ll_exti.h ****   *         @arg @ref LL_EXTI_LINE_25
 541:hardware/mcu/st/stm32wlxx_hal_driver/Inc/stm32wlxx_ll_exti.h ****   *         @arg @ref LL_EXTI_LINE_26
 542:hardware/mcu/st/stm32wlxx_hal_driver/Inc/stm32wlxx_ll_exti.h ****   *         @arg @ref LL_EXTI_LINE_27
 543:hardware/mcu/st/stm32wlxx_hal_driver/Inc/stm32wlxx_ll_exti.h ****   *         @arg @ref LL_EXTI_LINE_28
 544:hardware/mcu/st/stm32wlxx_hal_driver/Inc/stm32wlxx_ll_exti.h ****   *         @arg @ref LL_EXTI_LINE_29
 545:hardware/mcu/st/stm32wlxx_hal_driver/Inc/stm32wlxx_ll_exti.h ****   *         @arg @ref LL_EXTI_LINE_30
 546:hardware/mcu/st/stm32wlxx_hal_driver/Inc/stm32wlxx_ll_exti.h ****   *         @arg @ref LL_EXTI_LINE_31
 547:hardware/mcu/st/stm32wlxx_hal_driver/Inc/stm32wlxx_ll_exti.h ****   *         @arg @ref LL_EXTI_LINE_ALL_0_31
 548:hardware/mcu/st/stm32wlxx_hal_driver/Inc/stm32wlxx_ll_exti.h ****   * @retval State of bit (1 or 0).
 549:hardware/mcu/st/stm32wlxx_hal_driver/Inc/stm32wlxx_ll_exti.h ****   */
 550:hardware/mcu/st/stm32wlxx_hal_driver/Inc/stm32wlxx_ll_exti.h **** __STATIC_INLINE uint32_t LL_EXTI_IsEnabledIT_0_31(uint32_t ExtiLine)
 551:hardware/mcu/st/stm32wlxx_hal_driver/Inc/stm32wlxx_ll_exti.h **** {
 552:hardware/mcu/st/stm32wlxx_hal_driver/Inc/stm32wlxx_ll_exti.h ****   return ((READ_BIT(EXTI->IMR1, ExtiLine) == (ExtiLine)) ? 1UL : 0UL);
 553:hardware/mcu/st/stm32wlxx_hal_driver/Inc/stm32wlxx_ll_exti.h **** }
ARM GAS  /tmp/cckd0Xcu.s 			page 20


 554:hardware/mcu/st/stm32wlxx_hal_driver/Inc/stm32wlxx_ll_exti.h **** 
 555:hardware/mcu/st/stm32wlxx_hal_driver/Inc/stm32wlxx_ll_exti.h **** #if defined(DUAL_CORE)
 556:hardware/mcu/st/stm32wlxx_hal_driver/Inc/stm32wlxx_ll_exti.h **** /**
 557:hardware/mcu/st/stm32wlxx_hal_driver/Inc/stm32wlxx_ll_exti.h ****   * @brief  Indicate if ExtiLine Interrupt request is enabled for Lines in range 0 to 31 for cpu2
 558:hardware/mcu/st/stm32wlxx_hal_driver/Inc/stm32wlxx_ll_exti.h ****   * @rmtoll C2IMR1         IMx           LL_C2_EXTI_IsEnabledIT_0_31
 559:hardware/mcu/st/stm32wlxx_hal_driver/Inc/stm32wlxx_ll_exti.h ****   * @param  ExtiLine This parameter can be one of the following values:
 560:hardware/mcu/st/stm32wlxx_hal_driver/Inc/stm32wlxx_ll_exti.h ****   *         @arg @ref LL_EXTI_LINE_0
 561:hardware/mcu/st/stm32wlxx_hal_driver/Inc/stm32wlxx_ll_exti.h ****   *         @arg @ref LL_EXTI_LINE_1
 562:hardware/mcu/st/stm32wlxx_hal_driver/Inc/stm32wlxx_ll_exti.h ****   *         @arg @ref LL_EXTI_LINE_2
 563:hardware/mcu/st/stm32wlxx_hal_driver/Inc/stm32wlxx_ll_exti.h ****   *         @arg @ref LL_EXTI_LINE_3
 564:hardware/mcu/st/stm32wlxx_hal_driver/Inc/stm32wlxx_ll_exti.h ****   *         @arg @ref LL_EXTI_LINE_4
 565:hardware/mcu/st/stm32wlxx_hal_driver/Inc/stm32wlxx_ll_exti.h ****   *         @arg @ref LL_EXTI_LINE_5
 566:hardware/mcu/st/stm32wlxx_hal_driver/Inc/stm32wlxx_ll_exti.h ****   *         @arg @ref LL_EXTI_LINE_6
 567:hardware/mcu/st/stm32wlxx_hal_driver/Inc/stm32wlxx_ll_exti.h ****   *         @arg @ref LL_EXTI_LINE_7
 568:hardware/mcu/st/stm32wlxx_hal_driver/Inc/stm32wlxx_ll_exti.h ****   *         @arg @ref LL_EXTI_LINE_8
 569:hardware/mcu/st/stm32wlxx_hal_driver/Inc/stm32wlxx_ll_exti.h ****   *         @arg @ref LL_EXTI_LINE_9
 570:hardware/mcu/st/stm32wlxx_hal_driver/Inc/stm32wlxx_ll_exti.h ****   *         @arg @ref LL_EXTI_LINE_10
 571:hardware/mcu/st/stm32wlxx_hal_driver/Inc/stm32wlxx_ll_exti.h ****   *         @arg @ref LL_EXTI_LINE_11
 572:hardware/mcu/st/stm32wlxx_hal_driver/Inc/stm32wlxx_ll_exti.h ****   *         @arg @ref LL_EXTI_LINE_12
 573:hardware/mcu/st/stm32wlxx_hal_driver/Inc/stm32wlxx_ll_exti.h ****   *         @arg @ref LL_EXTI_LINE_13
 574:hardware/mcu/st/stm32wlxx_hal_driver/Inc/stm32wlxx_ll_exti.h ****   *         @arg @ref LL_EXTI_LINE_14
 575:hardware/mcu/st/stm32wlxx_hal_driver/Inc/stm32wlxx_ll_exti.h ****   *         @arg @ref LL_EXTI_LINE_15
 576:hardware/mcu/st/stm32wlxx_hal_driver/Inc/stm32wlxx_ll_exti.h ****   *         @arg @ref LL_EXTI_LINE_16
 577:hardware/mcu/st/stm32wlxx_hal_driver/Inc/stm32wlxx_ll_exti.h ****   *         @arg @ref LL_EXTI_LINE_17
 578:hardware/mcu/st/stm32wlxx_hal_driver/Inc/stm32wlxx_ll_exti.h ****   *         @arg @ref LL_EXTI_LINE_18
 579:hardware/mcu/st/stm32wlxx_hal_driver/Inc/stm32wlxx_ll_exti.h ****   *         @arg @ref LL_EXTI_LINE_19
 580:hardware/mcu/st/stm32wlxx_hal_driver/Inc/stm32wlxx_ll_exti.h ****   *         @arg @ref LL_EXTI_LINE_20
 581:hardware/mcu/st/stm32wlxx_hal_driver/Inc/stm32wlxx_ll_exti.h ****   *         @arg @ref LL_EXTI_LINE_21
 582:hardware/mcu/st/stm32wlxx_hal_driver/Inc/stm32wlxx_ll_exti.h ****   *         @arg @ref LL_EXTI_LINE_22
 583:hardware/mcu/st/stm32wlxx_hal_driver/Inc/stm32wlxx_ll_exti.h ****   *         @arg @ref LL_EXTI_LINE_23
 584:hardware/mcu/st/stm32wlxx_hal_driver/Inc/stm32wlxx_ll_exti.h ****   *         @arg @ref LL_EXTI_LINE_24
 585:hardware/mcu/st/stm32wlxx_hal_driver/Inc/stm32wlxx_ll_exti.h ****   *         @arg @ref LL_EXTI_LINE_25
 586:hardware/mcu/st/stm32wlxx_hal_driver/Inc/stm32wlxx_ll_exti.h ****   *         @arg @ref LL_EXTI_LINE_26
 587:hardware/mcu/st/stm32wlxx_hal_driver/Inc/stm32wlxx_ll_exti.h ****   *         @arg @ref LL_EXTI_LINE_27
 588:hardware/mcu/st/stm32wlxx_hal_driver/Inc/stm32wlxx_ll_exti.h ****   *         @arg @ref LL_EXTI_LINE_28
 589:hardware/mcu/st/stm32wlxx_hal_driver/Inc/stm32wlxx_ll_exti.h ****   *         @arg @ref LL_EXTI_LINE_29
 590:hardware/mcu/st/stm32wlxx_hal_driver/Inc/stm32wlxx_ll_exti.h ****   *         @arg @ref LL_EXTI_LINE_30
 591:hardware/mcu/st/stm32wlxx_hal_driver/Inc/stm32wlxx_ll_exti.h ****   *         @arg @ref LL_EXTI_LINE_31
 592:hardware/mcu/st/stm32wlxx_hal_driver/Inc/stm32wlxx_ll_exti.h ****   *         @arg @ref LL_EXTI_LINE_ALL_0_31
 593:hardware/mcu/st/stm32wlxx_hal_driver/Inc/stm32wlxx_ll_exti.h ****   * @retval State of bit (1 or 0).
 594:hardware/mcu/st/stm32wlxx_hal_driver/Inc/stm32wlxx_ll_exti.h ****   */
 595:hardware/mcu/st/stm32wlxx_hal_driver/Inc/stm32wlxx_ll_exti.h **** __STATIC_INLINE uint32_t LL_C2_EXTI_IsEnabledIT_0_31(uint32_t ExtiLine)
 596:hardware/mcu/st/stm32wlxx_hal_driver/Inc/stm32wlxx_ll_exti.h **** {
 597:hardware/mcu/st/stm32wlxx_hal_driver/Inc/stm32wlxx_ll_exti.h ****   return ((READ_BIT(EXTI->C2IMR1, ExtiLine) == (ExtiLine)) ? 1UL : 0UL);
 598:hardware/mcu/st/stm32wlxx_hal_driver/Inc/stm32wlxx_ll_exti.h **** }
 599:hardware/mcu/st/stm32wlxx_hal_driver/Inc/stm32wlxx_ll_exti.h **** #endif
 600:hardware/mcu/st/stm32wlxx_hal_driver/Inc/stm32wlxx_ll_exti.h **** 
 601:hardware/mcu/st/stm32wlxx_hal_driver/Inc/stm32wlxx_ll_exti.h **** /**
 602:hardware/mcu/st/stm32wlxx_hal_driver/Inc/stm32wlxx_ll_exti.h ****   * @brief  Indicate if ExtiLine Interrupt request is enabled for Lines in range 32 to 63
 603:hardware/mcu/st/stm32wlxx_hal_driver/Inc/stm32wlxx_ll_exti.h ****   * @rmtoll IMR2         IMx           LL_EXTI_IsEnabledIT_32_63
 604:hardware/mcu/st/stm32wlxx_hal_driver/Inc/stm32wlxx_ll_exti.h ****   * @param  ExtiLine This parameter can be one of the following values:
 605:hardware/mcu/st/stm32wlxx_hal_driver/Inc/stm32wlxx_ll_exti.h ****   *         @arg @ref LL_EXTI_LINE_34
 606:hardware/mcu/st/stm32wlxx_hal_driver/Inc/stm32wlxx_ll_exti.h ****   *         @arg @ref LL_EXTI_LINE_36 (*)
 607:hardware/mcu/st/stm32wlxx_hal_driver/Inc/stm32wlxx_ll_exti.h ****   *         @arg @ref LL_EXTI_LINE_37 (*)
 608:hardware/mcu/st/stm32wlxx_hal_driver/Inc/stm32wlxx_ll_exti.h ****   *         @arg @ref LL_EXTI_LINE_38
 609:hardware/mcu/st/stm32wlxx_hal_driver/Inc/stm32wlxx_ll_exti.h ****   *         @arg @ref LL_EXTI_LINE_39 (*)
 610:hardware/mcu/st/stm32wlxx_hal_driver/Inc/stm32wlxx_ll_exti.h ****   *         @arg @ref LL_EXTI_LINE_40 (*)
ARM GAS  /tmp/cckd0Xcu.s 			page 21


 611:hardware/mcu/st/stm32wlxx_hal_driver/Inc/stm32wlxx_ll_exti.h ****   *         @arg @ref LL_EXTI_LINE_41 (*)
 612:hardware/mcu/st/stm32wlxx_hal_driver/Inc/stm32wlxx_ll_exti.h ****   *         @arg @ref LL_EXTI_LINE_42
 613:hardware/mcu/st/stm32wlxx_hal_driver/Inc/stm32wlxx_ll_exti.h ****   *         @arg @ref LL_EXTI_LINE_43
 614:hardware/mcu/st/stm32wlxx_hal_driver/Inc/stm32wlxx_ll_exti.h ****   *         @arg @ref LL_EXTI_LINE_44
 615:hardware/mcu/st/stm32wlxx_hal_driver/Inc/stm32wlxx_ll_exti.h ****   *         @arg @ref LL_EXTI_LINE_45
 616:hardware/mcu/st/stm32wlxx_hal_driver/Inc/stm32wlxx_ll_exti.h ****   *         @arg @ref LL_EXTI_LINE_46
 617:hardware/mcu/st/stm32wlxx_hal_driver/Inc/stm32wlxx_ll_exti.h ****   *         @arg @ref LL_EXTI_LINE_ALL_32_63
 618:hardware/mcu/st/stm32wlxx_hal_driver/Inc/stm32wlxx_ll_exti.h ****   *         (*) value not defined in all devices
 619:hardware/mcu/st/stm32wlxx_hal_driver/Inc/stm32wlxx_ll_exti.h ****   * @retval State of bit (1 or 0).
 620:hardware/mcu/st/stm32wlxx_hal_driver/Inc/stm32wlxx_ll_exti.h ****   */
 621:hardware/mcu/st/stm32wlxx_hal_driver/Inc/stm32wlxx_ll_exti.h **** __STATIC_INLINE uint32_t LL_EXTI_IsEnabledIT_32_63(uint32_t ExtiLine)
 622:hardware/mcu/st/stm32wlxx_hal_driver/Inc/stm32wlxx_ll_exti.h **** {
 623:hardware/mcu/st/stm32wlxx_hal_driver/Inc/stm32wlxx_ll_exti.h ****   return ((READ_BIT(EXTI->IMR2, ExtiLine) == (ExtiLine)) ? 1UL : 0UL);
 624:hardware/mcu/st/stm32wlxx_hal_driver/Inc/stm32wlxx_ll_exti.h **** }
 625:hardware/mcu/st/stm32wlxx_hal_driver/Inc/stm32wlxx_ll_exti.h **** 
 626:hardware/mcu/st/stm32wlxx_hal_driver/Inc/stm32wlxx_ll_exti.h **** #if defined(DUAL_CORE)
 627:hardware/mcu/st/stm32wlxx_hal_driver/Inc/stm32wlxx_ll_exti.h **** /**
 628:hardware/mcu/st/stm32wlxx_hal_driver/Inc/stm32wlxx_ll_exti.h ****   * @brief  Indicate if ExtiLine Interrupt request is enabled for Lines in range 32 to 63 for cpu2
 629:hardware/mcu/st/stm32wlxx_hal_driver/Inc/stm32wlxx_ll_exti.h ****   * @rmtoll C2IMR2         IMx           LL_C2_EXTI_IsEnabledIT_32_63
 630:hardware/mcu/st/stm32wlxx_hal_driver/Inc/stm32wlxx_ll_exti.h ****   * @param  ExtiLine This parameter can be one of the following values:
 631:hardware/mcu/st/stm32wlxx_hal_driver/Inc/stm32wlxx_ll_exti.h ****   *         @arg @ref LL_EXTI_LINE_34
 632:hardware/mcu/st/stm32wlxx_hal_driver/Inc/stm32wlxx_ll_exti.h ****   *         @arg @ref LL_EXTI_LINE_36 (*)
 633:hardware/mcu/st/stm32wlxx_hal_driver/Inc/stm32wlxx_ll_exti.h ****   *         @arg @ref LL_EXTI_LINE_37 (*)
 634:hardware/mcu/st/stm32wlxx_hal_driver/Inc/stm32wlxx_ll_exti.h ****   *         @arg @ref LL_EXTI_LINE_38
 635:hardware/mcu/st/stm32wlxx_hal_driver/Inc/stm32wlxx_ll_exti.h ****   *         @arg @ref LL_EXTI_LINE_39 (*)
 636:hardware/mcu/st/stm32wlxx_hal_driver/Inc/stm32wlxx_ll_exti.h ****   *         @arg @ref LL_EXTI_LINE_40 (*)
 637:hardware/mcu/st/stm32wlxx_hal_driver/Inc/stm32wlxx_ll_exti.h ****   *         @arg @ref LL_EXTI_LINE_41 (*)
 638:hardware/mcu/st/stm32wlxx_hal_driver/Inc/stm32wlxx_ll_exti.h ****   *         @arg @ref LL_EXTI_LINE_42
 639:hardware/mcu/st/stm32wlxx_hal_driver/Inc/stm32wlxx_ll_exti.h ****   *         @arg @ref LL_EXTI_LINE_43
 640:hardware/mcu/st/stm32wlxx_hal_driver/Inc/stm32wlxx_ll_exti.h ****   *         @arg @ref LL_EXTI_LINE_44
 641:hardware/mcu/st/stm32wlxx_hal_driver/Inc/stm32wlxx_ll_exti.h ****   *         @arg @ref LL_EXTI_LINE_45
 642:hardware/mcu/st/stm32wlxx_hal_driver/Inc/stm32wlxx_ll_exti.h ****   *         @arg @ref LL_EXTI_LINE_46
 643:hardware/mcu/st/stm32wlxx_hal_driver/Inc/stm32wlxx_ll_exti.h ****   *         @arg @ref LL_EXTI_LINE_ALL_32_63
 644:hardware/mcu/st/stm32wlxx_hal_driver/Inc/stm32wlxx_ll_exti.h ****   *         (*) value not defined in all devices
 645:hardware/mcu/st/stm32wlxx_hal_driver/Inc/stm32wlxx_ll_exti.h ****   * @retval State of bit (1 or 0).
 646:hardware/mcu/st/stm32wlxx_hal_driver/Inc/stm32wlxx_ll_exti.h ****   */
 647:hardware/mcu/st/stm32wlxx_hal_driver/Inc/stm32wlxx_ll_exti.h **** __STATIC_INLINE uint32_t LL_C2_EXTI_IsEnabledIT_32_63(uint32_t ExtiLine)
 648:hardware/mcu/st/stm32wlxx_hal_driver/Inc/stm32wlxx_ll_exti.h **** {
 649:hardware/mcu/st/stm32wlxx_hal_driver/Inc/stm32wlxx_ll_exti.h ****   return ((READ_BIT(EXTI->C2IMR2, ExtiLine) == (ExtiLine)) ? 1UL : 0UL);
 650:hardware/mcu/st/stm32wlxx_hal_driver/Inc/stm32wlxx_ll_exti.h **** }
 651:hardware/mcu/st/stm32wlxx_hal_driver/Inc/stm32wlxx_ll_exti.h **** #endif
 652:hardware/mcu/st/stm32wlxx_hal_driver/Inc/stm32wlxx_ll_exti.h **** 
 653:hardware/mcu/st/stm32wlxx_hal_driver/Inc/stm32wlxx_ll_exti.h **** /**
 654:hardware/mcu/st/stm32wlxx_hal_driver/Inc/stm32wlxx_ll_exti.h ****   * @}
 655:hardware/mcu/st/stm32wlxx_hal_driver/Inc/stm32wlxx_ll_exti.h ****   */
 656:hardware/mcu/st/stm32wlxx_hal_driver/Inc/stm32wlxx_ll_exti.h **** 
 657:hardware/mcu/st/stm32wlxx_hal_driver/Inc/stm32wlxx_ll_exti.h **** /** @defgroup EXTI_LL_EF_Event_Management Event_Management
 658:hardware/mcu/st/stm32wlxx_hal_driver/Inc/stm32wlxx_ll_exti.h ****   * @{
 659:hardware/mcu/st/stm32wlxx_hal_driver/Inc/stm32wlxx_ll_exti.h ****   */
 660:hardware/mcu/st/stm32wlxx_hal_driver/Inc/stm32wlxx_ll_exti.h **** 
 661:hardware/mcu/st/stm32wlxx_hal_driver/Inc/stm32wlxx_ll_exti.h **** /**
 662:hardware/mcu/st/stm32wlxx_hal_driver/Inc/stm32wlxx_ll_exti.h ****   * @brief  Enable ExtiLine Event request for Lines in range 0 to 31
 663:hardware/mcu/st/stm32wlxx_hal_driver/Inc/stm32wlxx_ll_exti.h ****   * @rmtoll EMR1         EMx           LL_EXTI_EnableEvent_0_31
 664:hardware/mcu/st/stm32wlxx_hal_driver/Inc/stm32wlxx_ll_exti.h ****   * @param  ExtiLine This parameter can be one of the following values:
 665:hardware/mcu/st/stm32wlxx_hal_driver/Inc/stm32wlxx_ll_exti.h ****   *         @arg @ref LL_EXTI_LINE_0
 666:hardware/mcu/st/stm32wlxx_hal_driver/Inc/stm32wlxx_ll_exti.h ****   *         @arg @ref LL_EXTI_LINE_1
 667:hardware/mcu/st/stm32wlxx_hal_driver/Inc/stm32wlxx_ll_exti.h ****   *         @arg @ref LL_EXTI_LINE_2
ARM GAS  /tmp/cckd0Xcu.s 			page 22


 668:hardware/mcu/st/stm32wlxx_hal_driver/Inc/stm32wlxx_ll_exti.h ****   *         @arg @ref LL_EXTI_LINE_3
 669:hardware/mcu/st/stm32wlxx_hal_driver/Inc/stm32wlxx_ll_exti.h ****   *         @arg @ref LL_EXTI_LINE_4
 670:hardware/mcu/st/stm32wlxx_hal_driver/Inc/stm32wlxx_ll_exti.h ****   *         @arg @ref LL_EXTI_LINE_5
 671:hardware/mcu/st/stm32wlxx_hal_driver/Inc/stm32wlxx_ll_exti.h ****   *         @arg @ref LL_EXTI_LINE_6
 672:hardware/mcu/st/stm32wlxx_hal_driver/Inc/stm32wlxx_ll_exti.h ****   *         @arg @ref LL_EXTI_LINE_7
 673:hardware/mcu/st/stm32wlxx_hal_driver/Inc/stm32wlxx_ll_exti.h ****   *         @arg @ref LL_EXTI_LINE_8
 674:hardware/mcu/st/stm32wlxx_hal_driver/Inc/stm32wlxx_ll_exti.h ****   *         @arg @ref LL_EXTI_LINE_9
 675:hardware/mcu/st/stm32wlxx_hal_driver/Inc/stm32wlxx_ll_exti.h ****   *         @arg @ref LL_EXTI_LINE_10
 676:hardware/mcu/st/stm32wlxx_hal_driver/Inc/stm32wlxx_ll_exti.h ****   *         @arg @ref LL_EXTI_LINE_11
 677:hardware/mcu/st/stm32wlxx_hal_driver/Inc/stm32wlxx_ll_exti.h ****   *         @arg @ref LL_EXTI_LINE_12
 678:hardware/mcu/st/stm32wlxx_hal_driver/Inc/stm32wlxx_ll_exti.h ****   *         @arg @ref LL_EXTI_LINE_13
 679:hardware/mcu/st/stm32wlxx_hal_driver/Inc/stm32wlxx_ll_exti.h ****   *         @arg @ref LL_EXTI_LINE_14
 680:hardware/mcu/st/stm32wlxx_hal_driver/Inc/stm32wlxx_ll_exti.h ****   *         @arg @ref LL_EXTI_LINE_15
 681:hardware/mcu/st/stm32wlxx_hal_driver/Inc/stm32wlxx_ll_exti.h ****   *         @arg @ref LL_EXTI_LINE_17
 682:hardware/mcu/st/stm32wlxx_hal_driver/Inc/stm32wlxx_ll_exti.h ****   *         @arg @ref LL_EXTI_LINE_19
 683:hardware/mcu/st/stm32wlxx_hal_driver/Inc/stm32wlxx_ll_exti.h ****   *         @arg @ref LL_EXTI_LINE_20
 684:hardware/mcu/st/stm32wlxx_hal_driver/Inc/stm32wlxx_ll_exti.h ****   *         @arg @ref LL_EXTI_LINE_21
 685:hardware/mcu/st/stm32wlxx_hal_driver/Inc/stm32wlxx_ll_exti.h ****   *         @arg @ref LL_EXTI_LINE_22
 686:hardware/mcu/st/stm32wlxx_hal_driver/Inc/stm32wlxx_ll_exti.h ****   * @retval None
 687:hardware/mcu/st/stm32wlxx_hal_driver/Inc/stm32wlxx_ll_exti.h ****   */
 688:hardware/mcu/st/stm32wlxx_hal_driver/Inc/stm32wlxx_ll_exti.h **** __STATIC_INLINE void LL_EXTI_EnableEvent_0_31(uint32_t ExtiLine)
 689:hardware/mcu/st/stm32wlxx_hal_driver/Inc/stm32wlxx_ll_exti.h **** {
 690:hardware/mcu/st/stm32wlxx_hal_driver/Inc/stm32wlxx_ll_exti.h ****   SET_BIT(EXTI->EMR1, ExtiLine);
 691:hardware/mcu/st/stm32wlxx_hal_driver/Inc/stm32wlxx_ll_exti.h **** }
 692:hardware/mcu/st/stm32wlxx_hal_driver/Inc/stm32wlxx_ll_exti.h **** 
 693:hardware/mcu/st/stm32wlxx_hal_driver/Inc/stm32wlxx_ll_exti.h **** #if defined(DUAL_CORE)
 694:hardware/mcu/st/stm32wlxx_hal_driver/Inc/stm32wlxx_ll_exti.h **** /**
 695:hardware/mcu/st/stm32wlxx_hal_driver/Inc/stm32wlxx_ll_exti.h ****   * @brief  Enable ExtiLine Event request for Lines in range 0 to 31 for cpu2
 696:hardware/mcu/st/stm32wlxx_hal_driver/Inc/stm32wlxx_ll_exti.h ****   * @rmtoll C2EMR1         EMx           LL_C2_EXTI_EnableEvent_0_31
 697:hardware/mcu/st/stm32wlxx_hal_driver/Inc/stm32wlxx_ll_exti.h ****   * @param  ExtiLine This parameter can be one of the following values:
 698:hardware/mcu/st/stm32wlxx_hal_driver/Inc/stm32wlxx_ll_exti.h ****   *         @arg @ref LL_EXTI_LINE_0
 699:hardware/mcu/st/stm32wlxx_hal_driver/Inc/stm32wlxx_ll_exti.h ****   *         @arg @ref LL_EXTI_LINE_1
 700:hardware/mcu/st/stm32wlxx_hal_driver/Inc/stm32wlxx_ll_exti.h ****   *         @arg @ref LL_EXTI_LINE_2
 701:hardware/mcu/st/stm32wlxx_hal_driver/Inc/stm32wlxx_ll_exti.h ****   *         @arg @ref LL_EXTI_LINE_3
 702:hardware/mcu/st/stm32wlxx_hal_driver/Inc/stm32wlxx_ll_exti.h ****   *         @arg @ref LL_EXTI_LINE_4
 703:hardware/mcu/st/stm32wlxx_hal_driver/Inc/stm32wlxx_ll_exti.h ****   *         @arg @ref LL_EXTI_LINE_5
 704:hardware/mcu/st/stm32wlxx_hal_driver/Inc/stm32wlxx_ll_exti.h ****   *         @arg @ref LL_EXTI_LINE_6
 705:hardware/mcu/st/stm32wlxx_hal_driver/Inc/stm32wlxx_ll_exti.h ****   *         @arg @ref LL_EXTI_LINE_7
 706:hardware/mcu/st/stm32wlxx_hal_driver/Inc/stm32wlxx_ll_exti.h ****   *         @arg @ref LL_EXTI_LINE_8
 707:hardware/mcu/st/stm32wlxx_hal_driver/Inc/stm32wlxx_ll_exti.h ****   *         @arg @ref LL_EXTI_LINE_9
 708:hardware/mcu/st/stm32wlxx_hal_driver/Inc/stm32wlxx_ll_exti.h ****   *         @arg @ref LL_EXTI_LINE_10
 709:hardware/mcu/st/stm32wlxx_hal_driver/Inc/stm32wlxx_ll_exti.h ****   *         @arg @ref LL_EXTI_LINE_11
 710:hardware/mcu/st/stm32wlxx_hal_driver/Inc/stm32wlxx_ll_exti.h ****   *         @arg @ref LL_EXTI_LINE_12
 711:hardware/mcu/st/stm32wlxx_hal_driver/Inc/stm32wlxx_ll_exti.h ****   *         @arg @ref LL_EXTI_LINE_13
 712:hardware/mcu/st/stm32wlxx_hal_driver/Inc/stm32wlxx_ll_exti.h ****   *         @arg @ref LL_EXTI_LINE_14
 713:hardware/mcu/st/stm32wlxx_hal_driver/Inc/stm32wlxx_ll_exti.h ****   *         @arg @ref LL_EXTI_LINE_15
 714:hardware/mcu/st/stm32wlxx_hal_driver/Inc/stm32wlxx_ll_exti.h ****   *         @arg @ref LL_EXTI_LINE_17
 715:hardware/mcu/st/stm32wlxx_hal_driver/Inc/stm32wlxx_ll_exti.h ****   *         @arg @ref LL_EXTI_LINE_19
 716:hardware/mcu/st/stm32wlxx_hal_driver/Inc/stm32wlxx_ll_exti.h ****   *         @arg @ref LL_EXTI_LINE_20
 717:hardware/mcu/st/stm32wlxx_hal_driver/Inc/stm32wlxx_ll_exti.h ****   *         @arg @ref LL_EXTI_LINE_21
 718:hardware/mcu/st/stm32wlxx_hal_driver/Inc/stm32wlxx_ll_exti.h ****   *         @arg @ref LL_EXTI_LINE_22
 719:hardware/mcu/st/stm32wlxx_hal_driver/Inc/stm32wlxx_ll_exti.h ****   * @retval None
 720:hardware/mcu/st/stm32wlxx_hal_driver/Inc/stm32wlxx_ll_exti.h ****   */
 721:hardware/mcu/st/stm32wlxx_hal_driver/Inc/stm32wlxx_ll_exti.h **** __STATIC_INLINE void LL_C2_EXTI_EnableEvent_0_31(uint32_t ExtiLine)
 722:hardware/mcu/st/stm32wlxx_hal_driver/Inc/stm32wlxx_ll_exti.h **** {
 723:hardware/mcu/st/stm32wlxx_hal_driver/Inc/stm32wlxx_ll_exti.h ****   SET_BIT(EXTI->C2EMR1, ExtiLine);
 724:hardware/mcu/st/stm32wlxx_hal_driver/Inc/stm32wlxx_ll_exti.h **** }
ARM GAS  /tmp/cckd0Xcu.s 			page 23


 725:hardware/mcu/st/stm32wlxx_hal_driver/Inc/stm32wlxx_ll_exti.h **** #endif
 726:hardware/mcu/st/stm32wlxx_hal_driver/Inc/stm32wlxx_ll_exti.h **** 
 727:hardware/mcu/st/stm32wlxx_hal_driver/Inc/stm32wlxx_ll_exti.h **** /**
 728:hardware/mcu/st/stm32wlxx_hal_driver/Inc/stm32wlxx_ll_exti.h ****   * @brief  Enable ExtiLine Event request for Lines in range 32 to 63
 729:hardware/mcu/st/stm32wlxx_hal_driver/Inc/stm32wlxx_ll_exti.h ****   * @rmtoll EMR2         EMx           LL_EXTI_EnableEvent_32_63
 730:hardware/mcu/st/stm32wlxx_hal_driver/Inc/stm32wlxx_ll_exti.h ****   * @param  ExtiLine This parameter can be a combination of the following values:
 731:hardware/mcu/st/stm32wlxx_hal_driver/Inc/stm32wlxx_ll_exti.h ****   *         @arg @ref LL_EXTI_LINE_40 (*)
 732:hardware/mcu/st/stm32wlxx_hal_driver/Inc/stm32wlxx_ll_exti.h ****   *         @arg @ref LL_EXTI_LINE_41 (*)
 733:hardware/mcu/st/stm32wlxx_hal_driver/Inc/stm32wlxx_ll_exti.h ****   *         (*) value not defined in all devices
 734:hardware/mcu/st/stm32wlxx_hal_driver/Inc/stm32wlxx_ll_exti.h ****   * @retval None
 735:hardware/mcu/st/stm32wlxx_hal_driver/Inc/stm32wlxx_ll_exti.h ****   */
 736:hardware/mcu/st/stm32wlxx_hal_driver/Inc/stm32wlxx_ll_exti.h **** __STATIC_INLINE void LL_EXTI_EnableEvent_32_63(uint32_t ExtiLine)
 737:hardware/mcu/st/stm32wlxx_hal_driver/Inc/stm32wlxx_ll_exti.h **** {
 738:hardware/mcu/st/stm32wlxx_hal_driver/Inc/stm32wlxx_ll_exti.h ****   SET_BIT(EXTI->EMR2, ExtiLine);
 739:hardware/mcu/st/stm32wlxx_hal_driver/Inc/stm32wlxx_ll_exti.h **** }
 740:hardware/mcu/st/stm32wlxx_hal_driver/Inc/stm32wlxx_ll_exti.h **** 
 741:hardware/mcu/st/stm32wlxx_hal_driver/Inc/stm32wlxx_ll_exti.h **** #if defined(DUAL_CORE)
 742:hardware/mcu/st/stm32wlxx_hal_driver/Inc/stm32wlxx_ll_exti.h **** /**
 743:hardware/mcu/st/stm32wlxx_hal_driver/Inc/stm32wlxx_ll_exti.h ****   * @brief  Enable ExtiLine Event request for Lines in range 32 to 63 for cpu2
 744:hardware/mcu/st/stm32wlxx_hal_driver/Inc/stm32wlxx_ll_exti.h ****   * @rmtoll C2EMR2         EMx           LL_C2_EXTI_EnableEvent_32_63
 745:hardware/mcu/st/stm32wlxx_hal_driver/Inc/stm32wlxx_ll_exti.h ****   * @param  ExtiLine This parameter can be a combination of the following values:
 746:hardware/mcu/st/stm32wlxx_hal_driver/Inc/stm32wlxx_ll_exti.h ****   *         @arg @ref LL_EXTI_LINE_40 (*)
 747:hardware/mcu/st/stm32wlxx_hal_driver/Inc/stm32wlxx_ll_exti.h ****   *         @arg @ref LL_EXTI_LINE_41 (*)
 748:hardware/mcu/st/stm32wlxx_hal_driver/Inc/stm32wlxx_ll_exti.h ****   *         (*) value not defined in all devices
 749:hardware/mcu/st/stm32wlxx_hal_driver/Inc/stm32wlxx_ll_exti.h ****   * @retval None
 750:hardware/mcu/st/stm32wlxx_hal_driver/Inc/stm32wlxx_ll_exti.h ****   */
 751:hardware/mcu/st/stm32wlxx_hal_driver/Inc/stm32wlxx_ll_exti.h **** __STATIC_INLINE void LL_C2_EXTI_EnableEvent_32_63(uint32_t ExtiLine)
 752:hardware/mcu/st/stm32wlxx_hal_driver/Inc/stm32wlxx_ll_exti.h **** {
 753:hardware/mcu/st/stm32wlxx_hal_driver/Inc/stm32wlxx_ll_exti.h ****   SET_BIT(EXTI->C2EMR2, ExtiLine);
 754:hardware/mcu/st/stm32wlxx_hal_driver/Inc/stm32wlxx_ll_exti.h **** }
 755:hardware/mcu/st/stm32wlxx_hal_driver/Inc/stm32wlxx_ll_exti.h **** #endif
 756:hardware/mcu/st/stm32wlxx_hal_driver/Inc/stm32wlxx_ll_exti.h **** 
 757:hardware/mcu/st/stm32wlxx_hal_driver/Inc/stm32wlxx_ll_exti.h **** /**
 758:hardware/mcu/st/stm32wlxx_hal_driver/Inc/stm32wlxx_ll_exti.h ****   * @brief  Disable ExtiLine Event request for Lines in range 0 to 31
 759:hardware/mcu/st/stm32wlxx_hal_driver/Inc/stm32wlxx_ll_exti.h ****   * @rmtoll EMR1         EMx           LL_EXTI_DisableEvent_0_31
 760:hardware/mcu/st/stm32wlxx_hal_driver/Inc/stm32wlxx_ll_exti.h ****   * @param  ExtiLine This parameter can be one of the following values:
 761:hardware/mcu/st/stm32wlxx_hal_driver/Inc/stm32wlxx_ll_exti.h ****   *         @arg @ref LL_EXTI_LINE_0
 762:hardware/mcu/st/stm32wlxx_hal_driver/Inc/stm32wlxx_ll_exti.h ****   *         @arg @ref LL_EXTI_LINE_1
 763:hardware/mcu/st/stm32wlxx_hal_driver/Inc/stm32wlxx_ll_exti.h ****   *         @arg @ref LL_EXTI_LINE_2
 764:hardware/mcu/st/stm32wlxx_hal_driver/Inc/stm32wlxx_ll_exti.h ****   *         @arg @ref LL_EXTI_LINE_3
 765:hardware/mcu/st/stm32wlxx_hal_driver/Inc/stm32wlxx_ll_exti.h ****   *         @arg @ref LL_EXTI_LINE_4
 766:hardware/mcu/st/stm32wlxx_hal_driver/Inc/stm32wlxx_ll_exti.h ****   *         @arg @ref LL_EXTI_LINE_5
 767:hardware/mcu/st/stm32wlxx_hal_driver/Inc/stm32wlxx_ll_exti.h ****   *         @arg @ref LL_EXTI_LINE_6
 768:hardware/mcu/st/stm32wlxx_hal_driver/Inc/stm32wlxx_ll_exti.h ****   *         @arg @ref LL_EXTI_LINE_7
 769:hardware/mcu/st/stm32wlxx_hal_driver/Inc/stm32wlxx_ll_exti.h ****   *         @arg @ref LL_EXTI_LINE_8
 770:hardware/mcu/st/stm32wlxx_hal_driver/Inc/stm32wlxx_ll_exti.h ****   *         @arg @ref LL_EXTI_LINE_9
 771:hardware/mcu/st/stm32wlxx_hal_driver/Inc/stm32wlxx_ll_exti.h ****   *         @arg @ref LL_EXTI_LINE_10
 772:hardware/mcu/st/stm32wlxx_hal_driver/Inc/stm32wlxx_ll_exti.h ****   *         @arg @ref LL_EXTI_LINE_11
 773:hardware/mcu/st/stm32wlxx_hal_driver/Inc/stm32wlxx_ll_exti.h ****   *         @arg @ref LL_EXTI_LINE_12
 774:hardware/mcu/st/stm32wlxx_hal_driver/Inc/stm32wlxx_ll_exti.h ****   *         @arg @ref LL_EXTI_LINE_13
 775:hardware/mcu/st/stm32wlxx_hal_driver/Inc/stm32wlxx_ll_exti.h ****   *         @arg @ref LL_EXTI_LINE_14
 776:hardware/mcu/st/stm32wlxx_hal_driver/Inc/stm32wlxx_ll_exti.h ****   *         @arg @ref LL_EXTI_LINE_15
 777:hardware/mcu/st/stm32wlxx_hal_driver/Inc/stm32wlxx_ll_exti.h ****   *         @arg @ref LL_EXTI_LINE_17
 778:hardware/mcu/st/stm32wlxx_hal_driver/Inc/stm32wlxx_ll_exti.h ****   *         @arg @ref LL_EXTI_LINE_19
 779:hardware/mcu/st/stm32wlxx_hal_driver/Inc/stm32wlxx_ll_exti.h ****   *         @arg @ref LL_EXTI_LINE_20
 780:hardware/mcu/st/stm32wlxx_hal_driver/Inc/stm32wlxx_ll_exti.h ****   *         @arg @ref LL_EXTI_LINE_21
 781:hardware/mcu/st/stm32wlxx_hal_driver/Inc/stm32wlxx_ll_exti.h ****   *         @arg @ref LL_EXTI_LINE_22
ARM GAS  /tmp/cckd0Xcu.s 			page 24


 782:hardware/mcu/st/stm32wlxx_hal_driver/Inc/stm32wlxx_ll_exti.h ****   * @retval None
 783:hardware/mcu/st/stm32wlxx_hal_driver/Inc/stm32wlxx_ll_exti.h ****   */
 784:hardware/mcu/st/stm32wlxx_hal_driver/Inc/stm32wlxx_ll_exti.h **** __STATIC_INLINE void LL_EXTI_DisableEvent_0_31(uint32_t ExtiLine)
 785:hardware/mcu/st/stm32wlxx_hal_driver/Inc/stm32wlxx_ll_exti.h **** {
 786:hardware/mcu/st/stm32wlxx_hal_driver/Inc/stm32wlxx_ll_exti.h ****   CLEAR_BIT(EXTI->EMR1, ExtiLine);
 787:hardware/mcu/st/stm32wlxx_hal_driver/Inc/stm32wlxx_ll_exti.h **** }
 788:hardware/mcu/st/stm32wlxx_hal_driver/Inc/stm32wlxx_ll_exti.h **** 
 789:hardware/mcu/st/stm32wlxx_hal_driver/Inc/stm32wlxx_ll_exti.h **** #if defined(DUAL_CORE)
 790:hardware/mcu/st/stm32wlxx_hal_driver/Inc/stm32wlxx_ll_exti.h **** /**
 791:hardware/mcu/st/stm32wlxx_hal_driver/Inc/stm32wlxx_ll_exti.h ****   * @brief  Disable ExtiLine Event request for Lines in range 0 to 31 for cpu2
 792:hardware/mcu/st/stm32wlxx_hal_driver/Inc/stm32wlxx_ll_exti.h ****   * @rmtoll C2EMR1         EMx           LL_C2_EXTI_DisableEvent_0_31
 793:hardware/mcu/st/stm32wlxx_hal_driver/Inc/stm32wlxx_ll_exti.h ****   * @param  ExtiLine This parameter can be one of the following values:
 794:hardware/mcu/st/stm32wlxx_hal_driver/Inc/stm32wlxx_ll_exti.h ****   *         @arg @ref LL_EXTI_LINE_0
 795:hardware/mcu/st/stm32wlxx_hal_driver/Inc/stm32wlxx_ll_exti.h ****   *         @arg @ref LL_EXTI_LINE_1
 796:hardware/mcu/st/stm32wlxx_hal_driver/Inc/stm32wlxx_ll_exti.h ****   *         @arg @ref LL_EXTI_LINE_2
 797:hardware/mcu/st/stm32wlxx_hal_driver/Inc/stm32wlxx_ll_exti.h ****   *         @arg @ref LL_EXTI_LINE_3
 798:hardware/mcu/st/stm32wlxx_hal_driver/Inc/stm32wlxx_ll_exti.h ****   *         @arg @ref LL_EXTI_LINE_4
 799:hardware/mcu/st/stm32wlxx_hal_driver/Inc/stm32wlxx_ll_exti.h ****   *         @arg @ref LL_EXTI_LINE_5
 800:hardware/mcu/st/stm32wlxx_hal_driver/Inc/stm32wlxx_ll_exti.h ****   *         @arg @ref LL_EXTI_LINE_6
 801:hardware/mcu/st/stm32wlxx_hal_driver/Inc/stm32wlxx_ll_exti.h ****   *         @arg @ref LL_EXTI_LINE_7
 802:hardware/mcu/st/stm32wlxx_hal_driver/Inc/stm32wlxx_ll_exti.h ****   *         @arg @ref LL_EXTI_LINE_8
 803:hardware/mcu/st/stm32wlxx_hal_driver/Inc/stm32wlxx_ll_exti.h ****   *         @arg @ref LL_EXTI_LINE_9
 804:hardware/mcu/st/stm32wlxx_hal_driver/Inc/stm32wlxx_ll_exti.h ****   *         @arg @ref LL_EXTI_LINE_10
 805:hardware/mcu/st/stm32wlxx_hal_driver/Inc/stm32wlxx_ll_exti.h ****   *         @arg @ref LL_EXTI_LINE_11
 806:hardware/mcu/st/stm32wlxx_hal_driver/Inc/stm32wlxx_ll_exti.h ****   *         @arg @ref LL_EXTI_LINE_12
 807:hardware/mcu/st/stm32wlxx_hal_driver/Inc/stm32wlxx_ll_exti.h ****   *         @arg @ref LL_EXTI_LINE_13
 808:hardware/mcu/st/stm32wlxx_hal_driver/Inc/stm32wlxx_ll_exti.h ****   *         @arg @ref LL_EXTI_LINE_14
 809:hardware/mcu/st/stm32wlxx_hal_driver/Inc/stm32wlxx_ll_exti.h ****   *         @arg @ref LL_EXTI_LINE_15
 810:hardware/mcu/st/stm32wlxx_hal_driver/Inc/stm32wlxx_ll_exti.h ****   *         @arg @ref LL_EXTI_LINE_17
 811:hardware/mcu/st/stm32wlxx_hal_driver/Inc/stm32wlxx_ll_exti.h ****   *         @arg @ref LL_EXTI_LINE_19
 812:hardware/mcu/st/stm32wlxx_hal_driver/Inc/stm32wlxx_ll_exti.h ****   *         @arg @ref LL_EXTI_LINE_20
 813:hardware/mcu/st/stm32wlxx_hal_driver/Inc/stm32wlxx_ll_exti.h ****   *         @arg @ref LL_EXTI_LINE_21
 814:hardware/mcu/st/stm32wlxx_hal_driver/Inc/stm32wlxx_ll_exti.h ****   *         @arg @ref LL_EXTI_LINE_22
 815:hardware/mcu/st/stm32wlxx_hal_driver/Inc/stm32wlxx_ll_exti.h ****   * @retval None
 816:hardware/mcu/st/stm32wlxx_hal_driver/Inc/stm32wlxx_ll_exti.h ****   */
 817:hardware/mcu/st/stm32wlxx_hal_driver/Inc/stm32wlxx_ll_exti.h **** __STATIC_INLINE void LL_C2_EXTI_DisableEvent_0_31(uint32_t ExtiLine)
 818:hardware/mcu/st/stm32wlxx_hal_driver/Inc/stm32wlxx_ll_exti.h **** {
 819:hardware/mcu/st/stm32wlxx_hal_driver/Inc/stm32wlxx_ll_exti.h ****   CLEAR_BIT(EXTI->C2EMR1, ExtiLine);
 820:hardware/mcu/st/stm32wlxx_hal_driver/Inc/stm32wlxx_ll_exti.h **** }
 821:hardware/mcu/st/stm32wlxx_hal_driver/Inc/stm32wlxx_ll_exti.h **** #endif
 822:hardware/mcu/st/stm32wlxx_hal_driver/Inc/stm32wlxx_ll_exti.h **** 
 823:hardware/mcu/st/stm32wlxx_hal_driver/Inc/stm32wlxx_ll_exti.h **** /**
 824:hardware/mcu/st/stm32wlxx_hal_driver/Inc/stm32wlxx_ll_exti.h ****   * @brief  Disable ExtiLine Event request for Lines in range 32 to 63
 825:hardware/mcu/st/stm32wlxx_hal_driver/Inc/stm32wlxx_ll_exti.h ****   * @rmtoll EMR2         EMx           LL_EXTI_DisableEvent_32_63
 826:hardware/mcu/st/stm32wlxx_hal_driver/Inc/stm32wlxx_ll_exti.h ****   * @param  ExtiLine This parameter can be a combination of the following values:
 827:hardware/mcu/st/stm32wlxx_hal_driver/Inc/stm32wlxx_ll_exti.h ****   *         @arg @ref LL_EXTI_LINE_40 (*)
 828:hardware/mcu/st/stm32wlxx_hal_driver/Inc/stm32wlxx_ll_exti.h ****   *         @arg @ref LL_EXTI_LINE_41 (*)
 829:hardware/mcu/st/stm32wlxx_hal_driver/Inc/stm32wlxx_ll_exti.h ****   *         (*) value not defined in all devices
 830:hardware/mcu/st/stm32wlxx_hal_driver/Inc/stm32wlxx_ll_exti.h ****   * @retval None
 831:hardware/mcu/st/stm32wlxx_hal_driver/Inc/stm32wlxx_ll_exti.h ****   */
 832:hardware/mcu/st/stm32wlxx_hal_driver/Inc/stm32wlxx_ll_exti.h **** __STATIC_INLINE void LL_EXTI_DisableEvent_32_63(uint32_t ExtiLine)
 833:hardware/mcu/st/stm32wlxx_hal_driver/Inc/stm32wlxx_ll_exti.h **** {
 834:hardware/mcu/st/stm32wlxx_hal_driver/Inc/stm32wlxx_ll_exti.h ****   CLEAR_BIT(EXTI->EMR2, ExtiLine);
 835:hardware/mcu/st/stm32wlxx_hal_driver/Inc/stm32wlxx_ll_exti.h **** }
 836:hardware/mcu/st/stm32wlxx_hal_driver/Inc/stm32wlxx_ll_exti.h **** 
 837:hardware/mcu/st/stm32wlxx_hal_driver/Inc/stm32wlxx_ll_exti.h **** #if defined(DUAL_CORE)
 838:hardware/mcu/st/stm32wlxx_hal_driver/Inc/stm32wlxx_ll_exti.h **** /**
ARM GAS  /tmp/cckd0Xcu.s 			page 25


 839:hardware/mcu/st/stm32wlxx_hal_driver/Inc/stm32wlxx_ll_exti.h ****   * @brief  Disable ExtiLine Event request for Lines in range 32 to 63 for cpu2
 840:hardware/mcu/st/stm32wlxx_hal_driver/Inc/stm32wlxx_ll_exti.h ****   * @rmtoll C2EMR2         EMx           LL_C2_EXTI_DisableEvent_32_63
 841:hardware/mcu/st/stm32wlxx_hal_driver/Inc/stm32wlxx_ll_exti.h ****   * @param  ExtiLine This parameter can be a combination of the following values:
 842:hardware/mcu/st/stm32wlxx_hal_driver/Inc/stm32wlxx_ll_exti.h ****   *         @arg @ref LL_EXTI_LINE_40 (*)
 843:hardware/mcu/st/stm32wlxx_hal_driver/Inc/stm32wlxx_ll_exti.h ****   *         @arg @ref LL_EXTI_LINE_41 (*)
 844:hardware/mcu/st/stm32wlxx_hal_driver/Inc/stm32wlxx_ll_exti.h ****   *         (*) value not defined in all devices
 845:hardware/mcu/st/stm32wlxx_hal_driver/Inc/stm32wlxx_ll_exti.h ****   * @retval None
 846:hardware/mcu/st/stm32wlxx_hal_driver/Inc/stm32wlxx_ll_exti.h ****   */
 847:hardware/mcu/st/stm32wlxx_hal_driver/Inc/stm32wlxx_ll_exti.h **** __STATIC_INLINE void LL_C2_EXTI_DisableEvent_32_63(uint32_t ExtiLine)
 848:hardware/mcu/st/stm32wlxx_hal_driver/Inc/stm32wlxx_ll_exti.h **** {
 849:hardware/mcu/st/stm32wlxx_hal_driver/Inc/stm32wlxx_ll_exti.h ****   CLEAR_BIT(EXTI->C2EMR2, ExtiLine);
 850:hardware/mcu/st/stm32wlxx_hal_driver/Inc/stm32wlxx_ll_exti.h **** }
 851:hardware/mcu/st/stm32wlxx_hal_driver/Inc/stm32wlxx_ll_exti.h **** #endif
 852:hardware/mcu/st/stm32wlxx_hal_driver/Inc/stm32wlxx_ll_exti.h **** 
 853:hardware/mcu/st/stm32wlxx_hal_driver/Inc/stm32wlxx_ll_exti.h **** /**
 854:hardware/mcu/st/stm32wlxx_hal_driver/Inc/stm32wlxx_ll_exti.h ****   * @brief  Indicate if ExtiLine Event request is enabled for Lines in range 0 to 31
 855:hardware/mcu/st/stm32wlxx_hal_driver/Inc/stm32wlxx_ll_exti.h ****   * @rmtoll EMR1         EMx           LL_EXTI_IsEnabledEvent_0_31
 856:hardware/mcu/st/stm32wlxx_hal_driver/Inc/stm32wlxx_ll_exti.h ****   * @param  ExtiLine This parameter can be one of the following values:
 857:hardware/mcu/st/stm32wlxx_hal_driver/Inc/stm32wlxx_ll_exti.h ****   *         @arg @ref LL_EXTI_LINE_0
 858:hardware/mcu/st/stm32wlxx_hal_driver/Inc/stm32wlxx_ll_exti.h ****   *         @arg @ref LL_EXTI_LINE_1
 859:hardware/mcu/st/stm32wlxx_hal_driver/Inc/stm32wlxx_ll_exti.h ****   *         @arg @ref LL_EXTI_LINE_2
 860:hardware/mcu/st/stm32wlxx_hal_driver/Inc/stm32wlxx_ll_exti.h ****   *         @arg @ref LL_EXTI_LINE_3
 861:hardware/mcu/st/stm32wlxx_hal_driver/Inc/stm32wlxx_ll_exti.h ****   *         @arg @ref LL_EXTI_LINE_4
 862:hardware/mcu/st/stm32wlxx_hal_driver/Inc/stm32wlxx_ll_exti.h ****   *         @arg @ref LL_EXTI_LINE_5
 863:hardware/mcu/st/stm32wlxx_hal_driver/Inc/stm32wlxx_ll_exti.h ****   *         @arg @ref LL_EXTI_LINE_6
 864:hardware/mcu/st/stm32wlxx_hal_driver/Inc/stm32wlxx_ll_exti.h ****   *         @arg @ref LL_EXTI_LINE_7
 865:hardware/mcu/st/stm32wlxx_hal_driver/Inc/stm32wlxx_ll_exti.h ****   *         @arg @ref LL_EXTI_LINE_8
 866:hardware/mcu/st/stm32wlxx_hal_driver/Inc/stm32wlxx_ll_exti.h ****   *         @arg @ref LL_EXTI_LINE_9
 867:hardware/mcu/st/stm32wlxx_hal_driver/Inc/stm32wlxx_ll_exti.h ****   *         @arg @ref LL_EXTI_LINE_10
 868:hardware/mcu/st/stm32wlxx_hal_driver/Inc/stm32wlxx_ll_exti.h ****   *         @arg @ref LL_EXTI_LINE_11
 869:hardware/mcu/st/stm32wlxx_hal_driver/Inc/stm32wlxx_ll_exti.h ****   *         @arg @ref LL_EXTI_LINE_12
 870:hardware/mcu/st/stm32wlxx_hal_driver/Inc/stm32wlxx_ll_exti.h ****   *         @arg @ref LL_EXTI_LINE_13
 871:hardware/mcu/st/stm32wlxx_hal_driver/Inc/stm32wlxx_ll_exti.h ****   *         @arg @ref LL_EXTI_LINE_14
 872:hardware/mcu/st/stm32wlxx_hal_driver/Inc/stm32wlxx_ll_exti.h ****   *         @arg @ref LL_EXTI_LINE_15
 873:hardware/mcu/st/stm32wlxx_hal_driver/Inc/stm32wlxx_ll_exti.h ****   *         @arg @ref LL_EXTI_LINE_17
 874:hardware/mcu/st/stm32wlxx_hal_driver/Inc/stm32wlxx_ll_exti.h ****   *         @arg @ref LL_EXTI_LINE_19
 875:hardware/mcu/st/stm32wlxx_hal_driver/Inc/stm32wlxx_ll_exti.h ****   *         @arg @ref LL_EXTI_LINE_20
 876:hardware/mcu/st/stm32wlxx_hal_driver/Inc/stm32wlxx_ll_exti.h ****   *         @arg @ref LL_EXTI_LINE_21
 877:hardware/mcu/st/stm32wlxx_hal_driver/Inc/stm32wlxx_ll_exti.h ****   *         @arg @ref LL_EXTI_LINE_22
 878:hardware/mcu/st/stm32wlxx_hal_driver/Inc/stm32wlxx_ll_exti.h ****   * @retval State of bit (1 or 0).
 879:hardware/mcu/st/stm32wlxx_hal_driver/Inc/stm32wlxx_ll_exti.h ****   */
 880:hardware/mcu/st/stm32wlxx_hal_driver/Inc/stm32wlxx_ll_exti.h **** __STATIC_INLINE uint32_t LL_EXTI_IsEnabledEvent_0_31(uint32_t ExtiLine)
 881:hardware/mcu/st/stm32wlxx_hal_driver/Inc/stm32wlxx_ll_exti.h **** {
 882:hardware/mcu/st/stm32wlxx_hal_driver/Inc/stm32wlxx_ll_exti.h ****   return ((READ_BIT(EXTI->EMR1, ExtiLine) == (ExtiLine)) ? 1UL : 0UL);
 883:hardware/mcu/st/stm32wlxx_hal_driver/Inc/stm32wlxx_ll_exti.h **** }
 884:hardware/mcu/st/stm32wlxx_hal_driver/Inc/stm32wlxx_ll_exti.h **** 
 885:hardware/mcu/st/stm32wlxx_hal_driver/Inc/stm32wlxx_ll_exti.h **** #if defined(DUAL_CORE)
 886:hardware/mcu/st/stm32wlxx_hal_driver/Inc/stm32wlxx_ll_exti.h **** /**
 887:hardware/mcu/st/stm32wlxx_hal_driver/Inc/stm32wlxx_ll_exti.h ****   * @brief  Indicate if ExtiLine Event request is enabled for Lines in range 0 to 31 for cpu2
 888:hardware/mcu/st/stm32wlxx_hal_driver/Inc/stm32wlxx_ll_exti.h ****   * @rmtoll C2EMR1         EMx           LL_C2_EXTI_IsEnabledEvent_0_31
 889:hardware/mcu/st/stm32wlxx_hal_driver/Inc/stm32wlxx_ll_exti.h ****   * @param  ExtiLine This parameter can be one of the following values:
 890:hardware/mcu/st/stm32wlxx_hal_driver/Inc/stm32wlxx_ll_exti.h ****   *         @arg @ref LL_EXTI_LINE_0
 891:hardware/mcu/st/stm32wlxx_hal_driver/Inc/stm32wlxx_ll_exti.h ****   *         @arg @ref LL_EXTI_LINE_1
 892:hardware/mcu/st/stm32wlxx_hal_driver/Inc/stm32wlxx_ll_exti.h ****   *         @arg @ref LL_EXTI_LINE_2
 893:hardware/mcu/st/stm32wlxx_hal_driver/Inc/stm32wlxx_ll_exti.h ****   *         @arg @ref LL_EXTI_LINE_3
 894:hardware/mcu/st/stm32wlxx_hal_driver/Inc/stm32wlxx_ll_exti.h ****   *         @arg @ref LL_EXTI_LINE_4
 895:hardware/mcu/st/stm32wlxx_hal_driver/Inc/stm32wlxx_ll_exti.h ****   *         @arg @ref LL_EXTI_LINE_5
ARM GAS  /tmp/cckd0Xcu.s 			page 26


 896:hardware/mcu/st/stm32wlxx_hal_driver/Inc/stm32wlxx_ll_exti.h ****   *         @arg @ref LL_EXTI_LINE_6
 897:hardware/mcu/st/stm32wlxx_hal_driver/Inc/stm32wlxx_ll_exti.h ****   *         @arg @ref LL_EXTI_LINE_7
 898:hardware/mcu/st/stm32wlxx_hal_driver/Inc/stm32wlxx_ll_exti.h ****   *         @arg @ref LL_EXTI_LINE_8
 899:hardware/mcu/st/stm32wlxx_hal_driver/Inc/stm32wlxx_ll_exti.h ****   *         @arg @ref LL_EXTI_LINE_9
 900:hardware/mcu/st/stm32wlxx_hal_driver/Inc/stm32wlxx_ll_exti.h ****   *         @arg @ref LL_EXTI_LINE_10
 901:hardware/mcu/st/stm32wlxx_hal_driver/Inc/stm32wlxx_ll_exti.h ****   *         @arg @ref LL_EXTI_LINE_11
 902:hardware/mcu/st/stm32wlxx_hal_driver/Inc/stm32wlxx_ll_exti.h ****   *         @arg @ref LL_EXTI_LINE_12
 903:hardware/mcu/st/stm32wlxx_hal_driver/Inc/stm32wlxx_ll_exti.h ****   *         @arg @ref LL_EXTI_LINE_13
 904:hardware/mcu/st/stm32wlxx_hal_driver/Inc/stm32wlxx_ll_exti.h ****   *         @arg @ref LL_EXTI_LINE_14
 905:hardware/mcu/st/stm32wlxx_hal_driver/Inc/stm32wlxx_ll_exti.h ****   *         @arg @ref LL_EXTI_LINE_15
 906:hardware/mcu/st/stm32wlxx_hal_driver/Inc/stm32wlxx_ll_exti.h ****   *         @arg @ref LL_EXTI_LINE_17
 907:hardware/mcu/st/stm32wlxx_hal_driver/Inc/stm32wlxx_ll_exti.h ****   *         @arg @ref LL_EXTI_LINE_19
 908:hardware/mcu/st/stm32wlxx_hal_driver/Inc/stm32wlxx_ll_exti.h ****   *         @arg @ref LL_EXTI_LINE_20
 909:hardware/mcu/st/stm32wlxx_hal_driver/Inc/stm32wlxx_ll_exti.h ****   *         @arg @ref LL_EXTI_LINE_21
 910:hardware/mcu/st/stm32wlxx_hal_driver/Inc/stm32wlxx_ll_exti.h ****   *         @arg @ref LL_EXTI_LINE_22
 911:hardware/mcu/st/stm32wlxx_hal_driver/Inc/stm32wlxx_ll_exti.h ****   * @retval State of bit (1 or 0).
 912:hardware/mcu/st/stm32wlxx_hal_driver/Inc/stm32wlxx_ll_exti.h ****   */
 913:hardware/mcu/st/stm32wlxx_hal_driver/Inc/stm32wlxx_ll_exti.h **** __STATIC_INLINE uint32_t LL_C2_EXTI_IsEnabledEvent_0_31(uint32_t ExtiLine)
 914:hardware/mcu/st/stm32wlxx_hal_driver/Inc/stm32wlxx_ll_exti.h **** {
 915:hardware/mcu/st/stm32wlxx_hal_driver/Inc/stm32wlxx_ll_exti.h ****   return ((READ_BIT(EXTI->C2EMR1, ExtiLine) == (ExtiLine)) ? 1UL : 0UL);
 916:hardware/mcu/st/stm32wlxx_hal_driver/Inc/stm32wlxx_ll_exti.h **** }
 917:hardware/mcu/st/stm32wlxx_hal_driver/Inc/stm32wlxx_ll_exti.h **** #endif
 918:hardware/mcu/st/stm32wlxx_hal_driver/Inc/stm32wlxx_ll_exti.h **** 
 919:hardware/mcu/st/stm32wlxx_hal_driver/Inc/stm32wlxx_ll_exti.h **** /**
 920:hardware/mcu/st/stm32wlxx_hal_driver/Inc/stm32wlxx_ll_exti.h ****   * @brief  Indicate if ExtiLine Event request is enabled for Lines in range 32 to 63
 921:hardware/mcu/st/stm32wlxx_hal_driver/Inc/stm32wlxx_ll_exti.h ****   * @rmtoll EMR2         EMx           LL_EXTI_IsEnabledEvent_32_63
 922:hardware/mcu/st/stm32wlxx_hal_driver/Inc/stm32wlxx_ll_exti.h ****   * @param  ExtiLine This parameter can be a combination of the following values:
 923:hardware/mcu/st/stm32wlxx_hal_driver/Inc/stm32wlxx_ll_exti.h ****   *         @arg @ref LL_EXTI_LINE_40 (*)
 924:hardware/mcu/st/stm32wlxx_hal_driver/Inc/stm32wlxx_ll_exti.h ****   *         @arg @ref LL_EXTI_LINE_41 (*)
 925:hardware/mcu/st/stm32wlxx_hal_driver/Inc/stm32wlxx_ll_exti.h ****   *         (*) value not defined in all devices
 926:hardware/mcu/st/stm32wlxx_hal_driver/Inc/stm32wlxx_ll_exti.h ****   * @retval State of bit (1 or 0).
 927:hardware/mcu/st/stm32wlxx_hal_driver/Inc/stm32wlxx_ll_exti.h ****   */
 928:hardware/mcu/st/stm32wlxx_hal_driver/Inc/stm32wlxx_ll_exti.h **** __STATIC_INLINE uint32_t LL_EXTI_IsEnabledEvent_32_63(uint32_t ExtiLine)
 929:hardware/mcu/st/stm32wlxx_hal_driver/Inc/stm32wlxx_ll_exti.h **** {
 930:hardware/mcu/st/stm32wlxx_hal_driver/Inc/stm32wlxx_ll_exti.h ****   return ((READ_BIT(EXTI->EMR2, ExtiLine) == (ExtiLine)) ? 1UL : 0UL);
 931:hardware/mcu/st/stm32wlxx_hal_driver/Inc/stm32wlxx_ll_exti.h **** }
 932:hardware/mcu/st/stm32wlxx_hal_driver/Inc/stm32wlxx_ll_exti.h **** 
 933:hardware/mcu/st/stm32wlxx_hal_driver/Inc/stm32wlxx_ll_exti.h **** #if defined(DUAL_CORE)
 934:hardware/mcu/st/stm32wlxx_hal_driver/Inc/stm32wlxx_ll_exti.h **** /**
 935:hardware/mcu/st/stm32wlxx_hal_driver/Inc/stm32wlxx_ll_exti.h ****   * @brief  Indicate if ExtiLine Event request is enabled for Lines in range 32 to 63 for cpu2
 936:hardware/mcu/st/stm32wlxx_hal_driver/Inc/stm32wlxx_ll_exti.h ****   * @rmtoll EMR2         EMx           LL_C2_EXTI_IsEnabledEvent_32_63
 937:hardware/mcu/st/stm32wlxx_hal_driver/Inc/stm32wlxx_ll_exti.h ****   * @param  ExtiLine This parameter can be a combination of the following values:
 938:hardware/mcu/st/stm32wlxx_hal_driver/Inc/stm32wlxx_ll_exti.h ****   *         @arg @ref LL_EXTI_LINE_40 (*)
 939:hardware/mcu/st/stm32wlxx_hal_driver/Inc/stm32wlxx_ll_exti.h ****   *         @arg @ref LL_EXTI_LINE_41 (*)
 940:hardware/mcu/st/stm32wlxx_hal_driver/Inc/stm32wlxx_ll_exti.h ****   *         (*) value not defined in all devices
 941:hardware/mcu/st/stm32wlxx_hal_driver/Inc/stm32wlxx_ll_exti.h ****   * @retval State of bit (1 or 0).
 942:hardware/mcu/st/stm32wlxx_hal_driver/Inc/stm32wlxx_ll_exti.h ****   */
 943:hardware/mcu/st/stm32wlxx_hal_driver/Inc/stm32wlxx_ll_exti.h **** __STATIC_INLINE uint32_t LL_C2_EXTI_IsEnabledEvent_32_63(uint32_t ExtiLine)
 944:hardware/mcu/st/stm32wlxx_hal_driver/Inc/stm32wlxx_ll_exti.h **** {
 945:hardware/mcu/st/stm32wlxx_hal_driver/Inc/stm32wlxx_ll_exti.h ****   return ((READ_BIT(EXTI->C2EMR2, ExtiLine) == (ExtiLine)) ? 1UL : 0UL);
 946:hardware/mcu/st/stm32wlxx_hal_driver/Inc/stm32wlxx_ll_exti.h **** }
 947:hardware/mcu/st/stm32wlxx_hal_driver/Inc/stm32wlxx_ll_exti.h **** #endif
 948:hardware/mcu/st/stm32wlxx_hal_driver/Inc/stm32wlxx_ll_exti.h **** 
 949:hardware/mcu/st/stm32wlxx_hal_driver/Inc/stm32wlxx_ll_exti.h **** /**
 950:hardware/mcu/st/stm32wlxx_hal_driver/Inc/stm32wlxx_ll_exti.h ****   * @}
 951:hardware/mcu/st/stm32wlxx_hal_driver/Inc/stm32wlxx_ll_exti.h ****   */
 952:hardware/mcu/st/stm32wlxx_hal_driver/Inc/stm32wlxx_ll_exti.h **** 
ARM GAS  /tmp/cckd0Xcu.s 			page 27


 953:hardware/mcu/st/stm32wlxx_hal_driver/Inc/stm32wlxx_ll_exti.h **** /** @defgroup EXTI_LL_EF_Rising_Trigger_Management Rising_Trigger_Management
 954:hardware/mcu/st/stm32wlxx_hal_driver/Inc/stm32wlxx_ll_exti.h ****   * @{
 955:hardware/mcu/st/stm32wlxx_hal_driver/Inc/stm32wlxx_ll_exti.h ****   */
 956:hardware/mcu/st/stm32wlxx_hal_driver/Inc/stm32wlxx_ll_exti.h **** 
 957:hardware/mcu/st/stm32wlxx_hal_driver/Inc/stm32wlxx_ll_exti.h **** /**
 958:hardware/mcu/st/stm32wlxx_hal_driver/Inc/stm32wlxx_ll_exti.h ****   * @brief  Enable ExtiLine Rising Edge Trigger for Lines in range 0 to 31
 959:hardware/mcu/st/stm32wlxx_hal_driver/Inc/stm32wlxx_ll_exti.h ****   * @note   The configurable wakeup lines are edge-triggered. No glitch must be
 960:hardware/mcu/st/stm32wlxx_hal_driver/Inc/stm32wlxx_ll_exti.h ****   *         generated on these lines. If a rising edge on a configurable interrupt
 961:hardware/mcu/st/stm32wlxx_hal_driver/Inc/stm32wlxx_ll_exti.h ****   *         line occurs during a write operation in the EXTI_RTSR register, the
 962:hardware/mcu/st/stm32wlxx_hal_driver/Inc/stm32wlxx_ll_exti.h ****   *         pending bit is not set.
 963:hardware/mcu/st/stm32wlxx_hal_driver/Inc/stm32wlxx_ll_exti.h ****   *         Rising and falling edge triggers can be set for
 964:hardware/mcu/st/stm32wlxx_hal_driver/Inc/stm32wlxx_ll_exti.h ****   *         the same interrupt line. In this case, both generate a trigger
 965:hardware/mcu/st/stm32wlxx_hal_driver/Inc/stm32wlxx_ll_exti.h ****   *         condition.
 966:hardware/mcu/st/stm32wlxx_hal_driver/Inc/stm32wlxx_ll_exti.h ****   * @rmtoll RTSR1        RTx           LL_EXTI_EnableRisingTrig_0_31
 967:hardware/mcu/st/stm32wlxx_hal_driver/Inc/stm32wlxx_ll_exti.h ****   * @param  ExtiLine This parameter can be a combination of the following values:
 968:hardware/mcu/st/stm32wlxx_hal_driver/Inc/stm32wlxx_ll_exti.h ****   *         @arg @ref LL_EXTI_LINE_0
 969:hardware/mcu/st/stm32wlxx_hal_driver/Inc/stm32wlxx_ll_exti.h ****   *         @arg @ref LL_EXTI_LINE_1
 970:hardware/mcu/st/stm32wlxx_hal_driver/Inc/stm32wlxx_ll_exti.h ****   *         @arg @ref LL_EXTI_LINE_2
 971:hardware/mcu/st/stm32wlxx_hal_driver/Inc/stm32wlxx_ll_exti.h ****   *         @arg @ref LL_EXTI_LINE_3
 972:hardware/mcu/st/stm32wlxx_hal_driver/Inc/stm32wlxx_ll_exti.h ****   *         @arg @ref LL_EXTI_LINE_4
 973:hardware/mcu/st/stm32wlxx_hal_driver/Inc/stm32wlxx_ll_exti.h ****   *         @arg @ref LL_EXTI_LINE_5
 974:hardware/mcu/st/stm32wlxx_hal_driver/Inc/stm32wlxx_ll_exti.h ****   *         @arg @ref LL_EXTI_LINE_6
 975:hardware/mcu/st/stm32wlxx_hal_driver/Inc/stm32wlxx_ll_exti.h ****   *         @arg @ref LL_EXTI_LINE_7
 976:hardware/mcu/st/stm32wlxx_hal_driver/Inc/stm32wlxx_ll_exti.h ****   *         @arg @ref LL_EXTI_LINE_8
 977:hardware/mcu/st/stm32wlxx_hal_driver/Inc/stm32wlxx_ll_exti.h ****   *         @arg @ref LL_EXTI_LINE_9
 978:hardware/mcu/st/stm32wlxx_hal_driver/Inc/stm32wlxx_ll_exti.h ****   *         @arg @ref LL_EXTI_LINE_10
 979:hardware/mcu/st/stm32wlxx_hal_driver/Inc/stm32wlxx_ll_exti.h ****   *         @arg @ref LL_EXTI_LINE_11
 980:hardware/mcu/st/stm32wlxx_hal_driver/Inc/stm32wlxx_ll_exti.h ****   *         @arg @ref LL_EXTI_LINE_12
 981:hardware/mcu/st/stm32wlxx_hal_driver/Inc/stm32wlxx_ll_exti.h ****   *         @arg @ref LL_EXTI_LINE_13
 982:hardware/mcu/st/stm32wlxx_hal_driver/Inc/stm32wlxx_ll_exti.h ****   *         @arg @ref LL_EXTI_LINE_14
 983:hardware/mcu/st/stm32wlxx_hal_driver/Inc/stm32wlxx_ll_exti.h ****   *         @arg @ref LL_EXTI_LINE_15
 984:hardware/mcu/st/stm32wlxx_hal_driver/Inc/stm32wlxx_ll_exti.h ****   *         @arg @ref LL_EXTI_LINE_16
 985:hardware/mcu/st/stm32wlxx_hal_driver/Inc/stm32wlxx_ll_exti.h ****   *         @arg @ref LL_EXTI_LINE_17
 986:hardware/mcu/st/stm32wlxx_hal_driver/Inc/stm32wlxx_ll_exti.h ****   *         @arg @ref LL_EXTI_LINE_21
 987:hardware/mcu/st/stm32wlxx_hal_driver/Inc/stm32wlxx_ll_exti.h ****   *         @arg @ref LL_EXTI_LINE_22
 988:hardware/mcu/st/stm32wlxx_hal_driver/Inc/stm32wlxx_ll_exti.h ****   * @retval None
 989:hardware/mcu/st/stm32wlxx_hal_driver/Inc/stm32wlxx_ll_exti.h ****   */
 990:hardware/mcu/st/stm32wlxx_hal_driver/Inc/stm32wlxx_ll_exti.h **** __STATIC_INLINE void LL_EXTI_EnableRisingTrig_0_31(uint32_t ExtiLine)
 991:hardware/mcu/st/stm32wlxx_hal_driver/Inc/stm32wlxx_ll_exti.h **** {
 992:hardware/mcu/st/stm32wlxx_hal_driver/Inc/stm32wlxx_ll_exti.h ****   SET_BIT(EXTI->RTSR1, ExtiLine);
 993:hardware/mcu/st/stm32wlxx_hal_driver/Inc/stm32wlxx_ll_exti.h **** 
 994:hardware/mcu/st/stm32wlxx_hal_driver/Inc/stm32wlxx_ll_exti.h **** }
 995:hardware/mcu/st/stm32wlxx_hal_driver/Inc/stm32wlxx_ll_exti.h **** 
 996:hardware/mcu/st/stm32wlxx_hal_driver/Inc/stm32wlxx_ll_exti.h **** /**
 997:hardware/mcu/st/stm32wlxx_hal_driver/Inc/stm32wlxx_ll_exti.h ****   * @brief  Enable ExtiLine Rising Edge Trigger for Lines in range 32 to 63
 998:hardware/mcu/st/stm32wlxx_hal_driver/Inc/stm32wlxx_ll_exti.h ****   * @note The configurable wakeup lines are edge-triggered. No glitch must be
 999:hardware/mcu/st/stm32wlxx_hal_driver/Inc/stm32wlxx_ll_exti.h ****   *       generated on these lines. If a rising edge on a configurable interrupt
1000:hardware/mcu/st/stm32wlxx_hal_driver/Inc/stm32wlxx_ll_exti.h ****   *       line occurs during a write operation in the EXTI_RTSR register, the
1001:hardware/mcu/st/stm32wlxx_hal_driver/Inc/stm32wlxx_ll_exti.h ****   *       pending bit is not set.Rising and falling edge triggers can be set for
1002:hardware/mcu/st/stm32wlxx_hal_driver/Inc/stm32wlxx_ll_exti.h ****   *       the same interrupt line. In this case, both generate a trigger
1003:hardware/mcu/st/stm32wlxx_hal_driver/Inc/stm32wlxx_ll_exti.h ****   *       condition.
1004:hardware/mcu/st/stm32wlxx_hal_driver/Inc/stm32wlxx_ll_exti.h ****   * @rmtoll RTSR2        RTx           LL_EXTI_EnableRisingTrig_32_63
1005:hardware/mcu/st/stm32wlxx_hal_driver/Inc/stm32wlxx_ll_exti.h ****   * @param  ExtiLine This parameter can be a combination of the following values:
1006:hardware/mcu/st/stm32wlxx_hal_driver/Inc/stm32wlxx_ll_exti.h ****   *         @arg @ref LL_EXTI_LINE_34
1007:hardware/mcu/st/stm32wlxx_hal_driver/Inc/stm32wlxx_ll_exti.h ****   *         @arg @ref LL_EXTI_LINE_40
1008:hardware/mcu/st/stm32wlxx_hal_driver/Inc/stm32wlxx_ll_exti.h ****   *         @arg @ref LL_EXTI_LINE_41
1009:hardware/mcu/st/stm32wlxx_hal_driver/Inc/stm32wlxx_ll_exti.h ****   *         @arg @ref LL_EXTI_LINE_45
ARM GAS  /tmp/cckd0Xcu.s 			page 28


1010:hardware/mcu/st/stm32wlxx_hal_driver/Inc/stm32wlxx_ll_exti.h ****   * @retval None
1011:hardware/mcu/st/stm32wlxx_hal_driver/Inc/stm32wlxx_ll_exti.h ****   */
1012:hardware/mcu/st/stm32wlxx_hal_driver/Inc/stm32wlxx_ll_exti.h **** __STATIC_INLINE void LL_EXTI_EnableRisingTrig_32_63(uint32_t ExtiLine)
1013:hardware/mcu/st/stm32wlxx_hal_driver/Inc/stm32wlxx_ll_exti.h **** {
1014:hardware/mcu/st/stm32wlxx_hal_driver/Inc/stm32wlxx_ll_exti.h ****   SET_BIT(EXTI->RTSR2, ExtiLine);
1015:hardware/mcu/st/stm32wlxx_hal_driver/Inc/stm32wlxx_ll_exti.h **** }
1016:hardware/mcu/st/stm32wlxx_hal_driver/Inc/stm32wlxx_ll_exti.h **** 
1017:hardware/mcu/st/stm32wlxx_hal_driver/Inc/stm32wlxx_ll_exti.h **** /**
1018:hardware/mcu/st/stm32wlxx_hal_driver/Inc/stm32wlxx_ll_exti.h ****   * @brief  Disable ExtiLine Rising Edge Trigger for Lines in range 0 to 31
1019:hardware/mcu/st/stm32wlxx_hal_driver/Inc/stm32wlxx_ll_exti.h ****   * @note The configurable wakeup lines are edge-triggered. No glitch must be
1020:hardware/mcu/st/stm32wlxx_hal_driver/Inc/stm32wlxx_ll_exti.h ****   *       generated on these lines. If a rising edge on a configurable interrupt
1021:hardware/mcu/st/stm32wlxx_hal_driver/Inc/stm32wlxx_ll_exti.h ****   *       line occurs during a write operation in the EXTI_RTSR register, the
1022:hardware/mcu/st/stm32wlxx_hal_driver/Inc/stm32wlxx_ll_exti.h ****   *       pending bit is not set.
1023:hardware/mcu/st/stm32wlxx_hal_driver/Inc/stm32wlxx_ll_exti.h ****   *       Rising and falling edge triggers can be set for
1024:hardware/mcu/st/stm32wlxx_hal_driver/Inc/stm32wlxx_ll_exti.h ****   *       the same interrupt line. In this case, both generate a trigger
1025:hardware/mcu/st/stm32wlxx_hal_driver/Inc/stm32wlxx_ll_exti.h ****   *       condition.
1026:hardware/mcu/st/stm32wlxx_hal_driver/Inc/stm32wlxx_ll_exti.h ****   * @rmtoll RTSR1        RTx           LL_EXTI_DisableRisingTrig_0_31
1027:hardware/mcu/st/stm32wlxx_hal_driver/Inc/stm32wlxx_ll_exti.h ****   * @param  ExtiLine This parameter can be a combination of the following values:
1028:hardware/mcu/st/stm32wlxx_hal_driver/Inc/stm32wlxx_ll_exti.h ****   *         @arg @ref LL_EXTI_LINE_0
1029:hardware/mcu/st/stm32wlxx_hal_driver/Inc/stm32wlxx_ll_exti.h ****   *         @arg @ref LL_EXTI_LINE_1
1030:hardware/mcu/st/stm32wlxx_hal_driver/Inc/stm32wlxx_ll_exti.h ****   *         @arg @ref LL_EXTI_LINE_2
1031:hardware/mcu/st/stm32wlxx_hal_driver/Inc/stm32wlxx_ll_exti.h ****   *         @arg @ref LL_EXTI_LINE_3
1032:hardware/mcu/st/stm32wlxx_hal_driver/Inc/stm32wlxx_ll_exti.h ****   *         @arg @ref LL_EXTI_LINE_4
1033:hardware/mcu/st/stm32wlxx_hal_driver/Inc/stm32wlxx_ll_exti.h ****   *         @arg @ref LL_EXTI_LINE_5
1034:hardware/mcu/st/stm32wlxx_hal_driver/Inc/stm32wlxx_ll_exti.h ****   *         @arg @ref LL_EXTI_LINE_6
1035:hardware/mcu/st/stm32wlxx_hal_driver/Inc/stm32wlxx_ll_exti.h ****   *         @arg @ref LL_EXTI_LINE_7
1036:hardware/mcu/st/stm32wlxx_hal_driver/Inc/stm32wlxx_ll_exti.h ****   *         @arg @ref LL_EXTI_LINE_8
1037:hardware/mcu/st/stm32wlxx_hal_driver/Inc/stm32wlxx_ll_exti.h ****   *         @arg @ref LL_EXTI_LINE_9
1038:hardware/mcu/st/stm32wlxx_hal_driver/Inc/stm32wlxx_ll_exti.h ****   *         @arg @ref LL_EXTI_LINE_10
1039:hardware/mcu/st/stm32wlxx_hal_driver/Inc/stm32wlxx_ll_exti.h ****   *         @arg @ref LL_EXTI_LINE_11
1040:hardware/mcu/st/stm32wlxx_hal_driver/Inc/stm32wlxx_ll_exti.h ****   *         @arg @ref LL_EXTI_LINE_12
1041:hardware/mcu/st/stm32wlxx_hal_driver/Inc/stm32wlxx_ll_exti.h ****   *         @arg @ref LL_EXTI_LINE_13
1042:hardware/mcu/st/stm32wlxx_hal_driver/Inc/stm32wlxx_ll_exti.h ****   *         @arg @ref LL_EXTI_LINE_14
1043:hardware/mcu/st/stm32wlxx_hal_driver/Inc/stm32wlxx_ll_exti.h ****   *         @arg @ref LL_EXTI_LINE_15
1044:hardware/mcu/st/stm32wlxx_hal_driver/Inc/stm32wlxx_ll_exti.h ****   *         @arg @ref LL_EXTI_LINE_16
1045:hardware/mcu/st/stm32wlxx_hal_driver/Inc/stm32wlxx_ll_exti.h ****   *         @arg @ref LL_EXTI_LINE_17
1046:hardware/mcu/st/stm32wlxx_hal_driver/Inc/stm32wlxx_ll_exti.h ****   *         @arg @ref LL_EXTI_LINE_21
1047:hardware/mcu/st/stm32wlxx_hal_driver/Inc/stm32wlxx_ll_exti.h ****   *         @arg @ref LL_EXTI_LINE_22
1048:hardware/mcu/st/stm32wlxx_hal_driver/Inc/stm32wlxx_ll_exti.h ****   * @retval None
1049:hardware/mcu/st/stm32wlxx_hal_driver/Inc/stm32wlxx_ll_exti.h ****   */
1050:hardware/mcu/st/stm32wlxx_hal_driver/Inc/stm32wlxx_ll_exti.h **** __STATIC_INLINE void LL_EXTI_DisableRisingTrig_0_31(uint32_t ExtiLine)
1051:hardware/mcu/st/stm32wlxx_hal_driver/Inc/stm32wlxx_ll_exti.h **** {
1052:hardware/mcu/st/stm32wlxx_hal_driver/Inc/stm32wlxx_ll_exti.h ****   CLEAR_BIT(EXTI->RTSR1, ExtiLine);
1053:hardware/mcu/st/stm32wlxx_hal_driver/Inc/stm32wlxx_ll_exti.h **** 
1054:hardware/mcu/st/stm32wlxx_hal_driver/Inc/stm32wlxx_ll_exti.h **** }
1055:hardware/mcu/st/stm32wlxx_hal_driver/Inc/stm32wlxx_ll_exti.h **** 
1056:hardware/mcu/st/stm32wlxx_hal_driver/Inc/stm32wlxx_ll_exti.h **** /**
1057:hardware/mcu/st/stm32wlxx_hal_driver/Inc/stm32wlxx_ll_exti.h ****   * @brief  Disable ExtiLine Rising Edge Trigger for Lines in range 32 to 63
1058:hardware/mcu/st/stm32wlxx_hal_driver/Inc/stm32wlxx_ll_exti.h ****   * @note The configurable wakeup lines are edge-triggered. No glitch must be
1059:hardware/mcu/st/stm32wlxx_hal_driver/Inc/stm32wlxx_ll_exti.h ****   *       generated on these lines. If a rising edge on a configurable interrupt
1060:hardware/mcu/st/stm32wlxx_hal_driver/Inc/stm32wlxx_ll_exti.h ****   *       line occurs during a write operation in the EXTI_RTSR register, the
1061:hardware/mcu/st/stm32wlxx_hal_driver/Inc/stm32wlxx_ll_exti.h ****   *       pending bit is not set.
1062:hardware/mcu/st/stm32wlxx_hal_driver/Inc/stm32wlxx_ll_exti.h ****   *       Rising and falling edge triggers can be set for
1063:hardware/mcu/st/stm32wlxx_hal_driver/Inc/stm32wlxx_ll_exti.h ****   *       the same interrupt line. In this case, both generate a trigger
1064:hardware/mcu/st/stm32wlxx_hal_driver/Inc/stm32wlxx_ll_exti.h ****   *       condition.
1065:hardware/mcu/st/stm32wlxx_hal_driver/Inc/stm32wlxx_ll_exti.h ****   * @rmtoll RTSR2        RTx           LL_EXTI_DisableRisingTrig_32_63
1066:hardware/mcu/st/stm32wlxx_hal_driver/Inc/stm32wlxx_ll_exti.h ****   * @param  ExtiLine This parameter can be a combination of the following values:
ARM GAS  /tmp/cckd0Xcu.s 			page 29


1067:hardware/mcu/st/stm32wlxx_hal_driver/Inc/stm32wlxx_ll_exti.h ****   *         @arg @ref LL_EXTI_LINE_34
1068:hardware/mcu/st/stm32wlxx_hal_driver/Inc/stm32wlxx_ll_exti.h ****   *         @arg @ref LL_EXTI_LINE_40
1069:hardware/mcu/st/stm32wlxx_hal_driver/Inc/stm32wlxx_ll_exti.h ****   *         @arg @ref LL_EXTI_LINE_41
1070:hardware/mcu/st/stm32wlxx_hal_driver/Inc/stm32wlxx_ll_exti.h ****   *         @arg @ref LL_EXTI_LINE_45
1071:hardware/mcu/st/stm32wlxx_hal_driver/Inc/stm32wlxx_ll_exti.h ****   * @retval None
1072:hardware/mcu/st/stm32wlxx_hal_driver/Inc/stm32wlxx_ll_exti.h ****   */
1073:hardware/mcu/st/stm32wlxx_hal_driver/Inc/stm32wlxx_ll_exti.h **** __STATIC_INLINE void LL_EXTI_DisableRisingTrig_32_63(uint32_t ExtiLine)
1074:hardware/mcu/st/stm32wlxx_hal_driver/Inc/stm32wlxx_ll_exti.h **** {
1075:hardware/mcu/st/stm32wlxx_hal_driver/Inc/stm32wlxx_ll_exti.h ****   CLEAR_BIT(EXTI->RTSR2, ExtiLine);
1076:hardware/mcu/st/stm32wlxx_hal_driver/Inc/stm32wlxx_ll_exti.h **** }
1077:hardware/mcu/st/stm32wlxx_hal_driver/Inc/stm32wlxx_ll_exti.h **** 
1078:hardware/mcu/st/stm32wlxx_hal_driver/Inc/stm32wlxx_ll_exti.h **** /**
1079:hardware/mcu/st/stm32wlxx_hal_driver/Inc/stm32wlxx_ll_exti.h ****   * @brief  Check if rising edge trigger is enabled for Lines in range 0 to 31
1080:hardware/mcu/st/stm32wlxx_hal_driver/Inc/stm32wlxx_ll_exti.h ****   * @rmtoll RTSR1        RTx           LL_EXTI_IsEnabledRisingTrig_0_31
1081:hardware/mcu/st/stm32wlxx_hal_driver/Inc/stm32wlxx_ll_exti.h ****   * @param  ExtiLine This parameter can be a combination of the following values:
1082:hardware/mcu/st/stm32wlxx_hal_driver/Inc/stm32wlxx_ll_exti.h ****   *         @arg @ref LL_EXTI_LINE_0
1083:hardware/mcu/st/stm32wlxx_hal_driver/Inc/stm32wlxx_ll_exti.h ****   *         @arg @ref LL_EXTI_LINE_1
1084:hardware/mcu/st/stm32wlxx_hal_driver/Inc/stm32wlxx_ll_exti.h ****   *         @arg @ref LL_EXTI_LINE_2
1085:hardware/mcu/st/stm32wlxx_hal_driver/Inc/stm32wlxx_ll_exti.h ****   *         @arg @ref LL_EXTI_LINE_3
1086:hardware/mcu/st/stm32wlxx_hal_driver/Inc/stm32wlxx_ll_exti.h ****   *         @arg @ref LL_EXTI_LINE_4
1087:hardware/mcu/st/stm32wlxx_hal_driver/Inc/stm32wlxx_ll_exti.h ****   *         @arg @ref LL_EXTI_LINE_5
1088:hardware/mcu/st/stm32wlxx_hal_driver/Inc/stm32wlxx_ll_exti.h ****   *         @arg @ref LL_EXTI_LINE_6
1089:hardware/mcu/st/stm32wlxx_hal_driver/Inc/stm32wlxx_ll_exti.h ****   *         @arg @ref LL_EXTI_LINE_7
1090:hardware/mcu/st/stm32wlxx_hal_driver/Inc/stm32wlxx_ll_exti.h ****   *         @arg @ref LL_EXTI_LINE_8
1091:hardware/mcu/st/stm32wlxx_hal_driver/Inc/stm32wlxx_ll_exti.h ****   *         @arg @ref LL_EXTI_LINE_9
1092:hardware/mcu/st/stm32wlxx_hal_driver/Inc/stm32wlxx_ll_exti.h ****   *         @arg @ref LL_EXTI_LINE_10
1093:hardware/mcu/st/stm32wlxx_hal_driver/Inc/stm32wlxx_ll_exti.h ****   *         @arg @ref LL_EXTI_LINE_11
1094:hardware/mcu/st/stm32wlxx_hal_driver/Inc/stm32wlxx_ll_exti.h ****   *         @arg @ref LL_EXTI_LINE_12
1095:hardware/mcu/st/stm32wlxx_hal_driver/Inc/stm32wlxx_ll_exti.h ****   *         @arg @ref LL_EXTI_LINE_13
1096:hardware/mcu/st/stm32wlxx_hal_driver/Inc/stm32wlxx_ll_exti.h ****   *         @arg @ref LL_EXTI_LINE_14
1097:hardware/mcu/st/stm32wlxx_hal_driver/Inc/stm32wlxx_ll_exti.h ****   *         @arg @ref LL_EXTI_LINE_15
1098:hardware/mcu/st/stm32wlxx_hal_driver/Inc/stm32wlxx_ll_exti.h ****   *         @arg @ref LL_EXTI_LINE_16
1099:hardware/mcu/st/stm32wlxx_hal_driver/Inc/stm32wlxx_ll_exti.h ****   *         @arg @ref LL_EXTI_LINE_17
1100:hardware/mcu/st/stm32wlxx_hal_driver/Inc/stm32wlxx_ll_exti.h ****   *         @arg @ref LL_EXTI_LINE_21
1101:hardware/mcu/st/stm32wlxx_hal_driver/Inc/stm32wlxx_ll_exti.h ****   *         @arg @ref LL_EXTI_LINE_22
1102:hardware/mcu/st/stm32wlxx_hal_driver/Inc/stm32wlxx_ll_exti.h ****   * @retval State of bit (1 or 0).
1103:hardware/mcu/st/stm32wlxx_hal_driver/Inc/stm32wlxx_ll_exti.h ****   */
1104:hardware/mcu/st/stm32wlxx_hal_driver/Inc/stm32wlxx_ll_exti.h **** __STATIC_INLINE uint32_t LL_EXTI_IsEnabledRisingTrig_0_31(uint32_t ExtiLine)
1105:hardware/mcu/st/stm32wlxx_hal_driver/Inc/stm32wlxx_ll_exti.h **** {
1106:hardware/mcu/st/stm32wlxx_hal_driver/Inc/stm32wlxx_ll_exti.h ****   return ((READ_BIT(EXTI->RTSR1, ExtiLine) == (ExtiLine)) ? 1UL : 0UL);
1107:hardware/mcu/st/stm32wlxx_hal_driver/Inc/stm32wlxx_ll_exti.h **** }
1108:hardware/mcu/st/stm32wlxx_hal_driver/Inc/stm32wlxx_ll_exti.h **** 
1109:hardware/mcu/st/stm32wlxx_hal_driver/Inc/stm32wlxx_ll_exti.h **** /**
1110:hardware/mcu/st/stm32wlxx_hal_driver/Inc/stm32wlxx_ll_exti.h ****   * @brief  Check if rising edge trigger is enabled for Lines in range 32 to 63
1111:hardware/mcu/st/stm32wlxx_hal_driver/Inc/stm32wlxx_ll_exti.h ****   * @rmtoll RTSR2        RTx           LL_EXTI_IsEnabledRisingTrig_32_63
1112:hardware/mcu/st/stm32wlxx_hal_driver/Inc/stm32wlxx_ll_exti.h ****   * @param  ExtiLine This parameter can be a combination of the following values:
1113:hardware/mcu/st/stm32wlxx_hal_driver/Inc/stm32wlxx_ll_exti.h ****   *         @arg @ref LL_EXTI_LINE_34
1114:hardware/mcu/st/stm32wlxx_hal_driver/Inc/stm32wlxx_ll_exti.h ****   *         @arg @ref LL_EXTI_LINE_40
1115:hardware/mcu/st/stm32wlxx_hal_driver/Inc/stm32wlxx_ll_exti.h ****   *         @arg @ref LL_EXTI_LINE_41
1116:hardware/mcu/st/stm32wlxx_hal_driver/Inc/stm32wlxx_ll_exti.h ****   *         @arg @ref LL_EXTI_LINE_45
1117:hardware/mcu/st/stm32wlxx_hal_driver/Inc/stm32wlxx_ll_exti.h ****   * @retval State of bit (1 or 0).
1118:hardware/mcu/st/stm32wlxx_hal_driver/Inc/stm32wlxx_ll_exti.h ****   */
1119:hardware/mcu/st/stm32wlxx_hal_driver/Inc/stm32wlxx_ll_exti.h **** __STATIC_INLINE uint32_t LL_EXTI_IsEnabledRisingTrig_32_63(uint32_t ExtiLine)
1120:hardware/mcu/st/stm32wlxx_hal_driver/Inc/stm32wlxx_ll_exti.h **** {
1121:hardware/mcu/st/stm32wlxx_hal_driver/Inc/stm32wlxx_ll_exti.h ****   return ((READ_BIT(EXTI->RTSR2, ExtiLine) == (ExtiLine)) ? 1UL : 0UL);
1122:hardware/mcu/st/stm32wlxx_hal_driver/Inc/stm32wlxx_ll_exti.h **** }
1123:hardware/mcu/st/stm32wlxx_hal_driver/Inc/stm32wlxx_ll_exti.h **** 
ARM GAS  /tmp/cckd0Xcu.s 			page 30


1124:hardware/mcu/st/stm32wlxx_hal_driver/Inc/stm32wlxx_ll_exti.h **** /**
1125:hardware/mcu/st/stm32wlxx_hal_driver/Inc/stm32wlxx_ll_exti.h ****   * @}
1126:hardware/mcu/st/stm32wlxx_hal_driver/Inc/stm32wlxx_ll_exti.h ****   */
1127:hardware/mcu/st/stm32wlxx_hal_driver/Inc/stm32wlxx_ll_exti.h **** 
1128:hardware/mcu/st/stm32wlxx_hal_driver/Inc/stm32wlxx_ll_exti.h **** /** @defgroup EXTI_LL_EF_Falling_Trigger_Management Falling_Trigger_Management
1129:hardware/mcu/st/stm32wlxx_hal_driver/Inc/stm32wlxx_ll_exti.h ****   * @{
1130:hardware/mcu/st/stm32wlxx_hal_driver/Inc/stm32wlxx_ll_exti.h ****   */
1131:hardware/mcu/st/stm32wlxx_hal_driver/Inc/stm32wlxx_ll_exti.h **** 
1132:hardware/mcu/st/stm32wlxx_hal_driver/Inc/stm32wlxx_ll_exti.h **** /**
1133:hardware/mcu/st/stm32wlxx_hal_driver/Inc/stm32wlxx_ll_exti.h ****   * @brief  Enable ExtiLine Falling Edge Trigger for Lines in range 0 to 31
1134:hardware/mcu/st/stm32wlxx_hal_driver/Inc/stm32wlxx_ll_exti.h ****   * @note The configurable wakeup lines are edge-triggered. No glitch must be
1135:hardware/mcu/st/stm32wlxx_hal_driver/Inc/stm32wlxx_ll_exti.h ****   *       generated on these lines. If a falling edge on a configurable interrupt
1136:hardware/mcu/st/stm32wlxx_hal_driver/Inc/stm32wlxx_ll_exti.h ****   *       line occurs during a write operation in the EXTI_FTSR register, the
1137:hardware/mcu/st/stm32wlxx_hal_driver/Inc/stm32wlxx_ll_exti.h ****   *       pending bit is not set.
1138:hardware/mcu/st/stm32wlxx_hal_driver/Inc/stm32wlxx_ll_exti.h ****   *       Rising and falling edge triggers can be set for
1139:hardware/mcu/st/stm32wlxx_hal_driver/Inc/stm32wlxx_ll_exti.h ****   *       the same interrupt line. In this case, both generate a trigger
1140:hardware/mcu/st/stm32wlxx_hal_driver/Inc/stm32wlxx_ll_exti.h ****   *       condition.
1141:hardware/mcu/st/stm32wlxx_hal_driver/Inc/stm32wlxx_ll_exti.h ****   * @rmtoll FTSR1        FTx           LL_EXTI_EnableFallingTrig_0_31
1142:hardware/mcu/st/stm32wlxx_hal_driver/Inc/stm32wlxx_ll_exti.h ****   * @param  ExtiLine This parameter can be a combination of the following values:
1143:hardware/mcu/st/stm32wlxx_hal_driver/Inc/stm32wlxx_ll_exti.h ****   *         @arg @ref LL_EXTI_LINE_0
1144:hardware/mcu/st/stm32wlxx_hal_driver/Inc/stm32wlxx_ll_exti.h ****   *         @arg @ref LL_EXTI_LINE_1
1145:hardware/mcu/st/stm32wlxx_hal_driver/Inc/stm32wlxx_ll_exti.h ****   *         @arg @ref LL_EXTI_LINE_2
1146:hardware/mcu/st/stm32wlxx_hal_driver/Inc/stm32wlxx_ll_exti.h ****   *         @arg @ref LL_EXTI_LINE_3
1147:hardware/mcu/st/stm32wlxx_hal_driver/Inc/stm32wlxx_ll_exti.h ****   *         @arg @ref LL_EXTI_LINE_4
1148:hardware/mcu/st/stm32wlxx_hal_driver/Inc/stm32wlxx_ll_exti.h ****   *         @arg @ref LL_EXTI_LINE_5
1149:hardware/mcu/st/stm32wlxx_hal_driver/Inc/stm32wlxx_ll_exti.h ****   *         @arg @ref LL_EXTI_LINE_6
1150:hardware/mcu/st/stm32wlxx_hal_driver/Inc/stm32wlxx_ll_exti.h ****   *         @arg @ref LL_EXTI_LINE_7
1151:hardware/mcu/st/stm32wlxx_hal_driver/Inc/stm32wlxx_ll_exti.h ****   *         @arg @ref LL_EXTI_LINE_8
1152:hardware/mcu/st/stm32wlxx_hal_driver/Inc/stm32wlxx_ll_exti.h ****   *         @arg @ref LL_EXTI_LINE_9
1153:hardware/mcu/st/stm32wlxx_hal_driver/Inc/stm32wlxx_ll_exti.h ****   *         @arg @ref LL_EXTI_LINE_10
1154:hardware/mcu/st/stm32wlxx_hal_driver/Inc/stm32wlxx_ll_exti.h ****   *         @arg @ref LL_EXTI_LINE_11
1155:hardware/mcu/st/stm32wlxx_hal_driver/Inc/stm32wlxx_ll_exti.h ****   *         @arg @ref LL_EXTI_LINE_12
1156:hardware/mcu/st/stm32wlxx_hal_driver/Inc/stm32wlxx_ll_exti.h ****   *         @arg @ref LL_EXTI_LINE_13
1157:hardware/mcu/st/stm32wlxx_hal_driver/Inc/stm32wlxx_ll_exti.h ****   *         @arg @ref LL_EXTI_LINE_14
1158:hardware/mcu/st/stm32wlxx_hal_driver/Inc/stm32wlxx_ll_exti.h ****   *         @arg @ref LL_EXTI_LINE_15
1159:hardware/mcu/st/stm32wlxx_hal_driver/Inc/stm32wlxx_ll_exti.h ****   *         @arg @ref LL_EXTI_LINE_16
1160:hardware/mcu/st/stm32wlxx_hal_driver/Inc/stm32wlxx_ll_exti.h ****   *         @arg @ref LL_EXTI_LINE_17
1161:hardware/mcu/st/stm32wlxx_hal_driver/Inc/stm32wlxx_ll_exti.h ****   *         @arg @ref LL_EXTI_LINE_21
1162:hardware/mcu/st/stm32wlxx_hal_driver/Inc/stm32wlxx_ll_exti.h ****   *         @arg @ref LL_EXTI_LINE_22
1163:hardware/mcu/st/stm32wlxx_hal_driver/Inc/stm32wlxx_ll_exti.h ****   * @retval None
1164:hardware/mcu/st/stm32wlxx_hal_driver/Inc/stm32wlxx_ll_exti.h ****   */
1165:hardware/mcu/st/stm32wlxx_hal_driver/Inc/stm32wlxx_ll_exti.h **** __STATIC_INLINE void LL_EXTI_EnableFallingTrig_0_31(uint32_t ExtiLine)
1166:hardware/mcu/st/stm32wlxx_hal_driver/Inc/stm32wlxx_ll_exti.h **** {
1167:hardware/mcu/st/stm32wlxx_hal_driver/Inc/stm32wlxx_ll_exti.h ****   SET_BIT(EXTI->FTSR1, ExtiLine);
1168:hardware/mcu/st/stm32wlxx_hal_driver/Inc/stm32wlxx_ll_exti.h **** }
1169:hardware/mcu/st/stm32wlxx_hal_driver/Inc/stm32wlxx_ll_exti.h **** 
1170:hardware/mcu/st/stm32wlxx_hal_driver/Inc/stm32wlxx_ll_exti.h **** /**
1171:hardware/mcu/st/stm32wlxx_hal_driver/Inc/stm32wlxx_ll_exti.h ****   * @brief  Enable ExtiLine Falling Edge Trigger for Lines in range 32 to 63
1172:hardware/mcu/st/stm32wlxx_hal_driver/Inc/stm32wlxx_ll_exti.h ****   * @note The configurable wakeup lines are edge-triggered. No glitch must be
1173:hardware/mcu/st/stm32wlxx_hal_driver/Inc/stm32wlxx_ll_exti.h ****   *       generated on these lines. If a Falling edge on a configurable interrupt
1174:hardware/mcu/st/stm32wlxx_hal_driver/Inc/stm32wlxx_ll_exti.h ****   *       line occurs during a write operation in the EXTI_FTSR register, the
1175:hardware/mcu/st/stm32wlxx_hal_driver/Inc/stm32wlxx_ll_exti.h ****   *       pending bit is not set.
1176:hardware/mcu/st/stm32wlxx_hal_driver/Inc/stm32wlxx_ll_exti.h ****   *       Rising and falling edge triggers can be set for
1177:hardware/mcu/st/stm32wlxx_hal_driver/Inc/stm32wlxx_ll_exti.h ****   *       the same interrupt line. In this case, both generate a trigger
1178:hardware/mcu/st/stm32wlxx_hal_driver/Inc/stm32wlxx_ll_exti.h ****   *       condition.
1179:hardware/mcu/st/stm32wlxx_hal_driver/Inc/stm32wlxx_ll_exti.h ****   * @rmtoll FTSR2        FTx           LL_EXTI_EnableFallingTrig_32_63
1180:hardware/mcu/st/stm32wlxx_hal_driver/Inc/stm32wlxx_ll_exti.h ****   * @param  ExtiLine This parameter can be a combination of the following values:
ARM GAS  /tmp/cckd0Xcu.s 			page 31


1181:hardware/mcu/st/stm32wlxx_hal_driver/Inc/stm32wlxx_ll_exti.h ****   *         @arg @ref LL_EXTI_LINE_34
1182:hardware/mcu/st/stm32wlxx_hal_driver/Inc/stm32wlxx_ll_exti.h ****   *         @arg @ref LL_EXTI_LINE_40
1183:hardware/mcu/st/stm32wlxx_hal_driver/Inc/stm32wlxx_ll_exti.h ****   *         @arg @ref LL_EXTI_LINE_41
1184:hardware/mcu/st/stm32wlxx_hal_driver/Inc/stm32wlxx_ll_exti.h ****   *         @arg @ref LL_EXTI_LINE_45
1185:hardware/mcu/st/stm32wlxx_hal_driver/Inc/stm32wlxx_ll_exti.h ****   * @retval None
1186:hardware/mcu/st/stm32wlxx_hal_driver/Inc/stm32wlxx_ll_exti.h ****   */
1187:hardware/mcu/st/stm32wlxx_hal_driver/Inc/stm32wlxx_ll_exti.h **** __STATIC_INLINE void LL_EXTI_EnableFallingTrig_32_63(uint32_t ExtiLine)
1188:hardware/mcu/st/stm32wlxx_hal_driver/Inc/stm32wlxx_ll_exti.h **** {
1189:hardware/mcu/st/stm32wlxx_hal_driver/Inc/stm32wlxx_ll_exti.h ****   SET_BIT(EXTI->FTSR2, ExtiLine);
1190:hardware/mcu/st/stm32wlxx_hal_driver/Inc/stm32wlxx_ll_exti.h **** }
1191:hardware/mcu/st/stm32wlxx_hal_driver/Inc/stm32wlxx_ll_exti.h **** 
1192:hardware/mcu/st/stm32wlxx_hal_driver/Inc/stm32wlxx_ll_exti.h **** /**
1193:hardware/mcu/st/stm32wlxx_hal_driver/Inc/stm32wlxx_ll_exti.h ****   * @brief  Disable ExtiLine Falling Edge Trigger for Lines in range 0 to 31
1194:hardware/mcu/st/stm32wlxx_hal_driver/Inc/stm32wlxx_ll_exti.h ****   * @note The configurable wakeup lines are edge-triggered. No glitch must be
1195:hardware/mcu/st/stm32wlxx_hal_driver/Inc/stm32wlxx_ll_exti.h ****   *       generated on these lines. If a Falling edge on a configurable interrupt
1196:hardware/mcu/st/stm32wlxx_hal_driver/Inc/stm32wlxx_ll_exti.h ****   *       line occurs during a write operation in the EXTI_FTSR register, the
1197:hardware/mcu/st/stm32wlxx_hal_driver/Inc/stm32wlxx_ll_exti.h ****   *       pending bit is not set.
1198:hardware/mcu/st/stm32wlxx_hal_driver/Inc/stm32wlxx_ll_exti.h ****   *       Rising and falling edge triggers can be set for the same interrupt line.
1199:hardware/mcu/st/stm32wlxx_hal_driver/Inc/stm32wlxx_ll_exti.h ****   *       In this case, both generate a trigger condition.
1200:hardware/mcu/st/stm32wlxx_hal_driver/Inc/stm32wlxx_ll_exti.h ****   * @rmtoll FTSR1        FTx           LL_EXTI_DisableFallingTrig_0_31
1201:hardware/mcu/st/stm32wlxx_hal_driver/Inc/stm32wlxx_ll_exti.h ****   * @param  ExtiLine This parameter can be a combination of the following values:
1202:hardware/mcu/st/stm32wlxx_hal_driver/Inc/stm32wlxx_ll_exti.h ****   *         @arg @ref LL_EXTI_LINE_0
1203:hardware/mcu/st/stm32wlxx_hal_driver/Inc/stm32wlxx_ll_exti.h ****   *         @arg @ref LL_EXTI_LINE_1
1204:hardware/mcu/st/stm32wlxx_hal_driver/Inc/stm32wlxx_ll_exti.h ****   *         @arg @ref LL_EXTI_LINE_2
1205:hardware/mcu/st/stm32wlxx_hal_driver/Inc/stm32wlxx_ll_exti.h ****   *         @arg @ref LL_EXTI_LINE_3
1206:hardware/mcu/st/stm32wlxx_hal_driver/Inc/stm32wlxx_ll_exti.h ****   *         @arg @ref LL_EXTI_LINE_4
1207:hardware/mcu/st/stm32wlxx_hal_driver/Inc/stm32wlxx_ll_exti.h ****   *         @arg @ref LL_EXTI_LINE_5
1208:hardware/mcu/st/stm32wlxx_hal_driver/Inc/stm32wlxx_ll_exti.h ****   *         @arg @ref LL_EXTI_LINE_6
1209:hardware/mcu/st/stm32wlxx_hal_driver/Inc/stm32wlxx_ll_exti.h ****   *         @arg @ref LL_EXTI_LINE_7
1210:hardware/mcu/st/stm32wlxx_hal_driver/Inc/stm32wlxx_ll_exti.h ****   *         @arg @ref LL_EXTI_LINE_8
1211:hardware/mcu/st/stm32wlxx_hal_driver/Inc/stm32wlxx_ll_exti.h ****   *         @arg @ref LL_EXTI_LINE_9
1212:hardware/mcu/st/stm32wlxx_hal_driver/Inc/stm32wlxx_ll_exti.h ****   *         @arg @ref LL_EXTI_LINE_10
1213:hardware/mcu/st/stm32wlxx_hal_driver/Inc/stm32wlxx_ll_exti.h ****   *         @arg @ref LL_EXTI_LINE_11
1214:hardware/mcu/st/stm32wlxx_hal_driver/Inc/stm32wlxx_ll_exti.h ****   *         @arg @ref LL_EXTI_LINE_12
1215:hardware/mcu/st/stm32wlxx_hal_driver/Inc/stm32wlxx_ll_exti.h ****   *         @arg @ref LL_EXTI_LINE_13
1216:hardware/mcu/st/stm32wlxx_hal_driver/Inc/stm32wlxx_ll_exti.h ****   *         @arg @ref LL_EXTI_LINE_14
1217:hardware/mcu/st/stm32wlxx_hal_driver/Inc/stm32wlxx_ll_exti.h ****   *         @arg @ref LL_EXTI_LINE_15
1218:hardware/mcu/st/stm32wlxx_hal_driver/Inc/stm32wlxx_ll_exti.h ****   *         @arg @ref LL_EXTI_LINE_16
1219:hardware/mcu/st/stm32wlxx_hal_driver/Inc/stm32wlxx_ll_exti.h ****   *         @arg @ref LL_EXTI_LINE_17
1220:hardware/mcu/st/stm32wlxx_hal_driver/Inc/stm32wlxx_ll_exti.h ****   *         @arg @ref LL_EXTI_LINE_21
1221:hardware/mcu/st/stm32wlxx_hal_driver/Inc/stm32wlxx_ll_exti.h ****   *         @arg @ref LL_EXTI_LINE_22
1222:hardware/mcu/st/stm32wlxx_hal_driver/Inc/stm32wlxx_ll_exti.h ****   * @retval None
1223:hardware/mcu/st/stm32wlxx_hal_driver/Inc/stm32wlxx_ll_exti.h ****   */
1224:hardware/mcu/st/stm32wlxx_hal_driver/Inc/stm32wlxx_ll_exti.h **** __STATIC_INLINE void LL_EXTI_DisableFallingTrig_0_31(uint32_t ExtiLine)
 178              		.loc 2 1224 22 view .LVU34
 179              	.LBB17:
1225:hardware/mcu/st/stm32wlxx_hal_driver/Inc/stm32wlxx_ll_exti.h **** {
1226:hardware/mcu/st/stm32wlxx_hal_driver/Inc/stm32wlxx_ll_exti.h ****   CLEAR_BIT(EXTI->FTSR1, ExtiLine);
 180              		.loc 2 1226 3 view .LVU35
 181 001c 5A68     		ldr	r2, [r3, #4]
 182 001e 22F48032 		bic	r2, r2, #65536
 183 0022 5A60     		str	r2, [r3, #4]
 184              	.LVL3:
 185              		.loc 2 1226 3 is_stmt 0 view .LVU36
 186              	.LBE17:
 187              	.LBE16:
 360:hardware/mcu/st/stm32wlxx_hal_driver/Src/stm32wlxx_hal_pwr.c ****   __HAL_PWR_PVD_EXTI_DISABLE_FALLING_EDGE();
ARM GAS  /tmp/cckd0Xcu.s 			page 32


 188              		.loc 1 360 3 is_stmt 1 view .LVU37
 189              	.LBB18:
 190              	.LBI18:
1050:hardware/mcu/st/stm32wlxx_hal_driver/Inc/stm32wlxx_ll_exti.h **** {
 191              		.loc 2 1050 22 view .LVU38
 192              	.LBB19:
1052:hardware/mcu/st/stm32wlxx_hal_driver/Inc/stm32wlxx_ll_exti.h **** 
 193              		.loc 2 1052 3 view .LVU39
 194 0024 1A68     		ldr	r2, [r3]
 195 0026 22F48032 		bic	r2, r2, #65536
 196 002a 1A60     		str	r2, [r3]
 197              	.LVL4:
1052:hardware/mcu/st/stm32wlxx_hal_driver/Inc/stm32wlxx_ll_exti.h **** 
 198              		.loc 2 1052 3 is_stmt 0 view .LVU40
 199              	.LBE19:
 200              	.LBE18:
 361:hardware/mcu/st/stm32wlxx_hal_driver/Src/stm32wlxx_hal_pwr.c **** 
 362:hardware/mcu/st/stm32wlxx_hal_driver/Src/stm32wlxx_hal_pwr.c ****   /* Configure interrupt mode */
 363:hardware/mcu/st/stm32wlxx_hal_driver/Src/stm32wlxx_hal_pwr.c ****   if ((sConfigPVD->Mode & PVD_MODE_IT) == PVD_MODE_IT)
 201              		.loc 1 363 3 is_stmt 1 view .LVU41
 202              		.loc 1 363 18 is_stmt 0 view .LVU42
 203 002c 4268     		ldr	r2, [r0, #4]
 204              		.loc 1 363 6 view .LVU43
 205 002e D003     		lsls	r0, r2, #15
 206              	.LVL5:
 364:hardware/mcu/st/stm32wlxx_hal_driver/Src/stm32wlxx_hal_pwr.c ****   {
 365:hardware/mcu/st/stm32wlxx_hal_driver/Src/stm32wlxx_hal_pwr.c ****     __HAL_PWR_PVD_EXTI_ENABLE_IT();
 207              		.loc 1 365 5 is_stmt 1 view .LVU44
 208              	.LBB20:
 209              	.LBI20:
 266:hardware/mcu/st/stm32wlxx_hal_driver/Inc/stm32wlxx_ll_exti.h **** {
 210              		.loc 2 266 22 view .LVU45
 211              	.LBB21:
 268:hardware/mcu/st/stm32wlxx_hal_driver/Inc/stm32wlxx_ll_exti.h **** }
 212              		.loc 2 268 3 view .LVU46
 213 0030 42BF     		ittt	mi
 214 0032 D3F88010 		ldrmi	r1, [r3, #128]
 215 0036 41F48031 		orrmi	r1, r1, #65536
 216 003a C3F88010 		strmi	r1, [r3, #128]
 217              	.LVL6:
 268:hardware/mcu/st/stm32wlxx_hal_driver/Inc/stm32wlxx_ll_exti.h **** }
 218              		.loc 2 268 3 is_stmt 0 view .LVU47
 219              	.LBE21:
 220              	.LBE20:
 366:hardware/mcu/st/stm32wlxx_hal_driver/Src/stm32wlxx_hal_pwr.c ****   }
 367:hardware/mcu/st/stm32wlxx_hal_driver/Src/stm32wlxx_hal_pwr.c **** 
 368:hardware/mcu/st/stm32wlxx_hal_driver/Src/stm32wlxx_hal_pwr.c ****   /* Configure the edge */
 369:hardware/mcu/st/stm32wlxx_hal_driver/Src/stm32wlxx_hal_pwr.c ****   if ((sConfigPVD->Mode & PVD_RISING_EDGE) == PVD_RISING_EDGE)
 221              		.loc 1 369 3 is_stmt 1 view .LVU48
 222              		.loc 1 369 6 is_stmt 0 view .LVU49
 223 003e D107     		lsls	r1, r2, #31
 370:hardware/mcu/st/stm32wlxx_hal_driver/Src/stm32wlxx_hal_pwr.c ****   {
 371:hardware/mcu/st/stm32wlxx_hal_driver/Src/stm32wlxx_hal_pwr.c ****     __HAL_PWR_PVD_EXTI_ENABLE_RISING_EDGE();
 224              		.loc 1 371 5 is_stmt 1 view .LVU50
 225              	.LBB22:
 226              	.LBI22:
1165:hardware/mcu/st/stm32wlxx_hal_driver/Inc/stm32wlxx_ll_exti.h **** {
ARM GAS  /tmp/cckd0Xcu.s 			page 33


 227              		.loc 2 1165 22 view .LVU51
 228              	.LVL7:
 229              	.LBB23:
1167:hardware/mcu/st/stm32wlxx_hal_driver/Inc/stm32wlxx_ll_exti.h **** }
 230              		.loc 2 1167 3 view .LVU52
 231 0040 42BF     		ittt	mi
 232 0042 5968     		ldrmi	r1, [r3, #4]
 233 0044 41F48031 		orrmi	r1, r1, #65536
 234 0048 5960     		strmi	r1, [r3, #4]
 235              	.LVL8:
1167:hardware/mcu/st/stm32wlxx_hal_driver/Inc/stm32wlxx_ll_exti.h **** }
 236              		.loc 2 1167 3 is_stmt 0 view .LVU53
 237              	.LBE23:
 238              	.LBE22:
 372:hardware/mcu/st/stm32wlxx_hal_driver/Src/stm32wlxx_hal_pwr.c ****   }
 373:hardware/mcu/st/stm32wlxx_hal_driver/Src/stm32wlxx_hal_pwr.c **** 
 374:hardware/mcu/st/stm32wlxx_hal_driver/Src/stm32wlxx_hal_pwr.c ****   if ((sConfigPVD->Mode & PVD_FALLING_EDGE) == PVD_FALLING_EDGE)
 239              		.loc 1 374 3 is_stmt 1 view .LVU54
 240              		.loc 1 374 6 is_stmt 0 view .LVU55
 241 004a 9307     		lsls	r3, r2, #30
 375:hardware/mcu/st/stm32wlxx_hal_driver/Src/stm32wlxx_hal_pwr.c ****   {
 376:hardware/mcu/st/stm32wlxx_hal_driver/Src/stm32wlxx_hal_pwr.c ****     __HAL_PWR_PVD_EXTI_ENABLE_FALLING_EDGE();
 242              		.loc 1 376 5 is_stmt 1 view .LVU56
 243              	.LBB24:
 244              	.LBI24:
 990:hardware/mcu/st/stm32wlxx_hal_driver/Inc/stm32wlxx_ll_exti.h **** {
 245              		.loc 2 990 22 view .LVU57
 246              	.LVL9:
 247              	.LBB25:
 992:hardware/mcu/st/stm32wlxx_hal_driver/Inc/stm32wlxx_ll_exti.h **** 
 248              		.loc 2 992 3 view .LVU58
 249 004c 41BF     		itttt	mi
 250 004e 044A     		ldrmi	r2, .L23+4
 251 0050 1368     		ldrmi	r3, [r2]
 252 0052 43F48033 		orrmi	r3, r3, #65536
 253 0056 1360     		strmi	r3, [r2]
 254              	.LVL10:
 992:hardware/mcu/st/stm32wlxx_hal_driver/Inc/stm32wlxx_ll_exti.h **** 
 255              		.loc 2 992 3 is_stmt 0 view .LVU59
 256              	.LBE25:
 257              	.LBE24:
 377:hardware/mcu/st/stm32wlxx_hal_driver/Src/stm32wlxx_hal_pwr.c ****   }
 378:hardware/mcu/st/stm32wlxx_hal_driver/Src/stm32wlxx_hal_pwr.c **** 
 379:hardware/mcu/st/stm32wlxx_hal_driver/Src/stm32wlxx_hal_pwr.c ****   return HAL_OK;
 258              		.loc 1 379 3 is_stmt 1 view .LVU60
 380:hardware/mcu/st/stm32wlxx_hal_driver/Src/stm32wlxx_hal_pwr.c **** }
 259              		.loc 1 380 1 is_stmt 0 view .LVU61
 260 0058 0020     		movs	r0, #0
 261 005a 7047     		bx	lr
 262              	.L24:
 263              		.align	2
 264              	.L23:
 265 005c 00040058 		.word	1476396032
 266 0060 00080058 		.word	1476397056
 267              		.cfi_endproc
 268              	.LFE724:
 270              		.section	.text.HAL_PWR_EnablePVD,"ax",%progbits
ARM GAS  /tmp/cckd0Xcu.s 			page 34


 271              		.align	1
 272              		.global	HAL_PWR_EnablePVD
 273              		.syntax unified
 274              		.thumb
 275              		.thumb_func
 277              	HAL_PWR_EnablePVD:
 278              	.LFB725:
 381:hardware/mcu/st/stm32wlxx_hal_driver/Src/stm32wlxx_hal_pwr.c **** 
 382:hardware/mcu/st/stm32wlxx_hal_driver/Src/stm32wlxx_hal_pwr.c **** /**
 383:hardware/mcu/st/stm32wlxx_hal_driver/Src/stm32wlxx_hal_pwr.c ****   * @brief Enable the Power Voltage Detector(PVD).
 384:hardware/mcu/st/stm32wlxx_hal_driver/Src/stm32wlxx_hal_pwr.c ****   * @retval None
 385:hardware/mcu/st/stm32wlxx_hal_driver/Src/stm32wlxx_hal_pwr.c ****   */
 386:hardware/mcu/st/stm32wlxx_hal_driver/Src/stm32wlxx_hal_pwr.c **** void HAL_PWR_EnablePVD(void)
 387:hardware/mcu/st/stm32wlxx_hal_driver/Src/stm32wlxx_hal_pwr.c **** {
 279              		.loc 1 387 1 is_stmt 1 view -0
 280              		.cfi_startproc
 281              		@ args = 0, pretend = 0, frame = 0
 282              		@ frame_needed = 0, uses_anonymous_args = 0
 283              		@ link register save eliminated.
 388:hardware/mcu/st/stm32wlxx_hal_driver/Src/stm32wlxx_hal_pwr.c ****   /* Enable the power voltage detector */
 389:hardware/mcu/st/stm32wlxx_hal_driver/Src/stm32wlxx_hal_pwr.c ****   SET_BIT(PWR->CR2, PWR_CR2_PVDE);
 284              		.loc 1 389 3 view .LVU63
 285 0000 024A     		ldr	r2, .L26
 286 0002 5368     		ldr	r3, [r2, #4]
 287 0004 43F00103 		orr	r3, r3, #1
 288 0008 5360     		str	r3, [r2, #4]
 390:hardware/mcu/st/stm32wlxx_hal_driver/Src/stm32wlxx_hal_pwr.c **** }
 289              		.loc 1 390 1 is_stmt 0 view .LVU64
 290 000a 7047     		bx	lr
 291              	.L27:
 292              		.align	2
 293              	.L26:
 294 000c 00040058 		.word	1476396032
 295              		.cfi_endproc
 296              	.LFE725:
 298              		.section	.text.HAL_PWR_DisablePVD,"ax",%progbits
 299              		.align	1
 300              		.global	HAL_PWR_DisablePVD
 301              		.syntax unified
 302              		.thumb
 303              		.thumb_func
 305              	HAL_PWR_DisablePVD:
 306              	.LFB726:
 391:hardware/mcu/st/stm32wlxx_hal_driver/Src/stm32wlxx_hal_pwr.c **** 
 392:hardware/mcu/st/stm32wlxx_hal_driver/Src/stm32wlxx_hal_pwr.c **** /**
 393:hardware/mcu/st/stm32wlxx_hal_driver/Src/stm32wlxx_hal_pwr.c ****   * @brief Disable the Power Voltage Detector(PVD).
 394:hardware/mcu/st/stm32wlxx_hal_driver/Src/stm32wlxx_hal_pwr.c ****   * @retval None
 395:hardware/mcu/st/stm32wlxx_hal_driver/Src/stm32wlxx_hal_pwr.c ****   */
 396:hardware/mcu/st/stm32wlxx_hal_driver/Src/stm32wlxx_hal_pwr.c **** void HAL_PWR_DisablePVD(void)
 397:hardware/mcu/st/stm32wlxx_hal_driver/Src/stm32wlxx_hal_pwr.c **** {
 307              		.loc 1 397 1 is_stmt 1 view -0
 308              		.cfi_startproc
 309              		@ args = 0, pretend = 0, frame = 0
 310              		@ frame_needed = 0, uses_anonymous_args = 0
 311              		@ link register save eliminated.
 398:hardware/mcu/st/stm32wlxx_hal_driver/Src/stm32wlxx_hal_pwr.c ****   /* Disable the power voltage detector */
 399:hardware/mcu/st/stm32wlxx_hal_driver/Src/stm32wlxx_hal_pwr.c ****   CLEAR_BIT(PWR->CR2, PWR_CR2_PVDE);
ARM GAS  /tmp/cckd0Xcu.s 			page 35


 312              		.loc 1 399 3 view .LVU66
 313 0000 024A     		ldr	r2, .L29
 314 0002 5368     		ldr	r3, [r2, #4]
 315 0004 23F00103 		bic	r3, r3, #1
 316 0008 5360     		str	r3, [r2, #4]
 400:hardware/mcu/st/stm32wlxx_hal_driver/Src/stm32wlxx_hal_pwr.c **** }
 317              		.loc 1 400 1 is_stmt 0 view .LVU67
 318 000a 7047     		bx	lr
 319              	.L30:
 320              		.align	2
 321              	.L29:
 322 000c 00040058 		.word	1476396032
 323              		.cfi_endproc
 324              	.LFE726:
 326              		.section	.text.HAL_PWR_EnableWakeUpPin,"ax",%progbits
 327              		.align	1
 328              		.global	HAL_PWR_EnableWakeUpPin
 329              		.syntax unified
 330              		.thumb
 331              		.thumb_func
 333              	HAL_PWR_EnableWakeUpPin:
 334              	.LVL11:
 335              	.LFB727:
 401:hardware/mcu/st/stm32wlxx_hal_driver/Src/stm32wlxx_hal_pwr.c **** 
 402:hardware/mcu/st/stm32wlxx_hal_driver/Src/stm32wlxx_hal_pwr.c **** /**
 403:hardware/mcu/st/stm32wlxx_hal_driver/Src/stm32wlxx_hal_pwr.c ****   * @brief Enable the WakeUp PINx functionality.
 404:hardware/mcu/st/stm32wlxx_hal_driver/Src/stm32wlxx_hal_pwr.c ****   * @param WakeUpPinPolarity Specifies which Wake-Up pin to enable.
 405:hardware/mcu/st/stm32wlxx_hal_driver/Src/stm32wlxx_hal_pwr.c ****   *         This parameter can be one of the following legacy values which set the default polarity
 406:hardware/mcu/st/stm32wlxx_hal_driver/Src/stm32wlxx_hal_pwr.c ****   *         i.e. detection on high level (rising edge):
 407:hardware/mcu/st/stm32wlxx_hal_driver/Src/stm32wlxx_hal_pwr.c ****   *           @arg PWR_WAKEUP_PIN1 Pin wake-up the system from Standby mode.
 408:hardware/mcu/st/stm32wlxx_hal_driver/Src/stm32wlxx_hal_pwr.c ****   *           @arg PWR_WAKEUP_PIN2 Pin wake-up the system from Standby mode.
 409:hardware/mcu/st/stm32wlxx_hal_driver/Src/stm32wlxx_hal_pwr.c ****   *           @arg PWR_WAKEUP_PIN3 Pin wake-up the system from Standby mode.
 410:hardware/mcu/st/stm32wlxx_hal_driver/Src/stm32wlxx_hal_pwr.c ****   *         or one of the following value where the user can explicitly specify the enabled pin and
 411:hardware/mcu/st/stm32wlxx_hal_driver/Src/stm32wlxx_hal_pwr.c ****   *         the chosen polarity:
 412:hardware/mcu/st/stm32wlxx_hal_driver/Src/stm32wlxx_hal_pwr.c ****   *           @arg @ref PWR_WAKEUP_PIN1_HIGH or @arg @ref PWR_WAKEUP_PIN1_LOW
 413:hardware/mcu/st/stm32wlxx_hal_driver/Src/stm32wlxx_hal_pwr.c ****   *           @arg @ref PWR_WAKEUP_PIN2_HIGH or @arg @ref PWR_WAKEUP_PIN2_LOW
 414:hardware/mcu/st/stm32wlxx_hal_driver/Src/stm32wlxx_hal_pwr.c ****   *           @arg @ref PWR_WAKEUP_PIN3_HIGH or @arg @ref PWR_WAKEUP_PIN3_LOW
 415:hardware/mcu/st/stm32wlxx_hal_driver/Src/stm32wlxx_hal_pwr.c ****   * @note  PWR_WAKEUP_PINx and PWR_WAKEUP_PINx_HIGH are equivalent.
 416:hardware/mcu/st/stm32wlxx_hal_driver/Src/stm32wlxx_hal_pwr.c ****   * @retval None
 417:hardware/mcu/st/stm32wlxx_hal_driver/Src/stm32wlxx_hal_pwr.c ****   */
 418:hardware/mcu/st/stm32wlxx_hal_driver/Src/stm32wlxx_hal_pwr.c **** void HAL_PWR_EnableWakeUpPin(uint32_t WakeUpPinPolarity)
 419:hardware/mcu/st/stm32wlxx_hal_driver/Src/stm32wlxx_hal_pwr.c **** {
 336              		.loc 1 419 1 is_stmt 1 view -0
 337              		.cfi_startproc
 338              		@ args = 0, pretend = 0, frame = 0
 339              		@ frame_needed = 0, uses_anonymous_args = 0
 340              		@ link register save eliminated.
 420:hardware/mcu/st/stm32wlxx_hal_driver/Src/stm32wlxx_hal_pwr.c ****   assert_param(IS_PWR_WAKEUP_PIN(WakeUpPinPolarity));
 341              		.loc 1 420 3 view .LVU69
 421:hardware/mcu/st/stm32wlxx_hal_driver/Src/stm32wlxx_hal_pwr.c **** 
 422:hardware/mcu/st/stm32wlxx_hal_driver/Src/stm32wlxx_hal_pwr.c ****   /* Specifies the Wake-Up pin polarity for the event detection
 423:hardware/mcu/st/stm32wlxx_hal_driver/Src/stm32wlxx_hal_pwr.c ****     (rising or falling edge) */
 424:hardware/mcu/st/stm32wlxx_hal_driver/Src/stm32wlxx_hal_pwr.c ****   MODIFY_REG(PWR->CR4, ((PWR_CR4_WP1 | PWR_CR4_WP2 | PWR_CR4_WP3) & WakeUpPinPolarity), (WakeUpPinP
 342              		.loc 1 424 3 view .LVU70
 343 0000 064A     		ldr	r2, .L32
 344 0002 D368     		ldr	r3, [r2, #12]
 345 0004 00F00701 		and	r1, r0, #7
ARM GAS  /tmp/cckd0Xcu.s 			page 36


 346 0008 23EA0103 		bic	r3, r3, r1
 347 000c 43EA5010 		orr	r0, r3, r0, lsr #5
 348              	.LVL12:
 349              		.loc 1 424 3 is_stmt 0 view .LVU71
 350 0010 D060     		str	r0, [r2, #12]
 425:hardware/mcu/st/stm32wlxx_hal_driver/Src/stm32wlxx_hal_pwr.c **** 
 426:hardware/mcu/st/stm32wlxx_hal_driver/Src/stm32wlxx_hal_pwr.c ****   /* Enable wake-up pin */
 427:hardware/mcu/st/stm32wlxx_hal_driver/Src/stm32wlxx_hal_pwr.c **** #ifdef CORE_CM0PLUS
 428:hardware/mcu/st/stm32wlxx_hal_driver/Src/stm32wlxx_hal_pwr.c ****   SET_BIT(PWR->C2CR3, (PWR_C2CR3_EWUP & WakeUpPinPolarity));
 429:hardware/mcu/st/stm32wlxx_hal_driver/Src/stm32wlxx_hal_pwr.c **** #else
 430:hardware/mcu/st/stm32wlxx_hal_driver/Src/stm32wlxx_hal_pwr.c ****   SET_BIT(PWR->CR3, (PWR_CR3_EWUP & WakeUpPinPolarity));
 351              		.loc 1 430 3 is_stmt 1 view .LVU72
 352 0012 9368     		ldr	r3, [r2, #8]
 353 0014 1943     		orrs	r1, r1, r3
 354 0016 9160     		str	r1, [r2, #8]
 431:hardware/mcu/st/stm32wlxx_hal_driver/Src/stm32wlxx_hal_pwr.c **** #endif
 432:hardware/mcu/st/stm32wlxx_hal_driver/Src/stm32wlxx_hal_pwr.c **** }
 355              		.loc 1 432 1 is_stmt 0 view .LVU73
 356 0018 7047     		bx	lr
 357              	.L33:
 358 001a 00BF     		.align	2
 359              	.L32:
 360 001c 00040058 		.word	1476396032
 361              		.cfi_endproc
 362              	.LFE727:
 364              		.section	.text.HAL_PWR_DisableWakeUpPin,"ax",%progbits
 365              		.align	1
 366              		.global	HAL_PWR_DisableWakeUpPin
 367              		.syntax unified
 368              		.thumb
 369              		.thumb_func
 371              	HAL_PWR_DisableWakeUpPin:
 372              	.LVL13:
 373              	.LFB728:
 433:hardware/mcu/st/stm32wlxx_hal_driver/Src/stm32wlxx_hal_pwr.c **** 
 434:hardware/mcu/st/stm32wlxx_hal_driver/Src/stm32wlxx_hal_pwr.c **** /**
 435:hardware/mcu/st/stm32wlxx_hal_driver/Src/stm32wlxx_hal_pwr.c ****   * @brief  Disable the WakeUp PINx functionality.
 436:hardware/mcu/st/stm32wlxx_hal_driver/Src/stm32wlxx_hal_pwr.c ****   * @param WakeUpPinx Specifies the Power Wake-Up pin to disable.
 437:hardware/mcu/st/stm32wlxx_hal_driver/Src/stm32wlxx_hal_pwr.c ****   *         This parameter can be one of the following values:
 438:hardware/mcu/st/stm32wlxx_hal_driver/Src/stm32wlxx_hal_pwr.c ****   *           @arg @ref PWR_WAKEUP_PIN1 Pin wake-up the system from Standby mode.
 439:hardware/mcu/st/stm32wlxx_hal_driver/Src/stm32wlxx_hal_pwr.c ****   *           @arg @ref PWR_WAKEUP_PIN2 Pin wake-up the system from Standby mode.
 440:hardware/mcu/st/stm32wlxx_hal_driver/Src/stm32wlxx_hal_pwr.c ****   *           @arg @ref PWR_WAKEUP_PIN3 Pin wake-up the system from Standby mode.
 441:hardware/mcu/st/stm32wlxx_hal_driver/Src/stm32wlxx_hal_pwr.c ****   * @retval None
 442:hardware/mcu/st/stm32wlxx_hal_driver/Src/stm32wlxx_hal_pwr.c ****   */
 443:hardware/mcu/st/stm32wlxx_hal_driver/Src/stm32wlxx_hal_pwr.c **** void HAL_PWR_DisableWakeUpPin(uint32_t WakeUpPinx)
 444:hardware/mcu/st/stm32wlxx_hal_driver/Src/stm32wlxx_hal_pwr.c **** {
 374              		.loc 1 444 1 is_stmt 1 view -0
 375              		.cfi_startproc
 376              		@ args = 0, pretend = 0, frame = 0
 377              		@ frame_needed = 0, uses_anonymous_args = 0
 378              		@ link register save eliminated.
 445:hardware/mcu/st/stm32wlxx_hal_driver/Src/stm32wlxx_hal_pwr.c ****   assert_param(IS_PWR_WAKEUP_PIN(WakeUpPinx));
 379              		.loc 1 445 3 view .LVU75
 446:hardware/mcu/st/stm32wlxx_hal_driver/Src/stm32wlxx_hal_pwr.c **** 
 447:hardware/mcu/st/stm32wlxx_hal_driver/Src/stm32wlxx_hal_pwr.c ****   /* Disable wake-up pin */
 448:hardware/mcu/st/stm32wlxx_hal_driver/Src/stm32wlxx_hal_pwr.c **** #ifdef CORE_CM0PLUS
 449:hardware/mcu/st/stm32wlxx_hal_driver/Src/stm32wlxx_hal_pwr.c ****   CLEAR_BIT(PWR->C2CR3, (PWR_C2CR3_EWUP & WakeUpPinx));
ARM GAS  /tmp/cckd0Xcu.s 			page 37


 450:hardware/mcu/st/stm32wlxx_hal_driver/Src/stm32wlxx_hal_pwr.c **** #else
 451:hardware/mcu/st/stm32wlxx_hal_driver/Src/stm32wlxx_hal_pwr.c ****   CLEAR_BIT(PWR->CR3, (PWR_CR3_EWUP & WakeUpPinx));
 380              		.loc 1 451 3 view .LVU76
 381 0000 034A     		ldr	r2, .L35
 382 0002 9368     		ldr	r3, [r2, #8]
 383 0004 00F00700 		and	r0, r0, #7
 384              	.LVL14:
 385              		.loc 1 451 3 is_stmt 0 view .LVU77
 386 0008 23EA0003 		bic	r3, r3, r0
 387 000c 9360     		str	r3, [r2, #8]
 452:hardware/mcu/st/stm32wlxx_hal_driver/Src/stm32wlxx_hal_pwr.c **** #endif
 453:hardware/mcu/st/stm32wlxx_hal_driver/Src/stm32wlxx_hal_pwr.c **** }
 388              		.loc 1 453 1 view .LVU78
 389 000e 7047     		bx	lr
 390              	.L36:
 391              		.align	2
 392              	.L35:
 393 0010 00040058 		.word	1476396032
 394              		.cfi_endproc
 395              	.LFE728:
 397              		.section	.text.HAL_PWR_EnterSLEEPMode,"ax",%progbits
 398              		.align	1
 399              		.global	HAL_PWR_EnterSLEEPMode
 400              		.syntax unified
 401              		.thumb
 402              		.thumb_func
 404              	HAL_PWR_EnterSLEEPMode:
 405              	.LVL15:
 406              	.LFB729:
 454:hardware/mcu/st/stm32wlxx_hal_driver/Src/stm32wlxx_hal_pwr.c **** 
 455:hardware/mcu/st/stm32wlxx_hal_driver/Src/stm32wlxx_hal_pwr.c **** /**
 456:hardware/mcu/st/stm32wlxx_hal_driver/Src/stm32wlxx_hal_pwr.c ****   * @brief Enter Sleep or Low-power Sleep mode.
 457:hardware/mcu/st/stm32wlxx_hal_driver/Src/stm32wlxx_hal_pwr.c ****   * @note  In Sleep/Low-power Sleep mode, all I/O pins keep the same state as in Run mode.
 458:hardware/mcu/st/stm32wlxx_hal_driver/Src/stm32wlxx_hal_pwr.c ****   * @param Regulator Specifies the regulator state in Sleep/Low-power Sleep mode.
 459:hardware/mcu/st/stm32wlxx_hal_driver/Src/stm32wlxx_hal_pwr.c ****   *          This parameter can be one of the following values:
 460:hardware/mcu/st/stm32wlxx_hal_driver/Src/stm32wlxx_hal_pwr.c ****   *            @arg @ref PWR_MAINREGULATOR_ON Sleep mode (regulator in main mode)
 461:hardware/mcu/st/stm32wlxx_hal_driver/Src/stm32wlxx_hal_pwr.c ****   *            @arg @ref PWR_LOWPOWERREGULATOR_ON Low-power Sleep mode (regulator in low-power mode
 462:hardware/mcu/st/stm32wlxx_hal_driver/Src/stm32wlxx_hal_pwr.c ****   * @note  Low-power Sleep mode is entered from Low-power Run mode (low-power regulator used
 463:hardware/mcu/st/stm32wlxx_hal_driver/Src/stm32wlxx_hal_pwr.c ****   *        and clock frequency below 2 MHz) and by calling HAL_PWR_EnterSLEEPMode() with Regulator 
 464:hardware/mcu/st/stm32wlxx_hal_driver/Src/stm32wlxx_hal_pwr.c ****   *        to PWR_LOWPOWERREGULATOR_ON.
 465:hardware/mcu/st/stm32wlxx_hal_driver/Src/stm32wlxx_hal_pwr.c ****   *        Additionally, the clock frequency must be reduced below 2 MHz.
 466:hardware/mcu/st/stm32wlxx_hal_driver/Src/stm32wlxx_hal_pwr.c ****   * @note  When exiting Low-power Sleep mode, the MCU is in Low-power Run mode. To move in
 467:hardware/mcu/st/stm32wlxx_hal_driver/Src/stm32wlxx_hal_pwr.c ****   *        Run mode, the user must resort to HAL_PWREx_DisableLowPowerRunMode() API.
 468:hardware/mcu/st/stm32wlxx_hal_driver/Src/stm32wlxx_hal_pwr.c ****   * @param SLEEPEntry Specifies if Sleep mode is entered with WFI or WFE instruction.
 469:hardware/mcu/st/stm32wlxx_hal_driver/Src/stm32wlxx_hal_pwr.c ****   *           This parameter can be one of the following values:
 470:hardware/mcu/st/stm32wlxx_hal_driver/Src/stm32wlxx_hal_pwr.c ****   *            @arg @ref PWR_SLEEPENTRY_WFI enter Sleep or Low-power Sleep mode with WFI instructio
 471:hardware/mcu/st/stm32wlxx_hal_driver/Src/stm32wlxx_hal_pwr.c ****   *            @arg @ref PWR_SLEEPENTRY_WFE enter Sleep or Low-power Sleep mode with WFE instructio
 472:hardware/mcu/st/stm32wlxx_hal_driver/Src/stm32wlxx_hal_pwr.c ****   * @note  When WFI entry is used, tick interrupt have to be disabled if not desired as
 473:hardware/mcu/st/stm32wlxx_hal_driver/Src/stm32wlxx_hal_pwr.c ****   *        the interrupt wake up source.
 474:hardware/mcu/st/stm32wlxx_hal_driver/Src/stm32wlxx_hal_pwr.c ****   * @retval None
 475:hardware/mcu/st/stm32wlxx_hal_driver/Src/stm32wlxx_hal_pwr.c ****   */
 476:hardware/mcu/st/stm32wlxx_hal_driver/Src/stm32wlxx_hal_pwr.c **** void HAL_PWR_EnterSLEEPMode(uint32_t Regulator, uint8_t SLEEPEntry)
 477:hardware/mcu/st/stm32wlxx_hal_driver/Src/stm32wlxx_hal_pwr.c **** {
 407              		.loc 1 477 1 is_stmt 1 view -0
 408              		.cfi_startproc
 409              		@ args = 0, pretend = 0, frame = 0
 410              		@ frame_needed = 0, uses_anonymous_args = 0
ARM GAS  /tmp/cckd0Xcu.s 			page 38


 478:hardware/mcu/st/stm32wlxx_hal_driver/Src/stm32wlxx_hal_pwr.c ****   /* Check the parameters */
 479:hardware/mcu/st/stm32wlxx_hal_driver/Src/stm32wlxx_hal_pwr.c ****   assert_param(IS_PWR_REGULATOR(Regulator));
 411              		.loc 1 479 3 view .LVU80
 480:hardware/mcu/st/stm32wlxx_hal_driver/Src/stm32wlxx_hal_pwr.c ****   assert_param(IS_PWR_SLEEP_ENTRY(SLEEPEntry));
 412              		.loc 1 480 3 view .LVU81
 481:hardware/mcu/st/stm32wlxx_hal_driver/Src/stm32wlxx_hal_pwr.c **** 
 482:hardware/mcu/st/stm32wlxx_hal_driver/Src/stm32wlxx_hal_pwr.c ****   /* Set Regulator parameter */
 483:hardware/mcu/st/stm32wlxx_hal_driver/Src/stm32wlxx_hal_pwr.c ****   if (Regulator == PWR_MAINREGULATOR_ON)
 413              		.loc 1 483 3 view .LVU82
 414 0000 0D4B     		ldr	r3, .L44
 477:hardware/mcu/st/stm32wlxx_hal_driver/Src/stm32wlxx_hal_pwr.c ****   /* Check the parameters */
 415              		.loc 1 477 1 is_stmt 0 view .LVU83
 416 0002 10B5     		push	{r4, lr}
 417              	.LCFI0:
 418              		.cfi_def_cfa_offset 8
 419              		.cfi_offset 4, -8
 420              		.cfi_offset 14, -4
 484:hardware/mcu/st/stm32wlxx_hal_driver/Src/stm32wlxx_hal_pwr.c ****   {
 485:hardware/mcu/st/stm32wlxx_hal_driver/Src/stm32wlxx_hal_pwr.c ****     /* If in low-power run mode at this point, exit it */
 486:hardware/mcu/st/stm32wlxx_hal_driver/Src/stm32wlxx_hal_pwr.c ****     if (HAL_IS_BIT_SET(PWR->SR2, (PWR_SR2_REGLPF)))
 421              		.loc 1 486 9 view .LVU84
 422 0004 5B69     		ldr	r3, [r3, #20]
 477:hardware/mcu/st/stm32wlxx_hal_driver/Src/stm32wlxx_hal_pwr.c ****   /* Check the parameters */
 423              		.loc 1 477 1 view .LVU85
 424 0006 0C46     		mov	r4, r1
 483:hardware/mcu/st/stm32wlxx_hal_driver/Src/stm32wlxx_hal_pwr.c ****   {
 425              		.loc 1 483 6 view .LVU86
 426 0008 28B9     		cbnz	r0, .L38
 427              		.loc 1 486 5 is_stmt 1 view .LVU87
 428              		.loc 1 486 8 is_stmt 0 view .LVU88
 429 000a 9A05     		lsls	r2, r3, #22
 430 000c 07D5     		bpl	.L40
 487:hardware/mcu/st/stm32wlxx_hal_driver/Src/stm32wlxx_hal_pwr.c ****     {
 488:hardware/mcu/st/stm32wlxx_hal_driver/Src/stm32wlxx_hal_pwr.c ****       if (HAL_PWREx_DisableLowPowerRunMode() != HAL_OK)
 431              		.loc 1 488 7 is_stmt 1 view .LVU89
 432              		.loc 1 488 11 is_stmt 0 view .LVU90
 433 000e FFF7FEFF 		bl	HAL_PWREx_DisableLowPowerRunMode
 434              	.LVL16:
 435              		.loc 1 488 10 view .LVU91
 436 0012 20B1     		cbz	r0, .L40
 437              	.L37:
 489:hardware/mcu/st/stm32wlxx_hal_driver/Src/stm32wlxx_hal_pwr.c ****       {
 490:hardware/mcu/st/stm32wlxx_hal_driver/Src/stm32wlxx_hal_pwr.c ****         return ;
 491:hardware/mcu/st/stm32wlxx_hal_driver/Src/stm32wlxx_hal_pwr.c ****       }
 492:hardware/mcu/st/stm32wlxx_hal_driver/Src/stm32wlxx_hal_pwr.c ****     }
 493:hardware/mcu/st/stm32wlxx_hal_driver/Src/stm32wlxx_hal_pwr.c ****     /* Regulator now in main mode. */
 494:hardware/mcu/st/stm32wlxx_hal_driver/Src/stm32wlxx_hal_pwr.c ****   }
 495:hardware/mcu/st/stm32wlxx_hal_driver/Src/stm32wlxx_hal_pwr.c ****   else
 496:hardware/mcu/st/stm32wlxx_hal_driver/Src/stm32wlxx_hal_pwr.c ****   {
 497:hardware/mcu/st/stm32wlxx_hal_driver/Src/stm32wlxx_hal_pwr.c ****     /* If in run mode, first move to low-power run mode.
 498:hardware/mcu/st/stm32wlxx_hal_driver/Src/stm32wlxx_hal_pwr.c ****        The system clock frequency must be below 2 MHz at this point. */
 499:hardware/mcu/st/stm32wlxx_hal_driver/Src/stm32wlxx_hal_pwr.c ****     if (HAL_IS_BIT_CLR(PWR->SR2, (PWR_SR2_REGLPF)))
 500:hardware/mcu/st/stm32wlxx_hal_driver/Src/stm32wlxx_hal_pwr.c ****     {
 501:hardware/mcu/st/stm32wlxx_hal_driver/Src/stm32wlxx_hal_pwr.c ****       HAL_PWREx_EnableLowPowerRunMode();
 502:hardware/mcu/st/stm32wlxx_hal_driver/Src/stm32wlxx_hal_pwr.c ****     }
 503:hardware/mcu/st/stm32wlxx_hal_driver/Src/stm32wlxx_hal_pwr.c ****   }
 504:hardware/mcu/st/stm32wlxx_hal_driver/Src/stm32wlxx_hal_pwr.c **** 
ARM GAS  /tmp/cckd0Xcu.s 			page 39


 505:hardware/mcu/st/stm32wlxx_hal_driver/Src/stm32wlxx_hal_pwr.c ****   /* Clear SLEEPDEEP bit of Cortex System Control Register */
 506:hardware/mcu/st/stm32wlxx_hal_driver/Src/stm32wlxx_hal_pwr.c ****   CLEAR_BIT(SCB->SCR, ((uint32_t)SCB_SCR_SLEEPDEEP_Msk));
 507:hardware/mcu/st/stm32wlxx_hal_driver/Src/stm32wlxx_hal_pwr.c **** 
 508:hardware/mcu/st/stm32wlxx_hal_driver/Src/stm32wlxx_hal_pwr.c ****   /* Select SLEEP mode entry -------------------------------------------------*/
 509:hardware/mcu/st/stm32wlxx_hal_driver/Src/stm32wlxx_hal_pwr.c ****   if (SLEEPEntry == PWR_SLEEPENTRY_WFI)
 510:hardware/mcu/st/stm32wlxx_hal_driver/Src/stm32wlxx_hal_pwr.c ****   {
 511:hardware/mcu/st/stm32wlxx_hal_driver/Src/stm32wlxx_hal_pwr.c ****     /* Request Wait For Interrupt */
 512:hardware/mcu/st/stm32wlxx_hal_driver/Src/stm32wlxx_hal_pwr.c ****     __WFI();
 513:hardware/mcu/st/stm32wlxx_hal_driver/Src/stm32wlxx_hal_pwr.c ****   }
 514:hardware/mcu/st/stm32wlxx_hal_driver/Src/stm32wlxx_hal_pwr.c ****   else
 515:hardware/mcu/st/stm32wlxx_hal_driver/Src/stm32wlxx_hal_pwr.c ****   {
 516:hardware/mcu/st/stm32wlxx_hal_driver/Src/stm32wlxx_hal_pwr.c ****     /* Request Wait For Event */
 517:hardware/mcu/st/stm32wlxx_hal_driver/Src/stm32wlxx_hal_pwr.c ****     __SEV();
 518:hardware/mcu/st/stm32wlxx_hal_driver/Src/stm32wlxx_hal_pwr.c ****     __WFE();
 519:hardware/mcu/st/stm32wlxx_hal_driver/Src/stm32wlxx_hal_pwr.c ****     __WFE();
 520:hardware/mcu/st/stm32wlxx_hal_driver/Src/stm32wlxx_hal_pwr.c ****   }
 521:hardware/mcu/st/stm32wlxx_hal_driver/Src/stm32wlxx_hal_pwr.c **** }
 438              		.loc 1 521 1 view .LVU92
 439 0014 10BD     		pop	{r4, pc}
 440              	.LVL17:
 441              	.L38:
 499:hardware/mcu/st/stm32wlxx_hal_driver/Src/stm32wlxx_hal_pwr.c ****     {
 442              		.loc 1 499 5 is_stmt 1 view .LVU93
 499:hardware/mcu/st/stm32wlxx_hal_driver/Src/stm32wlxx_hal_pwr.c ****     {
 443              		.loc 1 499 8 is_stmt 0 view .LVU94
 444 0016 9B05     		lsls	r3, r3, #22
 445 0018 01D4     		bmi	.L40
 501:hardware/mcu/st/stm32wlxx_hal_driver/Src/stm32wlxx_hal_pwr.c ****     }
 446              		.loc 1 501 7 is_stmt 1 view .LVU95
 447 001a FFF7FEFF 		bl	HAL_PWREx_EnableLowPowerRunMode
 448              	.LVL18:
 449              	.L40:
 506:hardware/mcu/st/stm32wlxx_hal_driver/Src/stm32wlxx_hal_pwr.c **** 
 450              		.loc 1 506 3 view .LVU96
 451 001e 074A     		ldr	r2, .L44+4
 452 0020 1369     		ldr	r3, [r2, #16]
 509:hardware/mcu/st/stm32wlxx_hal_driver/Src/stm32wlxx_hal_pwr.c ****   {
 453              		.loc 1 509 6 is_stmt 0 view .LVU97
 454 0022 012C     		cmp	r4, #1
 506:hardware/mcu/st/stm32wlxx_hal_driver/Src/stm32wlxx_hal_pwr.c **** 
 455              		.loc 1 506 3 view .LVU98
 456 0024 23F00403 		bic	r3, r3, #4
 457 0028 1361     		str	r3, [r2, #16]
 509:hardware/mcu/st/stm32wlxx_hal_driver/Src/stm32wlxx_hal_pwr.c ****   {
 458              		.loc 1 509 3 is_stmt 1 view .LVU99
 509:hardware/mcu/st/stm32wlxx_hal_driver/Src/stm32wlxx_hal_pwr.c ****   {
 459              		.loc 1 509 6 is_stmt 0 view .LVU100
 460 002a 01D1     		bne	.L43
 512:hardware/mcu/st/stm32wlxx_hal_driver/Src/stm32wlxx_hal_pwr.c ****   }
 461              		.loc 1 512 5 is_stmt 1 view .LVU101
 462              		.syntax unified
 463              	@ 512 "hardware/mcu/st/stm32wlxx_hal_driver/Src/stm32wlxx_hal_pwr.c" 1
 464 002c 30BF     		wfi
 465              	@ 0 "" 2
 466              		.thumb
 467              		.syntax unified
 468 002e F1E7     		b	.L37
ARM GAS  /tmp/cckd0Xcu.s 			page 40


 469              	.L43:
 517:hardware/mcu/st/stm32wlxx_hal_driver/Src/stm32wlxx_hal_pwr.c ****     __WFE();
 470              		.loc 1 517 5 view .LVU102
 471              		.syntax unified
 472              	@ 517 "hardware/mcu/st/stm32wlxx_hal_driver/Src/stm32wlxx_hal_pwr.c" 1
 473 0030 40BF     		sev
 474              	@ 0 "" 2
 518:hardware/mcu/st/stm32wlxx_hal_driver/Src/stm32wlxx_hal_pwr.c ****     __WFE();
 475              		.loc 1 518 5 view .LVU103
 476              	@ 518 "hardware/mcu/st/stm32wlxx_hal_driver/Src/stm32wlxx_hal_pwr.c" 1
 477 0032 20BF     		wfe
 478              	@ 0 "" 2
 519:hardware/mcu/st/stm32wlxx_hal_driver/Src/stm32wlxx_hal_pwr.c ****   }
 479              		.loc 1 519 5 view .LVU104
 480              	@ 519 "hardware/mcu/st/stm32wlxx_hal_driver/Src/stm32wlxx_hal_pwr.c" 1
 481 0034 20BF     		wfe
 482              	@ 0 "" 2
 483              		.thumb
 484              		.syntax unified
 485 0036 EDE7     		b	.L37
 486              	.L45:
 487              		.align	2
 488              	.L44:
 489 0038 00040058 		.word	1476396032
 490 003c 00ED00E0 		.word	-536810240
 491              		.cfi_endproc
 492              	.LFE729:
 494              		.section	.text.HAL_PWR_EnterSTOPMode,"ax",%progbits
 495              		.align	1
 496              		.global	HAL_PWR_EnterSTOPMode
 497              		.syntax unified
 498              		.thumb
 499              		.thumb_func
 501              	HAL_PWR_EnterSTOPMode:
 502              	.LVL19:
 503              	.LFB730:
 522:hardware/mcu/st/stm32wlxx_hal_driver/Src/stm32wlxx_hal_pwr.c **** 
 523:hardware/mcu/st/stm32wlxx_hal_driver/Src/stm32wlxx_hal_pwr.c **** /**
 524:hardware/mcu/st/stm32wlxx_hal_driver/Src/stm32wlxx_hal_pwr.c ****   * @brief Enter Stop mode
 525:hardware/mcu/st/stm32wlxx_hal_driver/Src/stm32wlxx_hal_pwr.c ****   * @note  This API is named HAL_PWR_EnterSTOPMode to ensure compatibility with legacy STM32 series
 526:hardware/mcu/st/stm32wlxx_hal_driver/Src/stm32wlxx_hal_pwr.c ****   *        where only "Stop mode" is mentioned with main or low power regulator ON.
 527:hardware/mcu/st/stm32wlxx_hal_driver/Src/stm32wlxx_hal_pwr.c ****   *        It is recommended to use functions:
 528:hardware/mcu/st/stm32wlxx_hal_driver/Src/stm32wlxx_hal_pwr.c ****   *        @arg @ref HAL_PWREx_EnterSTOP0Mode
 529:hardware/mcu/st/stm32wlxx_hal_driver/Src/stm32wlxx_hal_pwr.c ****   *        @arg @ref HAL_PWREx_EnterSTOP1Mode
 530:hardware/mcu/st/stm32wlxx_hal_driver/Src/stm32wlxx_hal_pwr.c ****   *        @arg @ref HAL_PWREx_EnterSTOP2Mode
 531:hardware/mcu/st/stm32wlxx_hal_driver/Src/stm32wlxx_hal_pwr.c ****   * @note  In Stop mode, all I/O pins keep the same state as in Run mode.
 532:hardware/mcu/st/stm32wlxx_hal_driver/Src/stm32wlxx_hal_pwr.c ****   * @note  All clocks in the VCORE domain are stopped; the PLL, the MSI,
 533:hardware/mcu/st/stm32wlxx_hal_driver/Src/stm32wlxx_hal_pwr.c ****   *        the HSI and the HSE oscillators are disabled. Some peripherals with the wakeup capabilit
 534:hardware/mcu/st/stm32wlxx_hal_driver/Src/stm32wlxx_hal_pwr.c ****   *        (I2Cx, USARTx and LPUART) can switch on the HSI to receive a frame, and switch off the H
 535:hardware/mcu/st/stm32wlxx_hal_driver/Src/stm32wlxx_hal_pwr.c ****   *        after receiving the frame if it is not a wakeup frame. In this case, the HSI clock is pr
 536:hardware/mcu/st/stm32wlxx_hal_driver/Src/stm32wlxx_hal_pwr.c ****   *        only to the peripheral requesting it.
 537:hardware/mcu/st/stm32wlxx_hal_driver/Src/stm32wlxx_hal_pwr.c ****   *        SRAM1, SRAM2 and register contents are preserved.
 538:hardware/mcu/st/stm32wlxx_hal_driver/Src/stm32wlxx_hal_pwr.c ****   *        The BOR is available.
 539:hardware/mcu/st/stm32wlxx_hal_driver/Src/stm32wlxx_hal_pwr.c ****   *        The voltage regulator can be configured either in normal (Stop 0) or low-power mode (Sto
 540:hardware/mcu/st/stm32wlxx_hal_driver/Src/stm32wlxx_hal_pwr.c ****   * @note  When exiting Stop 0 or Stop 1 mode by issuing an interrupt or a wakeup event,
 541:hardware/mcu/st/stm32wlxx_hal_driver/Src/stm32wlxx_hal_pwr.c ****   *         the HSI RC oscillator is selected as system clock if STOPWUCK bit in RCC_CFGR register
 542:hardware/mcu/st/stm32wlxx_hal_driver/Src/stm32wlxx_hal_pwr.c ****   *         is set; the MSI oscillator is selected if STOPWUCK is cleared.
ARM GAS  /tmp/cckd0Xcu.s 			page 41


 543:hardware/mcu/st/stm32wlxx_hal_driver/Src/stm32wlxx_hal_pwr.c ****   * @note  When the voltage regulator operates in low power mode (Stop 1), an additional
 544:hardware/mcu/st/stm32wlxx_hal_driver/Src/stm32wlxx_hal_pwr.c ****   *         startup delay is incurred when waking up.
 545:hardware/mcu/st/stm32wlxx_hal_driver/Src/stm32wlxx_hal_pwr.c ****   *         By keeping the internal regulator ON during Stop mode (Stop 0), the consumption
 546:hardware/mcu/st/stm32wlxx_hal_driver/Src/stm32wlxx_hal_pwr.c ****   *         is higher although the startup time is reduced.
 547:hardware/mcu/st/stm32wlxx_hal_driver/Src/stm32wlxx_hal_pwr.c ****   * @note  According to system power policy, system entering in Stop mode
 548:hardware/mcu/st/stm32wlxx_hal_driver/Src/stm32wlxx_hal_pwr.c ****   *        is depending on other CPU power mode.
 549:hardware/mcu/st/stm32wlxx_hal_driver/Src/stm32wlxx_hal_pwr.c ****   * @param Regulator Specifies the regulator state in Stop mode.
 550:hardware/mcu/st/stm32wlxx_hal_driver/Src/stm32wlxx_hal_pwr.c ****   *          This parameter can be one of the following values:
 551:hardware/mcu/st/stm32wlxx_hal_driver/Src/stm32wlxx_hal_pwr.c ****   *            @arg @ref PWR_MAINREGULATOR_ON  Stop 0 mode (main regulator ON)
 552:hardware/mcu/st/stm32wlxx_hal_driver/Src/stm32wlxx_hal_pwr.c ****   *            @arg @ref PWR_LOWPOWERREGULATOR_ON  Stop 1 mode (low power regulator ON)
 553:hardware/mcu/st/stm32wlxx_hal_driver/Src/stm32wlxx_hal_pwr.c ****   * @param STOPEntry Specifies Stop 0, Stop 1 mode is entered with WFI or WFE instruction.
 554:hardware/mcu/st/stm32wlxx_hal_driver/Src/stm32wlxx_hal_pwr.c ****   *          This parameter can be one of the following values:
 555:hardware/mcu/st/stm32wlxx_hal_driver/Src/stm32wlxx_hal_pwr.c ****   *            @arg @ref PWR_STOPENTRY_WFI  Enter Stop 0 or Stop 1 mode with WFI instruction.
 556:hardware/mcu/st/stm32wlxx_hal_driver/Src/stm32wlxx_hal_pwr.c ****   *            @arg @ref PWR_STOPENTRY_WFE  Enter Stop 0 or Stop 1 mode with WFE instruction.
 557:hardware/mcu/st/stm32wlxx_hal_driver/Src/stm32wlxx_hal_pwr.c ****   * @retval None
 558:hardware/mcu/st/stm32wlxx_hal_driver/Src/stm32wlxx_hal_pwr.c ****   */
 559:hardware/mcu/st/stm32wlxx_hal_driver/Src/stm32wlxx_hal_pwr.c **** void HAL_PWR_EnterSTOPMode(uint32_t Regulator, uint8_t STOPEntry)
 560:hardware/mcu/st/stm32wlxx_hal_driver/Src/stm32wlxx_hal_pwr.c **** {
 504              		.loc 1 560 1 view -0
 505              		.cfi_startproc
 506              		@ args = 0, pretend = 0, frame = 0
 507              		@ frame_needed = 0, uses_anonymous_args = 0
 508              		@ link register save eliminated.
 561:hardware/mcu/st/stm32wlxx_hal_driver/Src/stm32wlxx_hal_pwr.c ****   /* Check the parameters */
 562:hardware/mcu/st/stm32wlxx_hal_driver/Src/stm32wlxx_hal_pwr.c ****   assert_param(IS_PWR_REGULATOR(Regulator));
 509              		.loc 1 562 3 view .LVU106
 563:hardware/mcu/st/stm32wlxx_hal_driver/Src/stm32wlxx_hal_pwr.c **** 
 564:hardware/mcu/st/stm32wlxx_hal_driver/Src/stm32wlxx_hal_pwr.c ****   if (Regulator == PWR_LOWPOWERREGULATOR_ON)
 510              		.loc 1 564 3 view .LVU107
 560:hardware/mcu/st/stm32wlxx_hal_driver/Src/stm32wlxx_hal_pwr.c ****   /* Check the parameters */
 511              		.loc 1 560 1 is_stmt 0 view .LVU108
 512 0000 0346     		mov	r3, r0
 513              		.loc 1 564 6 view .LVU109
 514 0002 B3F5804F 		cmp	r3, #16384
 560:hardware/mcu/st/stm32wlxx_hal_driver/Src/stm32wlxx_hal_pwr.c ****   /* Check the parameters */
 515              		.loc 1 560 1 view .LVU110
 516 0006 0846     		mov	r0, r1
 517              	.LVL20:
 518              		.loc 1 564 6 view .LVU111
 519 0008 01D1     		bne	.L47
 565:hardware/mcu/st/stm32wlxx_hal_driver/Src/stm32wlxx_hal_pwr.c ****   {
 566:hardware/mcu/st/stm32wlxx_hal_driver/Src/stm32wlxx_hal_pwr.c ****     HAL_PWREx_EnterSTOP1Mode(STOPEntry);
 520              		.loc 1 566 5 is_stmt 1 view .LVU112
 521 000a FFF7FEBF 		b	HAL_PWREx_EnterSTOP1Mode
 522              	.LVL21:
 523              	.L47:
 567:hardware/mcu/st/stm32wlxx_hal_driver/Src/stm32wlxx_hal_pwr.c ****   }
 568:hardware/mcu/st/stm32wlxx_hal_driver/Src/stm32wlxx_hal_pwr.c ****   else
 569:hardware/mcu/st/stm32wlxx_hal_driver/Src/stm32wlxx_hal_pwr.c ****   {
 570:hardware/mcu/st/stm32wlxx_hal_driver/Src/stm32wlxx_hal_pwr.c ****     HAL_PWREx_EnterSTOP0Mode(STOPEntry);
 524              		.loc 1 570 5 view .LVU113
 525 000e FFF7FEBF 		b	HAL_PWREx_EnterSTOP0Mode
 526              	.LVL22:
 527              		.loc 1 570 5 is_stmt 0 view .LVU114
 528              		.cfi_endproc
 529              	.LFE730:
 531              		.section	.text.HAL_PWR_EnterSTANDBYMode,"ax",%progbits
ARM GAS  /tmp/cckd0Xcu.s 			page 42


 532              		.align	1
 533              		.global	HAL_PWR_EnterSTANDBYMode
 534              		.syntax unified
 535              		.thumb
 536              		.thumb_func
 538              	HAL_PWR_EnterSTANDBYMode:
 539              	.LFB731:
 571:hardware/mcu/st/stm32wlxx_hal_driver/Src/stm32wlxx_hal_pwr.c ****   }
 572:hardware/mcu/st/stm32wlxx_hal_driver/Src/stm32wlxx_hal_pwr.c **** }
 573:hardware/mcu/st/stm32wlxx_hal_driver/Src/stm32wlxx_hal_pwr.c **** 
 574:hardware/mcu/st/stm32wlxx_hal_driver/Src/stm32wlxx_hal_pwr.c **** /**
 575:hardware/mcu/st/stm32wlxx_hal_driver/Src/stm32wlxx_hal_pwr.c ****   * @brief Enter Standby mode.
 576:hardware/mcu/st/stm32wlxx_hal_driver/Src/stm32wlxx_hal_pwr.c ****   * @note  In Standby mode, the PLL, the HSI, the MSI and the HSE oscillators are switched
 577:hardware/mcu/st/stm32wlxx_hal_driver/Src/stm32wlxx_hal_pwr.c ****   *        off. The voltage regulator is disabled, except when SRAM2 content is preserved
 578:hardware/mcu/st/stm32wlxx_hal_driver/Src/stm32wlxx_hal_pwr.c ****   *        in which case the regulator is in low-power mode.
 579:hardware/mcu/st/stm32wlxx_hal_driver/Src/stm32wlxx_hal_pwr.c ****   *        SRAM and register contents are lost except for registers in the Backup domain and
 580:hardware/mcu/st/stm32wlxx_hal_driver/Src/stm32wlxx_hal_pwr.c ****   *        Standby circuitry. SRAM2 content can be preserved if the bit RRS is set in PWR_CR3 regis
 581:hardware/mcu/st/stm32wlxx_hal_driver/Src/stm32wlxx_hal_pwr.c ****   *        To enable this feature, the user can resort to HAL_PWREx_EnableSRAMRetention() API
 582:hardware/mcu/st/stm32wlxx_hal_driver/Src/stm32wlxx_hal_pwr.c ****   *        to set RRS bit.
 583:hardware/mcu/st/stm32wlxx_hal_driver/Src/stm32wlxx_hal_pwr.c ****   *        The BOR is available.
 584:hardware/mcu/st/stm32wlxx_hal_driver/Src/stm32wlxx_hal_pwr.c ****   * @note  The I/Os can be configured either with a pull-up or pull-down or can be kept in analog s
 585:hardware/mcu/st/stm32wlxx_hal_driver/Src/stm32wlxx_hal_pwr.c ****   *        HAL_PWREx_EnableGPIOPullUp() and HAL_PWREx_EnableGPIOPullDown() respectively enable Pull
 586:hardware/mcu/st/stm32wlxx_hal_driver/Src/stm32wlxx_hal_pwr.c ****   *        Pull Down state, HAL_PWREx_DisableGPIOPullUp() and HAL_PWREx_DisableGPIOPullDown() disab
 587:hardware/mcu/st/stm32wlxx_hal_driver/Src/stm32wlxx_hal_pwr.c ****   *        same.
 588:hardware/mcu/st/stm32wlxx_hal_driver/Src/stm32wlxx_hal_pwr.c ****   *        These states are effective in Standby mode only if APC bit is set through
 589:hardware/mcu/st/stm32wlxx_hal_driver/Src/stm32wlxx_hal_pwr.c ****   *        HAL_PWREx_EnablePullUpPullDownConfig() API.
 590:hardware/mcu/st/stm32wlxx_hal_driver/Src/stm32wlxx_hal_pwr.c ****   * @note  According to system power policy, system entering in Standby mode
 591:hardware/mcu/st/stm32wlxx_hal_driver/Src/stm32wlxx_hal_pwr.c ****   *        is depending on other CPU power mode.
 592:hardware/mcu/st/stm32wlxx_hal_driver/Src/stm32wlxx_hal_pwr.c ****   * @retval None
 593:hardware/mcu/st/stm32wlxx_hal_driver/Src/stm32wlxx_hal_pwr.c ****   */
 594:hardware/mcu/st/stm32wlxx_hal_driver/Src/stm32wlxx_hal_pwr.c **** void HAL_PWR_EnterSTANDBYMode(void)
 595:hardware/mcu/st/stm32wlxx_hal_driver/Src/stm32wlxx_hal_pwr.c **** {
 540              		.loc 1 595 1 is_stmt 1 view -0
 541              		.cfi_startproc
 542              		@ args = 0, pretend = 0, frame = 0
 543              		@ frame_needed = 0, uses_anonymous_args = 0
 544              		@ link register save eliminated.
 596:hardware/mcu/st/stm32wlxx_hal_driver/Src/stm32wlxx_hal_pwr.c **** #ifdef CORE_CM0PLUS
 597:hardware/mcu/st/stm32wlxx_hal_driver/Src/stm32wlxx_hal_pwr.c ****   /* Set Stand-by mode */
 598:hardware/mcu/st/stm32wlxx_hal_driver/Src/stm32wlxx_hal_pwr.c ****   MODIFY_REG(PWR->C2CR1, PWR_C2CR1_LPMS, PWR_LOWPOWERMODE_STANDBY);
 599:hardware/mcu/st/stm32wlxx_hal_driver/Src/stm32wlxx_hal_pwr.c **** #else
 600:hardware/mcu/st/stm32wlxx_hal_driver/Src/stm32wlxx_hal_pwr.c ****   /* Set Stand-by mode */
 601:hardware/mcu/st/stm32wlxx_hal_driver/Src/stm32wlxx_hal_pwr.c ****   MODIFY_REG(PWR->CR1, PWR_CR1_LPMS, PWR_LOWPOWERMODE_STANDBY);
 545              		.loc 1 601 3 view .LVU116
 546 0000 064A     		ldr	r2, .L49
 547 0002 1368     		ldr	r3, [r2]
 548 0004 23F00703 		bic	r3, r3, #7
 549 0008 43F00303 		orr	r3, r3, #3
 550 000c 1360     		str	r3, [r2]
 602:hardware/mcu/st/stm32wlxx_hal_driver/Src/stm32wlxx_hal_pwr.c **** #endif
 603:hardware/mcu/st/stm32wlxx_hal_driver/Src/stm32wlxx_hal_pwr.c **** 
 604:hardware/mcu/st/stm32wlxx_hal_driver/Src/stm32wlxx_hal_pwr.c ****   /* Set SLEEPDEEP bit of Cortex System Control Register */
 605:hardware/mcu/st/stm32wlxx_hal_driver/Src/stm32wlxx_hal_pwr.c ****   SET_BIT(SCB->SCR, ((uint32_t)SCB_SCR_SLEEPDEEP_Msk));
 551              		.loc 1 605 3 view .LVU117
 552 000e 044A     		ldr	r2, .L49+4
 553 0010 1369     		ldr	r3, [r2, #16]
 554 0012 43F00403 		orr	r3, r3, #4
ARM GAS  /tmp/cckd0Xcu.s 			page 43


 555 0016 1361     		str	r3, [r2, #16]
 606:hardware/mcu/st/stm32wlxx_hal_driver/Src/stm32wlxx_hal_pwr.c **** 
 607:hardware/mcu/st/stm32wlxx_hal_driver/Src/stm32wlxx_hal_pwr.c ****   /* This option is used to ensure that store operations are completed */
 608:hardware/mcu/st/stm32wlxx_hal_driver/Src/stm32wlxx_hal_pwr.c **** #if defined ( __CC_ARM)
 609:hardware/mcu/st/stm32wlxx_hal_driver/Src/stm32wlxx_hal_pwr.c ****   __force_stores();
 610:hardware/mcu/st/stm32wlxx_hal_driver/Src/stm32wlxx_hal_pwr.c **** #endif
 611:hardware/mcu/st/stm32wlxx_hal_driver/Src/stm32wlxx_hal_pwr.c **** 
 612:hardware/mcu/st/stm32wlxx_hal_driver/Src/stm32wlxx_hal_pwr.c ****   /* Request Wait For Interrupt */
 613:hardware/mcu/st/stm32wlxx_hal_driver/Src/stm32wlxx_hal_pwr.c ****   __WFI();
 556              		.loc 1 613 3 view .LVU118
 557              		.syntax unified
 558              	@ 613 "hardware/mcu/st/stm32wlxx_hal_driver/Src/stm32wlxx_hal_pwr.c" 1
 559 0018 30BF     		wfi
 560              	@ 0 "" 2
 614:hardware/mcu/st/stm32wlxx_hal_driver/Src/stm32wlxx_hal_pwr.c **** 
 615:hardware/mcu/st/stm32wlxx_hal_driver/Src/stm32wlxx_hal_pwr.c ****   /* Note: After this request to enter in Standby mode, at wake-up, program
 616:hardware/mcu/st/stm32wlxx_hal_driver/Src/stm32wlxx_hal_pwr.c ****            execution depends on system low-power mode:
 617:hardware/mcu/st/stm32wlxx_hal_driver/Src/stm32wlxx_hal_pwr.c ****            - If system was in Standby mode (other CPU in Standby or Shutdown),
 618:hardware/mcu/st/stm32wlxx_hal_driver/Src/stm32wlxx_hal_pwr.c ****              then at wake-up program restarts at reset state
 619:hardware/mcu/st/stm32wlxx_hal_driver/Src/stm32wlxx_hal_pwr.c ****            - If system was in Run or Stop mode (other CPU in Run, Sleep, Stop),
 620:hardware/mcu/st/stm32wlxx_hal_driver/Src/stm32wlxx_hal_pwr.c ****              then at wake-up program continues from this point
 621:hardware/mcu/st/stm32wlxx_hal_driver/Src/stm32wlxx_hal_pwr.c ****   */
 622:hardware/mcu/st/stm32wlxx_hal_driver/Src/stm32wlxx_hal_pwr.c **** }
 561              		.loc 1 622 1 is_stmt 0 view .LVU119
 562              		.thumb
 563              		.syntax unified
 564 001a 7047     		bx	lr
 565              	.L50:
 566              		.align	2
 567              	.L49:
 568 001c 00040058 		.word	1476396032
 569 0020 00ED00E0 		.word	-536810240
 570              		.cfi_endproc
 571              	.LFE731:
 573              		.section	.text.HAL_PWR_EnableSleepOnExit,"ax",%progbits
 574              		.align	1
 575              		.global	HAL_PWR_EnableSleepOnExit
 576              		.syntax unified
 577              		.thumb
 578              		.thumb_func
 580              	HAL_PWR_EnableSleepOnExit:
 581              	.LFB732:
 623:hardware/mcu/st/stm32wlxx_hal_driver/Src/stm32wlxx_hal_pwr.c **** 
 624:hardware/mcu/st/stm32wlxx_hal_driver/Src/stm32wlxx_hal_pwr.c **** /**
 625:hardware/mcu/st/stm32wlxx_hal_driver/Src/stm32wlxx_hal_pwr.c ****   * @brief  Indicate Sleep-On-Exit when returning from Handler mode to Thread mode.
 626:hardware/mcu/st/stm32wlxx_hal_driver/Src/stm32wlxx_hal_pwr.c ****   * @note   Set SLEEPONEXIT bit of SCR register. When this bit is set, the processor
 627:hardware/mcu/st/stm32wlxx_hal_driver/Src/stm32wlxx_hal_pwr.c ****   *         re-enters SLEEP mode when an interruption handling is over.
 628:hardware/mcu/st/stm32wlxx_hal_driver/Src/stm32wlxx_hal_pwr.c ****   *         Setting this bit is useful when the processor is expected to run only on
 629:hardware/mcu/st/stm32wlxx_hal_driver/Src/stm32wlxx_hal_pwr.c ****   *         interruptions handling.
 630:hardware/mcu/st/stm32wlxx_hal_driver/Src/stm32wlxx_hal_pwr.c ****   * @retval None
 631:hardware/mcu/st/stm32wlxx_hal_driver/Src/stm32wlxx_hal_pwr.c ****   */
 632:hardware/mcu/st/stm32wlxx_hal_driver/Src/stm32wlxx_hal_pwr.c **** void HAL_PWR_EnableSleepOnExit(void)
 633:hardware/mcu/st/stm32wlxx_hal_driver/Src/stm32wlxx_hal_pwr.c **** {
 582              		.loc 1 633 1 is_stmt 1 view -0
 583              		.cfi_startproc
 584              		@ args = 0, pretend = 0, frame = 0
 585              		@ frame_needed = 0, uses_anonymous_args = 0
ARM GAS  /tmp/cckd0Xcu.s 			page 44


 586              		@ link register save eliminated.
 634:hardware/mcu/st/stm32wlxx_hal_driver/Src/stm32wlxx_hal_pwr.c ****   /* Set SLEEPONEXIT bit of Cortex System Control Register */
 635:hardware/mcu/st/stm32wlxx_hal_driver/Src/stm32wlxx_hal_pwr.c ****   SET_BIT(SCB->SCR, ((uint32_t)SCB_SCR_SLEEPONEXIT_Msk));
 587              		.loc 1 635 3 view .LVU121
 588 0000 024A     		ldr	r2, .L52
 589 0002 1369     		ldr	r3, [r2, #16]
 590 0004 43F00203 		orr	r3, r3, #2
 591 0008 1361     		str	r3, [r2, #16]
 636:hardware/mcu/st/stm32wlxx_hal_driver/Src/stm32wlxx_hal_pwr.c **** }
 592              		.loc 1 636 1 is_stmt 0 view .LVU122
 593 000a 7047     		bx	lr
 594              	.L53:
 595              		.align	2
 596              	.L52:
 597 000c 00ED00E0 		.word	-536810240
 598              		.cfi_endproc
 599              	.LFE732:
 601              		.section	.text.HAL_PWR_DisableSleepOnExit,"ax",%progbits
 602              		.align	1
 603              		.global	HAL_PWR_DisableSleepOnExit
 604              		.syntax unified
 605              		.thumb
 606              		.thumb_func
 608              	HAL_PWR_DisableSleepOnExit:
 609              	.LFB733:
 637:hardware/mcu/st/stm32wlxx_hal_driver/Src/stm32wlxx_hal_pwr.c **** 
 638:hardware/mcu/st/stm32wlxx_hal_driver/Src/stm32wlxx_hal_pwr.c **** /**
 639:hardware/mcu/st/stm32wlxx_hal_driver/Src/stm32wlxx_hal_pwr.c ****   * @brief  Disable Sleep-On-Exit feature when returning from Handler mode to Thread mode.
 640:hardware/mcu/st/stm32wlxx_hal_driver/Src/stm32wlxx_hal_pwr.c ****   * @note   Clear SLEEPONEXIT bit of SCR register. When this bit is set, the processor
 641:hardware/mcu/st/stm32wlxx_hal_driver/Src/stm32wlxx_hal_pwr.c ****   *         re-enters SLEEP mode when an interruption handling is over.
 642:hardware/mcu/st/stm32wlxx_hal_driver/Src/stm32wlxx_hal_pwr.c ****   * @retval None
 643:hardware/mcu/st/stm32wlxx_hal_driver/Src/stm32wlxx_hal_pwr.c ****   */
 644:hardware/mcu/st/stm32wlxx_hal_driver/Src/stm32wlxx_hal_pwr.c **** void HAL_PWR_DisableSleepOnExit(void)
 645:hardware/mcu/st/stm32wlxx_hal_driver/Src/stm32wlxx_hal_pwr.c **** {
 610              		.loc 1 645 1 is_stmt 1 view -0
 611              		.cfi_startproc
 612              		@ args = 0, pretend = 0, frame = 0
 613              		@ frame_needed = 0, uses_anonymous_args = 0
 614              		@ link register save eliminated.
 646:hardware/mcu/st/stm32wlxx_hal_driver/Src/stm32wlxx_hal_pwr.c ****   /* Clear SLEEPONEXIT bit of Cortex System Control Register */
 647:hardware/mcu/st/stm32wlxx_hal_driver/Src/stm32wlxx_hal_pwr.c ****   CLEAR_BIT(SCB->SCR, ((uint32_t)SCB_SCR_SLEEPONEXIT_Msk));
 615              		.loc 1 647 3 view .LVU124
 616 0000 024A     		ldr	r2, .L55
 617 0002 1369     		ldr	r3, [r2, #16]
 618 0004 23F00203 		bic	r3, r3, #2
 619 0008 1361     		str	r3, [r2, #16]
 648:hardware/mcu/st/stm32wlxx_hal_driver/Src/stm32wlxx_hal_pwr.c **** }
 620              		.loc 1 648 1 is_stmt 0 view .LVU125
 621 000a 7047     		bx	lr
 622              	.L56:
 623              		.align	2
 624              	.L55:
 625 000c 00ED00E0 		.word	-536810240
 626              		.cfi_endproc
 627              	.LFE733:
 629              		.section	.text.HAL_PWR_EnableSEVOnPend,"ax",%progbits
 630              		.align	1
ARM GAS  /tmp/cckd0Xcu.s 			page 45


 631              		.global	HAL_PWR_EnableSEVOnPend
 632              		.syntax unified
 633              		.thumb
 634              		.thumb_func
 636              	HAL_PWR_EnableSEVOnPend:
 637              	.LFB734:
 649:hardware/mcu/st/stm32wlxx_hal_driver/Src/stm32wlxx_hal_pwr.c **** 
 650:hardware/mcu/st/stm32wlxx_hal_driver/Src/stm32wlxx_hal_pwr.c **** /**
 651:hardware/mcu/st/stm32wlxx_hal_driver/Src/stm32wlxx_hal_pwr.c ****   * @brief Enable CPU SEVONPEND bit.
 652:hardware/mcu/st/stm32wlxx_hal_driver/Src/stm32wlxx_hal_pwr.c ****   * @note Set SEVONPEND bit of SCR register. When this bit is set, this causes
 653:hardware/mcu/st/stm32wlxx_hal_driver/Src/stm32wlxx_hal_pwr.c ****   *       WFE to wake up when an interrupt moves from inactive to pended.
 654:hardware/mcu/st/stm32wlxx_hal_driver/Src/stm32wlxx_hal_pwr.c ****   * @retval None
 655:hardware/mcu/st/stm32wlxx_hal_driver/Src/stm32wlxx_hal_pwr.c ****   */
 656:hardware/mcu/st/stm32wlxx_hal_driver/Src/stm32wlxx_hal_pwr.c **** void HAL_PWR_EnableSEVOnPend(void)
 657:hardware/mcu/st/stm32wlxx_hal_driver/Src/stm32wlxx_hal_pwr.c **** {
 638              		.loc 1 657 1 is_stmt 1 view -0
 639              		.cfi_startproc
 640              		@ args = 0, pretend = 0, frame = 0
 641              		@ frame_needed = 0, uses_anonymous_args = 0
 642              		@ link register save eliminated.
 658:hardware/mcu/st/stm32wlxx_hal_driver/Src/stm32wlxx_hal_pwr.c ****   /* Set SEVONPEND bit of Cortex System Control Register */
 659:hardware/mcu/st/stm32wlxx_hal_driver/Src/stm32wlxx_hal_pwr.c ****   SET_BIT(SCB->SCR, ((uint32_t)SCB_SCR_SEVONPEND_Msk));
 643              		.loc 1 659 3 view .LVU127
 644 0000 024A     		ldr	r2, .L58
 645 0002 1369     		ldr	r3, [r2, #16]
 646 0004 43F01003 		orr	r3, r3, #16
 647 0008 1361     		str	r3, [r2, #16]
 660:hardware/mcu/st/stm32wlxx_hal_driver/Src/stm32wlxx_hal_pwr.c **** }
 648              		.loc 1 660 1 is_stmt 0 view .LVU128
 649 000a 7047     		bx	lr
 650              	.L59:
 651              		.align	2
 652              	.L58:
 653 000c 00ED00E0 		.word	-536810240
 654              		.cfi_endproc
 655              	.LFE734:
 657              		.section	.text.HAL_PWR_DisableSEVOnPend,"ax",%progbits
 658              		.align	1
 659              		.global	HAL_PWR_DisableSEVOnPend
 660              		.syntax unified
 661              		.thumb
 662              		.thumb_func
 664              	HAL_PWR_DisableSEVOnPend:
 665              	.LFB735:
 661:hardware/mcu/st/stm32wlxx_hal_driver/Src/stm32wlxx_hal_pwr.c **** 
 662:hardware/mcu/st/stm32wlxx_hal_driver/Src/stm32wlxx_hal_pwr.c **** /**
 663:hardware/mcu/st/stm32wlxx_hal_driver/Src/stm32wlxx_hal_pwr.c ****   * @brief Disable CPU SEVONPEND bit.
 664:hardware/mcu/st/stm32wlxx_hal_driver/Src/stm32wlxx_hal_pwr.c ****   * @note Clear SEVONPEND bit of SCR register. When this bit is set, this causes
 665:hardware/mcu/st/stm32wlxx_hal_driver/Src/stm32wlxx_hal_pwr.c ****   *       WFE to wake up when an interrupt moves from inactive to pended.
 666:hardware/mcu/st/stm32wlxx_hal_driver/Src/stm32wlxx_hal_pwr.c ****   * @retval None
 667:hardware/mcu/st/stm32wlxx_hal_driver/Src/stm32wlxx_hal_pwr.c ****   */
 668:hardware/mcu/st/stm32wlxx_hal_driver/Src/stm32wlxx_hal_pwr.c **** void HAL_PWR_DisableSEVOnPend(void)
 669:hardware/mcu/st/stm32wlxx_hal_driver/Src/stm32wlxx_hal_pwr.c **** {
 666              		.loc 1 669 1 is_stmt 1 view -0
 667              		.cfi_startproc
 668              		@ args = 0, pretend = 0, frame = 0
 669              		@ frame_needed = 0, uses_anonymous_args = 0
ARM GAS  /tmp/cckd0Xcu.s 			page 46


 670              		@ link register save eliminated.
 670:hardware/mcu/st/stm32wlxx_hal_driver/Src/stm32wlxx_hal_pwr.c ****   /* Clear SEVONPEND bit of Cortex System Control Register */
 671:hardware/mcu/st/stm32wlxx_hal_driver/Src/stm32wlxx_hal_pwr.c ****   CLEAR_BIT(SCB->SCR, ((uint32_t)SCB_SCR_SEVONPEND_Msk));
 671              		.loc 1 671 3 view .LVU130
 672 0000 024A     		ldr	r2, .L61
 673 0002 1369     		ldr	r3, [r2, #16]
 674 0004 23F01003 		bic	r3, r3, #16
 675 0008 1361     		str	r3, [r2, #16]
 672:hardware/mcu/st/stm32wlxx_hal_driver/Src/stm32wlxx_hal_pwr.c **** }
 676              		.loc 1 672 1 is_stmt 0 view .LVU131
 677 000a 7047     		bx	lr
 678              	.L62:
 679              		.align	2
 680              	.L61:
 681 000c 00ED00E0 		.word	-536810240
 682              		.cfi_endproc
 683              	.LFE735:
 685              		.section	.text.HAL_PWR_PVDCallback,"ax",%progbits
 686              		.align	1
 687              		.weak	HAL_PWR_PVDCallback
 688              		.syntax unified
 689              		.thumb
 690              		.thumb_func
 692              	HAL_PWR_PVDCallback:
 693              	.LFB736:
 673:hardware/mcu/st/stm32wlxx_hal_driver/Src/stm32wlxx_hal_pwr.c **** 
 674:hardware/mcu/st/stm32wlxx_hal_driver/Src/stm32wlxx_hal_pwr.c **** /**
 675:hardware/mcu/st/stm32wlxx_hal_driver/Src/stm32wlxx_hal_pwr.c ****   * @brief  PWR PVD interrupt callback
 676:hardware/mcu/st/stm32wlxx_hal_driver/Src/stm32wlxx_hal_pwr.c ****   * @retval None
 677:hardware/mcu/st/stm32wlxx_hal_driver/Src/stm32wlxx_hal_pwr.c ****   */
 678:hardware/mcu/st/stm32wlxx_hal_driver/Src/stm32wlxx_hal_pwr.c **** __weak void HAL_PWR_PVDCallback(void)
 679:hardware/mcu/st/stm32wlxx_hal_driver/Src/stm32wlxx_hal_pwr.c **** {
 694              		.loc 1 679 1 is_stmt 1 view -0
 695              		.cfi_startproc
 696              		@ args = 0, pretend = 0, frame = 0
 697              		@ frame_needed = 0, uses_anonymous_args = 0
 698              		@ link register save eliminated.
 680:hardware/mcu/st/stm32wlxx_hal_driver/Src/stm32wlxx_hal_pwr.c ****   /* NOTE : This function should not be modified; when the callback is needed,
 681:hardware/mcu/st/stm32wlxx_hal_driver/Src/stm32wlxx_hal_pwr.c ****             the HAL_PWR_PVDCallback can be implemented in the user file
 682:hardware/mcu/st/stm32wlxx_hal_driver/Src/stm32wlxx_hal_pwr.c ****   */
 683:hardware/mcu/st/stm32wlxx_hal_driver/Src/stm32wlxx_hal_pwr.c **** }
 699              		.loc 1 683 1 view .LVU133
 700 0000 7047     		bx	lr
 701              		.cfi_endproc
 702              	.LFE736:
 704              		.text
 705              	.Letext0:
 706              		.file 3 "/opt/gcc-arm-none-eabi-10.3-2021.10/arm-none-eabi/include/machine/_default_types.h"
 707              		.file 4 "/opt/gcc-arm-none-eabi-10.3-2021.10/arm-none-eabi/include/sys/_stdint.h"
 708              		.file 5 "hardware/mcu/st/CMSIS_5/CMSIS/Core/Include/core_cm4.h"
 709              		.file 6 "hardware/mcu/st/cmsis_device_wl/Include/stm32wle5xx.h"
 710              		.file 7 "hardware/mcu/st/stm32wlxx_hal_driver/Inc/stm32wlxx_hal_def.h"
 711              		.file 8 "hardware/mcu/st/stm32wlxx_hal_driver/Inc/stm32wlxx_hal_pwr.h"
 712              		.file 9 "hardware/mcu/st/stm32wlxx_hal_driver/Inc/stm32wlxx_hal_pwr_ex.h"
 713              		.file 10 "hardware/mcu/st/stm32wlxx_hal_driver/Inc/stm32wlxx_ll_dma.h"
ARM GAS  /tmp/cckd0Xcu.s 			page 47

